	.file	"alarm.c"
	.text	
.Ltext0:
	.cfi_sections	.debug_frame
	.section .text$alarm_reset
	.type	.text$alarm_reset$scode_local_1, @function
	.text$alarm_reset$scode_local_1:
	.align	1
	.export	alarm_reset
	.type	alarm_reset, @function
alarm_reset:
.LFB1:
.LM1:
	.cfi_startproc
.LM2:
	MOV	r4,#0
	LD	r5,#error_state
	ST.h	[r5],r4
.LM3:
	JMP	lr
	.cfi_endproc
.LFE1:
	.size	alarm_reset, .-alarm_reset
	.section .text$alarm_process
	.type	.text$alarm_process$scode_local_2, @function
	.text$alarm_process$scode_local_2:
	.align	1
	.export	alarm_process
	.type	alarm_process, @function
alarm_process:
.LFB2:
.LM4:
	.cfi_startproc
.LM5:
	LD	r5,#sys_control
	LD.b	r5,[r5]
.LM6:
	LD	r5,#error_state
	LD.h	r5,[r5]
	ZXT.h	r5,r5
	CMP	r5,#0
	JNZ	.L6
.LM7:
	LD	r5,#1342177344
	LD.w	r4,[r5+#1]
	SET	r4,#14
	ST.w	[r5+#1],r4
.LM8:
	JMP	lr
.L6:
.LM9:
	LD	r5,#1342177344
	LD.w	r4,[r5+#1]
	CLR	r4,#14
	ST.w	[r5+#1],r4
.LM10:
	JMP	lr
	.cfi_endproc
.LFE2:
	.size	alarm_process, .-alarm_process
	.section .text$over_current_check
	.type	.text$over_current_check$scode_local_3, @function
	.text$over_current_check$scode_local_3:
	.align	1
	.export	over_current_check
	.type	over_current_check, @function
over_current_check:
.LFB3:
.LM11:
	.cfi_startproc
	PUSH	lr
	.cfi_def_cfa_offset 4
.LM12:
	LD	r4,#adc_data
	LD.h	r2,[r4+#6]
	LD	r5,#error_param
	LD.h	r3,[r5+#1]
	SXT.h	r2,r2
	SXT.h	r3,r3
	CMP	r2,r3
	JLT	.L8
.LM13:
	LD.h	r2,[r4+#6]
	LD.h	r3,[r5]
	SXT.h	r2,r2
	SXT.h	r3,r3
	CMP	r2,r3
	JLE	.L11
.L8:
.LM14:
	LD.h	r4,[r5+#3]
	ADD	r4,r4,#1
	ZXT.h	r4,r4
	ST.h	[r5+#3],r4
.LM15:
	LD.h	r5,[r5+#3]
	ZXT.h	r5,r5
	CMP	r5,#10
	JHI	.L12
.L7:
.LM16:
	POP	lr
	.cfi_remember_state
	.cfi_def_cfa_offset 0
	JMP	lr
.L11:
	.cfi_restore_state
.LM17:
	LD.h	r2,[r4+#7]
	LD.h	r3,[r5+#1]
	SXT.h	r2,r2
	SXT.h	r3,r3
	CMP	r2,r3
	JLT	.L8
	LD.h	r3,[r4+#7]
	LD.h	r4,[r5]
	SXT.h	r3,r3
	SXT.h	r4,r4
	CMP	r3,r4
	JGT	.L8
.LM18:
	MOV	r4,#0
	ST.h	[r5+#3],r4
	JMP	.L7
.L12:
.LM19:
	LD	r5,#pwm_disable
	LJMP	r5
.LVL0:
.LM20:
	LD	r5,#error_state
	LD.h	r4,[r5]
	SET	r4,#0
	ST.h	[r5],r4
.LM21:
	MOV	r4,#0
	LD	r5,#error_param
	ST.h	[r5+#3],r4
.LM22:
	POP	lr
	.cfi_def_cfa_offset 0
	JMP	lr
	.cfi_endproc
.LFE3:
	.size	over_current_check, .-over_current_check
	.section .text$over_voltage_check
	.type	.text$over_voltage_check$scode_local_4, @function
	.text$over_voltage_check$scode_local_4:
	.align	1
	.export	over_voltage_check
	.type	over_voltage_check, @function
over_voltage_check:
.LFB4:
.LM23:
	.cfi_startproc
.LM24:
	LD	r5,#adc_data
	LD.h	r3,[r5+#13]
	LD	r5,#error_param
	LD.h	r4,[r5+#2]
	SXT.h	r3,r3
	SXT.h	r4,r4
	CMP	r3,r4
	JLE	.L14
.LM25:
	LD.h	r4,[r5+#4]
	ADD	r4,r4,#1
	ZXT.h	r4,r4
	ST.h	[r5+#4],r4
.LM26:
	LD.h	r4,[r5+#4]
	ZXT.h	r4,r4
	CMP	r4,#2
	JLS	.L13
.LM27:
	LD	r4,#error_state
	LD.h	r3,[r4]
	SET	r3,#1
	ST.h	[r4],r3
.LM28:
	MOV	r4,#0
	ST.h	[r5+#4],r4
.L13:
.LM29:
	JMP	lr
.L14:
.LM30:
	MOV	r4,#0
	ST.h	[r5+#4],r4
.LM31:
	JMP	lr
	.cfi_endproc
.LFE4:
	.size	over_voltage_check, .-over_voltage_check
	.section .text$current_offset_check
	.type	.text$current_offset_check$scode_local_5, @function
	.text$current_offset_check$scode_local_5:
	.align	1
	.export	current_offset_check
	.type	current_offset_check, @function
current_offset_check:
.LFB5:
.LM32:
	.cfi_startproc
	PUSH	{r6, r7, r8, r9, lr}
	.cfi_def_cfa_offset 20
.LM33:
	LD	r4,#adc_data
	MOV	r9,r4
	LD.w	r0,[r4]
	MOV	r8,#1
	LSL	r8,#11
	MOV	r5,r8
	SUB	r0,r5,r0
	SXT.h	r0,r0
	LD	r7,#Q15abs
	LJMP	r7
.LVL1:
	MOV	r6,#204
	CMP	r0,r6
	JLS	.L17
.L19:
.LM34:
	LD	r5,#error_state
	LD.h	r4,[r5]
	SET	r4,#8
	ST.h	[r5],r4
.LM35:
	POP	{r6, r7, r8, r9}
	.cfi_remember_state
	.cfi_def_cfa_offset 4
	POP	lr
	.cfi_def_cfa_offset 0
	JMP	lr
.L17:
	.cfi_restore_state
.LM36:
	MOV	r4,r9
	LD.w	r5,[r4+#1]
	MOV	r4,r8
	SUB	r0,r4,r5
	SXT.h	r0,r0
	LJMP	r7
.LVL2:
	CMP	r0,r6
	JHI	.L19
.LM37:
	POP	{r6, r7, r8, r9}
	.cfi_def_cfa_offset 4
	POP	lr
	.cfi_def_cfa_offset 0
	JMP	lr
	.cfi_endproc
.LFE5:
	.size	current_offset_check, .-current_offset_check
	.section .text$start_error_check
	.type	.text$start_error_check$scode_local_6, @function
	.text$start_error_check$scode_local_6:
	.align	1
	.export	start_error_check
	.type	start_error_check, @function
start_error_check:
.LFB6:
.LM38:
	.cfi_startproc
	PUSH	{r6, lr}
	.cfi_def_cfa_offset 8
.LM39:
	LD	r5,#control_param
	LD.h	r4,[r5+#8]
	ZXT.h	r4,r4
	CMP	r4,#0
	JZ	.L21
.LM40:
	LD.h	r4,[r5+#8]
	SXT.h	r4,r4
	CMP	r4,#1
	JZ	.L21
.LM41:
	LD.h	r5,[r5+#8]
	SXT.h	r5,r5
	CMP	r5,#2
	JZ	.L30
.L20:
.LM42:
	POP	r6
	.cfi_remember_state
	.cfi_def_cfa_offset 4
	POP	lr
	.cfi_def_cfa_offset 0
	JMP	lr
.L21:
	.cfi_restore_state
.LM43:
	LD	r4,#error_param
	MOV	r3,#0
	ST.h	[r4+#11],r3
.LM44:
	ST.h	[r4+#12],r3
.LM45:
	LD.h	r5,[r5+#8]
	SXT.h	r5,r5
	CMP	r5,#2
	JNZ	.L20
.L30:
.LM46:
	LD	r6,#error_param
	LD.h	r4,[r6+#12]
	ZXT.h	r4,r4
	LD	r5,#999
	CMP	r4,r5
	JHI	.L20
.LM47:
	LD.h	r5,[r6+#12]
	ADD	r5,r5,#1
	ZXT.h	r5,r5
	ST.h	[r6+#12],r5
.LM48:
	LD	r5,#smc1
	LD.h	r5,[r5+#23]
	ZXT.h	r5,r5
	ST.h	[r6+#14],r5
.LM49:
	LD.h	r0,[r6+#14]
	LD.h	r5,[r6+#15]
	SUB	r0,r0,r5
	SXT.h	r0,r0
	LD	r5,#Q15abs
	LJMP	r5
.LVL3:
	ST.h	[r6+#16],r0
.LM50:
	LD.h	r4,[r6+#16]
	ZXT.h	r4,r4
	LD.h	r5,[r6+#17]
	ZXT.h	r5,r5
	CMP	r4,r5
	JLS	.L26
.LM51:
	LD.h	r5,[r6+#11]
	ADD	r5,r5,#1
	ZXT.h	r5,r5
	ST.h	[r6+#11],r5
.L26:
.LM52:
	LD	r5,#error_param
	LD.h	r4,[r6+#14]
	ZXT.h	r4,r4
	ST.h	[r6+#15],r4
.LM53:
	LD.h	r4,[r6+#11]
	ZXT.h	r4,r4
	CMP	r4,#100
	JLS	.L20
.LM54:
	LD	r4,#error_state
	LD.h	r3,[r4]
	SET	r3,#7
	ST.h	[r4],r3
.LM55:
	MOV	r4,#0
	ST.h	[r5+#11],r4
.LM56:
	ST.h	[r5+#12],r4
	JMP	.L20
	.cfi_endproc
.LFE6:
	.size	start_error_check, .-start_error_check
	.section .text$stall_error_check
	.type	.text$stall_error_check$scode_local_7, @function
	.text$stall_error_check$scode_local_7:
	.align	1
	.export	stall_error_check
	.type	stall_error_check, @function
stall_error_check:
.LFB7:
.LM57:
	.cfi_startproc
.LM58:
	JMP	lr
	.cfi_endproc
.LFE7:
	.size	stall_error_check, .-stall_error_check
	.section .text$phase_lost_check
	.type	.text$phase_lost_check$scode_local_8, @function
	.text$phase_lost_check$scode_local_8:
	.align	1
	.export	phase_lost_check
	.type	phase_lost_check, @function
phase_lost_check:
.LFB8:
.LM59:
	.cfi_startproc
	PUSH	{r6, r7, r8, r9, lr}
	.cfi_def_cfa_offset 20
.LM60:
	LD	r5,#control_param
	LD.h	r5,[r5+#8]
	ZXT.h	r5,r5
	CMP	r5,#0
	JZ	.L32
.LM61:
	LD	r6,#error_param
	LD.h	r5,[r6+#13]
	ADD	r5,r5,#1
	ZXT.h	r5,r5
	ST.h	[r6+#13],r5
.LM62:
	LD.h	r4,[r6+#13]
	ZXT.h	r4,r4
	LD	r5,#999
	CMP	r4,r5
	JLS	.L41
.LM63:
	MOV	r5,#0
	ST.h	[r6+#13],r5
.LM64:
	LD.w	r3,[r6+#10]
	LD.w	r5,[r6+#11]
	LD.w	r4,[r6+#12]
	ADD	r5,r3,r5
	ADD	r5,r5,r4
	ASR	r5,#3
	ST.w	[r6+#13],r5
.LM65:
	LD.w	r4,[r6+#10]
	LD.w	r5,[r6+#13]
	CMP	r4,r5
	JGE	.L35
.LM66:
	LD	r5,#error_state
	LD.h	r4,[r5]
	SET	r4,#3
	ST.h	[r5],r4
.L35:
.LM67:
	LD.w	r4,[r6+#11]
	LD.w	r5,[r6+#13]
	CMP	r4,r5
	JGE	.L36
.LM68:
	LD	r5,#error_state
	LD.h	r4,[r5]
	SET	r4,#4
	ST.h	[r5],r4
.L36:
.LM69:
	LD.w	r4,[r6+#12]
	LD.w	r5,[r6+#13]
	CMP	r4,r5
	JGE	.L37
.LM70:
	LD	r5,#error_state
	LD.h	r4,[r5]
	SET	r4,#5
	ST.h	[r5],r4
.L37:
.LM71:
	MOV	r5,#0
	ST.w	[r6+#10],r5
.LM72:
	ST.w	[r6+#11],r5
.LM73:
	ST.w	[r6+#12],r5
.L32:
.LM74:
	POP	{r6, r7, r8, r9}
	.cfi_remember_state
	.cfi_def_cfa_offset 4
	POP	lr
	.cfi_def_cfa_offset 0
	JMP	lr
.L41:
	.cfi_restore_state
.LM75:
	LD.w	r5,[r6+#10]
	MOV	r9,r5
	LD	r7,#adc_data
	LD.h	r0,[r7+#6]
	LD.w	r5,[r7]
	SUB	r0,r0,r5
	SXT.h	r0,r0
	LD	r5,#Q15abs
	MOV	r8,r5
	LJMP	r5
.LVL4:
	ADD	r0,r9
	ST.w	[r6+#10],r0
.LM76:
	LD.w	r5,[r6+#11]
	MOV	r9,r5
	LD.h	r0,[r7+#7]
	LD.w	r5,[r7+#1]
	SUB	r0,r0,r5
	SXT.h	r0,r0
	LJMP	r8
.LVL5:
	ADD	r0,r9
	ST.w	[r6+#11],r0
.LM77:
	LD.w	r5,[r6+#12]
	MOV	r9,r5
	LD.w	r3,[r7]
	LD.w	r0,[r7+#1]
	LD.h	r4,[r7+#6]
	ZXT.h	r4,r4
	LD.h	r5,[r7+#7]
	ADD	r0,r0,r3
	SUB	r0,r0,r4
	SUB	r0,r0,r5
	SXT.h	r0,r0
	LJMP	r8
.LVL6:
	ADD	r0,r9
	ST.w	[r6+#12],r0
.LM78:
	POP	{r6, r7, r8, r9}
	.cfi_def_cfa_offset 4
	POP	lr
	.cfi_def_cfa_offset 0
	JMP	lr
	.cfi_endproc
.LFE8:
	.size	phase_lost_check, .-phase_lost_check
	.export	error_param
	.section .bss$comm$error_param
	.type	.bss$comm$error_param$scode_local_9, @function
	.bss$comm$error_param$scode_local_9:
	.align	2
	.type	error_param, @object
	.size	error_param, 56
error_param:
	.fill 56, 1
	.export	error_state
	.section .bss$data.init$error_state
	.type	.bss$data.init$error_state$scode_local_10, @function
	.bss$data.init$error_state$scode_local_10:
	.align	1
	.type	error_state, @object
	.size	error_state, 2
error_state:
	.fill 2, 1
	.text	
.Letext0: