	.file	"commu.c"
	.text	
.Ltext0:
	.cfi_sections	.debug_frame
	.section .text$sendSerialFcn
	.type	.text$sendSerialFcn$scode_local_1, @function
	.text$sendSerialFcn$scode_local_1:
	.align	1
	.type	sendSerialFcn, @function
sendSerialFcn:
.LFB1:
.LM1:
	.cfi_startproc
.LVL0:
	ZXT.b	r0,r0
.LM2:
	LD	r5,#1073744256
	ST.w	[r5+#3],r0
.LM3:
	JMP	lr
	.cfi_endproc
.LFE1:
	.size	sendSerialFcn, .-sendSerialFcn
	.section .text$receiveSerialFcn
	.type	.text$receiveSerialFcn$scode_local_2, @function
	.text$receiveSerialFcn$scode_local_2:
	.align	1
	.type	receiveSerialFcn, @function
receiveSerialFcn:
.LFB2:
.LM4:
	.cfi_startproc
.LM5:
	LD	r5,#1073744256
	LD.w	r0,[r5+#3]
.LM6:
	ZXT.b	r0,r0
	JMP	lr
	.cfi_endproc
.LFE2:
	.size	receiveSerialFcn, .-receiveSerialFcn
	.section .text$isReceiveDataAvailableFcn
	.type	.text$isReceiveDataAvailableFcn$scode_local_3, @function
	.text$isReceiveDataAvailableFcn$scode_local_3:
	.align	1
	.type	isReceiveDataAvailableFcn, @function
isReceiveDataAvailableFcn:
.LFB3:
.LM7:
	.cfi_startproc
.LM8:
	LD	r5,#1073744256
	LD.w	r0,[r5+#2]
	LSR	r0,#11
.LM9:
	MOV	r5,#1
	ANL	r0,r0,r5
	JMP	lr
	.cfi_endproc
.LFE3:
	.size	isReceiveDataAvailableFcn, .-isReceiveDataAvailableFcn
	.section .text$isSendReadyFcn
	.type	.text$isSendReadyFcn$scode_local_4, @function
	.text$isSendReadyFcn$scode_local_4:
	.align	1
	.type	isSendReadyFcn, @function
isSendReadyFcn:
.LFB4:
.LM10:
	.cfi_startproc
.LM11:
	LD	r5,#1073744256
	LD.w	r0,[r5+#2]
	LSR	r0,#13
.LM12:
	MOV	r5,#1
	ANL	r0,r0,r5
	JMP	lr
	.cfi_endproc
.LFE4:
	.size	isSendReadyFcn, .-isSendReadyFcn
	.section .text$commu_init
	.type	.text$commu_init$scode_local_5, @function
	.text$commu_init$scode_local_5:
	.align	1
	.export	commu_init
	.type	commu_init, @function
commu_init:
.LFB5:
.LM13:
	.cfi_startproc
	PUSH	lr
	.cfi_def_cfa_offset 4
.LM14:
	LD	r0,#sendSerialFcn
	LD	r1,#receiveSerialFcn
	LD	r2,#isReceiveDataAvailableFcn
	LD	r3,#isSendReadyFcn
	LD	r5,#X2CScope_HookUARTFunctions
	LJMP	r5
.LVL1:
.LM15:
	LD	r5,#X2CScope_Initialise
	LJMP	r5
.LVL2:
.LM16:
	POP	lr
	.cfi_def_cfa_offset 0
	JMP	lr
	.cfi_endproc
.LFE5:
	.size	commu_init, .-commu_init
	.section .text$commu_task
	.type	.text$commu_task$scode_local_6, @function
	.text$commu_task$scode_local_6:
	.align	1
	.export	commu_task
	.type	commu_task, @function
commu_task:
.LFB6:
.LM17:
	.cfi_startproc
	PUSH	lr
	.cfi_def_cfa_offset 4
.LM18:
	LD	r5,#X2CScope_Communicate
	LJMP	r5
.LVL3:
.LM19:
	POP	lr
	.cfi_def_cfa_offset 0
	JMP	lr
	.cfi_endproc
.LFE6:
	.size	commu_task, .-commu_task
	.section .text$sin_gen
	.type	.text$sin_gen$scode_local_7, @function
	.text$sin_gen$scode_local_7:
	.align	1
	.export	sin_gen
	.type	sin_gen, @function
sin_gen:
.LFB8:
.LM20:
	.cfi_startproc
.LM21:
	LD	r5,#sin_data
	LD.b	r4,[r5]
	ADD	r4,r4,#1
	ZXT.b	r4,r4
	ST.b	[r5],r4
.LM22:
	LD.b	r4,[r5]
	LD.b	r3,[r5+#2]
	CMP	r3,r4
	JHI	.L8
.LM23:
	MOV	r4,#0
	ST.b	[r5],r4
.LM24:
	LD.h	r3,[r5+#2]
	ADD	r3,r3,#1
	ZXT.h	r3,r3
	ST.h	[r5+#2],r3
.LM25:
	LD.h	r2,[r5+#2]
	SXT.h	r2,r2
	LD	r3,#2047
	CMP	r2,r3
	JGT	.L13
.L9:
.LM26:
	LD.h	r4,[r5+#2]
	SXT.h	r4,r4
	ADD	r4,r4,r4
	LD	r3,#SinTable
	LD.h	r4,[r3+r4]
	ZXT.h	r4,r4
	ST.h	[r5+#4],r4
.L8:
.LM27:
	LD	r4,#sin_data
	LD.b	r3,[r5+#1]
	ADD	r3,r3,#1
	ZXT.b	r3,r3
	ST.b	[r5+#1],r3
.LM28:
	LD.b	r3,[r5+#1]
	LD.b	r2,[r5+#3]
	CMP	r2,r3
	JHI	.L7
.LM29:
	MOV	r3,#0
	ST.b	[r4+#1],r3
.LM30:
	LD.h	r2,[r4+#3]
	ADD	r2,r2,#1
	ZXT.h	r2,r2
	ST.h	[r4+#3],r2
.LM31:
	LD.h	r1,[r4+#3]
	SXT.h	r1,r1
	LD	r2,#2047
	CMP	r1,r2
	JLE	.L11
.LM32:
	ST.h	[r4+#3],r3
.L11:
.LM33:
	LD.h	r4,[r5+#3]
	SXT.h	r4,r4
	ADD	r4,r4,r4
	LD	r3,#SinTable
	LD.h	r4,[r3+r4]
	ZXT.h	r4,r4
	ST.h	[r5+#5],r4
.L7:
.LM34:
	JMP	lr
.L13:
.LM35:
	ST.h	[r5+#2],r4
	JMP	.L9
	.cfi_endproc
.LFE8:
	.size	sin_gen, .-sin_gen
	.section .text$commu_update
	.type	.text$commu_update$scode_local_8, @function
	.text$commu_update$scode_local_8:
	.align	1
	.export	commu_update
	.type	commu_update, @function
commu_update:
.LFB7:
.LM36:
	.cfi_startproc
	PUSH	lr
	.cfi_def_cfa_offset 4
.LM37:
	LD	r5,#commu_data
	LD.h	r4,[r5]
	ADD	r4,r4,#1
	ZXT.h	r4,r4
	ST.h	[r5],r4
.LM38:
	LD.h	r3,[r5]
	LD.h	r4,[r5+#1]
	SXT.h	r3,r3
	SXT.h	r4,r4
	CMP	r3,r4
	JLT	.L15
.LM39:
	MOV	r4,#0
	ST.h	[r5],r4
.LM40:
	LD	r5,#X2CScope_Update
	LJMP	r5
.LVL4:
.L15:
.LM41:
	LD	r5,#sin_gen
	LJMP	r5
.LVL5:
.LM42:
	POP	lr
	.cfi_def_cfa_offset 0
	JMP	lr
	.cfi_endproc
.LFE7:
	.size	commu_update, .-commu_update
	.export	sin_data
	.section .bss$comm$sin_data
	.type	.bss$comm$sin_data$scode_local_9, @function
	.bss$comm$sin_data$scode_local_9:
	.align	1
	.type	sin_data, @object
	.size	sin_data, 12
sin_data:
	.fill 12, 1
	.export	commu_data
	.section .bss$comm$commu_data
	.type	.bss$comm$commu_data$scode_local_10, @function
	.bss$comm$commu_data$scode_local_10:
	.align	1
	.type	commu_data, @object
	.size	commu_data, 4
commu_data:
	.fill 4, 1
	.text	
.Letext0: