	.file	"state_machine.c"
	.text	
.Ltext0:
	.cfi_sections	.debug_frame
	.section .text$state_machine_transition
	.type	.text$state_machine_transition$scode_local_1, @function
	.text$state_machine_transition$scode_local_1:
	.align	1
	.export	state_machine_transition
	.type	state_machine_transition, @function
state_machine_transition:
.LFB2:
.LM1:
	.cfi_startproc
	PUSH	{r6, r7, lr}
	.cfi_def_cfa_offset 12
.LM2:
	LD	r5,#error_state
	LD.h	r5,[r5]
	ZXT.h	r5,r5
	CMP	r5,#0
	JNZ	.L5
.LM3:
	LD	r6,#sys_control
	LD.b	r7,[r6]
	CMP	r7,#0
	JZ	.L6
.LM4:
	POP	{r6, r7}
	.cfi_remember_state
	.cfi_def_cfa_offset 4
	POP	lr
	.cfi_def_cfa_offset 0
	JMP	lr
.L6:
	.cfi_restore_state
.LM5:
	LD	r5,#pwm_disable
	LJMP	r5
.LVL0:
.LM6:
	ST.w	[r6+#1],r7
.LM7:
	POP	{r6, r7}
	.cfi_remember_state
	.cfi_def_cfa_offset 4
	POP	lr
	.cfi_def_cfa_offset 0
	JMP	lr
.L5:
	.cfi_restore_state
.LM8:
	LD	r5,#pwm_disable
	LJMP	r5
.LVL1:
.LM9:
	LD	r5,#sys_control
	MOV	r4,#0
	ST.b	[r5],r4
.LM10:
	MOV	r4,#8
	ST.w	[r5+#1],r4
.LM11:
	POP	{r6, r7}
	.cfi_def_cfa_offset 4
	POP	lr
	.cfi_def_cfa_offset 0
	JMP	lr
	.cfi_endproc
.LFE2:
	.size	state_machine_transition, .-state_machine_transition
	.section .text$run_idle_process
	.type	.text$run_idle_process$scode_local_2, @function
	.text$run_idle_process$scode_local_2:
	.align	1
	.export	run_idle_process
	.type	run_idle_process, @function
run_idle_process:
.LFB3:
.LM12:
	.cfi_startproc
.LM13:
	LD	r5,#sys_control
	LD.b	r3,[r5]
	CMP	r3,#1
	JZ	.L9
.LM14:
	JMP	lr
.L9:
.LM15:
	ST.b	[r5+#1],r3
.LM16:
	ST.w	[r5+#1],r3
.LM17:
	JMP	lr
	.cfi_endproc
.LFE3:
	.size	run_idle_process, .-run_idle_process
	.section .text$run_param_set_process
	.type	.text$run_param_set_process$scode_local_3, @function
	.text$run_param_set_process$scode_local_3:
	.align	1
	.export	run_param_set_process
	.type	run_param_set_process, @function
run_param_set_process:
.LFB4:
.LM18:
	.cfi_startproc
	PUSH	{r6, lr}
	.cfi_def_cfa_offset 8
.LM19:
	LD	r0,#PIParmD
	LD	r6,#InitPI
	LJMP	r6
.LVL2:
.LM20:
	LD	r0,#PIParmQ
	LJMP	r6
.LVL3:
.LM21:
	LD	r5,#smc_param_init
	LJMP	r5
.LVL4:
.LM22:
	LD	r5,#control_param
	MOV	r4,#0
	ST.h	[r5+#23],r4
.LM23:
	MOV	r3,#50
	ST.h	[r5+#24],r3
.LM24:
	ST.h	[r5+#10],r4
.LM25:
	MOV	r4,#0
	ST.w	[r5+#6],r4
.LM26:
	ST.h	[r5+#8],r4
.LM27:
	LD	r3,#ParkParm
	ST.h	[r3],r4
.LM28:
	LD	r6,#sys_control
	MOV	r2,#1
	ST.b	[r6+#1],r2
.LM29:
	ST.h	[r3+#16],r4
.LM30:
	ST.h	[r3+#17],r4
.LM31:
	LD	r4,#control_param+32
	LD.b	r4,[r4]
	CMP	r4,#0
	JZ	.L13
.LM32:
	LD	r4,#-8720
	ST.h	[r5+#6],r4
.LM33:
	LD	r4,#-4360
	ST.h	[r5+#7],r4
.L12:
.LM34:
	LD.w	r4,[r5+#2]
	ST.w	[r5+#7],r4
.LM35:
	LD	r5,#pwm_enable
	LJMP	r5
.LVL5:
.LM36:
	MOV	r5,#5
	ST.w	[r6+#1],r5
.LM37:
	POP	r6
	.cfi_remember_state
	.cfi_def_cfa_offset 4
	POP	lr
	.cfi_def_cfa_offset 0
	JMP	lr
.L13:
	.cfi_restore_state
.LM38:
	LD	r4,#8720
	ST.h	[r5+#6],r4
.LM39:
	LD	r4,#4360
	ST.h	[r5+#7],r4
	JMP	.L12
	.cfi_endproc
.LFE4:
	.size	run_param_set_process, .-run_param_set_process
	.section .text$run_pwm_test_process
	.type	.text$run_pwm_test_process$scode_local_4, @function
	.text$run_pwm_test_process$scode_local_4:
	.align	1
	.export	run_pwm_test_process
	.type	run_pwm_test_process, @function
run_pwm_test_process:
.LFB5:
.LM40:
	.cfi_startproc
	PUSH	lr
	.cfi_def_cfa_offset 4
.LM41:
	MOV	r0,#10
	LD	r5,#set_pwm_duty
	LJMP	r5
.LVL6:
.LM42:
	POP	lr
	.cfi_def_cfa_offset 0
	JMP	lr
	.cfi_endproc
.LFE5:
	.size	run_pwm_test_process, .-run_pwm_test_process
	.section .text$run_open_debug_process
	.type	.text$run_open_debug_process$scode_local_5, @function
	.text$run_open_debug_process$scode_local_5:
	.align	1
	.export	run_open_debug_process
	.type	run_open_debug_process, @function
run_open_debug_process:
.LFB6:
.LM43:
	.cfi_startproc
	PUSH	{r6, lr}
	.cfi_def_cfa_offset 8
.LM44:
	LD	r6,#ParkParm
	LD.h	r4,[r6+#10]
	LD.h	r5,[r6+#17]
	SXT.h	r4,r4
	SXT.h	r5,r5
.LM45:
	LD.h	r0,[r6+#17]
.LM46:
	CMP	r4,r5
	JGE	.L16
.LM47:
	LD.h	r5,[r6+#10]
	SUB	r0,r0,r5
	SXT.h	r0,r0
	LD	r5,#Q15abs
	LJMP	r5
.LVL7:
	CMP	r0,#9
	JLS	.L15
.LM48:
	LD.h	r5,[r6+#10]
	ADD	r5,#10
	ZXT.h	r5,r5
	ST.h	[r6+#10],r5
.L15:
.LM49:
	POP	r6
	.cfi_remember_state
	.cfi_def_cfa_offset 4
	POP	lr
	.cfi_def_cfa_offset 0
	JMP	lr
.L16:
	.cfi_restore_state
.LM50:
	LD.h	r5,[r6+#10]
	SUB	r0,r0,r5
	SXT.h	r0,r0
	LD	r5,#Q15abs
	LJMP	r5
.LVL8:
	CMP	r0,#9
	JLS	.L15
.LM51:
	LD.h	r5,[r6+#10]
	ZXT.h	r5,r5
	SUB	r5,#10
	ZXT.h	r5,r5
	ST.h	[r6+#10],r5
.LM52:
	POP	r6
	.cfi_def_cfa_offset 4
	POP	lr
	.cfi_def_cfa_offset 0
	JMP	lr
	.cfi_endproc
.LFE6:
	.size	run_open_debug_process, .-run_open_debug_process
	.section .text$run_open_loop_process
	.type	.text$run_open_loop_process$scode_local_6, @function
	.text$run_open_loop_process$scode_local_6:
	.align	1
	.export	run_open_loop_process
	.type	run_open_loop_process, @function
run_open_loop_process:
.LFB7:
.LM53:
	.cfi_startproc
	PUSH	{r6, r7, lr}
	.cfi_def_cfa_offset 12
.LM54:
	LD	r7,#ParkParm
	LD.h	r4,[r7+#17]
	LD	r6,#control_param
	LD.h	r5,[r6+#6]
	SXT.h	r4,r4
	SXT.h	r5,r5
.LM55:
	LD.h	r0,[r6+#6]
.LM56:
	CMP	r4,r5
	JGE	.L21
.LM57:
	LD.h	r5,[r7+#17]
	SUB	r0,r0,r5
	SXT.h	r0,r0
	LD	r5,#Q15abs
	LJMP	r5
.LVL9:
	CMP	r0,#9
	JHI	.L26
.L23:
.LM58:
	LD.h	r5,[r6+#8]
	SXT.h	r5,r5
	CMP	r5,#2
	JNZ	.L20
.LM59:
	MOV	r4,#6
	LD	r5,#sys_control
	ST.w	[r5+#1],r4
.L20:
.LM60:
	POP	{r6, r7}
	.cfi_remember_state
	.cfi_def_cfa_offset 4
	POP	lr
	.cfi_def_cfa_offset 0
	JMP	lr
.L21:
	.cfi_restore_state
.LM61:
	LD.h	r5,[r7+#17]
	SUB	r0,r0,r5
	SXT.h	r0,r0
	LD	r5,#Q15abs
	LJMP	r5
.LVL10:
	CMP	r0,#9
	JLS	.L23
.LM62:
	LD.h	r5,[r7+#17]
	ZXT.h	r5,r5
	SUB	r5,#10
	ZXT.h	r5,r5
	ST.h	[r7+#17],r5
	JMP	.L23
.L26:
.LM63:
	LD.h	r5,[r7+#17]
	ADD	r5,#10
	ZXT.h	r5,r5
	ST.h	[r7+#17],r5
	JMP	.L23
	.cfi_endproc
.LFE7:
	.size	run_open_loop_process, .-run_open_loop_process
	.section .text$run_current_loop_process
	.type	.text$run_current_loop_process$scode_local_7, @function
	.text$run_current_loop_process$scode_local_7:
	.align	1
	.export	run_current_loop_process
	.type	run_current_loop_process, @function
run_current_loop_process:
.LFB8:
.LM64:
	.cfi_startproc
	PUSH	{r6, r7, lr}
	.cfi_def_cfa_offset 12
.LM65:
	LD	r7,#ParkParm
	LD.h	r4,[r7+#17]
	LD	r6,#control_param
	LD.h	r5,[r6+#7]
	SXT.h	r4,r4
	SXT.h	r5,r5
.LM66:
	LD.h	r0,[r6+#7]
.LM67:
	CMP	r4,r5
	JGE	.L28
.LM68:
	LD.h	r5,[r7+#17]
	SUB	r0,r0,r5
	SXT.h	r0,r0
	LD	r5,#Q15abs
	LJMP	r5
.LVL11:
	CMP	r0,#9
	JHI	.L33
.L30:
.LM69:
	LD.h	r5,[r6+#23]
	ADD	r5,r5,#1
	ZXT.h	r5,r5
	ST.h	[r6+#23],r5
.LM70:
	LD.h	r4,[r6+#23]
	LD.h	r5,[r6+#24]
	SXT.h	r4,r4
	SXT.h	r5,r5
	CMP	r4,r5
	JLE	.L27
.LM71:
	MOV	r4,#0
	LD	r5,#control_param
	ST.h	[r5+#23],r4
.LM72:
	LD	r5,#sys_control
	MOV	r4,#0
	ST.w	[r5+#2],r4
.LM73:
	MOV	r4,#7
	ST.w	[r5+#1],r4
.L27:
.LM74:
	POP	{r6, r7}
	.cfi_remember_state
	.cfi_def_cfa_offset 4
	POP	lr
	.cfi_def_cfa_offset 0
	JMP	lr
.L28:
	.cfi_restore_state
.LM75:
	LD.h	r5,[r7+#17]
	SUB	r0,r0,r5
	SXT.h	r0,r0
	LD	r5,#Q15abs
	LJMP	r5
.LVL12:
	CMP	r0,#9
	JLS	.L30
.LM76:
	LD.h	r5,[r7+#17]
	ZXT.h	r5,r5
	SUB	r5,#10
	ZXT.h	r5,r5
	ST.h	[r7+#17],r5
	JMP	.L30
.L33:
.LM77:
	LD.h	r5,[r7+#17]
	ADD	r5,#10
	ZXT.h	r5,r5
	ST.h	[r7+#17],r5
	JMP	.L30
	.cfi_endproc
.LFE8:
	.size	run_current_loop_process, .-run_current_loop_process
	.section .text$state_machine
	.type	.text$state_machine$scode_local_8, @function
	.text$state_machine$scode_local_8:
	.align	1
	.export	state_machine
	.type	state_machine, @function
state_machine:
.LFB1:
.LM78:
	.cfi_startproc
	PUSH	{r6, lr}
	.cfi_def_cfa_offset 8
.LM79:
	LD	r6,#sys_control
	LD.w	r5,[r6+#1]
	CMP	r5,#8
	JLS	.L45
.L35:
.LM80:
	MOV	r5,#0
	ST.w	[r6+#1],r5
.L43:
.LM81:
	LD	r5,#state_machine_transition
	LJMP	r5
.LVL13:
.LM82:
	LD.w	r4,[r6+#1]
	LD	r5,#run_mode
	ST.h	[r5],r4
.LM83:
	POP	r6
	.cfi_remember_state
	.cfi_def_cfa_offset 4
	POP	lr
	.cfi_def_cfa_offset 0
	JMP	lr
.L45:
	.cfi_restore_state
.LM84:
	LSL	r5,#2
	LD	r4,#.L44
	LD.w	r5,[r4+r5]
	JMP	r5
	.section	.text$state_machine 	// function content --------
	.type	.text$state_machine$sdata_local_1, @object
	.text$state_machine$sdata_local_1:
	.align	2
	.align 2
.L44:
	.long	.L36
	.long	.L37
	.long	.L38
	.long	.L35
	.long	.L39
	.long	.L40
	.long	.L41
	.long	.L42
	.long	.L43
	.section .text$state_machine
	.type	.text$state_machine$scode_local_9, @function
	.text$state_machine$scode_local_9:
.L42:
.LBB8:
.LBB9:
.LM85:
	LD	r5,#speed_state_machine
	LJMP	r5
.LVL14:
.LBE9:
.LBE8:
.LM86:
	LD	r5,#state_machine_transition
	LJMP	r5
.LVL15:
.LM87:
	LD.w	r4,[r6+#1]
	LD	r5,#run_mode
	ST.h	[r5],r4
.LM88:
	POP	r6
	.cfi_remember_state
	.cfi_def_cfa_offset 4
	POP	lr
	.cfi_def_cfa_offset 0
	JMP	lr
.L36:
	.cfi_restore_state
.LBB10:
.LBB11:
.LM89:
	LD	r3,#sys_control
	LD.b	r4,[r6]
	CMP	r4,#1
	JNZ	.L43
.LM90:
	ST.b	[r3+#1],r4
.LM91:
	ST.w	[r3+#1],r4
	JMP	.L43
.L37:
.LBE11:
.LBE10:
.LM92:
	LD	r5,#run_param_set_process
	LJMP	r5
.LVL16:
.LM93:
	LD	r5,#state_machine_transition
	LJMP	r5
.LVL17:
.LM94:
	LD.w	r4,[r6+#1]
	LD	r5,#run_mode
	ST.h	[r5],r4
.LM95:
	POP	r6
	.cfi_remember_state
	.cfi_def_cfa_offset 4
	POP	lr
	.cfi_def_cfa_offset 0
	JMP	lr
.L38:
	.cfi_restore_state
.LM96:
	LD	r5,#run_pwm_test_process
	LJMP	r5
.LVL18:
.LM97:
	LD	r5,#state_machine_transition
	LJMP	r5
.LVL19:
.LM98:
	LD.w	r4,[r6+#1]
	LD	r5,#run_mode
	ST.h	[r5],r4
.LM99:
	POP	r6
	.cfi_remember_state
	.cfi_def_cfa_offset 4
	POP	lr
	.cfi_def_cfa_offset 0
	JMP	lr
.L39:
	.cfi_restore_state
.LM100:
	LD	r5,#run_open_debug_process
	LJMP	r5
.LVL20:
.LM101:
	LD	r5,#state_machine_transition
	LJMP	r5
.LVL21:
.LM102:
	LD.w	r4,[r6+#1]
	LD	r5,#run_mode
	ST.h	[r5],r4
.LM103:
	POP	r6
	.cfi_remember_state
	.cfi_def_cfa_offset 4
	POP	lr
	.cfi_def_cfa_offset 0
	JMP	lr
.L40:
	.cfi_restore_state
.LM104:
	LD	r5,#run_open_loop_process
	LJMP	r5
.LVL22:
.LM105:
	LD	r5,#state_machine_transition
	LJMP	r5
.LVL23:
.LM106:
	LD.w	r4,[r6+#1]
	LD	r5,#run_mode
	ST.h	[r5],r4
.LM107:
	POP	r6
	.cfi_remember_state
	.cfi_def_cfa_offset 4
	POP	lr
	.cfi_def_cfa_offset 0
	JMP	lr
.L41:
	.cfi_restore_state
.LM108:
	LD	r5,#run_current_loop_process
	LJMP	r5
.LVL24:
.LM109:
	LD	r5,#state_machine_transition
	LJMP	r5
.LVL25:
.LM110:
	LD.w	r4,[r6+#1]
	LD	r5,#run_mode
	ST.h	[r5],r4
.LM111:
	POP	r6
	.cfi_def_cfa_offset 4
	POP	lr
	.cfi_def_cfa_offset 0
	JMP	lr
	.cfi_endproc
.LFE1:
	.size	state_machine, .-state_machine
	.section .text$run_speed_loop_process
	.type	.text$run_speed_loop_process$scode_local_10, @function
	.text$run_speed_loop_process$scode_local_10:
	.align	1
	.export	run_speed_loop_process
	.type	run_speed_loop_process, @function
run_speed_loop_process:
.LFB9:
.LM112:
	.cfi_startproc
	PUSH	lr
	.cfi_def_cfa_offset 4
.LM113:
	LD	r5,#speed_state_machine
	LJMP	r5
.LVL26:
.LM114:
	POP	lr
	.cfi_def_cfa_offset 0
	JMP	lr
	.cfi_endproc
.LFE9:
	.size	run_speed_loop_process, .-run_speed_loop_process
	.section .text$run_fault_process
	.type	.text$run_fault_process$scode_local_11, @function
	.text$run_fault_process$scode_local_11:
	.align	1
	.export	run_fault_process
	.type	run_fault_process, @function
run_fault_process:
.LFB10:
.LM115:
	.cfi_startproc
.LM116:
	JMP	lr
	.cfi_endproc
.LFE10:
	.size	run_fault_process, .-run_fault_process
	.export	run_mode
	.section .bss$comm$run_mode
	.type	.bss$comm$run_mode$scode_local_12, @function
	.bss$comm$run_mode$scode_local_12:
	.align	1
	.type	run_mode, @object
	.size	run_mode, 2
run_mode:
	.fill 2, 1
	.text	
.Letext0: