	.file	"task.c"
	.text	
.Ltext0:
	.cfi_sections	.debug_frame
	.section .text$motor_start_process
	.type	.text$motor_start_process$scode_local_1, @function
	.text$motor_start_process$scode_local_1:
	.align	1
	.export	motor_start_process
	.type	motor_start_process, @function
motor_start_process:
.LFB2:
.LM1:
	.cfi_startproc
	PUSH	{r6, lr}
	.cfi_def_cfa_offset 8
.LM2:
	LD	r0,#1342177664
	MOV	r1,#1
	LSL	r1,#15
	LD	r6,#GPIO_Read_Input_Data_Bit
	LJMP	r6
.LVL0:
	CMP	r0,#0
	JNZ	.L2
.LM3:
	LD	r5,#sys_control
	LD.b	r4,[r5]
	CMP	r4,#0
	JZ	.L6
.L2:
.LM4:
	LD	r0,#1342177664
	MOV	r1,#1
	LSL	r1,#15
	LJMP	r6
.LVL1:
	CMP	r0,#0
	JNZ	.L3
.LM5:
	LD	r5,#sys_control
	LD.b	r4,[r5]
	CMP	r4,#1
	JZ	.L7
.L3:
.LM6:
	LD	r0,#1342177664
	MOV	r1,#1
	LSL	r1,#15
	LJMP	r6
.LVL2:
	CMP	r0,#1
	JZ	.L8
.L1:
.LM7:
	POP	r6
	.cfi_remember_state
	.cfi_def_cfa_offset 4
	POP	lr
	.cfi_def_cfa_offset 0
	JMP	lr
.L6:
	.cfi_restore_state
.LM8:
	LD	r3,#control_param
	LD.h	r2,[r3]
	SXT.h	r2,r2
	CMP	r2,#50
	JLE	.L2
.LM9:
	ST.h	[r3],r4
.LM10:
	MOV	r4,#1
	ST.b	[r5],r4
	JMP	.L2
.L8:
.LM11:
	LD	r5,#control_param
	LD.h	r4,[r5]
	SXT.h	r4,r4
	CMP	r4,#99
	JGT	.L1
.LM12:
	LD.h	r4,[r5]
	ADD	r4,r4,#1
	ZXT.h	r4,r4
	ST.h	[r5],r4
.LM13:
	POP	r6
	.cfi_remember_state
	.cfi_def_cfa_offset 4
	POP	lr
	.cfi_def_cfa_offset 0
	JMP	lr
.L7:
	.cfi_restore_state
.LM14:
	LD	r4,#control_param
	LD.h	r3,[r4]
	SXT.h	r3,r3
	CMP	r3,#50
	JLE	.L3
.LM15:
	ST.h	[r4],r0
.LM16:
	ST.b	[r5],r0
	JMP	.L1
	.cfi_endproc
.LFE2:
	.size	motor_start_process, .-motor_start_process
	.section .text$task_process
	.type	.text$task_process$scode_local_2, @function
	.text$task_process$scode_local_2:
	.align	1
	.export	task_process
	.type	task_process, @function
task_process:
.LFB1:
.LM17:
	.cfi_startproc
	PUSH	{r6, lr}
	.cfi_def_cfa_offset 8
.LM18:
	LD	r5,#commu_task
	LJMP	r5
.LVL3:
.LM19:
	LD	r6,#time_count
	LD.h	r5,[r6]
	ZXT.h	r5,r5
	CMP	r5,#0
	JNZ	.L17
.LM20:
	LD.h	r5,[r6+#1]
	ZXT.h	r5,r5
	CMP	r5,#9
	JHI	.L18
.L11:
.LM21:
	LD.h	r5,[r6+#2]
	ZXT.h	r5,r5
	CMP	r5,#99
	JLS	.L12
.LM22:
	MOV	r4,#0
	LD	r5,#time_count
	ST.h	[r5+#2],r4
.L12:
.LM23:
	LD.h	r4,[r6+#3]
	ZXT.h	r4,r4
	LD	r5,#999
	CMP	r4,r5
	JLS	.L9
.LM24:
	MOV	r4,#0
	LD	r5,#time_count
	ST.h	[r5+#3],r4
.LM25:
	LD	r5,#1342177344
	LD.w	r3,[r5+#1]
	MOV	r4,#1
	LSL	r4,#13
	XRL	r4,r3,r4
	ST.w	[r5+#1],r4
.L9:
.LM26:
	POP	r6
	.cfi_remember_state
	.cfi_def_cfa_offset 4
	POP	lr
	.cfi_def_cfa_offset 0
	JMP	lr
.L17:
	.cfi_restore_state
.LM27:
	MOV	r5,#0
	ST.h	[r6],r5
.LM28:
	LD	r5,#state_machine
	LJMP	r5
.LVL4:
.LM29:
	LD	r5,#alarm_process
	LJMP	r5
.LVL5:
.LM30:
	LD.h	r5,[r6+#1]
	ZXT.h	r5,r5
	CMP	r5,#9
	JLS	.L11
.L18:
.LM31:
	MOV	r4,#0
	LD	r5,#time_count
	ST.h	[r5+#1],r4
.LM32:
	LD	r5,#motor_start_process
	LJMP	r5
.LVL6:
	JMP	.L11
	.cfi_endproc
.LFE1:
	.size	task_process, .-task_process
	.section .text$pot_process
	.type	.text$pot_process$scode_local_3, @function
	.text$pot_process$scode_local_3:
	.align	1
	.export	pot_process
	.type	pot_process, @function
pot_process:
.LFB3:
.LM33:
	.cfi_startproc
.LM34:
	JMP	lr
	.cfi_endproc
.LFE3:
	.size	pot_process, .-pot_process
	.text	
.Letext0: