	.file	"kf32a9k1xxx_dac.c"
	.text	
.Ltext0:
	.cfi_sections	.debug_frame
	.section .text$DAC_Reset
	.type	.text$DAC_Reset$scode_local_1, @function
	.text$DAC_Reset$scode_local_1:
	.align	1
	.export	DAC_Reset
	.type	DAC_Reset, @function
DAC_Reset:
.LFB1:
.LM1:
	.cfi_startproc
.LVL0:
	PUSH	{r6, lr}
	.cfi_def_cfa_offset 8
.LM2:
	LD	r5,#1073743616
	CMP	r0,r5
	JZ	.L2
.LM3:
	LD	r5,#1073743744
	CMP	r0,r5
	JZ	.L3
.LM4:
	LD	r5,#1073749376
	CMP	r0,r5
	JZ	.L4
	MOV	r6,#1
	LD	r5,#1073749504
	CMP	r0,r5
	JZ	.L5
	MOV	r6,#0
.L5:
	ZXT.b	r6,r6
	MOV	r0,r6
.LVL1:
	LD	r5,#CHECK_RESTRICTION
	LJMP	r5
.LVL2:
.LM5:
	CMP	r6,#0
	JNZ	.L11
.L1:
.LM6:
	POP	r6
	.cfi_remember_state
	.cfi_def_cfa_offset 4
	POP	lr
	.cfi_def_cfa_offset 0
	JMP	lr
.LVL3:
.L2:
	.cfi_restore_state
.LM7:
	MOV	r0,#1
.LVL4:
	LD	r5,#CHECK_RESTRICTION
	LJMP	r5
.LVL5:
.LM8:
	MOV	r0,#1
	LSL	r0,#14
	MOV	r1,#1
	LD	r6,#RST_CTL1_Peripheral_Reset_Enable
	LJMP	r6
.LVL6:
.LM9:
	MOV	r0,#1
	LSL	r0,#14
	MOV	r1,#0
	LJMP	r6
.LVL7:
.LM10:
	MOV	r0,#1
	LSL	r0,#14
	MOV	r1,#1
	LD	r5,#PCLK_CTL1_Peripheral_Clock_Enable
	LJMP	r5
.LVL8:
.LM11:
	POP	r6
	.cfi_remember_state
	.cfi_def_cfa_offset 4
	POP	lr
	.cfi_def_cfa_offset 0
	JMP	lr
.LVL9:
.L3:
	.cfi_restore_state
.LM12:
	MOV	r0,#1
.LVL10:
	LD	r5,#CHECK_RESTRICTION
	LJMP	r5
.LVL11:
.LM13:
	MOV	r0,#1
	LSL	r0,#15
	MOV	r1,#1
	LD	r6,#RST_CTL1_Peripheral_Reset_Enable
	LJMP	r6
.LVL12:
.LM14:
	MOV	r0,#1
	LSL	r0,#15
	MOV	r1,#0
	LJMP	r6
.LVL13:
.LM15:
	MOV	r0,#1
	LSL	r0,#15
	MOV	r1,#1
	LD	r5,#PCLK_CTL1_Peripheral_Clock_Enable
	LJMP	r5
.LVL14:
.LM16:
	POP	r6
	.cfi_remember_state
	.cfi_def_cfa_offset 4
	POP	lr
	.cfi_def_cfa_offset 0
	JMP	lr
.LVL15:
.L4:
	.cfi_restore_state
.LM17:
	MOV	r0,#1
.LVL16:
	LD	r5,#CHECK_RESTRICTION
	LJMP	r5
.LVL17:
.LM18:
	MOV	r0,#1
	LSL	r0,#27
	MOV	r1,#1
	LD	r6,#RST_CTL2_Peripheral_Reset_Enable
	LJMP	r6
.LVL18:
.LM19:
	MOV	r0,#1
	LSL	r0,#27
	MOV	r1,#0
	LJMP	r6
.LVL19:
.LM20:
	MOV	r0,#1
	LSL	r0,#27
	MOV	r1,#1
	LD	r5,#PCLK_CTL2_Peripheral_Clock_Enable
	LJMP	r5
.LVL20:
.LM21:
	POP	r6
	.cfi_remember_state
	.cfi_def_cfa_offset 4
	POP	lr
	.cfi_def_cfa_offset 0
	JMP	lr
.L11:
	.cfi_restore_state
.LM22:
	MOV	r0,#1
	LSL	r0,#28
	MOV	r1,#1
	LD	r6,#RST_CTL2_Peripheral_Reset_Enable
	LJMP	r6
.LVL21:
.LM23:
	MOV	r0,#1
	LSL	r0,#28
	MOV	r1,#0
	LJMP	r6
.LVL22:
.LM24:
	MOV	r0,#1
	LSL	r0,#28
	MOV	r1,#1
	LD	r5,#PCLK_CTL2_Peripheral_Clock_Enable
	LJMP	r5
.LVL23:
	JMP	.L1
	.cfi_endproc
.LFE1:
	.size	DAC_Reset, .-DAC_Reset
	.section .text$DAC_Configuration
	.type	.text$DAC_Configuration$scode_local_2, @function
	.text$DAC_Configuration$scode_local_2:
	.align	1
	.export	DAC_Configuration
	.type	DAC_Configuration, @function
DAC_Configuration:
.LFB2:
.LM25:
	.cfi_startproc
.LVL24:
	PUSH	{r6, r7, r8, lr}
	.cfi_def_cfa_offset 16
	MOV	r8,r0
	MOV	r6,r1
.LVL25:
.LM26:
	MOV	r0,#1
.LVL26:
	LD	r5,#1073743616
	CMP	r8,r5
	JZ	.L13
.LM27:
	LD	r5,#1073743744
	CMP	r8,r5
	JZ	.L13
.LM28:
	LD	r5,#1073749376
	CMP	r8,r5
	JZ	.L13
	LD	r5,#1073749504
	CMP	r8,r5
	JZ	.L13
	MOV	r0,#0
.L13:
.LM29:
	LD	r7,#CHECK_RESTRICTION
	LJMP	r7
.LVL27:
.LM30:
	MOV	r0,#1
	LD.w	r5,[r6]
	CMP	r5,r0
	JLS	.L15
	MOV	r0,#0
.L15:
	LJMP	r7
.LVL28:
.LM31:
	LD.w	r5,[r6+#1]
	MOV	r2,#8
	LSR	r4,r5,r2
	MOV	r0,#0
	CMP	r4,r0
	JNZ	.L16
.LM32:
	MOV	r3,#15
	ANL	r5,r5,r3
	MOV	r0,#1
	CMP	r5,#0
	JNZ	.L71
.L16:
.LM33:
	LJMP	r7
.LVL29:
.LM34:
	MOV	r0,#1
	LD.w	r5,[r6+#2]
	CMP	r5,r0
	JLS	.L18
	MOV	r0,#0
.L18:
	LJMP	r7
.LVL30:
.LM35:
	LD.w	r5,[r6+#3]
	MOV	r0,#1
	CMP	r5,#0
	JZ	.L19
.LM36:
	MOV	r4,#255
	ADD	r4,r4,#1
	CMP	r5,r4
	JZ	.L19
.LM37:
	MOV	r4,#1
	LSL	r4,#9
	CMP	r5,r4
	JZ	.L19
	MOV	r0,#0
.L19:
.LM38:
	LJMP	r7
.LVL31:
.LM39:
	LD.w	r5,[r6+#4]
	MOV	r3,#14
	LSR	r4,r5,r3
	MOV	r0,#0
	CMP	r4,r0
	JNZ	.L21
.LM40:
	LSL	r5,#22
	MOV	r0,#1
	CMP	r5,#0
	JNZ	.L72
.L21:
.LM41:
	LJMP	r7
.LVL32:
.LM42:
	LD.w	r5,[r6+#5]
	MOV	r0,#1
	CMP	r5,#0
	JZ	.L23
.LM43:
	CMP	r5,#16
	JZ	.L23
.LM44:
	CMP	r5,#32
	JZ	.L23
	MOV	r0,#0
.L23:
.LM45:
	LJMP	r7
.LVL33:
.LM46:
	LD.w	r5,[r6+#6]
	MOV	r0,#1
	CMP	r5,#0
	JZ	.L25
.LM47:
	MOV	r4,#1
	LSL	r4,#9
	CMP	r5,r4
	JZ	.L25
.LM48:
	MOV	r4,#1
	LSL	r4,#10
	CMP	r5,r4
	JZ	.L25
	LD	r4,#1536
	CMP	r5,r4
	JZ	.L25
	MOV	r4,#1
	LSL	r4,#11
	CMP	r5,r4
	JZ	.L25
	LD	r4,#2560
	CMP	r5,r4
	JZ	.L25
	LD	r4,#3072
	CMP	r5,r4
	JZ	.L25
	LD	r4,#3584
	CMP	r5,r4
	JZ	.L25
	MOV	r0,#0
.L25:
.LM49:
	LJMP	r7
.LVL34:
.LM50:
	LD.w	r5,[r6+#7]
	MOV	r0,#1
	CMP	r5,#0
	JZ	.L27
.LM51:
	CMP	r5,#2
	JZ	.L27
.LM52:
	CMP	r5,#4
	JZ	.L27
	MOV	r0,#0
.L27:
.LM53:
	LJMP	r7
.LVL35:
.LM54:
	MOV	r0,#1
	LD.w	r5,[r6+#8]
	CMP	r5,r0
	JLS	.L29
	MOV	r0,#0
.L29:
	LJMP	r7
.LVL36:
.LM55:
	MOV	r0,#1
	LD.w	r5,[r6+#9]
	CMP	r5,r0
	JLS	.L30
	MOV	r0,#0
.L30:
	LJMP	r7
.LVL37:
.LM56:
	LD.w	r5,[r6+#10]
	LSR	r5,#12
	MOV	r0,#1
	CMP	r5,#0
	JZ	.L31
	MOV	r0,#0
.L31:
	LJMP	r7
.LVL38:
.LM57:
	LD.w	r3,[r8]
.LVL39:
.LM58:
	LD.w	r5,[r6+#3]
	LD.w	r2,[r6+#1]
	ORL	r4,r5,r2
.LM59:
	LD.w	r5,[r6+#4]
	ORL	r4,r4,r5
.LM60:
	LDP.w	r2,[r6]	<<	#3
.LM61:
	ORL	r4,r4,r2
	LD.w	r5,[r6+#2]
	ADD	r5,r5,r5
.LM62:
	ORL	r5,r4,r5
.LBB24:
.LBB25:
.LM63:
	LD	r4,#-16379
	ANL	r4,r3,r4
	ORL	r5,r5,r4
.LBE25:
.LBE24:
.LM64:
	ST.w	[r8],r5
.LVL40:
.LM65:
	MOV	r2,r8
	LD.w	r3,[r2+#3]
.LVL41:
.LM66:
	LD.w	r4,[r6+#5]
	LD.w	r2,[r6+#6]
	ORL	r5,r4,r2
.LM67:
	LD.w	r4,[r6+#7]
	ORL	r5,r5,r4
.LM68:
	LD.w	r2,[r6+#9]
	ORL	r5,r5,r2
	LD.w	r4,[r6+#8]
	LSL	r4,#6
.LM69:
	ORL	r5,r5,r4
.LBB26:
.LBB27:
.LM70:
	MOV	r4,#119
	NOT	r4,r4
	ANL	r4,r3,r4
	ORL	r5,r5,r4
.LBE27:
.LBE26:
.LM71:
	MOV	r3,r8
.LVL42:
	ST.w	[r3+#3],r5
.LVL43:
.LM72:
	LD.w	r4,[r3+#1]
.LVL44:
.LBB28:
.LBB29:
.LM73:
	LD	r5,#-4096
	ANL	r5,r4,r5
	LD.w	r4,[r6+#10]
.LVL45:
	ORL	r5,r5,r4
.LBE29:
.LBE28:
.LM74:
	ST.w	[r3+#1],r5
.LM75:
	POP	{r6, r7, r8}
	.cfi_remember_state
	.cfi_def_cfa_offset 4
.LVL46:
	POP	lr
	.cfi_def_cfa_offset 0
	JMP	lr
.LVL47:
.L72:
	.cfi_restore_state
.LM76:
	MOV	r0,r4
	JMP	.L21
.L71:
.LM77:
	MOV	r0,r4
	JMP	.L16
	.cfi_endproc
.LFE2:
	.size	DAC_Configuration, .-DAC_Configuration
	.section .text$DAC_Struct_Init
	.type	.text$DAC_Struct_Init$scode_local_3, @function
	.text$DAC_Struct_Init$scode_local_3:
	.align	1
	.export	DAC_Struct_Init
	.type	DAC_Struct_Init, @function
DAC_Struct_Init:
.LFB3:
.LM78:
	.cfi_startproc
.LVL48:
.LM79:
	MOV	r5,#0
	ST.w	[r0],r5
.LM80:
	ST.w	[r0+#1],r5
.LM81:
	ST.w	[r0+#2],r5
.LM82:
	ST.w	[r0+#3],r5
.LM83:
	ST.w	[r0+#4],r5
.LM84:
	ST.w	[r0+#5],r5
.LM85:
	ST.w	[r0+#6],r5
.LM86:
	ST.w	[r0+#7],r5
.LM87:
	ST.w	[r0+#8],r5
.LM88:
	ST.w	[r0+#9],r5
.LM89:
	ST.w	[r0+#10],r5
.LM90:
	JMP	lr
	.cfi_endproc
.LFE3:
	.size	DAC_Struct_Init, .-DAC_Struct_Init
	.section .text$DAC_Cmd
	.type	.text$DAC_Cmd$scode_local_4, @function
	.text$DAC_Cmd$scode_local_4:
	.align	1
	.export	DAC_Cmd
	.type	DAC_Cmd, @function
DAC_Cmd:
.LFB4:
.LM91:
	.cfi_startproc
.LVL49:
	PUSH	{r6, r7, r8, lr}
	.cfi_def_cfa_offset 16
	MOV	r6,r0
	MOV	r7,r1
.LM92:
	MOV	r0,#1
.LVL50:
	LD	r5,#1073743616
	CMP	r6,r5
	JZ	.L75
.LM93:
	LD	r5,#1073743744
	CMP	r6,r5
	JZ	.L75
.LM94:
	LD	r5,#1073749376
	CMP	r6,r5
	JZ	.L75
	LD	r5,#1073749504
	CMP	r6,r5
	JZ	.L75
	MOV	r0,#0
.L75:
.LM95:
	LD	r5,#CHECK_RESTRICTION
	MOV	r8,r5
	LJMP	r5
.LVL51:
.LM96:
	MOV	r0,#1
	CMP	r7,r0
	JLS	.L77
	MOV	r0,#0
.L77:
	LJMP	r8
.LVL52:
.LM97:
	CMP	r7,#0
	JNZ	.L83
.LM98:
// inline asm begin
	// 189 "../src/kf32a9k1xxx_dac.c" 1
	CLR [r6], #0
	// 0 "" 2
.LM99:
// inline asm end
	POP	{r6, r7, r8}
	.cfi_remember_state
	.cfi_def_cfa_offset 4
.LVL53:
	POP	lr
	.cfi_def_cfa_offset 0
	JMP	lr
.LVL54:
.L83:
	.cfi_restore_state
.LM100:
// inline asm begin
	// 184 "../src/kf32a9k1xxx_dac.c" 1
	SET [r6], #0
	// 0 "" 2
.LM101:
// inline asm end
	POP	{r6, r7, r8}
	.cfi_def_cfa_offset 4
.LVL55:
	POP	lr
	.cfi_def_cfa_offset 0
	JMP	lr
	.cfi_endproc
.LFE4:
	.size	DAC_Cmd, .-DAC_Cmd
	.section .text$DAC_Software_Trigger_Cmd
	.type	.text$DAC_Software_Trigger_Cmd$scode_local_5, @function
	.text$DAC_Software_Trigger_Cmd$scode_local_5:
	.align	1
	.export	DAC_Software_Trigger_Cmd
	.type	DAC_Software_Trigger_Cmd, @function
DAC_Software_Trigger_Cmd:
.LFB5:
.LM102:
	.cfi_startproc
.LVL56:
	PUSH	{r6, r7, r8, lr}
	.cfi_def_cfa_offset 16
	MOV	r6,r0
	MOV	r7,r1
.LM103:
	MOV	r0,#1
.LVL57:
	LD	r5,#1073743616
	CMP	r6,r5
	JZ	.L85
.LM104:
	LD	r5,#1073743744
	CMP	r6,r5
	JZ	.L85
.LM105:
	LD	r5,#1073749376
	CMP	r6,r5
	JZ	.L85
	LD	r5,#1073749504
	CMP	r6,r5
	JZ	.L85
	MOV	r0,#0
.L85:
.LM106:
	LD	r5,#CHECK_RESTRICTION
	MOV	r8,r5
	LJMP	r5
.LVL58:
.LM107:
	MOV	r0,#1
	CMP	r7,r0
	JLS	.L87
	MOV	r0,#0
.L87:
	LJMP	r8
.LVL59:
.LM108:
	CMP	r7,#0
	JNZ	.L93
.LM109:
// inline asm begin
	// 215 "../src/kf32a9k1xxx_dac.c" 1
	CLR [r6], #14
	// 0 "" 2
.LM110:
// inline asm end
	POP	{r6, r7, r8}
	.cfi_remember_state
	.cfi_def_cfa_offset 4
.LVL60:
	POP	lr
	.cfi_def_cfa_offset 0
	JMP	lr
.LVL61:
.L93:
	.cfi_restore_state
.LM111:
// inline asm begin
	// 210 "../src/kf32a9k1xxx_dac.c" 1
	SET [r6], #14
	// 0 "" 2
.LM112:
// inline asm end
	POP	{r6, r7, r8}
	.cfi_def_cfa_offset 4
.LVL62:
	POP	lr
	.cfi_def_cfa_offset 0
	JMP	lr
	.cfi_endproc
.LFE5:
	.size	DAC_Software_Trigger_Cmd, .-DAC_Software_Trigger_Cmd
	.section .text$DAC_DMA_Cmd
	.type	.text$DAC_DMA_Cmd$scode_local_6, @function
	.text$DAC_DMA_Cmd$scode_local_6:
	.align	1
	.export	DAC_DMA_Cmd
	.type	DAC_DMA_Cmd, @function
DAC_DMA_Cmd:
.LFB6:
.LM113:
	.cfi_startproc
.LVL63:
	PUSH	{r6, r7, r8, lr}
	.cfi_def_cfa_offset 16
	MOV	r6,r0
	MOV	r7,r1
.LM114:
	MOV	r0,#1
.LVL64:
	LD	r5,#1073743616
	CMP	r6,r5
	JZ	.L95
.LM115:
	LD	r5,#1073743744
	CMP	r6,r5
	JZ	.L95
.LM116:
	LD	r5,#1073749376
	CMP	r6,r5
	JZ	.L95
	LD	r5,#1073749504
	CMP	r6,r5
	JZ	.L95
	MOV	r0,#0
.L95:
.LM117:
	LD	r5,#CHECK_RESTRICTION
	MOV	r8,r5
	LJMP	r5
.LVL65:
.LM118:
	MOV	r0,#1
	CMP	r7,r0
	JLS	.L97
	MOV	r0,#0
.L97:
	LJMP	r8
.LVL66:
.LM119:
	CMP	r7,#0
	JNZ	.L103
.LM120:
// inline asm begin
	// 241 "../src/kf32a9k1xxx_dac.c" 1
	CLR [r6], #1
	// 0 "" 2
.LM121:
// inline asm end
	POP	{r6, r7, r8}
	.cfi_remember_state
	.cfi_def_cfa_offset 4
.LVL67:
	POP	lr
	.cfi_def_cfa_offset 0
	JMP	lr
.LVL68:
.L103:
	.cfi_restore_state
.LM122:
// inline asm begin
	// 236 "../src/kf32a9k1xxx_dac.c" 1
	SET [r6], #1
	// 0 "" 2
.LM123:
// inline asm end
	POP	{r6, r7, r8}
	.cfi_def_cfa_offset 4
.LVL69:
	POP	lr
	.cfi_def_cfa_offset 0
	JMP	lr
	.cfi_endproc
.LFE6:
	.size	DAC_DMA_Cmd, .-DAC_DMA_Cmd
	.section .text$DAC_Output_Buffer_Config
	.type	.text$DAC_Output_Buffer_Config$scode_local_7, @function
	.text$DAC_Output_Buffer_Config$scode_local_7:
	.align	1
	.export	DAC_Output_Buffer_Config
	.type	DAC_Output_Buffer_Config, @function
DAC_Output_Buffer_Config:
.LFB7:
.LM124:
	.cfi_startproc
.LVL70:
	PUSH	{r6, r7, r8, lr}
	.cfi_def_cfa_offset 16
	MOV	r6,r0
	MOV	r7,r1
.LM125:
	MOV	r0,#1
.LVL71:
	LD	r5,#1073743616
	CMP	r6,r5
	JZ	.L105
.LM126:
	LD	r5,#1073743744
	CMP	r6,r5
	JZ	.L105
.LM127:
	LD	r5,#1073749376
	CMP	r6,r5
	JZ	.L105
	LD	r5,#1073749504
	CMP	r6,r5
	JZ	.L105
	MOV	r0,#0
.L105:
.LM128:
	LD	r5,#CHECK_RESTRICTION
	MOV	r8,r5
	LJMP	r5
.LVL72:
.LM129:
	MOV	r0,#1
	CMP	r7,r0
	JLS	.L107
	MOV	r0,#0
.L107:
	LJMP	r8
.LVL73:
.LM130:
	ADD	r6,#12
.LVL74:
.LM131:
	CMP	r7,#0
	JNZ	.L113
.LM132:
// inline asm begin
	// 267 "../src/kf32a9k1xxx_dac.c" 1
	CLR [r6], #6
	// 0 "" 2
.LM133:
// inline asm end
	POP	{r6, r7, r8}
	.cfi_remember_state
	.cfi_def_cfa_offset 4
.LVL75:
	POP	lr
	.cfi_def_cfa_offset 0
	JMP	lr
.LVL76:
.L113:
	.cfi_restore_state
.LM134:
// inline asm begin
	// 262 "../src/kf32a9k1xxx_dac.c" 1
	SET [r6], #6
	// 0 "" 2
.LM135:
// inline asm end
	POP	{r6, r7, r8}
	.cfi_def_cfa_offset 4
.LVL77:
	POP	lr
	.cfi_def_cfa_offset 0
	JMP	lr
	.cfi_endproc
.LFE7:
	.size	DAC_Output_Buffer_Config, .-DAC_Output_Buffer_Config
	.section .text$DAC_Output_Port_Config
	.type	.text$DAC_Output_Port_Config$scode_local_8, @function
	.text$DAC_Output_Port_Config$scode_local_8:
	.align	1
	.export	DAC_Output_Port_Config
	.type	DAC_Output_Port_Config, @function
DAC_Output_Port_Config:
.LFB8:
.LM136:
	.cfi_startproc
.LVL78:
	PUSH	{r6, r7, r8, lr}
	.cfi_def_cfa_offset 16
	MOV	r6,r0
	MOV	r7,r1
.LM137:
	MOV	r0,#1
.LVL79:
	LD	r5,#1073743616
	CMP	r6,r5
	JZ	.L115
.LM138:
	LD	r5,#1073743744
	CMP	r6,r5
	JZ	.L115
.LM139:
	LD	r5,#1073749376
	CMP	r6,r5
	JZ	.L115
	LD	r5,#1073749504
	CMP	r6,r5
	JZ	.L115
	MOV	r0,#0
.L115:
.LM140:
	LD	r5,#CHECK_RESTRICTION
	MOV	r8,r5
	LJMP	r5
.LVL80:
.LM141:
	MOV	r0,#1
	CMP	r7,r0
	JLS	.L117
	MOV	r0,#0
.L117:
	LJMP	r8
.LVL81:
.LM142:
	ADD	r6,#12
.LVL82:
.LM143:
	CMP	r7,#0
	JNZ	.L123
.LM144:
// inline asm begin
	// 293 "../src/kf32a9k1xxx_dac.c" 1
	CLR [r6], #0
	// 0 "" 2
.LM145:
// inline asm end
	POP	{r6, r7, r8}
	.cfi_remember_state
	.cfi_def_cfa_offset 4
.LVL83:
	POP	lr
	.cfi_def_cfa_offset 0
	JMP	lr
.LVL84:
.L123:
	.cfi_restore_state
.LM146:
// inline asm begin
	// 288 "../src/kf32a9k1xxx_dac.c" 1
	SET [r6], #0
	// 0 "" 2
.LM147:
// inline asm end
	POP	{r6, r7, r8}
	.cfi_def_cfa_offset 4
.LVL85:
	POP	lr
	.cfi_def_cfa_offset 0
	JMP	lr
	.cfi_endproc
.LFE8:
	.size	DAC_Output_Port_Config, .-DAC_Output_Port_Config
	.section .text$DAC_Write_Output_Data
	.type	.text$DAC_Write_Output_Data$scode_local_9, @function
	.text$DAC_Write_Output_Data$scode_local_9:
	.align	1
	.export	DAC_Write_Output_Data
	.type	DAC_Write_Output_Data, @function
DAC_Write_Output_Data:
.LFB9:
.LM148:
	.cfi_startproc
.LVL86:
	PUSH	{r6, r7, r8, lr}
	.cfi_def_cfa_offset 16
	MOV	r6,r0
	MOV	r7,r1
.LM149:
	LD	r5,#1073743616
	CMP	r0,r5
	JZ	.L129
.LM150:
	LD	r5,#1073743744
	CMP	r0,r5
	JZ	.L129
.LM151:
	LD	r5,#1073749376
	MOV	r0,#1
.LVL87:
	CMP	r6,r5
	JZ	.L125
	LD	r5,#1073749504
	CMP	r6,r5
	JZ	.L125
	MOV	r0,#0
.L125:
.LM152:
	LD	r4,#CHECK_RESTRICTION
	MOV	r8,r4
	LJMP	r4
.LVL88:
.LM153:
	MOV	r4,#12
	LSR	r5,r7,r4
	MOV	r0,#1
	CMP	r5,#0
	JZ	.L127
	MOV	r0,#0
.L127:
	LJMP	r8
.LVL89:
.LM154:
	ST.w	[r6+#1],r7
.LM155:
	POP	{r6, r7, r8}
	.cfi_remember_state
	.cfi_def_cfa_offset 4
.LVL90:
	POP	lr
	.cfi_def_cfa_offset 0
	JMP	lr
.LVL91:
.L129:
	.cfi_restore_state
.LM156:
	MOV	r0,#1
.LVL92:
	JMP	.L125
	.cfi_endproc
.LFE9:
	.size	DAC_Write_Output_Data, .-DAC_Write_Output_Data
	.section .text$DAC_Read_Output_Data
	.type	.text$DAC_Read_Output_Data$scode_local_10, @function
	.text$DAC_Read_Output_Data$scode_local_10:
	.align	1
	.export	DAC_Read_Output_Data
	.type	DAC_Read_Output_Data, @function
DAC_Read_Output_Data:
.LFB10:
.LM157:
	.cfi_startproc
.LVL93:
	PUSH	{r6, lr}
	.cfi_def_cfa_offset 8
	MOV	r6,r0
.LM158:
	LD	r5,#1073743616
	CMP	r0,r5
	JZ	.L138
.LM159:
	LD	r5,#1073743744
	CMP	r0,r5
	JZ	.L138
.LM160:
	LD	r5,#1073749376
	MOV	r0,#1
.LVL94:
	CMP	r6,r5
	JZ	.L135
	LD	r5,#1073749504
	CMP	r6,r5
	JZ	.L135
	MOV	r0,#0
.L135:
.LM161:
	LD	r5,#CHECK_RESTRICTION
	LJMP	r5
.LVL95:
.LM162:
	LD.w	r5,[r6+#2]
	MOV	r4,#0
	SUB	r4,r4,r5
	ORL	r0,r4,r5
.LM163:
	LSR	r0,#31
	POP	r6
	.cfi_remember_state
	.cfi_def_cfa_offset 4
.LVL96:
	POP	lr
	.cfi_def_cfa_offset 0
	JMP	lr
.LVL97:
.L138:
	.cfi_restore_state
.LM164:
	MOV	r0,#1
.LVL98:
	JMP	.L135
	.cfi_endproc
.LFE10:
	.size	DAC_Read_Output_Data, .-DAC_Read_Output_Data
	.section .text$DAC_PCalibration_Direction_Config
	.type	.text$DAC_PCalibration_Direction_Config$scode_local_11, @function
	.text$DAC_PCalibration_Direction_Config$scode_local_11:
	.align	1
	.export	DAC_PCalibration_Direction_Config
	.type	DAC_PCalibration_Direction_Config, @function
DAC_PCalibration_Direction_Config:
.LFB11:
.LM165:
	.cfi_startproc
.LVL99:
	PUSH	{r6, r7, r8, lr}
	.cfi_def_cfa_offset 16
	MOV	r6,r0
	MOV	r7,r1
.LVL100:
.LM166:
	LD	r5,#1073743616
	CMP	r0,r5
	JZ	.L145
.LM167:
	LD	r5,#1073743744
	CMP	r0,r5
	JZ	.L145
.LM168:
	LD	r5,#1073749376
	MOV	r0,#1
.LVL101:
	CMP	r6,r5
	JZ	.L141
	LD	r5,#1073749504
	CMP	r6,r5
	JZ	.L141
	MOV	r0,#0
.L141:
.LM169:
	LD	r5,#CHECK_RESTRICTION
	MOV	r8,r5
	LJMP	r5
.LVL102:
.LM170:
	MOV	r0,#1
	CMP	r7,r0
	JLS	.L143
	MOV	r0,#0
.L143:
	LJMP	r8
.LVL103:
.LM171:
	LD.w	r5,[r6+#5]
.LVL104:
.LM172:
	LSL	r7,#30
.LVL105:
.LBB30:
.LBB31:
.LM173:
	CLR	r5,#30
.LVL106:
	ORL	r7,r7,r5
.LVL107:
.LBE31:
.LBE30:
.LM174:
	ST.w	[r6+#5],r7
.LM175:
	POP	{r6, r7, r8}
	.cfi_remember_state
	.cfi_def_cfa_offset 4
	POP	lr
	.cfi_def_cfa_offset 0
	JMP	lr
.LVL108:
.L145:
	.cfi_restore_state
.LM176:
	MOV	r0,#1
.LVL109:
	JMP	.L141
	.cfi_endproc
.LFE11:
	.size	DAC_PCalibration_Direction_Config, .-DAC_PCalibration_Direction_Config
	.section .text$DAC_PCalibration_Value_Config
	.type	.text$DAC_PCalibration_Value_Config$scode_local_12, @function
	.text$DAC_PCalibration_Value_Config$scode_local_12:
	.align	1
	.export	DAC_PCalibration_Value_Config
	.type	DAC_PCalibration_Value_Config, @function
DAC_PCalibration_Value_Config:
.LFB12:
.LM177:
	.cfi_startproc
.LVL110:
	PUSH	{r6, r7, r8, lr}
	.cfi_def_cfa_offset 16
	MOV	r6,r0
	MOV	r7,r1
.LVL111:
.LM178:
	LD	r5,#1073743616
	CMP	r0,r5
	JZ	.L152
.LM179:
	LD	r5,#1073743744
	CMP	r0,r5
	JZ	.L152
.LM180:
	LD	r5,#1073749376
	MOV	r0,#1
.LVL112:
	CMP	r6,r5
	JZ	.L148
	LD	r5,#1073749504
	CMP	r6,r5
	JZ	.L148
	MOV	r0,#0
.L148:
.LM181:
	LD	r5,#CHECK_RESTRICTION
	MOV	r8,r5
	LJMP	r5
.LVL113:
.LM182:
	MOV	r0,#1
	CMP	r7,#63
	JLS	.L150
	MOV	r0,#0
.L150:
	LJMP	r8
.LVL114:
.LM183:
	LD.w	r4,[r6+#5]
.LVL115:
.LM184:
	LSL	r7,#24
.LVL116:
.LBB32:
.LBB33:
.LM185:
	LD	r5,#-1056964609
	ANL	r5,r4,r5
	ORL	r7,r7,r5
.LVL117:
.LBE33:
.LBE32:
.LM186:
	ST.w	[r6+#5],r7
.LM187:
	POP	{r6, r7, r8}
	.cfi_remember_state
	.cfi_def_cfa_offset 4
	POP	lr
	.cfi_def_cfa_offset 0
	JMP	lr
.LVL118:
.L152:
	.cfi_restore_state
.LM188:
	MOV	r0,#1
.LVL119:
	JMP	.L148
	.cfi_endproc
.LFE12:
	.size	DAC_PCalibration_Value_Config, .-DAC_PCalibration_Value_Config
	.section .text$DAC_PCalibration_Value_Read
	.type	.text$DAC_PCalibration_Value_Read$scode_local_13, @function
	.text$DAC_PCalibration_Value_Read$scode_local_13:
	.align	1
	.export	DAC_PCalibration_Value_Read
	.type	DAC_PCalibration_Value_Read, @function
DAC_PCalibration_Value_Read:
.LFB13:
.LM189:
	.cfi_startproc
.LVL120:
	PUSH	{r6, lr}
	.cfi_def_cfa_offset 8
	MOV	r6,r0
.LVL121:
.LM190:
	LD	r5,#1073743616
	CMP	r0,r5
	JZ	.L158
.LM191:
	LD	r5,#1073743744
	CMP	r0,r5
	JZ	.L158
.LM192:
	LD	r5,#1073749376
	MOV	r0,#1
.LVL122:
	CMP	r6,r5
	JZ	.L155
	LD	r5,#1073749504
	CMP	r6,r5
	JZ	.L155
	MOV	r0,#0
.L155:
.LM193:
	LD	r5,#CHECK_RESTRICTION
	LJMP	r5
.LVL123:
.LM194:
	LD.w	r5,[r6+#5]
.LM195:
	MOV	r0,#0
	POP	r6
	.cfi_remember_state
	.cfi_def_cfa_offset 4
.LVL124:
	POP	lr
	.cfi_def_cfa_offset 0
	JMP	lr
.LVL125:
.L158:
	.cfi_restore_state
.LM196:
	MOV	r0,#1
.LVL126:
	LD	r5,#CHECK_RESTRICTION
	LJMP	r5
.LVL127:
.LM197:
	LD.w	r5,[r6+#5]
.LM198:
	MOV	r0,#0
	POP	r6
	.cfi_def_cfa_offset 4
.LVL128:
	POP	lr
	.cfi_def_cfa_offset 0
	JMP	lr
	.cfi_endproc
.LFE13:
	.size	DAC_PCalibration_Value_Read, .-DAC_PCalibration_Value_Read
	.section .text$DAC_NCalibration_Direction_Config
	.type	.text$DAC_NCalibration_Direction_Config$scode_local_14, @function
	.text$DAC_NCalibration_Direction_Config$scode_local_14:
	.align	1
	.export	DAC_NCalibration_Direction_Config
	.type	DAC_NCalibration_Direction_Config, @function
DAC_NCalibration_Direction_Config:
.LFB14:
.LM199:
	.cfi_startproc
.LVL129:
	PUSH	{r6, r7, r8, lr}
	.cfi_def_cfa_offset 16
	MOV	r6,r0
	MOV	r7,r1
.LVL130:
.LM200:
	LD	r5,#1073743616
	CMP	r0,r5
	JZ	.L165
.LM201:
	LD	r5,#1073743744
	CMP	r0,r5
	JZ	.L165
.LM202:
	LD	r5,#1073749376
	MOV	r0,#1
.LVL131:
	CMP	r6,r5
	JZ	.L161
	LD	r5,#1073749504
	CMP	r6,r5
	JZ	.L161
	MOV	r0,#0
.L161:
.LM203:
	LD	r5,#CHECK_RESTRICTION
	MOV	r8,r5
	LJMP	r5
.LVL132:
.LM204:
	MOV	r0,#1
	CMP	r7,r0
	JLS	.L163
	MOV	r0,#0
.L163:
	LJMP	r8
.LVL133:
.LM205:
	LD.w	r5,[r6+#5]
.LVL134:
.LM206:
	LSL	r7,#22
.LVL135:
.LBB34:
.LBB35:
.LM207:
	CLR	r5,#22
.LVL136:
	ORL	r7,r7,r5
.LVL137:
.LBE35:
.LBE34:
.LM208:
	ST.w	[r6+#5],r7
.LM209:
	POP	{r6, r7, r8}
	.cfi_remember_state
	.cfi_def_cfa_offset 4
	POP	lr
	.cfi_def_cfa_offset 0
	JMP	lr
.LVL138:
.L165:
	.cfi_restore_state
.LM210:
	MOV	r0,#1
.LVL139:
	JMP	.L161
	.cfi_endproc
.LFE14:
	.size	DAC_NCalibration_Direction_Config, .-DAC_NCalibration_Direction_Config
	.section .text$DAC_NCalibration_Value_Config
	.type	.text$DAC_NCalibration_Value_Config$scode_local_15, @function
	.text$DAC_NCalibration_Value_Config$scode_local_15:
	.align	1
	.export	DAC_NCalibration_Value_Config
	.type	DAC_NCalibration_Value_Config, @function
DAC_NCalibration_Value_Config:
.LFB15:
.LM211:
	.cfi_startproc
.LVL140:
	PUSH	{r6, r7, r8, lr}
	.cfi_def_cfa_offset 16
	MOV	r6,r0
	MOV	r7,r1
.LVL141:
.LM212:
	LD	r5,#1073743616
	CMP	r0,r5
	JZ	.L172
.LM213:
	LD	r5,#1073743744
	CMP	r0,r5
	JZ	.L172
.LM214:
	LD	r5,#1073749376
	MOV	r0,#1
.LVL142:
	CMP	r6,r5
	JZ	.L168
	LD	r5,#1073749504
	CMP	r6,r5
	JZ	.L168
	MOV	r0,#0
.L168:
.LM215:
	LD	r5,#CHECK_RESTRICTION
	MOV	r8,r5
	LJMP	r5
.LVL143:
.LM216:
	MOV	r0,#1
	CMP	r7,#63
	JLS	.L170
	MOV	r0,#0
.L170:
	LJMP	r8
.LVL144:
.LM217:
	LD.w	r4,[r6+#5]
.LVL145:
.LM218:
	LSL	r7,#16
.LVL146:
.LBB36:
.LBB37:
.LM219:
	LD	r5,#-4128769
	ANL	r5,r4,r5
	ORL	r7,r7,r5
.LVL147:
.LBE37:
.LBE36:
.LM220:
	ST.w	[r6+#5],r7
.LM221:
	POP	{r6, r7, r8}
	.cfi_remember_state
	.cfi_def_cfa_offset 4
	POP	lr
	.cfi_def_cfa_offset 0
	JMP	lr
.LVL148:
.L172:
	.cfi_restore_state
.LM222:
	MOV	r0,#1
.LVL149:
	JMP	.L168
	.cfi_endproc
.LFE15:
	.size	DAC_NCalibration_Value_Config, .-DAC_NCalibration_Value_Config
	.section .text$DAC_NCalibration_Value_Read
	.type	.text$DAC_NCalibration_Value_Read$scode_local_16, @function
	.text$DAC_NCalibration_Value_Read$scode_local_16:
	.align	1
	.export	DAC_NCalibration_Value_Read
	.type	DAC_NCalibration_Value_Read, @function
DAC_NCalibration_Value_Read:
.LFB16:
.LM223:
	.cfi_startproc
.LVL150:
	PUSH	{r6, lr}
	.cfi_def_cfa_offset 8
	MOV	r6,r0
.LVL151:
.LM224:
	LD	r5,#1073743616
	CMP	r0,r5
	JZ	.L178
.LM225:
	LD	r5,#1073743744
	CMP	r0,r5
	JZ	.L178
.LM226:
	LD	r5,#1073749376
	MOV	r0,#1
.LVL152:
	CMP	r6,r5
	JZ	.L175
	LD	r5,#1073749504
	CMP	r6,r5
	JZ	.L175
	MOV	r0,#0
.L175:
.LM227:
	LD	r5,#CHECK_RESTRICTION
	LJMP	r5
.LVL153:
.LM228:
	LD.w	r5,[r6+#5]
.LM229:
	MOV	r0,#0
	POP	r6
	.cfi_remember_state
	.cfi_def_cfa_offset 4
.LVL154:
	POP	lr
	.cfi_def_cfa_offset 0
	JMP	lr
.LVL155:
.L178:
	.cfi_restore_state
.LM230:
	MOV	r0,#1
.LVL156:
	LD	r5,#CHECK_RESTRICTION
	LJMP	r5
.LVL157:
.LM231:
	LD.w	r5,[r6+#5]
.LM232:
	MOV	r0,#0
	POP	r6
	.cfi_def_cfa_offset 4
.LVL158:
	POP	lr
	.cfi_def_cfa_offset 0
	JMP	lr
	.cfi_endproc
.LFE16:
	.size	DAC_NCalibration_Value_Read, .-DAC_NCalibration_Value_Read
	.section .text$DAC_TRIM_STATE_Value_Read
	.type	.text$DAC_TRIM_STATE_Value_Read$scode_local_17, @function
	.text$DAC_TRIM_STATE_Value_Read$scode_local_17:
	.align	1
	.export	DAC_TRIM_STATE_Value_Read
	.type	DAC_TRIM_STATE_Value_Read, @function
DAC_TRIM_STATE_Value_Read:
.LFB17:
.LM233:
	.cfi_startproc
.LVL159:
	PUSH	{r6, lr}
	.cfi_def_cfa_offset 8
	MOV	r6,r0
.LVL160:
.LM234:
	LD	r5,#1073743616
	CMP	r0,r5
	JZ	.L184
.LM235:
	LD	r5,#1073743744
	CMP	r0,r5
	JZ	.L184
.LM236:
	LD	r5,#1073749376
	MOV	r0,#1
.LVL161:
	CMP	r6,r5
	JZ	.L181
	LD	r5,#1073749504
	CMP	r6,r5
	JZ	.L181
	MOV	r0,#0
.L181:
.LM237:
	LD	r5,#CHECK_RESTRICTION
	LJMP	r5
.LVL162:
.LM238:
	LD.w	r5,[r6+#5]
.LM239:
	MOV	r0,#0
	POP	r6
	.cfi_remember_state
	.cfi_def_cfa_offset 4
.LVL163:
	POP	lr
	.cfi_def_cfa_offset 0
	JMP	lr
.LVL164:
.L184:
	.cfi_restore_state
.LM240:
	MOV	r0,#1
.LVL165:
	LD	r5,#CHECK_RESTRICTION
	LJMP	r5
.LVL166:
.LM241:
	LD.w	r5,[r6+#5]
.LM242:
	MOV	r0,#0
	POP	r6
	.cfi_def_cfa_offset 4
.LVL167:
	POP	lr
	.cfi_def_cfa_offset 0
	JMP	lr
	.cfi_endproc
.LFE17:
	.size	DAC_TRIM_STATE_Value_Read, .-DAC_TRIM_STATE_Value_Read
	.section .text$DAC_TRIMHI_Enable
	.type	.text$DAC_TRIMHI_Enable$scode_local_18, @function
	.text$DAC_TRIMHI_Enable$scode_local_18:
	.align	1
	.export	DAC_TRIMHI_Enable
	.type	DAC_TRIMHI_Enable, @function
DAC_TRIMHI_Enable:
.LFB18:
.LM243:
	.cfi_startproc
.LVL168:
	PUSH	{r6, r7, r8, lr}
	.cfi_def_cfa_offset 16
	MOV	r6,r0
	MOV	r7,r1
.LVL169:
.LM244:
	LD	r5,#1073743616
	CMP	r0,r5
	JZ	.L191
.LM245:
	LD	r5,#1073743744
	CMP	r0,r5
	JZ	.L191
.LM246:
	LD	r5,#1073749376
	MOV	r0,#1
.LVL170:
	CMP	r6,r5
	JZ	.L187
	LD	r5,#1073749504
	CMP	r6,r5
	JZ	.L187
	MOV	r0,#0
.L187:
.LM247:
	LD	r5,#CHECK_RESTRICTION
	MOV	r8,r5
	LJMP	r5
.LVL171:
.LM248:
	MOV	r0,#1
	CMP	r7,r0
	JLS	.L189
	MOV	r0,#0
.L189:
	LJMP	r8
.LVL172:
.LM249:
	LD.w	r5,[r6+#5]
.LVL173:
.LM250:
	LSL	r7,#14
.LVL174:
.LBB38:
.LBB39:
.LM251:
	CLR	r5,#14
.LVL175:
	ORL	r7,r7,r5
.LVL176:
.LBE39:
.LBE38:
.LM252:
	ST.w	[r6+#5],r7
.LM253:
	POP	{r6, r7, r8}
	.cfi_remember_state
	.cfi_def_cfa_offset 4
	POP	lr
	.cfi_def_cfa_offset 0
	JMP	lr
.LVL177:
.L191:
	.cfi_restore_state
.LM254:
	MOV	r0,#1
.LVL178:
	JMP	.L187
	.cfi_endproc
.LFE18:
	.size	DAC_TRIMHI_Enable, .-DAC_TRIMHI_Enable
	.section .text$DAC_TRIMLO_Enable
	.type	.text$DAC_TRIMLO_Enable$scode_local_19, @function
	.text$DAC_TRIMLO_Enable$scode_local_19:
	.align	1
	.export	DAC_TRIMLO_Enable
	.type	DAC_TRIMLO_Enable, @function
DAC_TRIMLO_Enable:
.LFB19:
.LM255:
	.cfi_startproc
.LVL179:
	PUSH	{r6, r7, r8, lr}
	.cfi_def_cfa_offset 16
	MOV	r6,r0
	MOV	r7,r1
.LVL180:
.LM256:
	LD	r5,#1073743616
	CMP	r0,r5
	JZ	.L198
.LM257:
	LD	r5,#1073743744
	CMP	r0,r5
	JZ	.L198
.LM258:
	LD	r5,#1073749376
	MOV	r0,#1
.LVL181:
	CMP	r6,r5
	JZ	.L194
	LD	r5,#1073749504
	CMP	r6,r5
	JZ	.L194
	MOV	r0,#0
.L194:
.LM259:
	LD	r5,#CHECK_RESTRICTION
	MOV	r8,r5
	LJMP	r5
.LVL182:
.LM260:
	MOV	r0,#1
	CMP	r7,r0
	JLS	.L196
	MOV	r0,#0
.L196:
	LJMP	r8
.LVL183:
.LM261:
	LD.w	r5,[r6+#5]
.LVL184:
.LM262:
	LSL	r7,#13
.LVL185:
.LBB40:
.LBB41:
.LM263:
	CLR	r5,#13
.LVL186:
	ORL	r7,r7,r5
.LVL187:
.LBE41:
.LBE40:
.LM264:
	ST.w	[r6+#5],r7
.LM265:
	POP	{r6, r7, r8}
	.cfi_remember_state
	.cfi_def_cfa_offset 4
	POP	lr
	.cfi_def_cfa_offset 0
	JMP	lr
.LVL188:
.L198:
	.cfi_restore_state
.LM266:
	MOV	r0,#1
.LVL189:
	JMP	.L194
	.cfi_endproc
.LFE19:
	.size	DAC_TRIMLO_Enable, .-DAC_TRIMLO_Enable
	.section .text$DAC_Test_Group_Config
	.type	.text$DAC_Test_Group_Config$scode_local_20, @function
	.text$DAC_Test_Group_Config$scode_local_20:
	.align	1
	.export	DAC_Test_Group_Config
	.type	DAC_Test_Group_Config, @function
DAC_Test_Group_Config:
.LFB20:
.LM267:
	.cfi_startproc
.LVL190:
	PUSH	{r6, r7, r8, lr}
	.cfi_def_cfa_offset 16
	MOV	r6,r0
	MOV	r7,r1
.LVL191:
.LM268:
	LD	r5,#1073743616
	CMP	r0,r5
	JZ	.L205
.LM269:
	LD	r5,#1073743744
	CMP	r0,r5
	JZ	.L205
.LM270:
	LD	r5,#1073749376
	MOV	r0,#1
.LVL192:
	CMP	r6,r5
	JZ	.L201
	LD	r5,#1073749504
	CMP	r6,r5
	JZ	.L201
	MOV	r0,#0
.L201:
.LM271:
	LD	r5,#CHECK_RESTRICTION
	MOV	r8,r5
	LJMP	r5
.LVL193:
.LM272:
	MOV	r0,#1
	CMP	r7,#3
	JLS	.L203
	MOV	r0,#0
.L203:
	LJMP	r8
.LVL194:
.LM273:
	LD.w	r5,[r6+#5]
.LVL195:
.LM274:
	ADD	r7,r7,r7
.LVL196:
.LBB42:
.LBB43:
.LM275:
	CLR	r5,#1
	CLR	r5,#2
.LVL197:
	ORL	r7,r7,r5
.LBE43:
.LBE42:
.LM276:
	ST.w	[r6+#5],r7
.LM277:
	POP	{r6, r7, r8}
	.cfi_remember_state
	.cfi_def_cfa_offset 4
	POP	lr
	.cfi_def_cfa_offset 0
	JMP	lr
.LVL198:
.L205:
	.cfi_restore_state
.LM278:
	MOV	r0,#1
.LVL199:
	JMP	.L201
	.cfi_endproc
.LFE20:
	.size	DAC_Test_Group_Config, .-DAC_Test_Group_Config
	.section .text$DAC_Test_Group_Enable
	.type	.text$DAC_Test_Group_Enable$scode_local_21, @function
	.text$DAC_Test_Group_Enable$scode_local_21:
	.align	1
	.export	DAC_Test_Group_Enable
	.type	DAC_Test_Group_Enable, @function
DAC_Test_Group_Enable:
.LFB21:
.LM279:
	.cfi_startproc
.LVL200:
	PUSH	{r6, r7, r8, lr}
	.cfi_def_cfa_offset 16
	MOV	r6,r0
	MOV	r7,r1
.LVL201:
.LM280:
	LD	r5,#1073743616
	CMP	r0,r5
	JZ	.L212
.LM281:
	LD	r5,#1073743744
	CMP	r0,r5
	JZ	.L212
.LM282:
	LD	r5,#1073749376
	MOV	r0,#1
.LVL202:
	CMP	r6,r5
	JZ	.L208
	LD	r5,#1073749504
	CMP	r6,r5
	JZ	.L208
	MOV	r0,#0
.L208:
.LM283:
	LD	r5,#CHECK_RESTRICTION
	MOV	r8,r5
	LJMP	r5
.LVL203:
.LM284:
	MOV	r0,#1
	CMP	r7,r0
	JLS	.L210
	MOV	r0,#0
.L210:
	LJMP	r8
.LVL204:
.LM285:
	LD.w	r5,[r6+#5]
.LVL205:
.LBB44:
.LBB45:
.LM286:
	CLR	r5,#0
.LVL206:
	ORL	r7,r7,r5
.LVL207:
.LBE45:
.LBE44:
.LM287:
	ST.w	[r6+#5],r7
.LM288:
	POP	{r6, r7, r8}
	.cfi_remember_state
	.cfi_def_cfa_offset 4
	POP	lr
	.cfi_def_cfa_offset 0
	JMP	lr
.LVL208:
.L212:
	.cfi_restore_state
.LM289:
	MOV	r0,#1
.LVL209:
	JMP	.L208
	.cfi_endproc
.LFE21:
	.size	DAC_Test_Group_Enable, .-DAC_Test_Group_Enable
	.text	
.Letext0: