	.file	"kf32a9k1xxx_fdc.c"
	.text	
.Ltext0:
	.cfi_sections	.debug_frame
	.section .text$FDC_Reset
	.type	.text$FDC_Reset$scode_local_1, @function
	.text$FDC_Reset$scode_local_1:
	.align	1
	.export	FDC_Reset
	.type	FDC_Reset, @function
FDC_Reset:
.LFB1:
.LM1:
	.cfi_startproc
.LVL0:
	PUSH	{r6, lr}
	.cfi_def_cfa_offset 8
.LM2:
	LD	r5,#1073752960
	CMP	r0,r5
	JZ	.L2
.LM3:
	LD	r5,#1073753088
	CMP	r0,r5
	JZ	.L3
.LM4:
	MOV	r6,#1
	LD	r5,#1073753216
	CMP	r0,r5
	JZ	.L4
	MOV	r6,#0
.L4:
	ZXT.b	r6,r6
	MOV	r0,r6
.LVL1:
	LD	r5,#CHECK_RESTRICTION
	LJMP	r5
.LVL2:
.LM5:
	CMP	r6,#0
	JNZ	.L10
.L1:
.LM6:
	POP	r6
	.cfi_remember_state
	.cfi_def_cfa_offset 4
	POP	lr
	.cfi_def_cfa_offset 0
	JMP	lr
.LVL3:
.L2:
	.cfi_restore_state
.LM7:
	MOV	r0,#1
.LVL4:
	LD	r5,#CHECK_RESTRICTION
	LJMP	r5
.LVL5:
.LM8:
	MOV	r0,#1
	LSL	r0,#22
	MOV	r1,#1
	LD	r6,#RST_CTL3_Peripheral_Reset_Enable
	LJMP	r6
.LVL6:
.LM9:
	MOV	r0,#1
	LSL	r0,#22
	MOV	r1,#0
	LJMP	r6
.LVL7:
.LM10:
	MOV	r0,#1
	LSL	r0,#22
	MOV	r1,#1
	LD	r5,#PCLK_CTL3_Peripheral_Clock_Enable
	LJMP	r5
.LVL8:
.LM11:
	POP	r6
	.cfi_remember_state
	.cfi_def_cfa_offset 4
	POP	lr
	.cfi_def_cfa_offset 0
	JMP	lr
.LVL9:
.L3:
	.cfi_restore_state
.LM12:
	MOV	r0,#1
.LVL10:
	LD	r5,#CHECK_RESTRICTION
	LJMP	r5
.LVL11:
.LM13:
	MOV	r0,#1
	LSL	r0,#23
	MOV	r1,#1
	LD	r6,#RST_CTL3_Peripheral_Reset_Enable
	LJMP	r6
.LVL12:
.LM14:
	MOV	r0,#1
	LSL	r0,#23
	MOV	r1,#0
	LJMP	r6
.LVL13:
.LM15:
	MOV	r0,#1
	LSL	r0,#23
	MOV	r1,#1
	LD	r5,#PCLK_CTL3_Peripheral_Clock_Enable
	LJMP	r5
.LVL14:
.LM16:
	POP	r6
	.cfi_remember_state
	.cfi_def_cfa_offset 4
	POP	lr
	.cfi_def_cfa_offset 0
	JMP	lr
.L10:
	.cfi_restore_state
.LM17:
	MOV	r0,#1
	LSL	r0,#24
	MOV	r1,#1
	LD	r6,#RST_CTL3_Peripheral_Reset_Enable
	LJMP	r6
.LVL15:
.LM18:
	MOV	r0,#1
	LSL	r0,#24
	MOV	r1,#0
	LJMP	r6
.LVL16:
.LM19:
	MOV	r0,#1
	LSL	r0,#24
	MOV	r1,#1
	LD	r5,#PCLK_CTL3_Peripheral_Clock_Enable
	LJMP	r5
.LVL17:
	JMP	.L1
	.cfi_endproc
.LFE1:
	.size	FDC_Reset, .-FDC_Reset
	.section .text$FDC_TRGI_Count_Reset_Enable
	.type	.text$FDC_TRGI_Count_Reset_Enable$scode_local_2, @function
	.text$FDC_TRGI_Count_Reset_Enable$scode_local_2:
	.align	1
	.export	FDC_TRGI_Count_Reset_Enable
	.type	FDC_TRGI_Count_Reset_Enable, @function
FDC_TRGI_Count_Reset_Enable:
.LFB2:
.LM20:
	.cfi_startproc
.LVL18:
	PUSH	{r6, r7, r8, lr}
	.cfi_def_cfa_offset 16
	MOV	r6,r0
	MOV	r7,r1
.LVL19:
.LM21:
	LD	r5,#1073752960
	CMP	r0,r5
	JZ	.L15
.LM22:
	LD	r5,#1073753088
	MOV	r0,#1
.LVL20:
	CMP	r6,r5
	JZ	.L12
.LM23:
	LD	r5,#1073753216
	CMP	r6,r5
	JZ	.L12
	MOV	r0,#0
.L12:
.LM24:
	LD	r5,#CHECK_RESTRICTION
	MOV	r8,r5
	LJMP	r5
.LVL21:
.LM25:
	MOV	r0,#1
	CMP	r7,r0
	JLS	.L14
	MOV	r0,#0
.L14:
	LJMP	r8
.LVL22:
.LM26:
	LD.w	r5,[r6]
.LVL23:
.LM27:
	LSL	r7,#26
.LVL24:
.LBB118:
.LBB119:
.LM28:
	CLR	r5,#26
.LVL25:
	ORL	r7,r7,r5
.LVL26:
.LBE119:
.LBE118:
.LM29:
	ST.w	[r6],r7
.LM30:
	POP	{r6, r7, r8}
	.cfi_remember_state
	.cfi_def_cfa_offset 4
	POP	lr
	.cfi_def_cfa_offset 0
	JMP	lr
.LVL27:
.L15:
	.cfi_restore_state
.LM31:
	MOV	r0,#1
.LVL28:
	JMP	.L12
	.cfi_endproc
.LFE2:
	.size	FDC_TRGI_Count_Reset_Enable, .-FDC_TRGI_Count_Reset_Enable
	.section .text$FDC_Work_Clk_Select
	.type	.text$FDC_Work_Clk_Select$scode_local_3, @function
	.text$FDC_Work_Clk_Select$scode_local_3:
	.align	1
	.export	FDC_Work_Clk_Select
	.type	FDC_Work_Clk_Select, @function
FDC_Work_Clk_Select:
.LFB3:
.LM32:
	.cfi_startproc
.LVL29:
	PUSH	{r6, r7, r8, lr}
	.cfi_def_cfa_offset 16
	MOV	r6,r0
	MOV	r7,r1
.LVL30:
.LM33:
	LD	r5,#1073752960
	CMP	r0,r5
	JZ	.L21
.LM34:
	LD	r5,#1073753088
	MOV	r0,#1
.LVL31:
	CMP	r6,r5
	JZ	.L18
.LM35:
	LD	r5,#1073753216
	CMP	r6,r5
	JZ	.L18
	MOV	r0,#0
.L18:
.LM36:
	LD	r5,#CHECK_RESTRICTION
	MOV	r8,r5
	LJMP	r5
.LVL32:
.LM37:
	MOV	r0,#1
	CMP	r7,#3
	JLS	.L20
	MOV	r0,#0
.L20:
	LJMP	r8
.LVL33:
.LM38:
	LD.w	r5,[r6]
.LVL34:
.LM39:
	LSL	r7,#24
.LVL35:
.LBB120:
.LBB121:
.LM40:
	CLR	r5,#24
	CLR	r5,#25
.LVL36:
	ORL	r7,r7,r5
.LVL37:
.LBE121:
.LBE120:
.LM41:
	ST.w	[r6],r7
.LM42:
	POP	{r6, r7, r8}
	.cfi_remember_state
	.cfi_def_cfa_offset 4
	POP	lr
	.cfi_def_cfa_offset 0
	JMP	lr
.LVL38:
.L21:
	.cfi_restore_state
.LM43:
	MOV	r0,#1
.LVL39:
	JMP	.L18
	.cfi_endproc
.LFE3:
	.size	FDC_Work_Clk_Select, .-FDC_Work_Clk_Select
	.section .text$FDC_Clear_MDLIF_Flag
	.type	.text$FDC_Clear_MDLIF_Flag$scode_local_4, @function
	.text$FDC_Clear_MDLIF_Flag$scode_local_4:
	.align	1
	.export	FDC_Clear_MDLIF_Flag
	.type	FDC_Clear_MDLIF_Flag, @function
FDC_Clear_MDLIF_Flag:
.LFB4:
.LM44:
	.cfi_startproc
.LVL40:
	PUSH	{r6, r7, r8, lr}
	.cfi_def_cfa_offset 16
	MOV	r6,r0
	MOV	r7,r1
.LVL41:
.LM45:
	MOV	r0,#1
.LVL42:
	LD	r5,#1073752960
	CMP	r6,r5
	JZ	.L24
.LM46:
	LD	r5,#1073753088
	CMP	r6,r5
	JZ	.L24
.LM47:
	LD	r5,#1073753216
	CMP	r6,r5
	JZ	.L24
	MOV	r0,#0
.L24:
.LM48:
	LD	r5,#CHECK_RESTRICTION
	MOV	r8,r5
	LJMP	r5
.LVL43:
.LM49:
	MOV	r0,#1
	CMP	r7,r0
	JLS	.L26
	MOV	r0,#0
.L26:
	LJMP	r8
.LVL44:
.LM50:
	LD.w	r5,[r6]
.LVL45:
.LM51:
	LSL	r7,#23
.LVL46:
.LBB122:
.LBB123:
.LM52:
	CLR	r5,#23
.LVL47:
	ORL	r7,r7,r5
.LVL48:
.LBE123:
.LBE122:
.LM53:
	ST.w	[r6],r7
.LM54:
	MOV	r4,#1
	LSL	r4,#23
.L27:
.LM55:
	LD.w	r5,[r6]
	ANL	r5,r5,r4
	JZ	.L27
.LM56:
	LD.w	r5,[r6]
.LVL49:
.LBB124:
.LBB125:
.LM57:
	CLR	r5,#23
.LVL50:
.LBE125:
.LBE124:
.LM58:
	ST.w	[r6],r5
.LM59:
	POP	{r6, r7, r8}
	.cfi_def_cfa_offset 4
	POP	lr
	.cfi_def_cfa_offset 0
	JMP	lr
	.cfi_endproc
.LFE4:
	.size	FDC_Clear_MDLIF_Flag, .-FDC_Clear_MDLIF_Flag
	.section .text$FDC_Cycle_Scan_Enable
	.type	.text$FDC_Cycle_Scan_Enable$scode_local_5, @function
	.text$FDC_Cycle_Scan_Enable$scode_local_5:
	.align	1
	.export	FDC_Cycle_Scan_Enable
	.type	FDC_Cycle_Scan_Enable, @function
FDC_Cycle_Scan_Enable:
.LFB5:
.LM60:
	.cfi_startproc
.LVL51:
	PUSH	{r6, r7, r8, lr}
	.cfi_def_cfa_offset 16
	MOV	r6,r0
	MOV	r7,r1
.LVL52:
.LM61:
	LD	r5,#1073752960
	CMP	r0,r5
	JZ	.L38
.LM62:
	LD	r5,#1073753088
	MOV	r0,#1
.LVL53:
	CMP	r6,r5
	JZ	.L35
.LM63:
	LD	r5,#1073753216
	CMP	r6,r5
	JZ	.L35
	MOV	r0,#0
.L35:
.LM64:
	LD	r5,#CHECK_RESTRICTION
	MOV	r8,r5
	LJMP	r5
.LVL54:
.LM65:
	MOV	r0,#1
	CMP	r7,r0
	JLS	.L37
	MOV	r0,#0
.L37:
	LJMP	r8
.LVL55:
.LM66:
	LD.w	r5,[r6]
.LVL56:
.LM67:
	LSL	r7,#22
.LVL57:
.LBB126:
.LBB127:
.LM68:
	CLR	r5,#22
.LVL58:
	ORL	r7,r7,r5
.LVL59:
.LBE127:
.LBE126:
.LM69:
	ST.w	[r6],r7
.LM70:
	POP	{r6, r7, r8}
	.cfi_remember_state
	.cfi_def_cfa_offset 4
	POP	lr
	.cfi_def_cfa_offset 0
	JMP	lr
.LVL60:
.L38:
	.cfi_restore_state
.LM71:
	MOV	r0,#1
.LVL61:
	JMP	.L35
	.cfi_endproc
.LFE5:
	.size	FDC_Cycle_Scan_Enable, .-FDC_Cycle_Scan_Enable
	.section .text$FDC_Work_Mode_Select
	.type	.text$FDC_Work_Mode_Select$scode_local_6, @function
	.text$FDC_Work_Mode_Select$scode_local_6:
	.align	1
	.export	FDC_Work_Mode_Select
	.type	FDC_Work_Mode_Select, @function
FDC_Work_Mode_Select:
.LFB6:
.LM72:
	.cfi_startproc
.LVL62:
	PUSH	{r6, r7, r8, lr}
	.cfi_def_cfa_offset 16
	MOV	r6,r0
	MOV	r7,r1
.LVL63:
.LM73:
	LD	r5,#1073752960
	CMP	r0,r5
	JZ	.L44
.LM74:
	LD	r5,#1073753088
	MOV	r0,#1
.LVL64:
	CMP	r6,r5
	JZ	.L41
.LM75:
	LD	r5,#1073753216
	CMP	r6,r5
	JZ	.L41
	MOV	r0,#0
.L41:
.LM76:
	LD	r5,#CHECK_RESTRICTION
	MOV	r8,r5
	LJMP	r5
.LVL65:
.LM77:
	MOV	r0,#1
	CMP	r7,r0
	JLS	.L43
	MOV	r0,#0
.L43:
	LJMP	r8
.LVL66:
.LM78:
	LD.w	r5,[r6]
.LVL67:
.LM79:
	LSL	r7,#21
.LVL68:
.LBB128:
.LBB129:
.LM80:
	CLR	r5,#21
.LVL69:
	ORL	r7,r7,r5
.LVL70:
.LBE129:
.LBE128:
.LM81:
	ST.w	[r6],r7
.LM82:
	POP	{r6, r7, r8}
	.cfi_remember_state
	.cfi_def_cfa_offset 4
	POP	lr
	.cfi_def_cfa_offset 0
	JMP	lr
.LVL71:
.L44:
	.cfi_restore_state
.LM83:
	MOV	r0,#1
.LVL72:
	JMP	.L41
	.cfi_endproc
.LFE6:
	.size	FDC_Work_Mode_Select, .-FDC_Work_Mode_Select
	.section .text$FDC_Updata_Mode_Select
	.type	.text$FDC_Updata_Mode_Select$scode_local_7, @function
	.text$FDC_Updata_Mode_Select$scode_local_7:
	.align	1
	.export	FDC_Updata_Mode_Select
	.type	FDC_Updata_Mode_Select, @function
FDC_Updata_Mode_Select:
.LFB7:
.LM84:
	.cfi_startproc
.LVL73:
	PUSH	{r6, r7, r8, lr}
	.cfi_def_cfa_offset 16
	MOV	r6,r0
	MOV	r7,r1
.LVL74:
.LM85:
	LD	r5,#1073752960
	CMP	r0,r5
	JZ	.L50
.LM86:
	LD	r5,#1073753088
	MOV	r0,#1
.LVL75:
	CMP	r6,r5
	JZ	.L47
.LM87:
	LD	r5,#1073753216
	CMP	r6,r5
	JZ	.L47
	MOV	r0,#0
.L47:
.LM88:
	LD	r5,#CHECK_RESTRICTION
	MOV	r8,r5
	LJMP	r5
.LVL76:
.LM89:
	MOV	r0,#1
	CMP	r7,#3
	JLS	.L49
	MOV	r0,#0
.L49:
	LJMP	r8
.LVL77:
.LM90:
	LD.w	r5,[r6]
.LVL78:
.LM91:
	LSL	r7,#19
.LVL79:
.LBB130:
.LBB131:
.LM92:
	CLR	r5,#19
	CLR	r5,#20
.LVL80:
	ORL	r7,r7,r5
.LVL81:
.LBE131:
.LBE130:
.LM93:
	ST.w	[r6],r7
.LM94:
	POP	{r6, r7, r8}
	.cfi_remember_state
	.cfi_def_cfa_offset 4
	POP	lr
	.cfi_def_cfa_offset 0
	JMP	lr
.LVL82:
.L50:
	.cfi_restore_state
.LM95:
	MOV	r0,#1
.LVL83:
	JMP	.L47
	.cfi_endproc
.LFE7:
	.size	FDC_Updata_Mode_Select, .-FDC_Updata_Mode_Select
	.section .text$FDC_Sequence_Error_INT_Enable
	.type	.text$FDC_Sequence_Error_INT_Enable$scode_local_8, @function
	.text$FDC_Sequence_Error_INT_Enable$scode_local_8:
	.align	1
	.export	FDC_Sequence_Error_INT_Enable
	.type	FDC_Sequence_Error_INT_Enable, @function
FDC_Sequence_Error_INT_Enable:
.LFB8:
.LM96:
	.cfi_startproc
.LVL84:
	PUSH	{r6, r7, r8, lr}
	.cfi_def_cfa_offset 16
	MOV	r6,r0
	MOV	r7,r1
.LVL85:
.LM97:
	LD	r5,#1073752960
	CMP	r0,r5
	JZ	.L56
.LM98:
	LD	r5,#1073753088
	MOV	r0,#1
.LVL86:
	CMP	r6,r5
	JZ	.L53
.LM99:
	LD	r5,#1073753216
	CMP	r6,r5
	JZ	.L53
	MOV	r0,#0
.L53:
.LM100:
	LD	r5,#CHECK_RESTRICTION
	MOV	r8,r5
	LJMP	r5
.LVL87:
.LM101:
	MOV	r0,#1
	CMP	r7,r0
	JLS	.L55
	MOV	r0,#0
.L55:
	LJMP	r8
.LVL88:
.LM102:
	LD.w	r5,[r6]
.LVL89:
.LM103:
	LSL	r7,#18
.LVL90:
.LBB132:
.LBB133:
.LM104:
	CLR	r5,#18
.LVL91:
	ORL	r7,r7,r5
.LVL92:
.LBE133:
.LBE132:
.LM105:
	ST.w	[r6],r7
.LM106:
	POP	{r6, r7, r8}
	.cfi_remember_state
	.cfi_def_cfa_offset 4
	POP	lr
	.cfi_def_cfa_offset 0
	JMP	lr
.LVL93:
.L56:
	.cfi_restore_state
.LM107:
	MOV	r0,#1
.LVL94:
	JMP	.L53
	.cfi_endproc
.LFE8:
	.size	FDC_Sequence_Error_INT_Enable, .-FDC_Sequence_Error_INT_Enable
	.section .text$FDC_Software_Triggle_Enable
	.type	.text$FDC_Software_Triggle_Enable$scode_local_9, @function
	.text$FDC_Software_Triggle_Enable$scode_local_9:
	.align	1
	.export	FDC_Software_Triggle_Enable
	.type	FDC_Software_Triggle_Enable, @function
FDC_Software_Triggle_Enable:
.LFB9:
.LM108:
	.cfi_startproc
.LVL95:
	PUSH	{r6, lr}
	.cfi_def_cfa_offset 8
	MOV	r6,r0
.LM109:
	LD	r5,#1073752960
	CMP	r0,r5
	JZ	.L61
.LM110:
	LD	r5,#1073753088
	MOV	r0,#1
.LVL96:
	CMP	r6,r5
	JZ	.L59
.LM111:
	LD	r5,#1073753216
	CMP	r6,r5
	JZ	.L59
	MOV	r0,#0
.L59:
.LM112:
	LD	r5,#CHECK_RESTRICTION
	LJMP	r5
.LVL97:
.LM113:
	LD.w	r5,[r6]
.LVL98:
.LBB134:
.LBB135:
.LM114:
	SET	r5,#17
.LVL99:
.LBE135:
.LBE134:
.LM115:
	ST.w	[r6],r5
.LM116:
	POP	r6
	.cfi_remember_state
	.cfi_def_cfa_offset 4
.LVL100:
	POP	lr
	.cfi_def_cfa_offset 0
	JMP	lr
.LVL101:
.L61:
	.cfi_restore_state
.LM117:
	MOV	r0,#1
.LVL102:
	LD	r5,#CHECK_RESTRICTION
	LJMP	r5
.LVL103:
.LM118:
	LD.w	r5,[r6]
.LVL104:
.LBB137:
.LBB136:
.LM119:
	SET	r5,#17
.LVL105:
.LBE136:
.LBE137:
.LM120:
	ST.w	[r6],r5
.LM121:
	POP	r6
	.cfi_def_cfa_offset 4
.LVL106:
	POP	lr
	.cfi_def_cfa_offset 0
	JMP	lr
	.cfi_endproc
.LFE9:
	.size	FDC_Software_Triggle_Enable, .-FDC_Software_Triggle_Enable
	.section .text$FDC_MDL_INT_DMA_Enable
	.type	.text$FDC_MDL_INT_DMA_Enable$scode_local_10, @function
	.text$FDC_MDL_INT_DMA_Enable$scode_local_10:
	.align	1
	.export	FDC_MDL_INT_DMA_Enable
	.type	FDC_MDL_INT_DMA_Enable, @function
FDC_MDL_INT_DMA_Enable:
.LFB10:
.LM122:
	.cfi_startproc
.LVL107:
	PUSH	{r6, r7, r8, lr}
	.cfi_def_cfa_offset 16
	MOV	r6,r0
	MOV	r7,r1
.LVL108:
.LM123:
	LD	r5,#1073752960
	CMP	r0,r5
	JZ	.L67
.LM124:
	LD	r5,#1073753088
	MOV	r0,#1
.LVL109:
	CMP	r6,r5
	JZ	.L64
.LM125:
	LD	r5,#1073753216
	CMP	r6,r5
	JZ	.L64
	MOV	r0,#0
.L64:
.LM126:
	LD	r5,#CHECK_RESTRICTION
	MOV	r8,r5
	LJMP	r5
.LVL110:
.LM127:
	MOV	r0,#1
	CMP	r7,r0
	JLS	.L66
	MOV	r0,#0
.L66:
	LJMP	r8
.LVL111:
.LM128:
	LD.w	r5,[r6]
.LVL112:
.LM129:
	LSL	r7,#16
.LVL113:
.LBB138:
.LBB139:
.LM130:
	CLR	r5,#16
.LVL114:
	ORL	r7,r7,r5
.LVL115:
.LBE139:
.LBE138:
.LM131:
	ST.w	[r6],r7
.LM132:
	POP	{r6, r7, r8}
	.cfi_remember_state
	.cfi_def_cfa_offset 4
	POP	lr
	.cfi_def_cfa_offset 0
	JMP	lr
.LVL116:
.L67:
	.cfi_restore_state
.LM133:
	MOV	r0,#1
.LVL117:
	JMP	.L64
	.cfi_endproc
.LFE10:
	.size	FDC_MDL_INT_DMA_Enable, .-FDC_MDL_INT_DMA_Enable
	.section .text$FDC_Prescaler_Select
	.type	.text$FDC_Prescaler_Select$scode_local_11, @function
	.text$FDC_Prescaler_Select$scode_local_11:
	.align	1
	.export	FDC_Prescaler_Select
	.type	FDC_Prescaler_Select, @function
FDC_Prescaler_Select:
.LFB11:
.LM134:
	.cfi_startproc
.LVL118:
	PUSH	{r6, r7, r8, lr}
	.cfi_def_cfa_offset 16
	MOV	r6,r0
	MOV	r7,r1
.LVL119:
.LM135:
	LD	r5,#1073752960
	CMP	r0,r5
	JZ	.L73
.LM136:
	LD	r5,#1073753088
	MOV	r0,#1
.LVL120:
	CMP	r6,r5
	JZ	.L70
.LM137:
	LD	r5,#1073753216
	CMP	r6,r5
	JZ	.L70
	MOV	r0,#0
.L70:
.LM138:
	LD	r5,#CHECK_RESTRICTION
	MOV	r8,r5
	LJMP	r5
.LVL121:
.LM139:
	MOV	r0,#1
	CMP	r7,#7
	JLS	.L72
	MOV	r0,#0
.L72:
	LJMP	r8
.LVL122:
.LM140:
	LD.w	r4,[r6]
.LVL123:
.LM141:
	LSL	r7,#13
.LVL124:
.LBB140:
.LBB141:
.LM142:
	LD	r5,#-57345
	ANL	r5,r4,r5
	ORL	r7,r7,r5
.LVL125:
.LBE141:
.LBE140:
.LM143:
	ST.w	[r6],r7
.LM144:
	POP	{r6, r7, r8}
	.cfi_remember_state
	.cfi_def_cfa_offset 4
	POP	lr
	.cfi_def_cfa_offset 0
	JMP	lr
.LVL126:
.L73:
	.cfi_restore_state
.LM145:
	MOV	r0,#1
.LVL127:
	JMP	.L70
	.cfi_endproc
.LFE11:
	.size	FDC_Prescaler_Select, .-FDC_Prescaler_Select
	.section .text$FDC_Scaler_Factor
	.type	.text$FDC_Scaler_Factor$scode_local_12, @function
	.text$FDC_Scaler_Factor$scode_local_12:
	.align	1
	.export	FDC_Scaler_Factor
	.type	FDC_Scaler_Factor, @function
FDC_Scaler_Factor:
.LFB12:
.LM146:
	.cfi_startproc
.LVL128:
	PUSH	{r6, r7, r8, lr}
	.cfi_def_cfa_offset 16
	MOV	r6,r0
	MOV	r7,r1
.LM147:
	LD	r5,#1073752960
	CMP	r0,r5
	JZ	.L79
.LM148:
	LD	r5,#1073753088
	MOV	r0,#1
.LVL129:
	CMP	r6,r5
	JZ	.L76
.LM149:
	LD	r5,#1073753216
	CMP	r6,r5
	JZ	.L76
	MOV	r0,#0
.L76:
.LM150:
	LD	r4,#CHECK_RESTRICTION
	MOV	r8,r4
	LJMP	r4
.LVL130:
.LM151:
	MOV	r4,#6
	LSR	r5,r7,r4
	MOV	r0,#1
	CMP	r5,#0
	JZ	.L78
	MOV	r0,#0
.L78:
	LJMP	r8
.LVL131:
.LM152:
	LD.w	r4,[r6]
.LVL132:
	LSL	r7,#7
.LVL133:
.LBB142:
.LBB143:
.LM153:
	LD	r5,#-8065
	ANL	r5,r4,r5
	ORL	r7,r7,r5
.LVL134:
.LBE143:
.LBE142:
.LM154:
	ST.w	[r6],r7
.LM155:
	POP	{r6, r7, r8}
	.cfi_remember_state
	.cfi_def_cfa_offset 4
	POP	lr
	.cfi_def_cfa_offset 0
	JMP	lr
.LVL135:
.L79:
	.cfi_restore_state
.LM156:
	MOV	r0,#1
.LVL136:
	JMP	.L76
	.cfi_endproc
.LFE12:
	.size	FDC_Scaler_Factor, .-FDC_Scaler_Factor
	.section .text$FDC_Triggle_Input_Select
	.type	.text$FDC_Triggle_Input_Select$scode_local_13, @function
	.text$FDC_Triggle_Input_Select$scode_local_13:
	.align	1
	.export	FDC_Triggle_Input_Select
	.type	FDC_Triggle_Input_Select, @function
FDC_Triggle_Input_Select:
.LFB13:
.LM157:
	.cfi_startproc
.LVL137:
	PUSH	{r6, r7, r8, lr}
	.cfi_def_cfa_offset 16
	MOV	r6,r0
	MOV	r7,r1
.LVL138:
.LM158:
	LD	r5,#1073752960
	CMP	r0,r5
	JZ	.L88
.LM159:
	LD	r5,#1073753088
	MOV	r0,#1
.LVL139:
	CMP	r6,r5
	JZ	.L85
.LM160:
	LD	r5,#1073753216
	CMP	r6,r5
	JZ	.L85
	MOV	r0,#0
.L85:
.LM161:
	LD	r5,#CHECK_RESTRICTION
	MOV	r8,r5
	LJMP	r5
.LVL140:
.LM162:
	MOV	r0,#1
	CMP	r7,r0
	JLS	.L87
	MOV	r0,#0
.L87:
	LJMP	r8
.LVL141:
.LM163:
	LD.w	r5,[r6]
.LVL142:
.LM164:
	LSL	r7,#6
.LVL143:
.LBB144:
.LBB145:
.LM165:
	CLR	r5,#6
.LVL144:
	ORL	r7,r7,r5
.LVL145:
.LBE145:
.LBE144:
.LM166:
	ST.w	[r6],r7
.LM167:
	POP	{r6, r7, r8}
	.cfi_remember_state
	.cfi_def_cfa_offset 4
	POP	lr
	.cfi_def_cfa_offset 0
	JMP	lr
.LVL146:
.L88:
	.cfi_restore_state
.LM168:
	MOV	r0,#1
.LVL147:
	JMP	.L85
	.cfi_endproc
.LFE13:
	.size	FDC_Triggle_Input_Select, .-FDC_Triggle_Input_Select
	.section .text$FDC_MDL_INT_Enable
	.type	.text$FDC_MDL_INT_Enable$scode_local_14, @function
	.text$FDC_MDL_INT_Enable$scode_local_14:
	.align	1
	.export	FDC_MDL_INT_Enable
	.type	FDC_MDL_INT_Enable, @function
FDC_MDL_INT_Enable:
.LFB14:
.LM169:
	.cfi_startproc
.LVL148:
	PUSH	{r6, r7, r8, lr}
	.cfi_def_cfa_offset 16
	MOV	r6,r0
	MOV	r7,r1
.LVL149:
.LM170:
	LD	r5,#1073752960
	CMP	r0,r5
	JZ	.L94
.LM171:
	LD	r5,#1073753088
	MOV	r0,#1
.LVL150:
	CMP	r6,r5
	JZ	.L91
.LM172:
	LD	r5,#1073753216
	CMP	r6,r5
	JZ	.L91
	MOV	r0,#0
.L91:
.LM173:
	LD	r5,#CHECK_RESTRICTION
	MOV	r8,r5
	LJMP	r5
.LVL151:
.LM174:
	MOV	r0,#1
	CMP	r7,r0
	JLS	.L93
	MOV	r0,#0
.L93:
	LJMP	r8
.LVL152:
.LM175:
	LD.w	r5,[r6]
.LVL153:
.LM176:
	LSL	r7,#5
.LVL154:
.LBB146:
.LBB147:
.LM177:
	CLR	r5,#5
.LVL155:
	ORL	r7,r7,r5
.LVL156:
.LBE147:
.LBE146:
.LM178:
	ST.w	[r6],r7
.LM179:
	POP	{r6, r7, r8}
	.cfi_remember_state
	.cfi_def_cfa_offset 4
	POP	lr
	.cfi_def_cfa_offset 0
	JMP	lr
.LVL157:
.L94:
	.cfi_restore_state
.LM180:
	MOV	r0,#1
.LVL158:
	JMP	.L91
	.cfi_endproc
.LFE14:
	.size	FDC_MDL_INT_Enable, .-FDC_MDL_INT_Enable
	.section .text$FDC_Get_MDL_INT_Flag
	.type	.text$FDC_Get_MDL_INT_Flag$scode_local_15, @function
	.text$FDC_Get_MDL_INT_Flag$scode_local_15:
	.align	1
	.export	FDC_Get_MDL_INT_Flag
	.type	FDC_Get_MDL_INT_Flag, @function
FDC_Get_MDL_INT_Flag:
.LFB15:
.LM181:
	.cfi_startproc
.LVL159:
	PUSH	{r6, lr}
	.cfi_def_cfa_offset 8
	MOV	r6,r0
.LM182:
	LD	r5,#1073752960
	CMP	r0,r5
	JZ	.L99
.LM183:
	LD	r5,#1073753088
	MOV	r0,#1
.LVL160:
	CMP	r6,r5
	JZ	.L97
.LM184:
	LD	r5,#1073753216
	CMP	r6,r5
	JZ	.L97
	MOV	r0,#0
.L97:
.LM185:
	LD	r5,#CHECK_RESTRICTION
	LJMP	r5
.LVL161:
.LM186:
	LD.w	r0,[r6]
	MOV	r5,#16
	ANL	r0,r0,r5
.LM187:
	LSR	r0,#4
	POP	r6
	.cfi_remember_state
	.cfi_def_cfa_offset 4
.LVL162:
	POP	lr
	.cfi_def_cfa_offset 0
	JMP	lr
.LVL163:
.L99:
	.cfi_restore_state
.LM188:
	MOV	r0,#1
.LVL164:
	JMP	.L97
	.cfi_endproc
.LFE15:
	.size	FDC_Get_MDL_INT_Flag, .-FDC_Get_MDL_INT_Flag
	.section .text$FDC_Single_Mode_Enable
	.type	.text$FDC_Single_Mode_Enable$scode_local_16, @function
	.text$FDC_Single_Mode_Enable$scode_local_16:
	.align	1
	.export	FDC_Single_Mode_Enable
	.type	FDC_Single_Mode_Enable, @function
FDC_Single_Mode_Enable:
.LFB16:
.LM189:
	.cfi_startproc
.LVL165:
	PUSH	{r6, r7, r8, lr}
	.cfi_def_cfa_offset 16
	MOV	r6,r0
	MOV	r7,r1
.LVL166:
.LM190:
	LD	r5,#1073752960
	CMP	r0,r5
	JZ	.L105
.LM191:
	LD	r5,#1073753088
	MOV	r0,#1
.LVL167:
	CMP	r6,r5
	JZ	.L102
.LM192:
	LD	r5,#1073753216
	CMP	r6,r5
	JZ	.L102
	MOV	r0,#0
.L102:
.LM193:
	LD	r5,#CHECK_RESTRICTION
	MOV	r8,r5
	LJMP	r5
.LVL168:
.LM194:
	MOV	r0,#1
	CMP	r7,r0
	JLS	.L104
	MOV	r0,#0
.L104:
	LJMP	r8
.LVL169:
.LM195:
	LD.w	r5,[r6]
.LVL170:
.LM196:
	LSL	r7,#3
.LVL171:
.LBB148:
.LBB149:
.LM197:
	CLR	r5,#3
.LVL172:
	ORL	r7,r7,r5
.LVL173:
.LBE149:
.LBE148:
.LM198:
	ST.w	[r6],r7
.LM199:
	POP	{r6, r7, r8}
	.cfi_remember_state
	.cfi_def_cfa_offset 4
	POP	lr
	.cfi_def_cfa_offset 0
	JMP	lr
.LVL174:
.L105:
	.cfi_restore_state
.LM200:
	MOV	r0,#1
.LVL175:
	JMP	.L102
	.cfi_endproc
.LFE16:
	.size	FDC_Single_Mode_Enable, .-FDC_Single_Mode_Enable
	.section .text$FDC_Ldok_Write1
	.type	.text$FDC_Ldok_Write1$scode_local_17, @function
	.text$FDC_Ldok_Write1$scode_local_17:
	.align	1
	.export	FDC_Ldok_Write1
	.type	FDC_Ldok_Write1, @function
FDC_Ldok_Write1:
.LFB17:
.LM201:
	.cfi_startproc
.LVL176:
	PUSH	{r6, lr}
	.cfi_def_cfa_offset 8
	MOV	r6,r0
.LM202:
	LD	r5,#1073752960
	CMP	r0,r5
	JZ	.L110
.LM203:
	LD	r5,#1073753088
	MOV	r0,#1
.LVL177:
	CMP	r6,r5
	JZ	.L108
.LM204:
	LD	r5,#1073753216
	CMP	r6,r5
	JZ	.L108
	MOV	r0,#0
.L108:
.LM205:
	LD	r5,#CHECK_RESTRICTION
	LJMP	r5
.LVL178:
.LM206:
	LD.w	r5,[r6]
.LVL179:
.LBB150:
.LBB151:
.LM207:
	SET	r5,#2
.LVL180:
.LBE151:
.LBE150:
.LM208:
	ST.w	[r6],r5
.LM209:
	POP	r6
	.cfi_remember_state
	.cfi_def_cfa_offset 4
.LVL181:
	POP	lr
	.cfi_def_cfa_offset 0
	JMP	lr
.LVL182:
.L110:
	.cfi_restore_state
.LM210:
	MOV	r0,#1
.LVL183:
	LD	r5,#CHECK_RESTRICTION
	LJMP	r5
.LVL184:
.LM211:
	LD.w	r5,[r6]
.LVL185:
.LBB153:
.LBB152:
.LM212:
	SET	r5,#2
.LVL186:
.LBE152:
.LBE153:
.LM213:
	ST.w	[r6],r5
.LM214:
	POP	r6
	.cfi_def_cfa_offset 4
.LVL187:
	POP	lr
	.cfi_def_cfa_offset 0
	JMP	lr
	.cfi_endproc
.LFE17:
	.size	FDC_Ldok_Write1, .-FDC_Ldok_Write1
	.section .text$FDC_Pulse_Output_Enable
	.type	.text$FDC_Pulse_Output_Enable$scode_local_18, @function
	.text$FDC_Pulse_Output_Enable$scode_local_18:
	.align	1
	.export	FDC_Pulse_Output_Enable
	.type	FDC_Pulse_Output_Enable, @function
FDC_Pulse_Output_Enable:
.LFB18:
.LM215:
	.cfi_startproc
.LVL188:
	PUSH	{r6, r7, r8, lr}
	.cfi_def_cfa_offset 16
	MOV	r6,r0
	MOV	r7,r1
.LVL189:
.LM216:
	LD	r5,#1073752960
	CMP	r0,r5
	JZ	.L116
.LM217:
	LD	r5,#1073753088
	MOV	r0,#1
.LVL190:
	CMP	r6,r5
	JZ	.L113
.LM218:
	LD	r5,#1073753216
	CMP	r6,r5
	JZ	.L113
	MOV	r0,#0
.L113:
.LM219:
	LD	r5,#CHECK_RESTRICTION
	MOV	r8,r5
	LJMP	r5
.LVL191:
.LM220:
	MOV	r0,#1
	CMP	r7,r0
	JLS	.L115
	MOV	r0,#0
.L115:
	LJMP	r8
.LVL192:
.LM221:
	LD.w	r5,[r6]
.LVL193:
.LM222:
	ADD	r7,r7,r7
.LVL194:
.LBB154:
.LBB155:
.LM223:
	CLR	r5,#1
.LVL195:
	ORL	r7,r7,r5
.LBE155:
.LBE154:
.LM224:
	ST.w	[r6],r7
.LM225:
	POP	{r6, r7, r8}
	.cfi_remember_state
	.cfi_def_cfa_offset 4
	POP	lr
	.cfi_def_cfa_offset 0
	JMP	lr
.LVL196:
.L116:
	.cfi_restore_state
.LM226:
	MOV	r0,#1
.LVL197:
	JMP	.L113
	.cfi_endproc
.LFE18:
	.size	FDC_Pulse_Output_Enable, .-FDC_Pulse_Output_Enable
	.section .text$FDC_Enable
	.type	.text$FDC_Enable$scode_local_19, @function
	.text$FDC_Enable$scode_local_19:
	.align	1
	.export	FDC_Enable
	.type	FDC_Enable, @function
FDC_Enable:
.LFB19:
.LM227:
	.cfi_startproc
.LVL198:
	PUSH	{r6, r7, r8, lr}
	.cfi_def_cfa_offset 16
	MOV	r6,r0
	MOV	r8,r1
.LM228:
	LD	r5,#1073752960
	CMP	r0,r5
	JZ	.L122
.LM229:
	LD	r5,#1073753088
	MOV	r0,#1
.LVL199:
	CMP	r6,r5
	JZ	.L119
.LM230:
	LD	r5,#1073753216
	CMP	r6,r5
	JZ	.L119
	MOV	r0,#0
.L119:
.LM231:
	LD	r7,#CHECK_RESTRICTION
	LJMP	r7
.LVL200:
.LM232:
	MOV	r0,#1
	CMP	r8,r0
	JLS	.L121
	MOV	r0,#0
.L121:
	LJMP	r7
.LVL201:
.LM233:
	LD.w	r5,[r6]
.LVL202:
.LBB156:
.LBB157:
.LM234:
	SET	r5,#0
.LVL203:
.LBE157:
.LBE156:
.LM235:
	ST.w	[r6],r5
.LM236:
	POP	{r6, r7, r8}
	.cfi_remember_state
	.cfi_def_cfa_offset 4
.LVL204:
	POP	lr
	.cfi_def_cfa_offset 0
	JMP	lr
.LVL205:
.L122:
	.cfi_restore_state
.LM237:
	MOV	r0,#1
.LVL206:
	JMP	.L119
	.cfi_endproc
.LFE19:
	.size	FDC_Enable, .-FDC_Enable
	.section .text$FDC_Set_Count_Cycle
	.type	.text$FDC_Set_Count_Cycle$scode_local_20, @function
	.text$FDC_Set_Count_Cycle$scode_local_20:
	.align	1
	.export	FDC_Set_Count_Cycle
	.type	FDC_Set_Count_Cycle, @function
FDC_Set_Count_Cycle:
.LFB20:
.LM238:
	.cfi_startproc
.LVL207:
	PUSH	{r6, r7, r8, lr}
	.cfi_def_cfa_offset 16
	MOV	r6,r0
	MOV	r7,r1
.LM239:
	LD	r5,#1073752960
	CMP	r0,r5
	JZ	.L128
.LM240:
	LD	r5,#1073753088
	MOV	r0,#1
.LVL208:
	CMP	r6,r5
	JZ	.L125
.LM241:
	LD	r5,#1073753216
	CMP	r6,r5
	JZ	.L125
	MOV	r0,#0
.L125:
.LM242:
	LD	r5,#CHECK_RESTRICTION
	MOV	r8,r5
	LJMP	r5
.LVL209:
.LM243:
	MOV	r0,#1
	LD	r5,#65535
	CMP	r7,r5
	JLS	.L127
	MOV	r0,#0
.L127:
	LJMP	r8
.LVL210:
.LM244:
	ST.w	[r6+#1],r7
.LM245:
	POP	{r6, r7, r8}
	.cfi_remember_state
	.cfi_def_cfa_offset 4
.LVL211:
	POP	lr
	.cfi_def_cfa_offset 0
	JMP	lr
.LVL212:
.L128:
	.cfi_restore_state
.LM246:
	MOV	r0,#1
.LVL213:
	JMP	.L125
	.cfi_endproc
.LFE20:
	.size	FDC_Set_Count_Cycle, .-FDC_Set_Count_Cycle
	.section .text$FDC_Get_Count_Cycle
	.type	.text$FDC_Get_Count_Cycle$scode_local_21, @function
	.text$FDC_Get_Count_Cycle$scode_local_21:
	.align	1
	.export	FDC_Get_Count_Cycle
	.type	FDC_Get_Count_Cycle, @function
FDC_Get_Count_Cycle:
.LFB21:
.LM247:
	.cfi_startproc
.LVL214:
	PUSH	{r6, lr}
	.cfi_def_cfa_offset 8
	MOV	r6,r0
.LM248:
	LD	r5,#1073752960
	CMP	r0,r5
	JZ	.L133
.LM249:
	LD	r5,#1073753088
	MOV	r0,#1
.LVL215:
	CMP	r6,r5
	JZ	.L131
.LM250:
	LD	r5,#1073753216
	CMP	r6,r5
	JZ	.L131
	MOV	r0,#0
.L131:
.LM251:
	LD	r5,#CHECK_RESTRICTION
	LJMP	r5
.LVL216:
.LM252:
	LD.w	r0,[r6+#1]
.LM253:
	ZXT.h	r0,r0
	POP	r6
	.cfi_remember_state
	.cfi_def_cfa_offset 4
.LVL217:
	POP	lr
	.cfi_def_cfa_offset 0
	JMP	lr
.LVL218:
.L133:
	.cfi_restore_state
.LM254:
	MOV	r0,#1
.LVL219:
	LD	r5,#CHECK_RESTRICTION
	LJMP	r5
.LVL220:
.LM255:
	LD.w	r0,[r6+#1]
.LM256:
	ZXT.h	r0,r0
	POP	r6
	.cfi_def_cfa_offset 4
.LVL221:
	POP	lr
	.cfi_def_cfa_offset 0
	JMP	lr
	.cfi_endproc
.LFE21:
	.size	FDC_Get_Count_Cycle, .-FDC_Get_Count_Cycle
	.section .text$FDC_Get_Count_Value
	.type	.text$FDC_Get_Count_Value$scode_local_22, @function
	.text$FDC_Get_Count_Value$scode_local_22:
	.align	1
	.export	FDC_Get_Count_Value
	.type	FDC_Get_Count_Value, @function
FDC_Get_Count_Value:
.LFB22:
.LM257:
	.cfi_startproc
.LVL222:
	PUSH	{r6, lr}
	.cfi_def_cfa_offset 8
	MOV	r6,r0
.LM258:
	LD	r5,#1073752960
	CMP	r0,r5
	JZ	.L138
.LM259:
	LD	r5,#1073753088
	MOV	r0,#1
.LVL223:
	CMP	r6,r5
	JZ	.L136
.LM260:
	LD	r5,#1073753216
	CMP	r6,r5
	JZ	.L136
	MOV	r0,#0
.L136:
.LM261:
	LD	r5,#CHECK_RESTRICTION
	LJMP	r5
.LVL224:
.LM262:
	LD.w	r0,[r6+#2]
.LM263:
	ZXT.h	r0,r0
	POP	r6
	.cfi_remember_state
	.cfi_def_cfa_offset 4
.LVL225:
	POP	lr
	.cfi_def_cfa_offset 0
	JMP	lr
.LVL226:
.L138:
	.cfi_restore_state
.LM264:
	MOV	r0,#1
.LVL227:
	LD	r5,#CHECK_RESTRICTION
	LJMP	r5
.LVL228:
.LM265:
	LD.w	r0,[r6+#2]
.LM266:
	ZXT.h	r0,r0
	POP	r6
	.cfi_def_cfa_offset 4
.LVL229:
	POP	lr
	.cfi_def_cfa_offset 0
	JMP	lr
	.cfi_endproc
.LFE22:
	.size	FDC_Get_Count_Value, .-FDC_Get_Count_Value
	.section .text$FDC_Get_INT_Delay_Value
	.type	.text$FDC_Get_INT_Delay_Value$scode_local_23, @function
	.text$FDC_Get_INT_Delay_Value$scode_local_23:
	.align	1
	.export	FDC_Get_INT_Delay_Value
	.type	FDC_Get_INT_Delay_Value, @function
FDC_Get_INT_Delay_Value:
.LFB23:
.LM267:
	.cfi_startproc
.LVL230:
	PUSH	{r6, lr}
	.cfi_def_cfa_offset 8
	MOV	r6,r0
.LM268:
	LD	r5,#1073752960
	CMP	r0,r5
	JZ	.L143
.LM269:
	LD	r5,#1073753088
	MOV	r0,#1
.LVL231:
	CMP	r6,r5
	JZ	.L141
.LM270:
	LD	r5,#1073753216
	CMP	r6,r5
	JZ	.L141
	MOV	r0,#0
.L141:
.LM271:
	LD	r5,#CHECK_RESTRICTION
	LJMP	r5
.LVL232:
.LM272:
	LD.w	r0,[r6+#3]
.LM273:
	ZXT.h	r0,r0
	POP	r6
	.cfi_remember_state
	.cfi_def_cfa_offset 4
.LVL233:
	POP	lr
	.cfi_def_cfa_offset 0
	JMP	lr
.LVL234:
.L143:
	.cfi_restore_state
.LM274:
	MOV	r0,#1
.LVL235:
	LD	r5,#CHECK_RESTRICTION
	LJMP	r5
.LVL236:
.LM275:
	LD.w	r0,[r6+#3]
.LM276:
	ZXT.h	r0,r0
	POP	r6
	.cfi_def_cfa_offset 4
.LVL237:
	POP	lr
	.cfi_def_cfa_offset 0
	JMP	lr
	.cfi_endproc
.LFE23:
	.size	FDC_Get_INT_Delay_Value, .-FDC_Get_INT_Delay_Value
	.section .text$FDC_Clear_Channel_List_Error_Flag
	.type	.text$FDC_Clear_Channel_List_Error_Flag$scode_local_24, @function
	.text$FDC_Clear_Channel_List_Error_Flag$scode_local_24:
	.align	1
	.export	FDC_Clear_Channel_List_Error_Flag
	.type	FDC_Clear_Channel_List_Error_Flag, @function
FDC_Clear_Channel_List_Error_Flag:
.LFB24:
.LM277:
	.cfi_startproc
.LVL238:
	PUSH	{r6, r7, r8, r9, r10, lr}
	.cfi_def_cfa_offset 24
	MOV	r6,r0
	MOV	r8,r1
	MOV	r9,r3
	ZXT.b	r10,r2
.LVL239:
.LM278:
	MOV	r0,#1
.LVL240:
	LD	r5,#1073752960
	CMP	r6,r5
	JZ	.L146
.LM279:
	LD	r5,#1073753088
	CMP	r6,r5
	JZ	.L146
.LM280:
	LD	r5,#1073753216
	CMP	r6,r5
	JZ	.L146
	MOV	r0,#0
.L146:
.LM281:
	LD	r7,#CHECK_RESTRICTION
	LJMP	r7
.LVL241:
.LM282:
	MOV	r0,#1
	CMP	r8,#3
	JLS	.L148
	MOV	r0,#0
.L148:
	LJMP	r7
.LVL242:
.LM283:
	MOV	r0,#1
	CMP	r10,#4
	JLS	.L149
	MOV	r0,#0
.L149:
	LJMP	r7
.LVL243:
.LM284:
	MOV	r0,#1
	CMP	r9,r0
	JLS	.L150
	MOV	r0,#0
.L150:
	LJMP	r7
.LVL244:
.LM285:
	ADD	r10,#20
.LVL245:
	LSL	r9,r10
.LVL246:
.LM286:
	MOV	r5,#1
	LSL	r5,r10
.LVL247:
.LM287:
	CMP	r8,#1
	JZ	.L153
	CMP	r8,#0
	JNZ	.L158
.LM288:
	LD.w	r4,[r6+#4]
.LVL248:
	NOT	r5,r5
.LVL249:
.LBB158:
.LBB159:
.LM289:
	ANL	r5,r5,r4
.LVL250:
	ORL	r5,r9
.LBE159:
.LBE158:
.LM290:
	ST.w	[r6+#4],r5
.LVL251:
.L145:
.LM291:
	POP	{r6, r7, r8, r9, r10}
	.cfi_remember_state
	.cfi_def_cfa_offset 4
.LVL252:
	POP	lr
	.cfi_def_cfa_offset 0
	JMP	lr
.LVL253:
.L158:
	.cfi_restore_state
.LM292:
	CMP	r8,#2
	JZ	.L154
	CMP	r8,#3
	JNZ	.L145
.LM293:
	LD.w	r4,[r6+#7]
.LVL254:
	NOT	r5,r5
.LVL255:
.LBB160:
.LBB161:
.LM294:
	ANL	r5,r5,r4
.LVL256:
	ORL	r5,r9
.LBE161:
.LBE160:
.LM295:
	ST.w	[r6+#7],r5
.LM296:
	POP	{r6, r7, r8, r9, r10}
	.cfi_remember_state
	.cfi_def_cfa_offset 4
.LVL257:
	POP	lr
	.cfi_def_cfa_offset 0
	JMP	lr
.LVL258:
.L153:
	.cfi_restore_state
.LM297:
	LD.w	r4,[r6+#5]
.LVL259:
	NOT	r5,r5
.LVL260:
.LBB162:
.LBB163:
.LM298:
	ANL	r5,r5,r4
.LVL261:
	ORL	r5,r9
.LBE163:
.LBE162:
.LM299:
	ST.w	[r6+#5],r5
.LM300:
	POP	{r6, r7, r8, r9, r10}
	.cfi_remember_state
	.cfi_def_cfa_offset 4
.LVL262:
	POP	lr
	.cfi_def_cfa_offset 0
	JMP	lr
.LVL263:
.L154:
	.cfi_restore_state
.LM301:
	LD.w	r4,[r6+#6]
.LVL264:
	NOT	r5,r5
.LVL265:
.LBB164:
.LBB165:
.LM302:
	ANL	r5,r5,r4
.LVL266:
	ORL	r5,r9
.LBE165:
.LBE164:
.LM303:
	ST.w	[r6+#6],r5
.LM304:
	POP	{r6, r7, r8, r9, r10}
	.cfi_def_cfa_offset 4
.LVL267:
	POP	lr
	.cfi_def_cfa_offset 0
	JMP	lr
	.cfi_endproc
.LFE24:
	.size	FDC_Clear_Channel_List_Error_Flag, .-FDC_Clear_Channel_List_Error_Flag
	.section .text$FDC_Get_Channel_List_Error_Flag
	.type	.text$FDC_Get_Channel_List_Error_Flag$scode_local_25, @function
	.text$FDC_Get_Channel_List_Error_Flag$scode_local_25:
	.align	1
	.export	FDC_Get_Channel_List_Error_Flag
	.type	FDC_Get_Channel_List_Error_Flag, @function
FDC_Get_Channel_List_Error_Flag:
.LFB25:
.LM305:
	.cfi_startproc
.LVL268:
	PUSH	{r6, r7, r8, r9, lr}
	.cfi_def_cfa_offset 20
	MOV	r6,r0
	MOV	r7,r1
	ZXT.b	r9,r2
.LVL269:
.LM306:
	MOV	r0,#1
.LVL270:
	LD	r5,#1073752960
	CMP	r6,r5
	JZ	.L160
.LM307:
	LD	r5,#1073753088
	CMP	r6,r5
	JZ	.L160
.LM308:
	LD	r5,#1073753216
	CMP	r6,r5
	JZ	.L160
	MOV	r0,#0
.L160:
.LM309:
	LD	r5,#CHECK_RESTRICTION
	MOV	r8,r5
	LJMP	r5
.LVL271:
.LM310:
	MOV	r0,#1
	CMP	r7,#3
	JLS	.L162
	MOV	r0,#0
.L162:
	LJMP	r8
.LVL272:
.LM311:
	MOV	r0,#1
	CMP	r9,#4
	JLS	.L163
	MOV	r0,#0
.L163:
	LJMP	r8
.LVL273:
.LM312:
	ADD	r9,#15
.LVL274:
.LM313:
	MOV	r0,#1
	LSL	r0,r9
.LVL275:
.LM314:
	CMP	r7,#1
	JZ	.L166
	CMP	r7,#0
	JNZ	.L173
.LM315:
	LD.w	r5,[r6+#4]
	ANL	r0,r0,r5
.LVL276:
	LSR	r0,r9
.LM316:
	POP	{r6, r7, r8, r9}
	.cfi_remember_state
	.cfi_def_cfa_offset 4
.LVL277:
	POP	lr
	.cfi_def_cfa_offset 0
	JMP	lr
.LVL278:
.L173:
	.cfi_restore_state
.LM317:
	CMP	r7,#2
	JZ	.L167
	CMP	r7,#3
	JZ	.L174
.LVL279:
.LM318:
	POP	{r6, r7, r8, r9}
	.cfi_remember_state
	.cfi_def_cfa_offset 4
.LVL280:
	POP	lr
	.cfi_def_cfa_offset 0
	JMP	lr
.LVL281:
.L174:
	.cfi_restore_state
.LM319:
	LD.w	r5,[r6+#7]
	ANL	r0,r0,r5
.LVL282:
	LSR	r0,r9
.LM320:
	POP	{r6, r7, r8, r9}
	.cfi_remember_state
	.cfi_def_cfa_offset 4
.LVL283:
	POP	lr
	.cfi_def_cfa_offset 0
	JMP	lr
.LVL284:
.L166:
	.cfi_restore_state
.LM321:
	LD.w	r5,[r6+#5]
	ANL	r0,r0,r5
.LVL285:
	LSR	r0,r9
.LM322:
	POP	{r6, r7, r8, r9}
	.cfi_remember_state
	.cfi_def_cfa_offset 4
.LVL286:
	POP	lr
	.cfi_def_cfa_offset 0
	JMP	lr
.LVL287:
.L167:
	.cfi_restore_state
.LM323:
	LD.w	r5,[r6+#6]
	ANL	r0,r0,r5
.LVL288:
	LSR	r0,r9
.LM324:
	POP	{r6, r7, r8, r9}
	.cfi_def_cfa_offset 4
.LVL289:
	POP	lr
	.cfi_def_cfa_offset 0
	JMP	lr
	.cfi_endproc
.LFE25:
	.size	FDC_Get_Channel_List_Error_Flag, .-FDC_Get_Channel_List_Error_Flag
	.section .text$FDC_Get_CFn_Flag
	.type	.text$FDC_Get_CFn_Flag$scode_local_26, @function
	.text$FDC_Get_CFn_Flag$scode_local_26:
	.align	1
	.export	FDC_Get_CFn_Flag
	.type	FDC_Get_CFn_Flag, @function
FDC_Get_CFn_Flag:
.LFB26:
.LM325:
	.cfi_startproc
.LVL290:
	PUSH	{r6, r7, r8, r9, lr}
	.cfi_def_cfa_offset 20
	MOV	r6,r0
	MOV	r7,r1
	ZXT.b	r9,r2
.LVL291:
.LM326:
	MOV	r0,#1
.LVL292:
	LD	r5,#1073752960
	CMP	r6,r5
	JZ	.L176
.LM327:
	LD	r5,#1073753088
	CMP	r6,r5
	JZ	.L176
.LM328:
	LD	r5,#1073753216
	CMP	r6,r5
	JZ	.L176
	MOV	r0,#0
.L176:
.LM329:
	LD	r5,#CHECK_RESTRICTION
	MOV	r8,r5
	LJMP	r5
.LVL293:
.LM330:
	MOV	r0,#1
	CMP	r7,#3
	JLS	.L178
	MOV	r0,#0
.L178:
	LJMP	r8
.LVL294:
.LM331:
	MOV	r0,#1
	CMP	r9,#4
	JLS	.L179
	MOV	r0,#0
.L179:
	LJMP	r8
.LVL295:
.LM332:
	ADD	r9,#10
.LVL296:
.LM333:
	MOV	r0,#1
	LSL	r0,r9
.LVL297:
.LM334:
	CMP	r7,#1
	JZ	.L182
	CMP	r7,#0
	JNZ	.L189
.LM335:
	LD.w	r5,[r6+#4]
	ANL	r0,r0,r5
.LVL298:
	LSR	r0,r9
.LM336:
	POP	{r6, r7, r8, r9}
	.cfi_remember_state
	.cfi_def_cfa_offset 4
.LVL299:
	POP	lr
	.cfi_def_cfa_offset 0
	JMP	lr
.LVL300:
.L189:
	.cfi_restore_state
.LM337:
	CMP	r7,#2
	JZ	.L183
	CMP	r7,#3
	JZ	.L190
.LVL301:
.LM338:
	POP	{r6, r7, r8, r9}
	.cfi_remember_state
	.cfi_def_cfa_offset 4
.LVL302:
	POP	lr
	.cfi_def_cfa_offset 0
	JMP	lr
.LVL303:
.L190:
	.cfi_restore_state
.LM339:
	LD.w	r5,[r6+#7]
	ANL	r0,r0,r5
.LVL304:
	LSR	r0,r9
.LM340:
	POP	{r6, r7, r8, r9}
	.cfi_remember_state
	.cfi_def_cfa_offset 4
.LVL305:
	POP	lr
	.cfi_def_cfa_offset 0
	JMP	lr
.LVL306:
.L182:
	.cfi_restore_state
.LM341:
	LD.w	r5,[r6+#5]
	ANL	r0,r0,r5
.LVL307:
	LSR	r0,r9
.LM342:
	POP	{r6, r7, r8, r9}
	.cfi_remember_state
	.cfi_def_cfa_offset 4
.LVL308:
	POP	lr
	.cfi_def_cfa_offset 0
	JMP	lr
.LVL309:
.L183:
	.cfi_restore_state
.LM343:
	LD.w	r5,[r6+#6]
	ANL	r0,r0,r5
.LVL310:
	LSR	r0,r9
.LM344:
	POP	{r6, r7, r8, r9}
	.cfi_def_cfa_offset 4
.LVL311:
	POP	lr
	.cfi_def_cfa_offset 0
	JMP	lr
	.cfi_endproc
.LFE26:
	.size	FDC_Get_CFn_Flag, .-FDC_Get_CFn_Flag
	.section .text$FDC_Channel_Pre_Triggle_Select
	.type	.text$FDC_Channel_Pre_Triggle_Select$scode_local_27, @function
	.text$FDC_Channel_Pre_Triggle_Select$scode_local_27:
	.align	1
	.export	FDC_Channel_Pre_Triggle_Select
	.type	FDC_Channel_Pre_Triggle_Select, @function
FDC_Channel_Pre_Triggle_Select:
.LFB27:
.LM345:
	.cfi_startproc
.LVL312:
	PUSH	{r6, r7, r8, r9, r10, lr}
	.cfi_def_cfa_offset 24
	MOV	r6,r0
	MOV	r8,r1
	MOV	r9,r3
	ZXT.b	r10,r2
.LVL313:
.LM346:
	MOV	r0,#1
.LVL314:
	LD	r5,#1073752960
	CMP	r6,r5
	JZ	.L192
.LM347:
	LD	r5,#1073753088
	CMP	r6,r5
	JZ	.L192
.LM348:
	LD	r5,#1073753216
	CMP	r6,r5
	JZ	.L192
	MOV	r0,#0
.L192:
.LM349:
	LD	r7,#CHECK_RESTRICTION
	LJMP	r7
.LVL315:
.LM350:
	MOV	r0,#1
	CMP	r8,#3
	JLS	.L194
	MOV	r0,#0
.L194:
	LJMP	r7
.LVL316:
.LM351:
	MOV	r0,#1
	CMP	r10,#4
	JLS	.L195
	MOV	r0,#0
.L195:
	LJMP	r7
.LVL317:
.LM352:
	MOV	r0,#1
	CMP	r9,r0
	JLS	.L196
	MOV	r0,#0
.L196:
	LJMP	r7
.LVL318:
.LM353:
	ADD	r10,#5
.LVL319:
	LSL	r9,r10
.LVL320:
.LM354:
	MOV	r5,#1
	LSL	r5,r10
.LVL321:
.LM355:
	CMP	r8,#1
	JZ	.L199
	CMP	r8,#0
	JNZ	.L204
.LM356:
	LD.w	r4,[r6+#4]
.LVL322:
	NOT	r5,r5
.LVL323:
.LBB166:
.LBB167:
.LM357:
	ANL	r5,r5,r4
.LVL324:
	ORL	r5,r9
.LBE167:
.LBE166:
.LM358:
	ST.w	[r6+#4],r5
.LVL325:
.L191:
.LM359:
	POP	{r6, r7, r8, r9, r10}
	.cfi_remember_state
	.cfi_def_cfa_offset 4
.LVL326:
	POP	lr
	.cfi_def_cfa_offset 0
	JMP	lr
.LVL327:
.L204:
	.cfi_restore_state
.LM360:
	CMP	r8,#2
	JZ	.L200
	CMP	r8,#3
	JNZ	.L191
.LM361:
	LD.w	r4,[r6+#7]
.LVL328:
	NOT	r5,r5
.LVL329:
.LBB168:
.LBB169:
.LM362:
	ANL	r5,r5,r4
.LVL330:
	ORL	r5,r9
.LBE169:
.LBE168:
.LM363:
	ST.w	[r6+#7],r5
.LM364:
	POP	{r6, r7, r8, r9, r10}
	.cfi_remember_state
	.cfi_def_cfa_offset 4
.LVL331:
	POP	lr
	.cfi_def_cfa_offset 0
	JMP	lr
.LVL332:
.L199:
	.cfi_restore_state
.LM365:
	LD.w	r4,[r6+#5]
.LVL333:
	NOT	r5,r5
.LVL334:
.LBB170:
.LBB171:
.LM366:
	ANL	r5,r5,r4
.LVL335:
	ORL	r5,r9
.LBE171:
.LBE170:
.LM367:
	ST.w	[r6+#5],r5
.LM368:
	POP	{r6, r7, r8, r9, r10}
	.cfi_remember_state
	.cfi_def_cfa_offset 4
.LVL336:
	POP	lr
	.cfi_def_cfa_offset 0
	JMP	lr
.LVL337:
.L200:
	.cfi_restore_state
.LM369:
	LD.w	r4,[r6+#6]
.LVL338:
	NOT	r5,r5
.LVL339:
.LBB172:
.LBB173:
.LM370:
	ANL	r5,r5,r4
.LVL340:
	ORL	r5,r9
.LBE173:
.LBE172:
.LM371:
	ST.w	[r6+#6],r5
.LM372:
	POP	{r6, r7, r8, r9, r10}
	.cfi_def_cfa_offset 4
.LVL341:
	POP	lr
	.cfi_def_cfa_offset 0
	JMP	lr
	.cfi_endproc
.LFE27:
	.size	FDC_Channel_Pre_Triggle_Select, .-FDC_Channel_Pre_Triggle_Select
	.section .text$FDC_Channel_Pre_Signel_Enable
	.type	.text$FDC_Channel_Pre_Signel_Enable$scode_local_28, @function
	.text$FDC_Channel_Pre_Signel_Enable$scode_local_28:
	.align	1
	.export	FDC_Channel_Pre_Signel_Enable
	.type	FDC_Channel_Pre_Signel_Enable, @function
FDC_Channel_Pre_Signel_Enable:
.LFB28:
.LM373:
	.cfi_startproc
.LVL342:
	PUSH	{r6, r7, r8, r9, r10, lr}
	.cfi_def_cfa_offset 24
	MOV	r6,r0
	MOV	r8,r1
	MOV	r10,r3
	ZXT.b	r9,r2
.LVL343:
.LM374:
	MOV	r0,#1
.LVL344:
	LD	r5,#1073752960
	CMP	r6,r5
	JZ	.L206
.LM375:
	LD	r5,#1073753088
	CMP	r6,r5
	JZ	.L206
.LM376:
	LD	r5,#1073753216
	CMP	r6,r5
	JZ	.L206
	MOV	r0,#0
.L206:
.LM377:
	LD	r7,#CHECK_RESTRICTION
	LJMP	r7
.LVL345:
.LM378:
	MOV	r0,#1
	CMP	r8,#3
	JLS	.L208
	MOV	r0,#0
.L208:
	LJMP	r7
.LVL346:
.LM379:
	MOV	r0,#1
	CMP	r9,#4
	JLS	.L209
	MOV	r0,#0
.L209:
	LJMP	r7
.LVL347:
.LM380:
	MOV	r0,#1
	CMP	r10,r0
	JLS	.L210
	MOV	r0,#0
.L210:
	LJMP	r7
.LVL348:
.LM381:
	LSL	r10,r9
.LVL349:
.LM382:
	MOV	r5,#1
	LSL	r5,r9
.LVL350:
.LM383:
	CMP	r8,#1
	JZ	.L213
	CMP	r8,#0
	JNZ	.L218
.LM384:
	LD.w	r4,[r6+#4]
.LVL351:
	NOT	r5,r5
.LVL352:
.LBB174:
.LBB175:
.LM385:
	ANL	r5,r5,r4
.LVL353:
	ORL	r5,r10
.LBE175:
.LBE174:
.LM386:
	ST.w	[r6+#4],r5
.LVL354:
.L205:
.LM387:
	POP	{r6, r7, r8, r9, r10}
	.cfi_remember_state
	.cfi_def_cfa_offset 4
.LVL355:
	POP	lr
	.cfi_def_cfa_offset 0
	JMP	lr
.LVL356:
.L218:
	.cfi_restore_state
.LM388:
	CMP	r8,#2
	JZ	.L214
	CMP	r8,#3
	JNZ	.L205
.LM389:
	LD.w	r4,[r6+#7]
.LVL357:
	NOT	r5,r5
.LVL358:
.LBB176:
.LBB177:
.LM390:
	ANL	r5,r5,r4
.LVL359:
	ORL	r5,r10
.LBE177:
.LBE176:
.LM391:
	ST.w	[r6+#7],r5
.LM392:
	POP	{r6, r7, r8, r9, r10}
	.cfi_remember_state
	.cfi_def_cfa_offset 4
.LVL360:
	POP	lr
	.cfi_def_cfa_offset 0
	JMP	lr
.LVL361:
.L213:
	.cfi_restore_state
.LM393:
	LD.w	r4,[r6+#5]
.LVL362:
	NOT	r5,r5
.LVL363:
.LBB178:
.LBB179:
.LM394:
	ANL	r5,r5,r4
.LVL364:
	ORL	r5,r10
.LBE179:
.LBE178:
.LM395:
	ST.w	[r6+#5],r5
.LM396:
	POP	{r6, r7, r8, r9, r10}
	.cfi_remember_state
	.cfi_def_cfa_offset 4
.LVL365:
	POP	lr
	.cfi_def_cfa_offset 0
	JMP	lr
.LVL366:
.L214:
	.cfi_restore_state
.LM397:
	LD.w	r4,[r6+#6]
.LVL367:
	NOT	r5,r5
.LVL368:
.LBB180:
.LBB181:
.LM398:
	ANL	r5,r5,r4
.LVL369:
	ORL	r5,r10
.LBE181:
.LBE180:
.LM399:
	ST.w	[r6+#6],r5
.LM400:
	POP	{r6, r7, r8, r9, r10}
	.cfi_def_cfa_offset 4
.LVL370:
	POP	lr
	.cfi_def_cfa_offset 0
	JMP	lr
	.cfi_endproc
.LFE28:
	.size	FDC_Channel_Pre_Signel_Enable, .-FDC_Channel_Pre_Signel_Enable
	.section .text$FDC_Channelm_Pre_Triggle_Delay0
	.type	.text$FDC_Channelm_Pre_Triggle_Delay0$scode_local_29, @function
	.text$FDC_Channelm_Pre_Triggle_Delay0$scode_local_29:
	.align	1
	.export	FDC_Channelm_Pre_Triggle_Delay0
	.type	FDC_Channelm_Pre_Triggle_Delay0, @function
FDC_Channelm_Pre_Triggle_Delay0:
.LFB29:
.LM401:
	.cfi_startproc
.LVL371:
	PUSH	{r6, r7, r8, r9, lr}
	.cfi_def_cfa_offset 20
	MOV	r6,r0
	MOV	r7,r1
	MOV	r9,r2
.LVL372:
.LM402:
	MOV	r0,#1
.LVL373:
	LD	r5,#1073752960
	CMP	r6,r5
	JZ	.L220
.LM403:
	LD	r5,#1073753088
	CMP	r6,r5
	JZ	.L220
.LM404:
	LD	r5,#1073753216
	CMP	r6,r5
	JZ	.L220
	MOV	r0,#0
.L220:
.LM405:
	LD	r4,#CHECK_RESTRICTION
	MOV	r8,r4
	LJMP	r4
.LVL374:
.LM406:
	MOV	r0,#1
	CMP	r7,#3
	JLS	.L222
	MOV	r0,#0
.L222:
	LJMP	r8
.LVL375:
.LM407:
	MOV	r0,#1
	LD	r5,#65535
	CMP	r9,r5
	JLS	.L223
	MOV	r0,#0
.L223:
	LJMP	r8
.LVL376:
.LM408:
	CMP	r7,#1
	JZ	.L226
	CMP	r7,#0
	JNZ	.L231
.LM409:
	LD.w	r4,[r6+#12]
.LVL377:
.LBB182:
.LBB183:
.LM410:
	LD	r5,#-65536
	ANL	r5,r4,r5
	MOV	r4,r9
.LVL378:
	ORL	r5,r4,r5
.LBE183:
.LBE182:
.LM411:
	ST.w	[r6+#12],r5
.LVL379:
.L219:
.LM412:
	POP	{r6, r7, r8, r9}
	.cfi_remember_state
	.cfi_def_cfa_offset 4
.LVL380:
	POP	lr
	.cfi_def_cfa_offset 0
	JMP	lr
.LVL381:
.L231:
	.cfi_restore_state
.LM413:
	CMP	r7,#2
	JZ	.L227
	CMP	r7,#3
	JNZ	.L219
.LM414:
	LD.w	r4,[r6+#24]
.LVL382:
.LBB184:
.LBB185:
.LM415:
	LD	r5,#-65536
	ANL	r5,r4,r5
	MOV	r4,r9
.LVL383:
	ORL	r5,r4,r5
.LBE185:
.LBE184:
.LM416:
	ST.w	[r6+#24],r5
.LM417:
	POP	{r6, r7, r8, r9}
	.cfi_remember_state
	.cfi_def_cfa_offset 4
.LVL384:
	POP	lr
	.cfi_def_cfa_offset 0
	JMP	lr
.LVL385:
.L226:
	.cfi_restore_state
.LM418:
	LD.w	r4,[r6+#16]
.LVL386:
.LBB186:
.LBB187:
.LM419:
	LD	r5,#-65536
	ANL	r5,r4,r5
	MOV	r4,r9
.LVL387:
	ORL	r5,r4,r5
.LBE187:
.LBE186:
.LM420:
	ST.w	[r6+#16],r5
.LM421:
	POP	{r6, r7, r8, r9}
	.cfi_remember_state
	.cfi_def_cfa_offset 4
.LVL388:
	POP	lr
	.cfi_def_cfa_offset 0
	JMP	lr
.LVL389:
.L227:
	.cfi_restore_state
.LM422:
	LD.w	r4,[r6+#20]
.LVL390:
.LBB188:
.LBB189:
.LM423:
	LD	r5,#-65536
	ANL	r5,r4,r5
	MOV	r4,r9
.LVL391:
	ORL	r5,r4,r5
.LBE189:
.LBE188:
.LM424:
	ST.w	[r6+#20],r5
.LM425:
	POP	{r6, r7, r8, r9}
	.cfi_def_cfa_offset 4
.LVL392:
	POP	lr
	.cfi_def_cfa_offset 0
	JMP	lr
	.cfi_endproc
.LFE29:
	.size	FDC_Channelm_Pre_Triggle_Delay0, .-FDC_Channelm_Pre_Triggle_Delay0
	.section .text$FDC_Channelm_Pre_Triggle_Delay1
	.type	.text$FDC_Channelm_Pre_Triggle_Delay1$scode_local_30, @function
	.text$FDC_Channelm_Pre_Triggle_Delay1$scode_local_30:
	.align	1
	.export	FDC_Channelm_Pre_Triggle_Delay1
	.type	FDC_Channelm_Pre_Triggle_Delay1, @function
FDC_Channelm_Pre_Triggle_Delay1:
.LFB30:
.LM426:
	.cfi_startproc
.LVL393:
	PUSH	{r6, r7, r8, r9, lr}
	.cfi_def_cfa_offset 20
	MOV	r6,r0
	MOV	r7,r1
	MOV	r9,r2
.LVL394:
.LM427:
	MOV	r0,#1
.LVL395:
	LD	r5,#1073752960
	CMP	r6,r5
	JZ	.L233
.LM428:
	LD	r5,#1073753088
	CMP	r6,r5
	JZ	.L233
.LM429:
	LD	r5,#1073753216
	CMP	r6,r5
	JZ	.L233
	MOV	r0,#0
.L233:
.LM430:
	LD	r4,#CHECK_RESTRICTION
	MOV	r8,r4
	LJMP	r4
.LVL396:
.LM431:
	MOV	r0,#1
	CMP	r7,#3
	JLS	.L235
	MOV	r0,#0
.L235:
	LJMP	r8
.LVL397:
.LM432:
	MOV	r0,#1
	LD	r5,#65535
	CMP	r9,r5
	JLS	.L236
	MOV	r0,#0
.L236:
	LJMP	r8
.LVL398:
.LM433:
	LSL	r9,#16
.LVL399:
.LM434:
	CMP	r7,#1
	JZ	.L239
	CMP	r7,#0
	JNZ	.L244
.LM435:
	LD.w	r5,[r6+#12]
.LVL400:
.LBB190:
.LBB191:
.LM436:
	ZXT.h	r5,r5
.LVL401:
	MOV	r4,r9
	ORL	r5,r4,r5
.LBE191:
.LBE190:
.LM437:
	ST.w	[r6+#12],r5
.LVL402:
.L232:
.LM438:
	POP	{r6, r7, r8, r9}
	.cfi_remember_state
	.cfi_def_cfa_offset 4
.LVL403:
	POP	lr
	.cfi_def_cfa_offset 0
	JMP	lr
.LVL404:
.L244:
	.cfi_restore_state
.LM439:
	CMP	r7,#2
	JZ	.L240
	CMP	r7,#3
	JNZ	.L232
.LM440:
	LD.w	r5,[r6+#24]
.LVL405:
.LBB192:
.LBB193:
.LM441:
	ZXT.h	r5,r5
.LVL406:
	MOV	r4,r9
	ORL	r5,r4,r5
.LBE193:
.LBE192:
.LM442:
	ST.w	[r6+#24],r5
.LM443:
	POP	{r6, r7, r8, r9}
	.cfi_remember_state
	.cfi_def_cfa_offset 4
.LVL407:
	POP	lr
	.cfi_def_cfa_offset 0
	JMP	lr
.LVL408:
.L239:
	.cfi_restore_state
.LM444:
	LD.w	r5,[r6+#16]
.LVL409:
.LBB194:
.LBB195:
.LM445:
	ZXT.h	r5,r5
.LVL410:
	MOV	r4,r9
	ORL	r5,r4,r5
.LBE195:
.LBE194:
.LM446:
	ST.w	[r6+#16],r5
.LM447:
	POP	{r6, r7, r8, r9}
	.cfi_remember_state
	.cfi_def_cfa_offset 4
.LVL411:
	POP	lr
	.cfi_def_cfa_offset 0
	JMP	lr
.LVL412:
.L240:
	.cfi_restore_state
.LM448:
	LD.w	r5,[r6+#20]
.LVL413:
.LBB196:
.LBB197:
.LM449:
	ZXT.h	r5,r5
.LVL414:
	MOV	r4,r9
	ORL	r5,r4,r5
.LBE197:
.LBE196:
.LM450:
	ST.w	[r6+#20],r5
.LM451:
	POP	{r6, r7, r8, r9}
	.cfi_def_cfa_offset 4
.LVL415:
	POP	lr
	.cfi_def_cfa_offset 0
	JMP	lr
	.cfi_endproc
.LFE30:
	.size	FDC_Channelm_Pre_Triggle_Delay1, .-FDC_Channelm_Pre_Triggle_Delay1
	.section .text$FDC_Channelm_Pre_Triggle_Delay2
	.type	.text$FDC_Channelm_Pre_Triggle_Delay2$scode_local_31, @function
	.text$FDC_Channelm_Pre_Triggle_Delay2$scode_local_31:
	.align	1
	.export	FDC_Channelm_Pre_Triggle_Delay2
	.type	FDC_Channelm_Pre_Triggle_Delay2, @function
FDC_Channelm_Pre_Triggle_Delay2:
.LFB31:
.LM452:
	.cfi_startproc
.LVL416:
	PUSH	{r6, r7, r8, r9, lr}
	.cfi_def_cfa_offset 20
	MOV	r6,r0
	MOV	r7,r1
	MOV	r9,r2
.LVL417:
.LM453:
	MOV	r0,#1
.LVL418:
	LD	r5,#1073752960
	CMP	r6,r5
	JZ	.L246
.LM454:
	LD	r5,#1073753088
	CMP	r6,r5
	JZ	.L246
.LM455:
	LD	r5,#1073753216
	CMP	r6,r5
	JZ	.L246
	MOV	r0,#0
.L246:
.LM456:
	LD	r4,#CHECK_RESTRICTION
	MOV	r8,r4
	LJMP	r4
.LVL419:
.LM457:
	MOV	r0,#1
	CMP	r7,#3
	JLS	.L248
	MOV	r0,#0
.L248:
	LJMP	r8
.LVL420:
.LM458:
	MOV	r0,#1
	LD	r5,#65535
	CMP	r9,r5
	JLS	.L249
	MOV	r0,#0
.L249:
	LJMP	r8
.LVL421:
.LM459:
	CMP	r7,#1
	JZ	.L252
	CMP	r7,#0
	JNZ	.L257
.LM460:
	LD.w	r4,[r6+#13]
.LVL422:
.LBB198:
.LBB199:
.LM461:
	LD	r5,#-65536
	ANL	r5,r4,r5
	MOV	r4,r9
.LVL423:
	ORL	r5,r4,r5
.LBE199:
.LBE198:
.LM462:
	ST.w	[r6+#13],r5
.LVL424:
.L245:
.LM463:
	POP	{r6, r7, r8, r9}
	.cfi_remember_state
	.cfi_def_cfa_offset 4
.LVL425:
	POP	lr
	.cfi_def_cfa_offset 0
	JMP	lr
.LVL426:
.L257:
	.cfi_restore_state
.LM464:
	CMP	r7,#2
	JZ	.L253
	CMP	r7,#3
	JNZ	.L245
.LM465:
	LD.w	r4,[r6+#25]
.LVL427:
.LBB200:
.LBB201:
.LM466:
	LD	r5,#-65536
	ANL	r5,r4,r5
	MOV	r4,r9
.LVL428:
	ORL	r5,r4,r5
.LBE201:
.LBE200:
.LM467:
	ST.w	[r6+#25],r5
.LM468:
	POP	{r6, r7, r8, r9}
	.cfi_remember_state
	.cfi_def_cfa_offset 4
.LVL429:
	POP	lr
	.cfi_def_cfa_offset 0
	JMP	lr
.LVL430:
.L252:
	.cfi_restore_state
.LM469:
	LD.w	r4,[r6+#17]
.LVL431:
.LBB202:
.LBB203:
.LM470:
	LD	r5,#-65536
	ANL	r5,r4,r5
	MOV	r4,r9
.LVL432:
	ORL	r5,r4,r5
.LBE203:
.LBE202:
.LM471:
	ST.w	[r6+#17],r5
.LM472:
	POP	{r6, r7, r8, r9}
	.cfi_remember_state
	.cfi_def_cfa_offset 4
.LVL433:
	POP	lr
	.cfi_def_cfa_offset 0
	JMP	lr
.LVL434:
.L253:
	.cfi_restore_state
.LM473:
	LD.w	r4,[r6+#21]
.LVL435:
.LBB204:
.LBB205:
.LM474:
	LD	r5,#-65536
	ANL	r5,r4,r5
	MOV	r4,r9
.LVL436:
	ORL	r5,r4,r5
.LBE205:
.LBE204:
.LM475:
	ST.w	[r6+#21],r5
.LM476:
	POP	{r6, r7, r8, r9}
	.cfi_def_cfa_offset 4
.LVL437:
	POP	lr
	.cfi_def_cfa_offset 0
	JMP	lr
	.cfi_endproc
.LFE31:
	.size	FDC_Channelm_Pre_Triggle_Delay2, .-FDC_Channelm_Pre_Triggle_Delay2
	.section .text$FDC_Channelm_Pre_Triggle_Delay3
	.type	.text$FDC_Channelm_Pre_Triggle_Delay3$scode_local_32, @function
	.text$FDC_Channelm_Pre_Triggle_Delay3$scode_local_32:
	.align	1
	.export	FDC_Channelm_Pre_Triggle_Delay3
	.type	FDC_Channelm_Pre_Triggle_Delay3, @function
FDC_Channelm_Pre_Triggle_Delay3:
.LFB32:
.LM477:
	.cfi_startproc
.LVL438:
	PUSH	{r6, r7, r8, r9, lr}
	.cfi_def_cfa_offset 20
	MOV	r6,r0
	MOV	r7,r1
	MOV	r9,r2
.LVL439:
.LM478:
	MOV	r0,#1
.LVL440:
	LD	r5,#1073752960
	CMP	r6,r5
	JZ	.L259
.LM479:
	LD	r5,#1073753088
	CMP	r6,r5
	JZ	.L259
.LM480:
	LD	r5,#1073753216
	CMP	r6,r5
	JZ	.L259
	MOV	r0,#0
.L259:
.LM481:
	LD	r4,#CHECK_RESTRICTION
	MOV	r8,r4
	LJMP	r4
.LVL441:
.LM482:
	MOV	r0,#1
	CMP	r7,#3
	JLS	.L261
	MOV	r0,#0
.L261:
	LJMP	r8
.LVL442:
.LM483:
	MOV	r0,#1
	LD	r5,#65535
	CMP	r9,r5
	JLS	.L262
	MOV	r0,#0
.L262:
	LJMP	r8
.LVL443:
.LM484:
	LSL	r9,#16
.LVL444:
.LM485:
	CMP	r7,#1
	JZ	.L265
	CMP	r7,#0
	JNZ	.L270
.LM486:
	LD.w	r5,[r6+#13]
.LVL445:
.LBB206:
.LBB207:
.LM487:
	ZXT.h	r5,r5
.LVL446:
	MOV	r4,r9
	ORL	r5,r4,r5
.LBE207:
.LBE206:
.LM488:
	ST.w	[r6+#13],r5
.LVL447:
.L258:
.LM489:
	POP	{r6, r7, r8, r9}
	.cfi_remember_state
	.cfi_def_cfa_offset 4
.LVL448:
	POP	lr
	.cfi_def_cfa_offset 0
	JMP	lr
.LVL449:
.L270:
	.cfi_restore_state
.LM490:
	CMP	r7,#2
	JZ	.L266
	CMP	r7,#3
	JNZ	.L258
.LM491:
	LD.w	r5,[r6+#25]
.LVL450:
.LBB208:
.LBB209:
.LM492:
	ZXT.h	r5,r5
.LVL451:
	MOV	r4,r9
	ORL	r5,r4,r5
.LBE209:
.LBE208:
.LM493:
	ST.w	[r6+#25],r5
.LM494:
	POP	{r6, r7, r8, r9}
	.cfi_remember_state
	.cfi_def_cfa_offset 4
.LVL452:
	POP	lr
	.cfi_def_cfa_offset 0
	JMP	lr
.LVL453:
.L265:
	.cfi_restore_state
.LM495:
	LD.w	r5,[r6+#17]
.LVL454:
.LBB210:
.LBB211:
.LM496:
	ZXT.h	r5,r5
.LVL455:
	MOV	r4,r9
	ORL	r5,r4,r5
.LBE211:
.LBE210:
.LM497:
	ST.w	[r6+#17],r5
.LM498:
	POP	{r6, r7, r8, r9}
	.cfi_remember_state
	.cfi_def_cfa_offset 4
.LVL456:
	POP	lr
	.cfi_def_cfa_offset 0
	JMP	lr
.LVL457:
.L266:
	.cfi_restore_state
.LM499:
	LD.w	r5,[r6+#21]
.LVL458:
.LBB212:
.LBB213:
.LM500:
	ZXT.h	r5,r5
.LVL459:
	MOV	r4,r9
	ORL	r5,r4,r5
.LBE213:
.LBE212:
.LM501:
	ST.w	[r6+#21],r5
.LM502:
	POP	{r6, r7, r8, r9}
	.cfi_def_cfa_offset 4
.LVL460:
	POP	lr
	.cfi_def_cfa_offset 0
	JMP	lr
	.cfi_endproc
.LFE32:
	.size	FDC_Channelm_Pre_Triggle_Delay3, .-FDC_Channelm_Pre_Triggle_Delay3
	.section .text$FDC_Channelm_Pre_Triggle_Delay4
	.type	.text$FDC_Channelm_Pre_Triggle_Delay4$scode_local_33, @function
	.text$FDC_Channelm_Pre_Triggle_Delay4$scode_local_33:
	.align	1
	.export	FDC_Channelm_Pre_Triggle_Delay4
	.type	FDC_Channelm_Pre_Triggle_Delay4, @function
FDC_Channelm_Pre_Triggle_Delay4:
.LFB33:
.LM503:
	.cfi_startproc
.LVL461:
	PUSH	{r6, r7, r8, r9, lr}
	.cfi_def_cfa_offset 20
	MOV	r6,r0
	MOV	r7,r1
	MOV	r9,r2
.LVL462:
.LM504:
	MOV	r0,#1
.LVL463:
	LD	r5,#1073752960
	CMP	r6,r5
	JZ	.L272
.LM505:
	LD	r5,#1073753088
	CMP	r6,r5
	JZ	.L272
.LM506:
	LD	r5,#1073753216
	CMP	r6,r5
	JZ	.L272
	MOV	r0,#0
.L272:
.LM507:
	LD	r4,#CHECK_RESTRICTION
	MOV	r8,r4
	LJMP	r4
.LVL464:
.LM508:
	MOV	r0,#1
	CMP	r7,#3
	JLS	.L274
	MOV	r0,#0
.L274:
	LJMP	r8
.LVL465:
.LM509:
	MOV	r0,#1
	LD	r5,#65535
	CMP	r9,r5
	JLS	.L275
	MOV	r0,#0
.L275:
	LJMP	r8
.LVL466:
.LM510:
	CMP	r7,#1
	JZ	.L278
	CMP	r7,#0
	JNZ	.L283
.LM511:
	LD.w	r4,[r6+#14]
.LVL467:
.LBB214:
.LBB215:
.LM512:
	LD	r5,#-65536
	ANL	r5,r4,r5
	MOV	r4,r9
.LVL468:
	ORL	r5,r4,r5
.LBE215:
.LBE214:
.LM513:
	ST.w	[r6+#14],r5
.LVL469:
.L271:
.LM514:
	POP	{r6, r7, r8, r9}
	.cfi_remember_state
	.cfi_def_cfa_offset 4
.LVL470:
	POP	lr
	.cfi_def_cfa_offset 0
	JMP	lr
.LVL471:
.L283:
	.cfi_restore_state
.LM515:
	CMP	r7,#2
	JZ	.L279
	CMP	r7,#3
	JNZ	.L271
.LM516:
	LD.w	r4,[r6+#26]
.LVL472:
.LBB216:
.LBB217:
.LM517:
	LD	r5,#-65536
	ANL	r5,r4,r5
	MOV	r4,r9
.LVL473:
	ORL	r5,r4,r5
.LBE217:
.LBE216:
.LM518:
	ST.w	[r6+#26],r5
.LM519:
	POP	{r6, r7, r8, r9}
	.cfi_remember_state
	.cfi_def_cfa_offset 4
.LVL474:
	POP	lr
	.cfi_def_cfa_offset 0
	JMP	lr
.LVL475:
.L278:
	.cfi_restore_state
.LM520:
	LD.w	r4,[r6+#18]
.LVL476:
.LBB218:
.LBB219:
.LM521:
	LD	r5,#-65536
	ANL	r5,r4,r5
	MOV	r4,r9
.LVL477:
	ORL	r5,r4,r5
.LBE219:
.LBE218:
.LM522:
	ST.w	[r6+#18],r5
.LM523:
	POP	{r6, r7, r8, r9}
	.cfi_remember_state
	.cfi_def_cfa_offset 4
.LVL478:
	POP	lr
	.cfi_def_cfa_offset 0
	JMP	lr
.LVL479:
.L279:
	.cfi_restore_state
.LM524:
	LD.w	r4,[r6+#22]
.LVL480:
.LBB220:
.LBB221:
.LM525:
	LD	r5,#-65536
	ANL	r5,r4,r5
	MOV	r4,r9
.LVL481:
	ORL	r5,r4,r5
.LBE221:
.LBE220:
.LM526:
	ST.w	[r6+#22],r5
.LM527:
	POP	{r6, r7, r8, r9}
	.cfi_def_cfa_offset 4
.LVL482:
	POP	lr
	.cfi_def_cfa_offset 0
	JMP	lr
	.cfi_endproc
.LFE33:
	.size	FDC_Channelm_Pre_Triggle_Delay4, .-FDC_Channelm_Pre_Triggle_Delay4
	.section .text$FDC_Pulse_Output_DelayH
	.type	.text$FDC_Pulse_Output_DelayH$scode_local_34, @function
	.text$FDC_Pulse_Output_DelayH$scode_local_34:
	.align	1
	.export	FDC_Pulse_Output_DelayH
	.type	FDC_Pulse_Output_DelayH, @function
FDC_Pulse_Output_DelayH:
.LFB34:
.LM528:
	.cfi_startproc
.LVL483:
	PUSH	{r6, r7, r8, r9, lr}
	.cfi_def_cfa_offset 20
	MOV	r6,r0
	MOV	r7,r1
	MOV	r9,r2
.LVL484:
.LM529:
	MOV	r0,#1
.LVL485:
	LD	r5,#1073752960
	CMP	r6,r5
	JZ	.L285
.LM530:
	LD	r5,#1073753088
	CMP	r6,r5
	JZ	.L285
.LM531:
	LD	r5,#1073753216
	CMP	r6,r5
	JZ	.L285
	MOV	r0,#0
.L285:
.LM532:
	LD	r4,#CHECK_RESTRICTION
	MOV	r8,r4
	LJMP	r4
.LVL486:
.LM533:
	MOV	r0,#1
	CMP	r7,#3
	JLS	.L287
	MOV	r0,#0
.L287:
	LJMP	r8
.LVL487:
.LM534:
	MOV	r0,#1
	LD	r5,#65535
	CMP	r9,r5
	JLS	.L288
	MOV	r0,#0
.L288:
	LJMP	r8
.LVL488:
.LM535:
	LSL	r9,#16
.LVL489:
.LM536:
	CMP	r7,#1
	JZ	.L291
	CMP	r7,#0
	JNZ	.L296
.LM537:
	LD.w	r5,[r6+#28]
.LVL490:
.LBB222:
.LBB223:
.LM538:
	ZXT.h	r5,r5
.LVL491:
	MOV	r4,r9
	ORL	r5,r4,r5
.LBE223:
.LBE222:
.LM539:
	ST.w	[r6+#28],r5
.LVL492:
.L284:
.LM540:
	POP	{r6, r7, r8, r9}
	.cfi_remember_state
	.cfi_def_cfa_offset 4
.LVL493:
	POP	lr
	.cfi_def_cfa_offset 0
	JMP	lr
.LVL494:
.L296:
	.cfi_restore_state
.LM541:
	CMP	r7,#2
	JZ	.L292
	CMP	r7,#3
	JNZ	.L284
.LM542:
	LD.w	r5,[r6+#31]
.LVL495:
.LBB224:
.LBB225:
.LM543:
	ZXT.h	r5,r5
.LVL496:
	MOV	r4,r9
	ORL	r5,r4,r5
.LBE225:
.LBE224:
.LM544:
	ST.w	[r6+#31],r5
.LM545:
	POP	{r6, r7, r8, r9}
	.cfi_remember_state
	.cfi_def_cfa_offset 4
.LVL497:
	POP	lr
	.cfi_def_cfa_offset 0
	JMP	lr
.LVL498:
.L291:
	.cfi_restore_state
.LM546:
	LD.w	r5,[r6+#29]
.LVL499:
.LBB226:
.LBB227:
.LM547:
	ZXT.h	r5,r5
.LVL500:
	MOV	r4,r9
	ORL	r5,r4,r5
.LBE227:
.LBE226:
.LM548:
	ST.w	[r6+#29],r5
.LM549:
	POP	{r6, r7, r8, r9}
	.cfi_remember_state
	.cfi_def_cfa_offset 4
.LVL501:
	POP	lr
	.cfi_def_cfa_offset 0
	JMP	lr
.LVL502:
.L292:
	.cfi_restore_state
.LM550:
	LD.w	r5,[r6+#30]
.LVL503:
.LBB228:
.LBB229:
.LM551:
	ZXT.h	r5,r5
.LVL504:
	MOV	r4,r9
	ORL	r5,r4,r5
.LBE229:
.LBE228:
.LM552:
	ST.w	[r6+#30],r5
.LM553:
	POP	{r6, r7, r8, r9}
	.cfi_def_cfa_offset 4
.LVL505:
	POP	lr
	.cfi_def_cfa_offset 0
	JMP	lr
	.cfi_endproc
.LFE34:
	.size	FDC_Pulse_Output_DelayH, .-FDC_Pulse_Output_DelayH
	.section .text$FDC_Pulse_Output_DelayL
	.type	.text$FDC_Pulse_Output_DelayL$scode_local_35, @function
	.text$FDC_Pulse_Output_DelayL$scode_local_35:
	.align	1
	.export	FDC_Pulse_Output_DelayL
	.type	FDC_Pulse_Output_DelayL, @function
FDC_Pulse_Output_DelayL:
.LFB35:
.LM554:
	.cfi_startproc
.LVL506:
	PUSH	{r6, r7, r8, r9, lr}
	.cfi_def_cfa_offset 20
	MOV	r6,r0
	MOV	r7,r1
	MOV	r9,r2
.LVL507:
.LM555:
	MOV	r0,#1
.LVL508:
	LD	r5,#1073752960
	CMP	r6,r5
	JZ	.L298
.LM556:
	LD	r5,#1073753088
	CMP	r6,r5
	JZ	.L298
.LM557:
	LD	r5,#1073753216
	CMP	r6,r5
	JZ	.L298
	MOV	r0,#0
.L298:
.LM558:
	LD	r4,#CHECK_RESTRICTION
	MOV	r8,r4
	LJMP	r4
.LVL509:
.LM559:
	MOV	r0,#1
	CMP	r7,#3
	JLS	.L300
	MOV	r0,#0
.L300:
	LJMP	r8
.LVL510:
.LM560:
	MOV	r0,#1
	LD	r5,#65535
	CMP	r9,r5
	JLS	.L301
	MOV	r0,#0
.L301:
	LJMP	r8
.LVL511:
.LM561:
	CMP	r7,#1
	JZ	.L304
	CMP	r7,#0
	JNZ	.L309
.LM562:
	LD.w	r4,[r6+#28]
.LVL512:
.LBB230:
.LBB231:
.LM563:
	LD	r5,#-65536
	ANL	r5,r4,r5
	MOV	r4,r9
.LVL513:
	ORL	r5,r4,r5
.LBE231:
.LBE230:
.LM564:
	ST.w	[r6+#28],r5
.LVL514:
.L297:
.LM565:
	POP	{r6, r7, r8, r9}
	.cfi_remember_state
	.cfi_def_cfa_offset 4
.LVL515:
	POP	lr
	.cfi_def_cfa_offset 0
	JMP	lr
.LVL516:
.L309:
	.cfi_restore_state
.LM566:
	CMP	r7,#2
	JZ	.L305
	CMP	r7,#3
	JNZ	.L297
.LM567:
	LD.w	r4,[r6+#31]
.LVL517:
.LBB232:
.LBB233:
.LM568:
	LD	r5,#-65536
	ANL	r5,r4,r5
	MOV	r4,r9
.LVL518:
	ORL	r5,r4,r5
.LBE233:
.LBE232:
.LM569:
	ST.w	[r6+#31],r5
.LM570:
	POP	{r6, r7, r8, r9}
	.cfi_remember_state
	.cfi_def_cfa_offset 4
.LVL519:
	POP	lr
	.cfi_def_cfa_offset 0
	JMP	lr
.LVL520:
.L304:
	.cfi_restore_state
.LM571:
	LD.w	r4,[r6+#29]
.LVL521:
.LBB234:
.LBB235:
.LM572:
	LD	r5,#-65536
	ANL	r5,r4,r5
	MOV	r4,r9
.LVL522:
	ORL	r5,r4,r5
.LBE235:
.LBE234:
.LM573:
	ST.w	[r6+#29],r5
.LM574:
	POP	{r6, r7, r8, r9}
	.cfi_remember_state
	.cfi_def_cfa_offset 4
.LVL523:
	POP	lr
	.cfi_def_cfa_offset 0
	JMP	lr
.LVL524:
.L305:
	.cfi_restore_state
.LM575:
	LD.w	r4,[r6+#30]
.LVL525:
.LBB236:
.LBB237:
.LM576:
	LD	r5,#-65536
	ANL	r5,r4,r5
	MOV	r4,r9
.LVL526:
	ORL	r5,r4,r5
.LBE237:
.LBE236:
.LM577:
	ST.w	[r6+#30],r5
.LM578:
	POP	{r6, r7, r8, r9}
	.cfi_def_cfa_offset 4
.LVL527:
	POP	lr
	.cfi_def_cfa_offset 0
	JMP	lr
	.cfi_endproc
.LFE35:
	.size	FDC_Pulse_Output_DelayL, .-FDC_Pulse_Output_DelayL
	.text	
.Letext0: