	.file	"kf32a9k1xxx_systick.c"
	.text	
.Ltext0:
	.cfi_sections	.debug_frame
	.section .text$SYSTICK_Configuration
	.type	.text$SYSTICK_Configuration$scode_local_1, @function
	.text$SYSTICK_Configuration$scode_local_1:
	.align	1
	.export	SYSTICK_Configuration
	.type	SYSTICK_Configuration, @function
SYSTICK_Configuration:
.LFB1:
.LM1:
	.cfi_startproc
.LVL0:
	PUSH	{r6, r7, r8, r9, lr}
	.cfi_def_cfa_offset 20
	MOV	r8,r0
	MOV	r6,r1
	MOV	r9,r2
.LVL1:
.LM2:
	MOV	r0,#1
.LVL2:
	CMP	r8,#0
	JZ	.L2
.LM3:
	CMP	r8,#4
	JZ	.L2
	MOV	r0,#0
.L2:
.LM4:
	LD	r7,#CHECK_RESTRICTION
	LJMP	r7
.LVL3:
.LM5:
	MOV	r5,r9
	LSR	r5,#24
	MOV	r0,#1
	CMP	r5,#0
	JZ	.L4
	MOV	r0,#0
.L4:
	LJMP	r7
.LVL4:
.LM6:
	MOV	r0,#1
	CMP	r6,r0
	JLS	.L5
	MOV	r0,#0
.L5:
	LJMP	r7
.LVL5:
.LM7:
	LD	r5,#1075839136
// inline asm begin
	// 52 "../src/kf32a9k1xxx_systick.c" 1
	CLR [r5], #0
	// 0 "" 2
.LM8:
// inline asm end
	MOV	r4,r9
	ST.w	[r5+#1],r4
.LM9:
	MOV	r4,#0
	ST.w	[r5+#2],r4
.LVL6:
.LM10:
	LD.w	r4,[r5]
.LVL7:
.LBB4:
.LBB5:
.LM11:
	CLR	r4,#1
	CLR	r4,#2
.LVL8:
.LBE5:
.LBE4:
.LM12:
	ORL	r8,r4
.LVL9:
	ADD	r6,r6,r6
.LVL10:
.LBB7:
.LBB6:
.LM13:
	MOV	r4,r8
	ORL	r6,r4,r6
.LBE6:
.LBE7:
.LM14:
	ST.w	[r5],r6
.LM15:
	POP	{r6, r7, r8, r9}
	.cfi_def_cfa_offset 4
.LVL11:
	POP	lr
	.cfi_def_cfa_offset 0
	JMP	lr
	.cfi_endproc
.LFE1:
	.size	SYSTICK_Configuration, .-SYSTICK_Configuration
	.section .text$SYSTICK_Cmd
	.type	.text$SYSTICK_Cmd$scode_local_2, @function
	.text$SYSTICK_Cmd$scode_local_2:
	.align	1
	.export	SYSTICK_Cmd
	.type	SYSTICK_Cmd, @function
SYSTICK_Cmd:
.LFB2:
.LM16:
	.cfi_startproc
.LVL12:
	PUSH	{r6, lr}
	.cfi_def_cfa_offset 8
	MOV	r6,r0
.LM17:
	MOV	r0,#1
.LVL13:
	CMP	r6,r0
	JLS	.L16
	MOV	r0,#0
.L16:
	LD	r5,#CHECK_RESTRICTION
	LJMP	r5
.LVL14:
.LM18:
	LD	r5,#1075839136
.LM19:
	CMP	r6,#0
	JNZ	.L19
.LM20:
// inline asm begin
	// 99 "../src/kf32a9k1xxx_systick.c" 1
	CLR [r5], #0
	// 0 "" 2
.LM21:
// inline asm end
	POP	r6
	.cfi_remember_state
	.cfi_def_cfa_offset 4
.LVL15:
	POP	lr
	.cfi_def_cfa_offset 0
	JMP	lr
.LVL16:
.L19:
	.cfi_restore_state
.LM22:
// inline asm begin
	// 94 "../src/kf32a9k1xxx_systick.c" 1
	SET [r5], #0
	// 0 "" 2
.LM23:
// inline asm end
	POP	r6
	.cfi_def_cfa_offset 4
.LVL17:
	POP	lr
	.cfi_def_cfa_offset 0
	JMP	lr
	.cfi_endproc
.LFE2:
	.size	SYSTICK_Cmd, .-SYSTICK_Cmd
	.section .text$SYSTICK_Clock_Config
	.type	.text$SYSTICK_Clock_Config$scode_local_3, @function
	.text$SYSTICK_Clock_Config$scode_local_3:
	.align	1
	.export	SYSTICK_Clock_Config
	.type	SYSTICK_Clock_Config, @function
SYSTICK_Clock_Config:
.LFB3:
.LM24:
	.cfi_startproc
.LVL18:
	PUSH	lr
	.cfi_def_cfa_offset 4
.LM25:
	CMP	r0,#0
	JZ	.L21
.LM26:
	MOV	r5,#1
	CMP	r0,#4
	JZ	.L22
	MOV	r5,#0
.L22:
	MOV	r0,r5
.LVL19:
	LD	r5,#CHECK_RESTRICTION
	LJMP	r5
.LVL20:
.LM27:
	LD	r5,#1075839136
// inline asm begin
	// 122 "../src/kf32a9k1xxx_systick.c" 1
	SET [r5], #2
	// 0 "" 2
.LM28:
// inline asm end
	POP	lr
	.cfi_remember_state
	.cfi_def_cfa_offset 0
	JMP	lr
.LVL21:
.L21:
	.cfi_restore_state
.LM29:
	MOV	r0,#1
.LVL22:
	LD	r5,#CHECK_RESTRICTION
	LJMP	r5
.LVL23:
.LM30:
	LD	r5,#1075839136
// inline asm begin
	// 127 "../src/kf32a9k1xxx_systick.c" 1
	CLR [r5], #2
	// 0 "" 2
.LM31:
// inline asm end
	POP	lr
	.cfi_def_cfa_offset 0
	JMP	lr
	.cfi_endproc
.LFE3:
	.size	SYSTICK_Clock_Config, .-SYSTICK_Clock_Config
	.section .text$SYSTICK_Systick_INT_Enable
	.type	.text$SYSTICK_Systick_INT_Enable$scode_local_4, @function
	.text$SYSTICK_Systick_INT_Enable$scode_local_4:
	.align	1
	.export	SYSTICK_Systick_INT_Enable
	.type	SYSTICK_Systick_INT_Enable, @function
SYSTICK_Systick_INT_Enable:
.LFB4:
.LM32:
	.cfi_startproc
.LVL24:
	PUSH	{r6, lr}
	.cfi_def_cfa_offset 8
	MOV	r6,r0
.LM33:
	MOV	r0,#1
.LVL25:
	CMP	r6,r0
	JLS	.L28
	MOV	r0,#0
.L28:
	LD	r5,#CHECK_RESTRICTION
	LJMP	r5
.LVL26:
.LM34:
	LD	r5,#1075839136
.LM35:
	CMP	r6,#0
	JNZ	.L31
.LM36:
// inline asm begin
	// 152 "../src/kf32a9k1xxx_systick.c" 1
	CLR [r5], #1
	// 0 "" 2
.LM37:
// inline asm end
	POP	r6
	.cfi_remember_state
	.cfi_def_cfa_offset 4
.LVL27:
	POP	lr
	.cfi_def_cfa_offset 0
	JMP	lr
.LVL28:
.L31:
	.cfi_restore_state
.LM38:
// inline asm begin
	// 147 "../src/kf32a9k1xxx_systick.c" 1
	SET [r5], #1
	// 0 "" 2
.LM39:
// inline asm end
	POP	r6
	.cfi_def_cfa_offset 4
.LVL29:
	POP	lr
	.cfi_def_cfa_offset 0
	JMP	lr
	.cfi_endproc
.LFE4:
	.size	SYSTICK_Systick_INT_Enable, .-SYSTICK_Systick_INT_Enable
	.section .text$SYSTICK_Get_Count_Zero_Flag
	.type	.text$SYSTICK_Get_Count_Zero_Flag$scode_local_5, @function
	.text$SYSTICK_Get_Count_Zero_Flag$scode_local_5:
	.align	1
	.export	SYSTICK_Get_Count_Zero_Flag
	.type	SYSTICK_Get_Count_Zero_Flag, @function
SYSTICK_Get_Count_Zero_Flag:
.LFB5:
.LM40:
	.cfi_startproc
.LM41:
	LD	r5,#1075839136
	LD.w	r0,[r5]
	LSR	r0,#16
.LM42:
	MOV	r5,#1
	ANL	r0,r0,r5
	JMP	lr
	.cfi_endproc
.LFE5:
	.size	SYSTICK_Get_Count_Zero_Flag, .-SYSTICK_Get_Count_Zero_Flag
	.section .text$SYSTICK_Reload_Config
	.type	.text$SYSTICK_Reload_Config$scode_local_6, @function
	.text$SYSTICK_Reload_Config$scode_local_6:
	.align	1
	.export	SYSTICK_Reload_Config
	.type	SYSTICK_Reload_Config, @function
SYSTICK_Reload_Config:
.LFB6:
.LM43:
	.cfi_startproc
.LVL30:
	PUSH	{r6, lr}
	.cfi_def_cfa_offset 8
	MOV	r6,r0
.LM44:
	MOV	r4,#24
	LSR	r5,r0,r4
	MOV	r0,#1
.LVL31:
	CMP	r5,#0
	JZ	.L34
	MOV	r0,#0
.L34:
	LD	r5,#CHECK_RESTRICTION
	LJMP	r5
.LVL32:
.LM45:
	LD	r5,#1075839136
	ST.w	[r5+#1],r6
.LM46:
	POP	r6
	.cfi_def_cfa_offset 4
.LVL33:
	POP	lr
	.cfi_def_cfa_offset 0
	JMP	lr
	.cfi_endproc
.LFE6:
	.size	SYSTICK_Reload_Config, .-SYSTICK_Reload_Config
	.section .text$SYSTICK_Counter_Updata
	.type	.text$SYSTICK_Counter_Updata$scode_local_7, @function
	.text$SYSTICK_Counter_Updata$scode_local_7:
	.align	1
	.export	SYSTICK_Counter_Updata
	.type	SYSTICK_Counter_Updata, @function
SYSTICK_Counter_Updata:
.LFB7:
.LM47:
	.cfi_startproc
.LM48:
	MOV	r4,#0
	LD	r5,#1075839136
	ST.w	[r5+#2],r4
.LM49:
	JMP	lr
	.cfi_endproc
.LFE7:
	.size	SYSTICK_Counter_Updata, .-SYSTICK_Counter_Updata
	.section .text$SYSTICK_Get_Reload
	.type	.text$SYSTICK_Get_Reload$scode_local_8, @function
	.text$SYSTICK_Get_Reload$scode_local_8:
	.align	1
	.export	SYSTICK_Get_Reload
	.type	SYSTICK_Get_Reload, @function
SYSTICK_Get_Reload:
.LFB8:
.LM50:
	.cfi_startproc
.LVL34:
.LM51:
	LD	r5,#1075839136
	LD.w	r0,[r5+#1]
.LVL35:
.LM52:
	LD	r5,#16777215
	ANL	r0,r0,r5
.LVL36:
	JMP	lr
	.cfi_endproc
.LFE8:
	.size	SYSTICK_Get_Reload, .-SYSTICK_Get_Reload
	.section .text$SYSTICK_Get_Counter
	.type	.text$SYSTICK_Get_Counter$scode_local_9, @function
	.text$SYSTICK_Get_Counter$scode_local_9:
	.align	1
	.export	SYSTICK_Get_Counter
	.type	SYSTICK_Get_Counter, @function
SYSTICK_Get_Counter:
.LFB9:
.LM53:
	.cfi_startproc
.LVL37:
.LM54:
	LD	r5,#1075839136
	LD.w	r0,[r5+#2]
.LVL38:
.LM55:
	LD	r5,#16777215
	ANL	r0,r0,r5
.LVL39:
	JMP	lr
	.cfi_endproc
.LFE9:
	.size	SYSTICK_Get_Counter, .-SYSTICK_Get_Counter
	.text	
.Letext0: