	.file	"kf32a9k1xxx_usart.c"
	.text	
.Ltext0:
	.cfi_sections	.debug_frame
	.section .text$USART_Reset
	.type	.text$USART_Reset$scode_local_1, @function
	.text$USART_Reset$scode_local_1:
	.align	1
	.export	USART_Reset
	.type	USART_Reset, @function
USART_Reset:
.LFB1:
.LM1:
	.cfi_startproc
.LVL0:
	PUSH	{r6, lr}
	.cfi_def_cfa_offset 8
.LM2:
	LD	r5,#1073744256
	CMP	r0,r5
	JZ	.L2
.LM3:
	LD	r5,#1073744384
	CMP	r0,r5
	JZ	.L3
.LM4:
	LD	r5,#1073744512
	CMP	r0,r5
	JZ	.L4
	LD	r5,#1073744768
	CMP	r0,r5
	JZ	.L5
	LD	r5,#1073749632
	CMP	r0,r5
	JZ	.L6
	MOV	r6,#1
	LD	r5,#1073749888
	CMP	r0,r5
	JZ	.L7
	MOV	r6,#0
.L7:
	ZXT.b	r6,r6
	MOV	r0,r6
.LVL1:
	LD	r5,#CHECK_RESTRICTION
	LJMP	r5
.LVL2:
.LM5:
	CMP	r6,#0
	JNZ	.L13
.L1:
.LM6:
	POP	r6
	.cfi_remember_state
	.cfi_def_cfa_offset 4
	POP	lr
	.cfi_def_cfa_offset 0
	JMP	lr
.LVL3:
.L6:
	.cfi_restore_state
.LM7:
	MOV	r0,#1
.LVL4:
	LD	r5,#CHECK_RESTRICTION
	LJMP	r5
.LVL5:
.LM8:
	MOV	r0,#1
	LSL	r0,#29
	MOV	r1,#1
	LD	r6,#RST_CTL2_Peripheral_Reset_Enable
	LJMP	r6
.LVL6:
.LM9:
	MOV	r0,#1
	LSL	r0,#29
	MOV	r1,#0
	LJMP	r6
.LVL7:
.LM10:
	MOV	r0,#1
	LSL	r0,#29
	MOV	r1,#1
	LD	r5,#PCLK_CTL2_Peripheral_Clock_Enable
	LJMP	r5
.LVL8:
	JMP	.L1
.LVL9:
.L2:
.LM11:
	MOV	r0,#1
.LVL10:
	LD	r5,#CHECK_RESTRICTION
	LJMP	r5
.LVL11:
.LM12:
	MOV	r0,#1
	LSL	r0,#19
	MOV	r1,#1
	LD	r6,#RST_CTL1_Peripheral_Reset_Enable
	LJMP	r6
.LVL12:
.LM13:
	MOV	r0,#1
	LSL	r0,#19
	MOV	r1,#0
	LJMP	r6
.LVL13:
.LM14:
	MOV	r0,#1
	LSL	r0,#19
	MOV	r1,#1
	LD	r5,#PCLK_CTL1_Peripheral_Clock_Enable
	LJMP	r5
.LVL14:
.LM15:
	POP	r6
	.cfi_remember_state
	.cfi_def_cfa_offset 4
	POP	lr
	.cfi_def_cfa_offset 0
	JMP	lr
.LVL15:
.L3:
	.cfi_restore_state
.LM16:
	MOV	r0,#1
.LVL16:
	LD	r5,#CHECK_RESTRICTION
	LJMP	r5
.LVL17:
.LM17:
	MOV	r0,#1
	LSL	r0,#20
	MOV	r1,#1
	LD	r6,#RST_CTL1_Peripheral_Reset_Enable
	LJMP	r6
.LVL18:
.LM18:
	MOV	r0,#1
	LSL	r0,#20
	MOV	r1,#0
	LJMP	r6
.LVL19:
.LM19:
	MOV	r0,#1
	LSL	r0,#20
	MOV	r1,#1
	LD	r5,#PCLK_CTL1_Peripheral_Clock_Enable
	LJMP	r5
.LVL20:
.LM20:
	POP	r6
	.cfi_remember_state
	.cfi_def_cfa_offset 4
	POP	lr
	.cfi_def_cfa_offset 0
	JMP	lr
.LVL21:
.L4:
	.cfi_restore_state
.LM21:
	MOV	r0,#1
.LVL22:
	LD	r5,#CHECK_RESTRICTION
	LJMP	r5
.LVL23:
.LM22:
	MOV	r0,#1
	LSL	r0,#21
	MOV	r1,#1
	LD	r6,#RST_CTL1_Peripheral_Reset_Enable
	LJMP	r6
.LVL24:
.LM23:
	MOV	r0,#1
	LSL	r0,#21
	MOV	r1,#0
	LJMP	r6
.LVL25:
.LM24:
	MOV	r0,#1
	LSL	r0,#21
	MOV	r1,#1
	LD	r5,#PCLK_CTL1_Peripheral_Clock_Enable
	LJMP	r5
.LVL26:
.LM25:
	POP	r6
	.cfi_remember_state
	.cfi_def_cfa_offset 4
	POP	lr
	.cfi_def_cfa_offset 0
	JMP	lr
.LVL27:
.L5:
	.cfi_restore_state
.LM26:
	MOV	r0,#1
.LVL28:
	LD	r5,#CHECK_RESTRICTION
	LJMP	r5
.LVL29:
.LM27:
	MOV	r0,#1
	LSL	r0,#23
	MOV	r1,#1
	LD	r6,#RST_CTL1_Peripheral_Reset_Enable
	LJMP	r6
.LVL30:
.LM28:
	MOV	r0,#1
	LSL	r0,#23
	MOV	r1,#0
	LJMP	r6
.LVL31:
.LM29:
	MOV	r0,#1
	LSL	r0,#23
	MOV	r1,#1
	LD	r5,#PCLK_CTL1_Peripheral_Clock_Enable
	LJMP	r5
.LVL32:
	JMP	.L1
.L13:
.LM30:
	MOV	r0,#1
	LSL	r0,#31
	MOV	r1,#1
	LD	r6,#RST_CTL2_Peripheral_Reset_Enable
	LJMP	r6
.LVL33:
.LM31:
	MOV	r0,#1
	LSL	r0,#31
	MOV	r1,#0
	LJMP	r6
.LVL34:
.LM32:
	MOV	r0,#1
	LSL	r0,#31
	MOV	r1,#1
	LD	r5,#PCLK_CTL2_Peripheral_Clock_Enable
	LJMP	r5
.LVL35:
	JMP	.L1
	.cfi_endproc
.LFE1:
	.size	USART_Reset, .-USART_Reset
	.section .text$USART_Configuration
	.type	.text$USART_Configuration$scode_local_2, @function
	.text$USART_Configuration$scode_local_2:
	.align	1
	.export	USART_Configuration
	.type	USART_Configuration, @function
USART_Configuration:
.LFB2:
.LM33:
	.cfi_startproc
.LVL36:
	PUSH	{r6, r7, r8, lr}
	.cfi_def_cfa_offset 16
	MOV	r8,r0
	MOV	r6,r1
.LVL37:
.LM34:
	MOV	r0,#1
.LVL38:
	LD	r5,#1073744256
	CMP	r8,r5
	JZ	.L15
.LM35:
	LD	r5,#1073744384
	CMP	r8,r5
	JZ	.L15
.LM36:
	LD	r5,#1073744512
	CMP	r8,r5
	JZ	.L15
	LD	r5,#1073744768
	CMP	r8,r5
	JZ	.L15
	LD	r5,#1073749632
	CMP	r8,r5
	JZ	.L15
	LD	r5,#1073749888
	CMP	r8,r5
	JZ	.L15
	MOV	r0,#0
.L15:
.LM37:
	LD	r7,#CHECK_RESTRICTION
	LJMP	r7
.LVL39:
.LM38:
	LD.w	r5,[r6]
	MOV	r0,#1
	CMP	r5,#0
	JZ	.L17
.LM39:
	LD	r4,#1073758208
	CMP	r5,r4
	JZ	.L17
	MOV	r0,#0
.L17:
.LM40:
	LJMP	r7
.LVL40:
.LM41:
	LD.w	r5,[r6+#1]
	MOV	r0,#1
	CMP	r5,#0
	JZ	.L19
.LM42:
	MOV	r4,#255
	ADD	r4,r4,#1
	CMP	r5,r4
	JZ	.L19
	MOV	r0,#0
.L19:
.LM43:
	LJMP	r7
.LVL41:
.LM44:
	LD.w	r5,[r6+#2]
	MOV	r0,#1
	CMP	r5,#0
	JZ	.L21
.LM45:
	MOV	r4,#1
	LSL	r4,#15
	CMP	r5,r4
	JZ	.L21
.LM46:
	MOV	r4,#1
	LSL	r4,#16
	CMP	r5,r4
	JZ	.L21
	LD	r4,#98304
	CMP	r5,r4
	JZ	.L21
	MOV	r0,#0
.L21:
.LM47:
	LJMP	r7
.LVL42:
.LM48:
	LD.w	r5,[r6+#3]
	MOV	r0,#1
	CMP	r5,#0
	JZ	.L23
.LM49:
	MOV	r4,#1
	LSL	r4,#21
	CMP	r5,r4
	JZ	.L23
	MOV	r0,#0
.L23:
.LM50:
	LJMP	r7
.LVL43:
.LM51:
	LD.w	r5,[r6+#4]
	MOV	r0,#1
	CMP	r5,#0
	JZ	.L25
.LM52:
	MOV	r4,#1
	LSL	r4,#18
	CMP	r5,r4
	JZ	.L25
	MOV	r0,#0
.L25:
.LM53:
	LJMP	r7
.LVL44:
.LM54:
	LD.w	r5,[r6+#5]
	MOV	r0,#1
	CMP	r5,#0
	JZ	.L27
.LM55:
	MOV	r4,#1
	LSL	r4,#19
	CMP	r5,r4
	JZ	.L27
	MOV	r0,#0
.L27:
.LM56:
	LJMP	r7
.LVL45:
.LM57:
	LD.w	r5,[r6+#6]
	MOV	r0,#1
	MOV	r4,#1
	LSL	r4,#20
	CMP	r5,r4
	JZ	.L29
.LM58:
	CMP	r5,#0
	JNZ	.L85
.L29:
.LM59:
	LJMP	r7
.LVL46:
.LM60:
	LD.w	r5,[r6+#9]
	MOV	r0,#1
	CMP	r5,#0
	JZ	.L31
.LM61:
	MOV	r4,#1
	LSL	r4,#11
	CMP	r5,r4
	JZ	.L31
	MOV	r0,#0
.L31:
.LM62:
	LJMP	r7
.LVL47:
.LM63:
	LD.w	r5,[r6+#10]
	MOV	r0,#1
	CMP	r5,#0
	JZ	.L33
.LM64:
	MOV	r4,#1
	LSL	r4,#24
	CMP	r5,r4
	JZ	.L33
.LM65:
	MOV	r4,#1
	LSL	r4,#25
	CMP	r5,r4
	JZ	.L33
	LD	r4,#50331648
	CMP	r5,r4
	JZ	.L33
	MOV	r0,#0
.L33:
.LM66:
	LJMP	r7
.LVL48:
.LM67:
	LD.w	r5,[r6+#7]
	MOV	r0,#1
	CMP	r5,#0
	JZ	.L35
.LM68:
	CMP	r5,#32
	JZ	.L35
	MOV	r0,#0
.L35:
.LM69:
	LJMP	r7
.LVL49:
.LM70:
	LD.w	r5,[r6+#8]
	MOV	r0,#1
	CMP	r5,#0
	JZ	.L37
.LM71:
	CMP	r5,#16
	JZ	.L37
	MOV	r0,#0
.L37:
.LM72:
	LJMP	r7
.LVL50:
.LM73:
	LD.h	r5,[r6+#22]
	MOV	r0,#1
	CMP	r5,#0
	JZ	.L39
.LM74:
	CMP	r5,#2
	JZ	.L39
.LM75:
	CMP	r5,#4
	JZ	.L39
	MOV	r0,#6
	XRL	r0,r5,r0
	SUB	r0,r0,#1
	LSR	r0,#31
.L39:
.LM76:
	LJMP	r7
.LVL51:
.LM77:
	LD.h	r0,[r6+#24]
	LSR	r0,#4
	SUB	r0,r0,#1
	LSR	r0,#31
	LJMP	r7
.LVL52:
.LM78:
	LD.h	r0,[r6+#25]
	LSR	r0,#4
	SUB	r0,r0,#1
	LSR	r0,#31
	LJMP	r7
.LVL53:
.LM79:
	LD.w	r3,[r8]
.LVL54:
.LM80:
	LD.w	r2,[r6+#1]
	LD.w	r4,[r6]
	ORL	r5,r2,r4
.LM81:
	LD.w	r2,[r6+#2]
	ORL	r5,r5,r2
.LM82:
	LD.w	r4,[r6+#3]
	ORL	r5,r5,r4
.LM83:
	LD.w	r2,[r6+#5]
	ORL	r5,r5,r2
.LM84:
	LD.w	r4,[r6+#4]
	ORL	r5,r5,r4
.LM85:
	LD.w	r2,[r6+#7]
	ORL	r5,r5,r2
.LM86:
	LD.w	r4,[r6+#8]
	ORL	r5,r5,r4
.LM87:
	LD.w	r2,[r6+#6]
	ORL	r5,r5,r2
.LM88:
	LD.w	r4,[r6+#9]
	ORL	r5,r5,r4
.LM89:
	LD.w	r2,[r6+#10]
	ORL	r5,r5,r2
.LM90:
	LD.h	r4,[r6+#22]
.LM91:
	ORL	r5,r5,r4
.LBB34:
.LBB35:
.LM92:
	LD	r4,#-53854465
	ANL	r4,r3,r4
	ORL	r5,r5,r4
.LBE35:
.LBE34:
.LM93:
	ST.w	[r8],r5
.LVL55:
.LM94:
	MOV	r3,r8
.LVL56:
	LD.w	r4,[r3+#1]
.LVL57:
.LBB36:
.LBB37:
.LM95:
	LD	r5,#-16777216
	ANL	r5,r4,r5
.LBE37:
.LBE36:
.LM96:
	LD.h	r4,[r6+#23]
.LVL58:
.LM97:
	ORL	r5,r5,r4
	LD.h	r4,[r6+#24]
	LSL	r4,#16
.LM98:
	ORL	r5,r5,r4
.LM99:
	LD.h	r4,[r6+#25]
	LSL	r4,#20
.LBB39:
.LBB38:
.LM100:
	ORL	r5,r5,r4
.LBE38:
.LBE39:
.LM101:
	ST.w	[r3+#1],r5
.LM102:
	POP	{r6, r7, r8}
	.cfi_remember_state
	.cfi_def_cfa_offset 4
.LVL59:
	POP	lr
	.cfi_def_cfa_offset 0
	JMP	lr
.LVL60:
.L85:
	.cfi_restore_state
.LM103:
	MOV	r0,#0
	JMP	.L29
	.cfi_endproc
.LFE2:
	.size	USART_Configuration, .-USART_Configuration
	.section .text$USART_U7816R_Configuration
	.type	.text$USART_U7816R_Configuration$scode_local_3, @function
	.text$USART_U7816R_Configuration$scode_local_3:
	.align	1
	.export	USART_U7816R_Configuration
	.type	USART_U7816R_Configuration, @function
USART_U7816R_Configuration:
.LFB3:
.LM104:
	.cfi_startproc
.LVL61:
	PUSH	{r6, r7, r8, lr}
	.cfi_def_cfa_offset 16
	MOV	r7,r0
	MOV	r6,r1
.LVL62:
.LM105:
	MOV	r0,#1
.LVL63:
	LD	r5,#1073744256
	CMP	r7,r5
	JZ	.L87
.LM106:
	LD	r5,#1073744384
	CMP	r7,r5
	JZ	.L87
.LM107:
	LD	r5,#1073744512
	CMP	r7,r5
	JZ	.L87
	LD	r5,#1073744768
	CMP	r7,r5
	JZ	.L87
	LD	r5,#1073749632
	CMP	r7,r5
	JZ	.L87
	LD	r5,#1073749888
	CMP	r7,r5
	JZ	.L87
	MOV	r0,#0
.L87:
.LM108:
	LD	r2,#CHECK_RESTRICTION
	MOV	r8,r2
	LJMP	r2
.LVL64:
.LM109:
	LD.w	r5,[r6]
	MOV	r0,#1
	CMP	r5,#0
	JZ	.L89
.LM110:
	CMP	r5,#8
	JZ	.L89
.LM111:
	CMP	r5,#12
	JZ	.L89
	MOV	r0,#0
.L89:
.LM112:
	LJMP	r8
.LVL65:
.LM113:
	LD.w	r5,[r6+#1]
	MOV	r0,#1
	CMP	r5,#0
	JZ	.L91
.LM114:
	CMP	r5,#16
	JZ	.L91
	MOV	r0,#0
.L91:
.LM115:
	LJMP	r8
.LVL66:
.LM116:
	LD.w	r5,[r6+#2]
	MOV	r0,#1
	CMP	r5,#0
	JZ	.L93
.LM117:
	MOV	r4,#1
	LSL	r4,#10
	CMP	r5,r4
	JZ	.L93
.LM118:
	MOV	r4,#1
	LSL	r4,#11
	CMP	r5,r4
	JZ	.L93
	LD	r4,#3072
	CMP	r5,r4
	JZ	.L93
	MOV	r0,#0
.L93:
.LM119:
	LJMP	r8
.LVL67:
.LM120:
	LD.w	r5,[r6+#3]
	MOV	r0,#1
	CMP	r5,#0
	JZ	.L95
.LM121:
	MOV	r4,#1
	LSL	r4,#12
	CMP	r5,r4
	JZ	.L95
.LM122:
	MOV	r4,#1
	LSL	r4,#13
	CMP	r5,r4
	JZ	.L95
	LD	r4,#12288
	CMP	r5,r4
	JZ	.L95
	MOV	r0,#0
.L95:
.LM123:
	LJMP	r8
.LVL68:
.LM124:
	MOV	r0,#1
	LD.w	r5,[r6+#4]
	CMP	r5,r0
	JLS	.L97
	MOV	r0,#0
.L97:
	LJMP	r8
.LVL69:
.LM125:
	LD.w	r3,[r7+#4]
.LVL70:
.LM126:
	LD.w	r5,[r6+#1]
	LD.w	r2,[r6]
	ORL	r4,r5,r2
.LVL71:
.LM127:
	LD.w	r5,[r6+#2]
	ORL	r4,r4,r5
.LVL72:
.LM128:
	LD.w	r2,[r6+#3]
	ORL	r4,r4,r2
.LM129:
	LD.w	r5,[r6+#4]
	ADD	r5,r5,r5
	ORL	r5,r4,r5
.LBB40:
.LBB41:
.LM130:
	LD	r4,#50145
	ANL	r4,r3,r4
.LBE41:
.LBE40:
.LM131:
	ORL	r5,r5,r4
	LD.b	r4,[r6+#21]
	LSL	r4,#24
.LM132:
	ORL	r5,r5,r4
.LM133:
	LD.b	r4,[r6+#20]
	LSL	r4,#16
.LBB43:
.LBB42:
.LM134:
	ORL	r5,r5,r4
.LBE42:
.LBE43:
.LM135:
	ST.w	[r7+#4],r5
.LM136:
	POP	{r6, r7, r8}
	.cfi_def_cfa_offset 4
.LVL73:
	POP	lr
	.cfi_def_cfa_offset 0
	JMP	lr
	.cfi_endproc
.LFE3:
	.size	USART_U7816R_Configuration, .-USART_U7816R_Configuration
	.section .text$USART_Struct_Init
	.type	.text$USART_Struct_Init$scode_local_4, @function
	.text$USART_Struct_Init$scode_local_4:
	.align	1
	.export	USART_Struct_Init
	.type	USART_Struct_Init, @function
USART_Struct_Init:
.LFB4:
.LM137:
	.cfi_startproc
.LVL74:
.LM138:
	MOV	r5,#0
	ST.w	[r0],r5
.LM139:
	ST.w	[r0+#1],r5
.LM140:
	MOV	r4,#1
	LSL	r4,#15
	ST.w	[r0+#2],r4
.LM141:
	ST.w	[r0+#3],r5
.LM142:
	ST.w	[r0+#4],r5
.LM143:
	ST.w	[r0+#5],r5
.LM144:
	ST.w	[r0+#6],r5
.LM145:
	ST.w	[r0+#7],r5
.LM146:
	ST.w	[r0+#8],r5
.LM147:
	ST.w	[r0+#9],r5
.LM148:
	ST.w	[r0+#10],r5
.LM149:
	ST.h	[r0+#22],r5
.LM150:
	MOV	r4,#1
	ST.h	[r0+#23],r4
.LM151:
	ST.h	[r0+#24],r5
.LM152:
	ST.h	[r0+#25],r4
.LM153:
	JMP	lr
	.cfi_endproc
.LFE4:
	.size	USART_Struct_Init, .-USART_Struct_Init
	.section .text$USART_U7816R_Struct_Init
	.type	.text$USART_U7816R_Struct_Init$scode_local_5, @function
	.text$USART_U7816R_Struct_Init$scode_local_5:
	.align	1
	.export	USART_U7816R_Struct_Init
	.type	USART_U7816R_Struct_Init, @function
USART_U7816R_Struct_Init:
.LFB5:
.LM154:
	.cfi_startproc
.LVL75:
.LM155:
	MOV	r5,#0
	ST.w	[r0],r5
.LM156:
	ST.w	[r0+#1],r5
.LM157:
	ST.w	[r0+#2],r5
.LM158:
	ST.w	[r0+#3],r5
.LM159:
	ST.w	[r0+#4],r5
.LM160:
	ST.b	[r0+#20],r5
.LM161:
	ST.b	[r0+#21],r5
.LM162:
	JMP	lr
	.cfi_endproc
.LFE5:
	.size	USART_U7816R_Struct_Init, .-USART_U7816R_Struct_Init
	.section .text$USART_Cmd
	.type	.text$USART_Cmd$scode_local_6, @function
	.text$USART_Cmd$scode_local_6:
	.align	1
	.export	USART_Cmd
	.type	USART_Cmd, @function
USART_Cmd:
.LFB6:
.LM163:
	.cfi_startproc
.LVL76:
	PUSH	{r6, r7, r8, lr}
	.cfi_def_cfa_offset 16
	MOV	r6,r0
	MOV	r7,r1
.LM164:
	MOV	r0,#1
.LVL77:
	LD	r5,#1073744256
	CMP	r6,r5
	JZ	.L126
.LM165:
	LD	r5,#1073744384
	CMP	r6,r5
	JZ	.L126
.LM166:
	LD	r5,#1073744512
	CMP	r6,r5
	JZ	.L126
	LD	r5,#1073744768
	CMP	r6,r5
	JZ	.L126
	LD	r5,#1073749632
	CMP	r6,r5
	JZ	.L126
	LD	r5,#1073749888
	CMP	r6,r5
	JZ	.L126
	MOV	r0,#0
.L126:
.LM167:
	LD	r5,#CHECK_RESTRICTION
	MOV	r8,r5
	LJMP	r5
.LVL78:
.LM168:
	MOV	r0,#1
	CMP	r7,r0
	JLS	.L128
	MOV	r0,#0
.L128:
	LJMP	r8
.LVL79:
.LM169:
	CMP	r7,#0
	JNZ	.L136
.LM170:
// inline asm begin
	// 315 "../src/kf32a9k1xxx_usart.c" 1
	CLR [r6], #0
	// 0 "" 2
.LM171:
// inline asm end
	POP	{r6, r7, r8}
	.cfi_remember_state
	.cfi_def_cfa_offset 4
.LVL80:
	POP	lr
	.cfi_def_cfa_offset 0
	JMP	lr
.LVL81:
.L136:
	.cfi_restore_state
.LM172:
// inline asm begin
	// 310 "../src/kf32a9k1xxx_usart.c" 1
	SET [r6], #0
	// 0 "" 2
.LM173:
// inline asm end
	POP	{r6, r7, r8}
	.cfi_def_cfa_offset 4
.LVL82:
	POP	lr
	.cfi_def_cfa_offset 0
	JMP	lr
	.cfi_endproc
.LFE6:
	.size	USART_Cmd, .-USART_Cmd
	.section .text$USART_BaudRate_Clock_Config
	.type	.text$USART_BaudRate_Clock_Config$scode_local_7, @function
	.text$USART_BaudRate_Clock_Config$scode_local_7:
	.align	1
	.export	USART_BaudRate_Clock_Config
	.type	USART_BaudRate_Clock_Config, @function
USART_BaudRate_Clock_Config:
.LFB7:
.LM174:
	.cfi_startproc
.LVL83:
	PUSH	{r6, r7, r8, lr}
	.cfi_def_cfa_offset 16
	MOV	r6,r0
	MOV	r7,r1
.LM175:
	MOV	r0,#1
.LVL84:
	LD	r5,#1073744256
	CMP	r6,r5
	JZ	.L138
.LM176:
	LD	r5,#1073744384
	CMP	r6,r5
	JZ	.L138
.LM177:
	LD	r5,#1073744512
	CMP	r6,r5
	JZ	.L138
	LD	r5,#1073744768
	CMP	r6,r5
	JZ	.L138
	LD	r5,#1073749632
	CMP	r6,r5
	JZ	.L138
	LD	r5,#1073749888
	CMP	r6,r5
	JZ	.L138
	MOV	r0,#0
.L138:
.LM178:
	LD	r5,#CHECK_RESTRICTION
	MOV	r8,r5
	LJMP	r5
.LVL85:
.LM179:
	MOV	r0,#1
	CMP	r7,#0
	JZ	.L140
.LM180:
	CMP	r7,#2
	JZ	.L140
.LM181:
	CMP	r7,#4
	JZ	.L140
	CMP	r7,#6
	JZ	.L140
	MOV	r0,#0
.L140:
.LM182:
	LJMP	r8
.LVL86:
.LM183:
	LD.w	r5,[r6]
.LVL87:
.LBB44:
.LBB45:
.LM184:
	CLR	r5,#1
	CLR	r5,#2
.LVL88:
	ORL	r7,r7,r5
.LVL89:
.LBE45:
.LBE44:
.LM185:
	ST.w	[r6],r7
.LM186:
	POP	{r6, r7, r8}
	.cfi_def_cfa_offset 4
	POP	lr
	.cfi_def_cfa_offset 0
	JMP	lr
	.cfi_endproc
.LFE7:
	.size	USART_BaudRate_Clock_Config, .-USART_BaudRate_Clock_Config
	.section .text$USART_HalfDuplex_ClockPolarity_Config
	.type	.text$USART_HalfDuplex_ClockPolarity_Config$scode_local_8, @function
	.text$USART_HalfDuplex_ClockPolarity_Config$scode_local_8:
	.align	1
	.export	USART_HalfDuplex_ClockPolarity_Config
	.type	USART_HalfDuplex_ClockPolarity_Config, @function
USART_HalfDuplex_ClockPolarity_Config:
.LFB8:
.LM187:
	.cfi_startproc
.LVL90:
	PUSH	{r6, r7, r8, lr}
	.cfi_def_cfa_offset 16
	MOV	r6,r0
	MOV	r8,r1
.LM188:
	MOV	r0,#1
.LVL91:
	LD	r5,#1073744256
	CMP	r6,r5
	JZ	.L157
.LM189:
	LD	r5,#1073744384
	CMP	r6,r5
	JZ	.L157
.LM190:
	LD	r5,#1073744512
	CMP	r6,r5
	JZ	.L157
	LD	r5,#1073744768
	CMP	r6,r5
	JZ	.L157
	LD	r5,#1073749632
	CMP	r6,r5
	JZ	.L157
	LD	r5,#1073749888
	CMP	r6,r5
	JZ	.L157
	MOV	r0,#0
.L157:
.LM191:
	LD	r7,#CHECK_RESTRICTION
	LJMP	r7
.LVL92:
.LM192:
	MOV	r0,#1
	CMP	r8,#8
	JZ	.L159
.LM193:
	CMP	r8,#0
	JNZ	.L170
.L160:
	LJMP	r7
.LVL93:
.LM194:
// inline asm begin
	// 358 "../src/kf32a9k1xxx_usart.c" 1
	SET [r6], #3
	// 0 "" 2
.LM195:
// inline asm end
	POP	{r6, r7, r8}
	.cfi_remember_state
	.cfi_def_cfa_offset 4
.LVL94:
	POP	lr
	.cfi_def_cfa_offset 0
	JMP	lr
.LVL95:
.L170:
	.cfi_restore_state
.LM196:
	MOV	r0,#0
	JMP	.L160
.L159:
.LM197:
	LJMP	r7
.LVL96:
.LM198:
// inline asm begin
	// 363 "../src/kf32a9k1xxx_usart.c" 1
	CLR [r6], #3
	// 0 "" 2
.LM199:
// inline asm end
	POP	{r6, r7, r8}
	.cfi_def_cfa_offset 4
.LVL97:
	POP	lr
	.cfi_def_cfa_offset 0
	JMP	lr
	.cfi_endproc
.LFE8:
	.size	USART_HalfDuplex_ClockPolarity_Config, .-USART_HalfDuplex_ClockPolarity_Config
	.section .text$USART_Transmit_Order_Config
	.type	.text$USART_Transmit_Order_Config$scode_local_9, @function
	.text$USART_Transmit_Order_Config$scode_local_9:
	.align	1
	.export	USART_Transmit_Order_Config
	.type	USART_Transmit_Order_Config, @function
USART_Transmit_Order_Config:
.LFB9:
.LM200:
	.cfi_startproc
.LVL98:
	PUSH	{r6, r7, r8, lr}
	.cfi_def_cfa_offset 16
	MOV	r6,r0
	MOV	r8,r1
.LM201:
	MOV	r0,#1
.LVL99:
	LD	r5,#1073744256
	CMP	r6,r5
	JZ	.L172
.LM202:
	LD	r5,#1073744384
	CMP	r6,r5
	JZ	.L172
.LM203:
	LD	r5,#1073744512
	CMP	r6,r5
	JZ	.L172
	LD	r5,#1073744768
	CMP	r6,r5
	JZ	.L172
	LD	r5,#1073749632
	CMP	r6,r5
	JZ	.L172
	LD	r5,#1073749888
	CMP	r6,r5
	JZ	.L172
	MOV	r0,#0
.L172:
.LM204:
	LD	r7,#CHECK_RESTRICTION
	LJMP	r7
.LVL100:
.LM205:
	MOV	r0,#1
	CMP	r8,#0
	JZ	.L174
.LM206:
	CMP	r8,#16
	JZ	.L175
	MOV	r0,#0
.L175:
	LJMP	r7
.LVL101:
.LM207:
// inline asm begin
	// 386 "../src/kf32a9k1xxx_usart.c" 1
	SET [r6], #4
	// 0 "" 2
.LM208:
// inline asm end
	POP	{r6, r7, r8}
	.cfi_remember_state
	.cfi_def_cfa_offset 4
.LVL102:
	POP	lr
	.cfi_def_cfa_offset 0
	JMP	lr
.LVL103:
.L174:
	.cfi_restore_state
.LM209:
	LJMP	r7
.LVL104:
.LM210:
// inline asm begin
	// 391 "../src/kf32a9k1xxx_usart.c" 1
	CLR [r6], #4
	// 0 "" 2
.LM211:
// inline asm end
	POP	{r6, r7, r8}
	.cfi_def_cfa_offset 4
.LVL105:
	POP	lr
	.cfi_def_cfa_offset 0
	JMP	lr
	.cfi_endproc
.LFE9:
	.size	USART_Transmit_Order_Config, .-USART_Transmit_Order_Config
	.section .text$USART_Receive_Order_Config
	.type	.text$USART_Receive_Order_Config$scode_local_10, @function
	.text$USART_Receive_Order_Config$scode_local_10:
	.align	1
	.export	USART_Receive_Order_Config
	.type	USART_Receive_Order_Config, @function
USART_Receive_Order_Config:
.LFB10:
.LM212:
	.cfi_startproc
.LVL106:
	PUSH	{r6, r7, r8, lr}
	.cfi_def_cfa_offset 16
	MOV	r6,r0
	MOV	r8,r1
.LM213:
	MOV	r0,#1
.LVL107:
	LD	r5,#1073744256
	CMP	r6,r5
	JZ	.L186
.LM214:
	LD	r5,#1073744384
	CMP	r6,r5
	JZ	.L186
.LM215:
	LD	r5,#1073744512
	CMP	r6,r5
	JZ	.L186
	LD	r5,#1073744768
	CMP	r6,r5
	JZ	.L186
	LD	r5,#1073749632
	CMP	r6,r5
	JZ	.L186
	LD	r5,#1073749888
	CMP	r6,r5
	JZ	.L186
	MOV	r0,#0
.L186:
.LM216:
	LD	r7,#CHECK_RESTRICTION
	LJMP	r7
.LVL108:
.LM217:
	MOV	r0,#1
	CMP	r8,#0
	JZ	.L188
.LM218:
	CMP	r8,#32
	JZ	.L189
	MOV	r0,#0
.L189:
	LJMP	r7
.LVL109:
.LM219:
// inline asm begin
	// 414 "../src/kf32a9k1xxx_usart.c" 1
	SET [r6], #5
	// 0 "" 2
.LM220:
// inline asm end
	POP	{r6, r7, r8}
	.cfi_remember_state
	.cfi_def_cfa_offset 4
.LVL110:
	POP	lr
	.cfi_def_cfa_offset 0
	JMP	lr
.LVL111:
.L188:
	.cfi_restore_state
.LM221:
	LJMP	r7
.LVL112:
.LM222:
// inline asm begin
	// 419 "../src/kf32a9k1xxx_usart.c" 1
	CLR [r6], #5
	// 0 "" 2
.LM223:
// inline asm end
	POP	{r6, r7, r8}
	.cfi_def_cfa_offset 4
.LVL113:
	POP	lr
	.cfi_def_cfa_offset 0
	JMP	lr
	.cfi_endproc
.LFE10:
	.size	USART_Receive_Order_Config, .-USART_Receive_Order_Config
	.section .text$USART_Infrare_Detector_Voltage_Config
	.type	.text$USART_Infrare_Detector_Voltage_Config$scode_local_11, @function
	.text$USART_Infrare_Detector_Voltage_Config$scode_local_11:
	.align	1
	.export	USART_Infrare_Detector_Voltage_Config
	.type	USART_Infrare_Detector_Voltage_Config, @function
USART_Infrare_Detector_Voltage_Config:
.LFB11:
.LM224:
	.cfi_startproc
.LVL114:
	PUSH	{r6, r7, r8, lr}
	.cfi_def_cfa_offset 16
	MOV	r6,r0
	MOV	r7,r1
.LM225:
	MOV	r0,#1
.LVL115:
	LD	r5,#1073744256
	CMP	r6,r5
	JZ	.L200
.LM226:
	LD	r5,#1073744384
	CMP	r6,r5
	JZ	.L200
.LM227:
	LD	r5,#1073744512
	CMP	r6,r5
	JZ	.L200
	LD	r5,#1073744768
	CMP	r6,r5
	JZ	.L200
	LD	r5,#1073749632
	CMP	r6,r5
	JZ	.L200
	LD	r5,#1073749888
	CMP	r6,r5
	JZ	.L200
	MOV	r0,#0
.L200:
.LM228:
	LD	r5,#CHECK_RESTRICTION
	MOV	r8,r5
	LJMP	r5
.LVL116:
.LM229:
	MOV	r0,#1
	CMP	r7,r0
	JLS	.L202
	MOV	r0,#0
.L202:
	LJMP	r8
.LVL117:
.LM230:
	CMP	r7,#0
	JNZ	.L210
.LM231:
// inline asm begin
	// 448 "../src/kf32a9k1xxx_usart.c" 1
	CLR [r6], #6
	// 0 "" 2
.LM232:
// inline asm end
	POP	{r6, r7, r8}
	.cfi_remember_state
	.cfi_def_cfa_offset 4
.LVL118:
	POP	lr
	.cfi_def_cfa_offset 0
	JMP	lr
.LVL119:
.L210:
	.cfi_restore_state
.LM233:
// inline asm begin
	// 443 "../src/kf32a9k1xxx_usart.c" 1
	SET [r6], #6
	// 0 "" 2
.LM234:
// inline asm end
	POP	{r6, r7, r8}
	.cfi_def_cfa_offset 4
.LVL120:
	POP	lr
	.cfi_def_cfa_offset 0
	JMP	lr
	.cfi_endproc
.LFE11:
	.size	USART_Infrare_Detector_Voltage_Config, .-USART_Infrare_Detector_Voltage_Config
	.section .text$USART_WeakUP_Enable
	.type	.text$USART_WeakUP_Enable$scode_local_12, @function
	.text$USART_WeakUP_Enable$scode_local_12:
	.align	1
	.export	USART_WeakUP_Enable
	.type	USART_WeakUP_Enable, @function
USART_WeakUP_Enable:
.LFB12:
.LM235:
	.cfi_startproc
.LVL121:
	PUSH	{r6, r7, r8, lr}
	.cfi_def_cfa_offset 16
	MOV	r6,r0
	MOV	r7,r1
.LM236:
	MOV	r0,#1
.LVL122:
	LD	r5,#1073744256
	CMP	r6,r5
	JZ	.L212
.LM237:
	LD	r5,#1073744384
	CMP	r6,r5
	JZ	.L212
.LM238:
	LD	r5,#1073744512
	CMP	r6,r5
	JZ	.L212
	LD	r5,#1073744768
	CMP	r6,r5
	JZ	.L212
	LD	r5,#1073749632
	CMP	r6,r5
	JZ	.L212
	LD	r5,#1073749888
	CMP	r6,r5
	JZ	.L212
	MOV	r0,#0
.L212:
.LM239:
	LD	r5,#CHECK_RESTRICTION
	MOV	r8,r5
	LJMP	r5
.LVL123:
.LM240:
	MOV	r0,#1
	CMP	r7,r0
	JLS	.L214
	MOV	r0,#0
.L214:
	LJMP	r8
.LVL124:
.LM241:
	CMP	r7,#0
	JNZ	.L222
.LM242:
// inline asm begin
	// 474 "../src/kf32a9k1xxx_usart.c" 1
	CLR [r6], #7
	// 0 "" 2
.LM243:
// inline asm end
	POP	{r6, r7, r8}
	.cfi_remember_state
	.cfi_def_cfa_offset 4
.LVL125:
	POP	lr
	.cfi_def_cfa_offset 0
	JMP	lr
.LVL126:
.L222:
	.cfi_restore_state
.LM244:
// inline asm begin
	// 469 "../src/kf32a9k1xxx_usart.c" 1
	SET [r6], #7
	// 0 "" 2
.LM245:
// inline asm end
	POP	{r6, r7, r8}
	.cfi_def_cfa_offset 4
.LVL127:
	POP	lr
	.cfi_def_cfa_offset 0
	JMP	lr
	.cfi_endproc
.LFE12:
	.size	USART_WeakUP_Enable, .-USART_WeakUP_Enable
	.section .text$USART_Clock_Source_Config
	.type	.text$USART_Clock_Source_Config$scode_local_13, @function
	.text$USART_Clock_Source_Config$scode_local_13:
	.align	1
	.export	USART_Clock_Source_Config
	.type	USART_Clock_Source_Config, @function
USART_Clock_Source_Config:
.LFB13:
.LM246:
	.cfi_startproc
.LVL128:
	PUSH	{r6, r7, r8, lr}
	.cfi_def_cfa_offset 16
	MOV	r6,r0
	MOV	r8,r1
.LM247:
	MOV	r0,#1
.LVL129:
	LD	r5,#1073744256
	CMP	r6,r5
	JZ	.L224
.LM248:
	LD	r5,#1073744384
	CMP	r6,r5
	JZ	.L224
.LM249:
	LD	r5,#1073744512
	CMP	r6,r5
	JZ	.L224
	LD	r5,#1073744768
	CMP	r6,r5
	JZ	.L224
	LD	r5,#1073749632
	CMP	r6,r5
	JZ	.L224
	LD	r5,#1073749888
	CMP	r6,r5
	JZ	.L224
	MOV	r0,#0
.L224:
.LM250:
	LD	r7,#CHECK_RESTRICTION
	LJMP	r7
.LVL130:
.LM251:
	MOV	r0,#1
	CMP	r8,#0
	JZ	.L226
.LM252:
	MOV	r5,#255
	ADD	r5,r5,#1
	CMP	r8,r5
	JZ	.L227
	MOV	r0,#0
.L227:
	LJMP	r7
.LVL131:
.LM253:
// inline asm begin
	// 497 "../src/kf32a9k1xxx_usart.c" 1
	SET [r6], #8
	// 0 "" 2
.LM254:
// inline asm end
	POP	{r6, r7, r8}
	.cfi_remember_state
	.cfi_def_cfa_offset 4
.LVL132:
	POP	lr
	.cfi_def_cfa_offset 0
	JMP	lr
.LVL133:
.L226:
	.cfi_restore_state
.LM255:
	LJMP	r7
.LVL134:
.LM256:
// inline asm begin
	// 502 "../src/kf32a9k1xxx_usart.c" 1
	CLR [r6], #8
	// 0 "" 2
.LM257:
// inline asm end
	POP	{r6, r7, r8}
	.cfi_def_cfa_offset 4
.LVL135:
	POP	lr
	.cfi_def_cfa_offset 0
	JMP	lr
	.cfi_endproc
.LFE13:
	.size	USART_Clock_Source_Config, .-USART_Clock_Source_Config
	.section .text$USART_Address_Detection_Enable
	.type	.text$USART_Address_Detection_Enable$scode_local_14, @function
	.text$USART_Address_Detection_Enable$scode_local_14:
	.align	1
	.export	USART_Address_Detection_Enable
	.type	USART_Address_Detection_Enable, @function
USART_Address_Detection_Enable:
.LFB14:
.LM258:
	.cfi_startproc
.LVL136:
	PUSH	{r6, r7, r8, lr}
	.cfi_def_cfa_offset 16
	MOV	r6,r0
	MOV	r7,r1
.LM259:
	MOV	r0,#1
.LVL137:
	LD	r5,#1073744256
	CMP	r6,r5
	JZ	.L235
.LM260:
	LD	r5,#1073744384
	CMP	r6,r5
	JZ	.L235
.LM261:
	LD	r5,#1073744512
	CMP	r6,r5
	JZ	.L235
	LD	r5,#1073744768
	CMP	r6,r5
	JZ	.L235
	LD	r5,#1073749632
	CMP	r6,r5
	JZ	.L235
	LD	r5,#1073749888
	CMP	r6,r5
	JZ	.L235
	MOV	r0,#0
.L235:
.LM262:
	LD	r5,#CHECK_RESTRICTION
	MOV	r8,r5
	LJMP	r5
.LVL138:
.LM263:
	MOV	r0,#1
	CMP	r7,r0
	JLS	.L237
	MOV	r0,#0
.L237:
	LJMP	r8
.LVL139:
.LM264:
	CMP	r7,#0
	JNZ	.L245
.LM265:
// inline asm begin
	// 528 "../src/kf32a9k1xxx_usart.c" 1
	CLR [r6], #9
	// 0 "" 2
.LM266:
// inline asm end
	POP	{r6, r7, r8}
	.cfi_remember_state
	.cfi_def_cfa_offset 4
.LVL140:
	POP	lr
	.cfi_def_cfa_offset 0
	JMP	lr
.LVL141:
.L245:
	.cfi_restore_state
.LM267:
// inline asm begin
	// 523 "../src/kf32a9k1xxx_usart.c" 1
	SET [r6], #9
	// 0 "" 2
.LM268:
// inline asm end
	POP	{r6, r7, r8}
	.cfi_def_cfa_offset 4
.LVL142:
	POP	lr
	.cfi_def_cfa_offset 0
	JMP	lr
	.cfi_endproc
.LFE14:
	.size	USART_Address_Detection_Enable, .-USART_Address_Detection_Enable
	.section .text$USART_Auto_BaudRate_Detection_Enable
	.type	.text$USART_Auto_BaudRate_Detection_Enable$scode_local_15, @function
	.text$USART_Auto_BaudRate_Detection_Enable$scode_local_15:
	.align	1
	.export	USART_Auto_BaudRate_Detection_Enable
	.type	USART_Auto_BaudRate_Detection_Enable, @function
USART_Auto_BaudRate_Detection_Enable:
.LFB15:
.LM269:
	.cfi_startproc
.LVL143:
	PUSH	{r6, r7, r8, lr}
	.cfi_def_cfa_offset 16
	MOV	r6,r0
	MOV	r7,r1
.LM270:
	MOV	r0,#1
.LVL144:
	LD	r5,#1073744256
	CMP	r6,r5
	JZ	.L247
.LM271:
	LD	r5,#1073744384
	CMP	r6,r5
	JZ	.L247
.LM272:
	LD	r5,#1073744512
	CMP	r6,r5
	JZ	.L247
	LD	r5,#1073744768
	CMP	r6,r5
	JZ	.L247
	LD	r5,#1073749632
	CMP	r6,r5
	JZ	.L247
	LD	r5,#1073749888
	CMP	r6,r5
	JZ	.L247
	MOV	r0,#0
.L247:
.LM273:
	LD	r5,#CHECK_RESTRICTION
	MOV	r8,r5
	LJMP	r5
.LVL145:
.LM274:
	MOV	r0,#1
	CMP	r7,r0
	JLS	.L249
	MOV	r0,#0
.L249:
	LJMP	r8
.LVL146:
.LM275:
	CMP	r7,#0
	JNZ	.L257
.LM276:
// inline asm begin
	// 555 "../src/kf32a9k1xxx_usart.c" 1
	CLR [r6], #11
	// 0 "" 2
.LM277:
// inline asm end
	POP	{r6, r7, r8}
	.cfi_remember_state
	.cfi_def_cfa_offset 4
.LVL147:
	POP	lr
	.cfi_def_cfa_offset 0
	JMP	lr
.LVL148:
.L257:
	.cfi_restore_state
.LM278:
// inline asm begin
	// 550 "../src/kf32a9k1xxx_usart.c" 1
	SET [r6], #11
	// 0 "" 2
.LM279:
// inline asm end
	POP	{r6, r7, r8}
	.cfi_def_cfa_offset 4
.LVL149:
	POP	lr
	.cfi_def_cfa_offset 0
	JMP	lr
	.cfi_endproc
.LFE15:
	.size	USART_Auto_BaudRate_Detection_Enable, .-USART_Auto_BaudRate_Detection_Enable
	.section .text$USART_Get_Auto_BaudRate_Detection_Flag
	.type	.text$USART_Get_Auto_BaudRate_Detection_Flag$scode_local_16, @function
	.text$USART_Get_Auto_BaudRate_Detection_Flag$scode_local_16:
	.align	1
	.export	USART_Get_Auto_BaudRate_Detection_Flag
	.type	USART_Get_Auto_BaudRate_Detection_Flag, @function
USART_Get_Auto_BaudRate_Detection_Flag:
.LFB16:
.LM280:
	.cfi_startproc
.LVL150:
	PUSH	{r6, lr}
	.cfi_def_cfa_offset 8
	MOV	r6,r0
.LM281:
	MOV	r0,#1
.LVL151:
	LD	r5,#1073744256
	CMP	r6,r5
	JZ	.L259
.LM282:
	LD	r5,#1073744384
	CMP	r6,r5
	JZ	.L259
.LM283:
	LD	r5,#1073744512
	CMP	r6,r5
	JZ	.L259
	LD	r5,#1073744768
	CMP	r6,r5
	JZ	.L259
	LD	r5,#1073749632
	CMP	r6,r5
	JZ	.L259
	LD	r5,#1073749888
	CMP	r6,r5
	JZ	.L259
	MOV	r0,#0
.L259:
.LM284:
	LD	r5,#CHECK_RESTRICTION
	LJMP	r5
.LVL152:
.LM285:
	LD.w	r0,[r6]
	LSR	r0,#11
.LM286:
	MOV	r5,#1
	ANL	r0,r0,r5
	POP	r6
	.cfi_def_cfa_offset 4
.LVL153:
	POP	lr
	.cfi_def_cfa_offset 0
	JMP	lr
	.cfi_endproc
.LFE16:
	.size	USART_Get_Auto_BaudRate_Detection_Flag, .-USART_Get_Auto_BaudRate_Detection_Flag
	.section .text$USART_Send_Blank_Enable
	.type	.text$USART_Send_Blank_Enable$scode_local_17, @function
	.text$USART_Send_Blank_Enable$scode_local_17:
	.align	1
	.export	USART_Send_Blank_Enable
	.type	USART_Send_Blank_Enable, @function
USART_Send_Blank_Enable:
.LFB17:
.LM287:
	.cfi_startproc
.LVL154:
	PUSH	{r6, r7, r8, lr}
	.cfi_def_cfa_offset 16
	MOV	r6,r0
	MOV	r7,r1
.LM288:
	MOV	r0,#1
.LVL155:
	LD	r5,#1073744256
	CMP	r6,r5
	JZ	.L267
.LM289:
	LD	r5,#1073744384
	CMP	r6,r5
	JZ	.L267
.LM290:
	LD	r5,#1073744512
	CMP	r6,r5
	JZ	.L267
	LD	r5,#1073744768
	CMP	r6,r5
	JZ	.L267
	LD	r5,#1073749632
	CMP	r6,r5
	JZ	.L267
	LD	r5,#1073749888
	CMP	r6,r5
	JZ	.L267
	MOV	r0,#0
.L267:
.LM291:
	LD	r5,#CHECK_RESTRICTION
	MOV	r8,r5
	LJMP	r5
.LVL156:
.LM292:
	MOV	r0,#1
	CMP	r7,r0
	JLS	.L269
	MOV	r0,#0
.L269:
	LJMP	r8
.LVL157:
.LM293:
	CMP	r7,#0
	JNZ	.L277
.LM294:
// inline asm begin
	// 604 "../src/kf32a9k1xxx_usart.c" 1
	CLR [r6], #13
	// 0 "" 2
.LM295:
// inline asm end
	POP	{r6, r7, r8}
	.cfi_remember_state
	.cfi_def_cfa_offset 4
.LVL158:
	POP	lr
	.cfi_def_cfa_offset 0
	JMP	lr
.LVL159:
.L277:
	.cfi_restore_state
.LM296:
// inline asm begin
	// 599 "../src/kf32a9k1xxx_usart.c" 1
	SET [r6], #13
	// 0 "" 2
.LM297:
// inline asm end
	POP	{r6, r7, r8}
	.cfi_def_cfa_offset 4
.LVL160:
	POP	lr
	.cfi_def_cfa_offset 0
	JMP	lr
	.cfi_endproc
.LFE17:
	.size	USART_Send_Blank_Enable, .-USART_Send_Blank_Enable
	.section .text$USART_SYNC_Choice_Config
	.type	.text$USART_SYNC_Choice_Config$scode_local_18, @function
	.text$USART_SYNC_Choice_Config$scode_local_18:
	.align	1
	.export	USART_SYNC_Choice_Config
	.type	USART_SYNC_Choice_Config, @function
USART_SYNC_Choice_Config:
.LFB18:
.LM298:
	.cfi_startproc
.LVL161:
	PUSH	{r6, r7, r8, lr}
	.cfi_def_cfa_offset 16
	MOV	r6,r0
	MOV	r8,r1
.LM299:
	MOV	r0,#1
.LVL162:
	LD	r5,#1073744256
	CMP	r6,r5
	JZ	.L279
.LM300:
	LD	r5,#1073744384
	CMP	r6,r5
	JZ	.L279
.LM301:
	LD	r5,#1073744512
	CMP	r6,r5
	JZ	.L279
	LD	r5,#1073744768
	CMP	r6,r5
	JZ	.L279
	LD	r5,#1073749632
	CMP	r6,r5
	JZ	.L279
	LD	r5,#1073749888
	CMP	r6,r5
	JZ	.L279
	MOV	r0,#0
.L279:
.LM302:
	LD	r7,#CHECK_RESTRICTION
	LJMP	r7
.LVL163:
.LM303:
	MOV	r0,#1
	CMP	r8,#0
	JZ	.L281
.LM304:
	LD	r5,#1073758208
	CMP	r8,r5
	JZ	.L282
	MOV	r0,#0
.L282:
	LJMP	r7
.LVL164:
.LM305:
// inline asm begin
	// 627 "../src/kf32a9k1xxx_usart.c" 1
	SET [r6], #14
	// 0 "" 2
.LM306:
// inline asm end
	POP	{r6, r7, r8}
	.cfi_remember_state
	.cfi_def_cfa_offset 4
.LVL165:
	POP	lr
	.cfi_def_cfa_offset 0
	JMP	lr
.LVL166:
.L281:
	.cfi_restore_state
.LM307:
	LJMP	r7
.LVL167:
.LM308:
// inline asm begin
	// 632 "../src/kf32a9k1xxx_usart.c" 1
	CLR [r6], #14
	// 0 "" 2
.LM309:
// inline asm end
	POP	{r6, r7, r8}
	.cfi_def_cfa_offset 4
.LVL168:
	POP	lr
	.cfi_def_cfa_offset 0
	JMP	lr
	.cfi_endproc
.LFE18:
	.size	USART_SYNC_Choice_Config, .-USART_SYNC_Choice_Config
	.section .text$USART_Transmit_Data_Enable
	.type	.text$USART_Transmit_Data_Enable$scode_local_19, @function
	.text$USART_Transmit_Data_Enable$scode_local_19:
	.align	1
	.export	USART_Transmit_Data_Enable
	.type	USART_Transmit_Data_Enable, @function
USART_Transmit_Data_Enable:
.LFB19:
.LM310:
	.cfi_startproc
.LVL169:
	PUSH	{r6, r7, r8, lr}
	.cfi_def_cfa_offset 16
	MOV	r6,r0
	MOV	r7,r1
.LM311:
	MOV	r0,#1
.LVL170:
	LD	r5,#1073744256
	CMP	r6,r5
	JZ	.L290
.LM312:
	LD	r5,#1073744384
	CMP	r6,r5
	JZ	.L290
.LM313:
	LD	r5,#1073744512
	CMP	r6,r5
	JZ	.L290
	LD	r5,#1073744768
	CMP	r6,r5
	JZ	.L290
	LD	r5,#1073749632
	CMP	r6,r5
	JZ	.L290
	LD	r5,#1073749888
	CMP	r6,r5
	JZ	.L290
	MOV	r0,#0
.L290:
.LM314:
	LD	r5,#CHECK_RESTRICTION
	MOV	r8,r5
	LJMP	r5
.LVL171:
.LM315:
	MOV	r0,#1
	CMP	r7,r0
	JLS	.L292
	MOV	r0,#0
.L292:
	LJMP	r8
.LVL172:
.LM316:
	CMP	r7,#0
	JNZ	.L300
.LM317:
// inline asm begin
	// 658 "../src/kf32a9k1xxx_usart.c" 1
	CLR [r6], #15
	// 0 "" 2
.LM318:
// inline asm end
	POP	{r6, r7, r8}
	.cfi_remember_state
	.cfi_def_cfa_offset 4
.LVL173:
	POP	lr
	.cfi_def_cfa_offset 0
	JMP	lr
.LVL174:
.L300:
	.cfi_restore_state
.LM319:
// inline asm begin
	// 653 "../src/kf32a9k1xxx_usart.c" 1
	SET [r6], #15
	// 0 "" 2
.LM320:
// inline asm end
	POP	{r6, r7, r8}
	.cfi_def_cfa_offset 4
.LVL175:
	POP	lr
	.cfi_def_cfa_offset 0
	JMP	lr
	.cfi_endproc
.LFE19:
	.size	USART_Transmit_Data_Enable, .-USART_Transmit_Data_Enable
	.section .text$USART_Receive_Data_Enable
	.type	.text$USART_Receive_Data_Enable$scode_local_20, @function
	.text$USART_Receive_Data_Enable$scode_local_20:
	.align	1
	.export	USART_Receive_Data_Enable
	.type	USART_Receive_Data_Enable, @function
USART_Receive_Data_Enable:
.LFB20:
.LM321:
	.cfi_startproc
.LVL176:
	PUSH	{r6, r7, r8, lr}
	.cfi_def_cfa_offset 16
	MOV	r6,r0
	MOV	r7,r1
.LM322:
	MOV	r0,#1
.LVL177:
	LD	r5,#1073744256
	CMP	r6,r5
	JZ	.L302
.LM323:
	LD	r5,#1073744384
	CMP	r6,r5
	JZ	.L302
.LM324:
	LD	r5,#1073744512
	CMP	r6,r5
	JZ	.L302
	LD	r5,#1073744768
	CMP	r6,r5
	JZ	.L302
	LD	r5,#1073749632
	CMP	r6,r5
	JZ	.L302
	LD	r5,#1073749888
	CMP	r6,r5
	JZ	.L302
	MOV	r0,#0
.L302:
.LM325:
	LD	r5,#CHECK_RESTRICTION
	MOV	r8,r5
	LJMP	r5
.LVL178:
.LM326:
	MOV	r0,#1
	CMP	r7,r0
	JLS	.L304
	MOV	r0,#0
.L304:
	LJMP	r8
.LVL179:
.LM327:
	CMP	r7,#0
	JNZ	.L312
.LM328:
// inline asm begin
	// 684 "../src/kf32a9k1xxx_usart.c" 1
	CLR [r6], #16
	// 0 "" 2
.LM329:
// inline asm end
	POP	{r6, r7, r8}
	.cfi_remember_state
	.cfi_def_cfa_offset 4
.LVL180:
	POP	lr
	.cfi_def_cfa_offset 0
	JMP	lr
.LVL181:
.L312:
	.cfi_restore_state
.LM330:
// inline asm begin
	// 679 "../src/kf32a9k1xxx_usart.c" 1
	SET [r6], #16
	// 0 "" 2
.LM331:
// inline asm end
	POP	{r6, r7, r8}
	.cfi_def_cfa_offset 4
.LVL182:
	POP	lr
	.cfi_def_cfa_offset 0
	JMP	lr
	.cfi_endproc
.LFE20:
	.size	USART_Receive_Data_Enable, .-USART_Receive_Data_Enable
	.section .text$USART_STOP_Word_Config
	.type	.text$USART_STOP_Word_Config$scode_local_21, @function
	.text$USART_STOP_Word_Config$scode_local_21:
	.align	1
	.export	USART_STOP_Word_Config
	.type	USART_STOP_Word_Config, @function
USART_STOP_Word_Config:
.LFB21:
.LM332:
	.cfi_startproc
.LVL183:
	PUSH	{r6, r7, r8, lr}
	.cfi_def_cfa_offset 16
	MOV	r6,r0
	MOV	r8,r1
.LM333:
	MOV	r0,#1
.LVL184:
	LD	r5,#1073744256
	CMP	r6,r5
	JZ	.L314
.LM334:
	LD	r5,#1073744384
	CMP	r6,r5
	JZ	.L314
.LM335:
	LD	r5,#1073744512
	CMP	r6,r5
	JZ	.L314
	LD	r5,#1073744768
	CMP	r6,r5
	JZ	.L314
	LD	r5,#1073749632
	CMP	r6,r5
	JZ	.L314
	LD	r5,#1073749888
	CMP	r6,r5
	JZ	.L314
	MOV	r0,#0
.L314:
.LM336:
	LD	r7,#CHECK_RESTRICTION
	LJMP	r7
.LVL185:
.LM337:
	MOV	r0,#1
	CMP	r8,#0
	JZ	.L316
.LM338:
	MOV	r5,#1
	LSL	r5,#18
	CMP	r8,r5
	JZ	.L317
	MOV	r0,#0
.L317:
	LJMP	r7
.LVL186:
.LM339:
// inline asm begin
	// 707 "../src/kf32a9k1xxx_usart.c" 1
	SET [r6], #18
	// 0 "" 2
.LM340:
// inline asm end
	POP	{r6, r7, r8}
	.cfi_remember_state
	.cfi_def_cfa_offset 4
.LVL187:
	POP	lr
	.cfi_def_cfa_offset 0
	JMP	lr
.LVL188:
.L316:
	.cfi_restore_state
.LM341:
	LJMP	r7
.LVL189:
.LM342:
// inline asm begin
	// 712 "../src/kf32a9k1xxx_usart.c" 1
	CLR [r6], #18
	// 0 "" 2
.LM343:
// inline asm end
	POP	{r6, r7, r8}
	.cfi_def_cfa_offset 4
.LVL190:
	POP	lr
	.cfi_def_cfa_offset 0
	JMP	lr
	.cfi_endproc
.LFE21:
	.size	USART_STOP_Word_Config, .-USART_STOP_Word_Config
	.section .text$USART_Transmit_9Word_Select_Config
	.type	.text$USART_Transmit_9Word_Select_Config$scode_local_22, @function
	.text$USART_Transmit_9Word_Select_Config$scode_local_22:
	.align	1
	.export	USART_Transmit_9Word_Select_Config
	.type	USART_Transmit_9Word_Select_Config, @function
USART_Transmit_9Word_Select_Config:
.LFB22:
.LM344:
	.cfi_startproc
.LVL191:
	PUSH	{r6, r7, r8, lr}
	.cfi_def_cfa_offset 16
	MOV	r6,r0
	MOV	r8,r1
.LM345:
	MOV	r0,#1
.LVL192:
	LD	r5,#1073744256
	CMP	r6,r5
	JZ	.L325
.LM346:
	LD	r5,#1073744384
	CMP	r6,r5
	JZ	.L325
.LM347:
	LD	r5,#1073744512
	CMP	r6,r5
	JZ	.L325
	LD	r5,#1073744768
	CMP	r6,r5
	JZ	.L325
	LD	r5,#1073749632
	CMP	r6,r5
	JZ	.L325
	LD	r5,#1073749888
	CMP	r6,r5
	JZ	.L325
	MOV	r0,#0
.L325:
.LM348:
	LD	r7,#CHECK_RESTRICTION
	LJMP	r7
.LVL193:
.LM349:
	MOV	r0,#1
	CMP	r8,#0
	JZ	.L327
.LM350:
	MOV	r5,#1
	LSL	r5,#19
	CMP	r8,r5
	JZ	.L328
	MOV	r0,#0
.L328:
	LJMP	r7
.LVL194:
.LM351:
// inline asm begin
	// 735 "../src/kf32a9k1xxx_usart.c" 1
	SET [r6], #19
	// 0 "" 2
.LM352:
// inline asm end
	POP	{r6, r7, r8}
	.cfi_remember_state
	.cfi_def_cfa_offset 4
.LVL195:
	POP	lr
	.cfi_def_cfa_offset 0
	JMP	lr
.LVL196:
.L327:
	.cfi_restore_state
.LM353:
	LJMP	r7
.LVL197:
.LM354:
// inline asm begin
	// 740 "../src/kf32a9k1xxx_usart.c" 1
	CLR [r6], #19
	// 0 "" 2
.LM355:
// inline asm end
	POP	{r6, r7, r8}
	.cfi_def_cfa_offset 4
.LVL198:
	POP	lr
	.cfi_def_cfa_offset 0
	JMP	lr
	.cfi_endproc
.LFE22:
	.size	USART_Transmit_9Word_Select_Config, .-USART_Transmit_9Word_Select_Config
	.section .text$USART_Parity_Select_Config
	.type	.text$USART_Parity_Select_Config$scode_local_23, @function
	.text$USART_Parity_Select_Config$scode_local_23:
	.align	1
	.export	USART_Parity_Select_Config
	.type	USART_Parity_Select_Config, @function
USART_Parity_Select_Config:
.LFB23:
.LM356:
	.cfi_startproc
.LVL199:
	PUSH	{r6, r7, r8, lr}
	.cfi_def_cfa_offset 16
	MOV	r6,r0
	MOV	r7,r1
.LM357:
	MOV	r0,#1
.LVL200:
	LD	r5,#1073744256
	CMP	r6,r5
	JZ	.L336
.LM358:
	LD	r5,#1073744384
	CMP	r6,r5
	JZ	.L336
.LM359:
	LD	r5,#1073744512
	CMP	r6,r5
	JZ	.L336
	LD	r5,#1073744768
	CMP	r6,r5
	JZ	.L336
	LD	r5,#1073749632
	CMP	r6,r5
	JZ	.L336
	LD	r5,#1073749888
	CMP	r6,r5
	JZ	.L336
	MOV	r0,#0
.L336:
.LM360:
	LD	r5,#CHECK_RESTRICTION
	MOV	r8,r5
	LJMP	r5
.LVL201:
.LM361:
	MOV	r5,#1
	LSL	r5,#20
	MOV	r0,#1
	CMP	r7,r5
	JZ	.L338
.LM362:
	CMP	r7,#0
	JNZ	.L351
	LJMP	r8
.LVL202:
.LM363:
	CMP	r7,#0
	JNZ	.L342
.L340:
.LM364:
// inline asm begin
	// 768 "../src/kf32a9k1xxx_usart.c" 1
	CLR [r6], #20
	// 0 "" 2
.LM365:
// inline asm end
	POP	{r6, r7, r8}
	.cfi_remember_state
	.cfi_def_cfa_offset 4
.LVL203:
	POP	lr
	.cfi_def_cfa_offset 0
	JMP	lr
.LVL204:
.L351:
	.cfi_restore_state
.LM366:
	MOV	r0,#0
	LJMP	r8
.LVL205:
.LM367:
	CMP	r7,#0
	JZ	.L340
.L342:
.LM368:
// inline asm begin
	// 763 "../src/kf32a9k1xxx_usart.c" 1
	SET [r6], #20
	// 0 "" 2
// inline asm end
.L352:
.LM369:
	POP	{r6, r7, r8}
	.cfi_remember_state
	.cfi_def_cfa_offset 4
.LVL206:
	POP	lr
	.cfi_def_cfa_offset 0
	JMP	lr
.LVL207:
.L338:
	.cfi_restore_state
.LM370:
	LJMP	r8
.LVL208:
.LM371:
// inline asm begin
	// 763 "../src/kf32a9k1xxx_usart.c" 1
	SET [r6], #20
	// 0 "" 2
// inline asm end
	JMP	.L352
	.cfi_endproc
.LFE23:
	.size	USART_Parity_Select_Config, .-USART_Parity_Select_Config
	.section .text$USART_9Data_Enable
	.type	.text$USART_9Data_Enable$scode_local_24, @function
	.text$USART_9Data_Enable$scode_local_24:
	.align	1
	.export	USART_9Data_Enable
	.type	USART_9Data_Enable, @function
USART_9Data_Enable:
.LFB24:
.LM372:
	.cfi_startproc
.LVL209:
	PUSH	{r6, r7, r8, lr}
	.cfi_def_cfa_offset 16
	MOV	r6,r0
	MOV	r7,r1
.LM373:
	MOV	r0,#1
.LVL210:
	LD	r5,#1073744256
	CMP	r6,r5
	JZ	.L354
.LM374:
	LD	r5,#1073744384
	CMP	r6,r5
	JZ	.L354
.LM375:
	LD	r5,#1073744512
	CMP	r6,r5
	JZ	.L354
	LD	r5,#1073744768
	CMP	r6,r5
	JZ	.L354
	LD	r5,#1073749632
	CMP	r6,r5
	JZ	.L354
	LD	r5,#1073749888
	CMP	r6,r5
	JZ	.L354
	MOV	r0,#0
.L354:
.LM376:
	LD	r5,#CHECK_RESTRICTION
	MOV	r8,r5
	LJMP	r5
.LVL211:
.LM377:
	MOV	r0,#1
	CMP	r7,r0
	JLS	.L356
	MOV	r0,#0
.L356:
	LJMP	r8
.LVL212:
.LM378:
	CMP	r7,#0
	JNZ	.L364
.LM379:
// inline asm begin
	// 794 "../src/kf32a9k1xxx_usart.c" 1
	CLR [r6], #21
	// 0 "" 2
.LM380:
// inline asm end
	POP	{r6, r7, r8}
	.cfi_remember_state
	.cfi_def_cfa_offset 4
.LVL213:
	POP	lr
	.cfi_def_cfa_offset 0
	JMP	lr
.LVL214:
.L364:
	.cfi_restore_state
.LM381:
// inline asm begin
	// 789 "../src/kf32a9k1xxx_usart.c" 1
	SET [r6], #21
	// 0 "" 2
.LM382:
// inline asm end
	POP	{r6, r7, r8}
	.cfi_def_cfa_offset 4
.LVL215:
	POP	lr
	.cfi_def_cfa_offset 0
	JMP	lr
	.cfi_endproc
.LFE24:
	.size	USART_9Data_Enable, .-USART_9Data_Enable
	.section .text$USART_CTS_Enable
	.type	.text$USART_CTS_Enable$scode_local_25, @function
	.text$USART_CTS_Enable$scode_local_25:
	.align	1
	.export	USART_CTS_Enable
	.type	USART_CTS_Enable, @function
USART_CTS_Enable:
.LFB25:
.LM383:
	.cfi_startproc
.LVL216:
	PUSH	{r6, r7, r8, lr}
	.cfi_def_cfa_offset 16
	MOV	r6,r0
	MOV	r7,r1
.LM384:
	MOV	r0,#1
.LVL217:
	LD	r5,#1073744256
	CMP	r6,r5
	JZ	.L366
.LM385:
	LD	r5,#1073744384
	CMP	r6,r5
	JZ	.L366
.LM386:
	LD	r5,#1073744512
	CMP	r6,r5
	JZ	.L366
	LD	r5,#1073744768
	CMP	r6,r5
	JZ	.L366
	LD	r5,#1073749632
	CMP	r6,r5
	JZ	.L366
	LD	r5,#1073749888
	CMP	r6,r5
	JZ	.L366
	MOV	r0,#0
.L366:
.LM387:
	LD	r5,#CHECK_RESTRICTION
	MOV	r8,r5
	LJMP	r5
.LVL218:
.LM388:
	MOV	r0,#1
	CMP	r7,r0
	JLS	.L368
	MOV	r0,#0
.L368:
	LJMP	r8
.LVL219:
.LM389:
	CMP	r7,#0
	JNZ	.L376
.LM390:
// inline asm begin
	// 820 "../src/kf32a9k1xxx_usart.c" 1
	CLR [r6], #24
	// 0 "" 2
.LM391:
// inline asm end
	POP	{r6, r7, r8}
	.cfi_remember_state
	.cfi_def_cfa_offset 4
.LVL220:
	POP	lr
	.cfi_def_cfa_offset 0
	JMP	lr
.LVL221:
.L376:
	.cfi_restore_state
.LM392:
// inline asm begin
	// 815 "../src/kf32a9k1xxx_usart.c" 1
	SET [r6], #24
	// 0 "" 2
.LM393:
// inline asm end
	POP	{r6, r7, r8}
	.cfi_def_cfa_offset 4
.LVL222:
	POP	lr
	.cfi_def_cfa_offset 0
	JMP	lr
	.cfi_endproc
.LFE25:
	.size	USART_CTS_Enable, .-USART_CTS_Enable
	.section .text$USART_RTS_Enable
	.type	.text$USART_RTS_Enable$scode_local_26, @function
	.text$USART_RTS_Enable$scode_local_26:
	.align	1
	.export	USART_RTS_Enable
	.type	USART_RTS_Enable, @function
USART_RTS_Enable:
.LFB26:
.LM394:
	.cfi_startproc
.LVL223:
	PUSH	{r6, r7, r8, lr}
	.cfi_def_cfa_offset 16
	MOV	r6,r0
	MOV	r7,r1
.LM395:
	MOV	r0,#1
.LVL224:
	LD	r5,#1073744256
	CMP	r6,r5
	JZ	.L378
.LM396:
	LD	r5,#1073744384
	CMP	r6,r5
	JZ	.L378
.LM397:
	LD	r5,#1073744512
	CMP	r6,r5
	JZ	.L378
	LD	r5,#1073744768
	CMP	r6,r5
	JZ	.L378
	LD	r5,#1073749632
	CMP	r6,r5
	JZ	.L378
	LD	r5,#1073749888
	CMP	r6,r5
	JZ	.L378
	MOV	r0,#0
.L378:
.LM398:
	LD	r5,#CHECK_RESTRICTION
	MOV	r8,r5
	LJMP	r5
.LVL225:
.LM399:
	MOV	r0,#1
	CMP	r7,r0
	JLS	.L380
	MOV	r0,#0
.L380:
	LJMP	r8
.LVL226:
.LM400:
	CMP	r7,#0
	JNZ	.L388
.LM401:
// inline asm begin
	// 846 "../src/kf32a9k1xxx_usart.c" 1
	CLR [r6], #25
	// 0 "" 2
.LM402:
// inline asm end
	POP	{r6, r7, r8}
	.cfi_remember_state
	.cfi_def_cfa_offset 4
.LVL227:
	POP	lr
	.cfi_def_cfa_offset 0
	JMP	lr
.LVL228:
.L388:
	.cfi_restore_state
.LM403:
// inline asm begin
	// 841 "../src/kf32a9k1xxx_usart.c" 1
	SET [r6], #25
	// 0 "" 2
.LM404:
// inline asm end
	POP	{r6, r7, r8}
	.cfi_def_cfa_offset 4
.LVL229:
	POP	lr
	.cfi_def_cfa_offset 0
	JMP	lr
	.cfi_endproc
.LFE26:
	.size	USART_RTS_Enable, .-USART_RTS_Enable
	.section .text$USART_Infrare_Detector_Enable
	.type	.text$USART_Infrare_Detector_Enable$scode_local_27, @function
	.text$USART_Infrare_Detector_Enable$scode_local_27:
	.align	1
	.export	USART_Infrare_Detector_Enable
	.type	USART_Infrare_Detector_Enable, @function
USART_Infrare_Detector_Enable:
.LFB27:
.LM405:
	.cfi_startproc
.LVL230:
	PUSH	{r6, r7, r8, lr}
	.cfi_def_cfa_offset 16
	MOV	r6,r0
	MOV	r7,r1
.LM406:
	MOV	r0,#1
.LVL231:
	LD	r5,#1073744256
	CMP	r6,r5
	JZ	.L390
.LM407:
	LD	r5,#1073744384
	CMP	r6,r5
	JZ	.L390
.LM408:
	LD	r5,#1073744512
	CMP	r6,r5
	JZ	.L390
	LD	r5,#1073744768
	CMP	r6,r5
	JZ	.L390
	LD	r5,#1073749632
	CMP	r6,r5
	JZ	.L390
	LD	r5,#1073749888
	CMP	r6,r5
	JZ	.L390
	MOV	r0,#0
.L390:
.LM409:
	LD	r5,#CHECK_RESTRICTION
	MOV	r8,r5
	LJMP	r5
.LVL232:
.LM410:
	MOV	r0,#1
	CMP	r7,r0
	JLS	.L392
	MOV	r0,#0
.L392:
	LJMP	r8
.LVL233:
.LM411:
	CMP	r7,#0
	JNZ	.L400
.LM412:
// inline asm begin
	// 872 "../src/kf32a9k1xxx_usart.c" 1
	CLR [r6], #29
	// 0 "" 2
.LM413:
// inline asm end
	POP	{r6, r7, r8}
	.cfi_remember_state
	.cfi_def_cfa_offset 4
.LVL234:
	POP	lr
	.cfi_def_cfa_offset 0
	JMP	lr
.LVL235:
.L400:
	.cfi_restore_state
.LM414:
// inline asm begin
	// 867 "../src/kf32a9k1xxx_usart.c" 1
	SET [r6], #29
	// 0 "" 2
.LM415:
// inline asm end
	POP	{r6, r7, r8}
	.cfi_def_cfa_offset 4
.LVL236:
	POP	lr
	.cfi_def_cfa_offset 0
	JMP	lr
	.cfi_endproc
.LFE27:
	.size	USART_Infrare_Detector_Enable, .-USART_Infrare_Detector_Enable
	.section .text$USART_RESHD_Enable
	.type	.text$USART_RESHD_Enable$scode_local_28, @function
	.text$USART_RESHD_Enable$scode_local_28:
	.align	1
	.export	USART_RESHD_Enable
	.type	USART_RESHD_Enable, @function
USART_RESHD_Enable:
.LFB28:
.LM416:
	.cfi_startproc
.LVL237:
	PUSH	{r6, r7, r8, lr}
	.cfi_def_cfa_offset 16
	MOV	r6,r0
	MOV	r7,r1
.LM417:
	MOV	r0,#1
.LVL238:
	LD	r5,#1073744256
	CMP	r6,r5
	JZ	.L402
.LM418:
	LD	r5,#1073744384
	CMP	r6,r5
	JZ	.L402
.LM419:
	LD	r5,#1073744512
	CMP	r6,r5
	JZ	.L402
	LD	r5,#1073744768
	CMP	r6,r5
	JZ	.L402
	LD	r5,#1073749632
	CMP	r6,r5
	JZ	.L402
	LD	r5,#1073749888
	CMP	r6,r5
	JZ	.L402
	MOV	r0,#0
.L402:
.LM420:
	LD	r5,#CHECK_RESTRICTION
	MOV	r8,r5
	LJMP	r5
.LVL239:
.LM421:
	MOV	r0,#1
	CMP	r7,r0
	JLS	.L404
	MOV	r0,#0
.L404:
	LJMP	r8
.LVL240:
.LM422:
	CMP	r7,#0
	JNZ	.L412
.LM423:
// inline asm begin
	// 898 "../src/kf32a9k1xxx_usart.c" 1
	CLR [r6], #30
	// 0 "" 2
.LM424:
// inline asm end
	POP	{r6, r7, r8}
	.cfi_remember_state
	.cfi_def_cfa_offset 4
.LVL241:
	POP	lr
	.cfi_def_cfa_offset 0
	JMP	lr
.LVL242:
.L412:
	.cfi_restore_state
.LM425:
// inline asm begin
	// 893 "../src/kf32a9k1xxx_usart.c" 1
	SET [r6], #30
	// 0 "" 2
.LM426:
// inline asm end
	POP	{r6, r7, r8}
	.cfi_def_cfa_offset 4
.LVL243:
	POP	lr
	.cfi_def_cfa_offset 0
	JMP	lr
	.cfi_endproc
.LFE28:
	.size	USART_RESHD_Enable, .-USART_RESHD_Enable
	.section .text$USART_Singlet_Line_Mode_Enable
	.type	.text$USART_Singlet_Line_Mode_Enable$scode_local_29, @function
	.text$USART_Singlet_Line_Mode_Enable$scode_local_29:
	.align	1
	.export	USART_Singlet_Line_Mode_Enable
	.type	USART_Singlet_Line_Mode_Enable, @function
USART_Singlet_Line_Mode_Enable:
.LFB29:
.LM427:
	.cfi_startproc
.LVL244:
	PUSH	{r6, r7, r8, lr}
	.cfi_def_cfa_offset 16
	MOV	r6,r0
	MOV	r7,r1
.LM428:
	MOV	r0,#1
.LVL245:
	LD	r5,#1073744256
	CMP	r6,r5
	JZ	.L414
.LM429:
	LD	r5,#1073744384
	CMP	r6,r5
	JZ	.L414
.LM430:
	LD	r5,#1073744512
	CMP	r6,r5
	JZ	.L414
	LD	r5,#1073744768
	CMP	r6,r5
	JZ	.L414
	LD	r5,#1073749632
	CMP	r6,r5
	JZ	.L414
	LD	r5,#1073749888
	CMP	r6,r5
	JZ	.L414
	MOV	r0,#0
.L414:
.LM431:
	LD	r5,#CHECK_RESTRICTION
	MOV	r8,r5
	LJMP	r5
.LVL246:
.LM432:
	MOV	r0,#1
	CMP	r7,r0
	JLS	.L416
	MOV	r0,#0
.L416:
	LJMP	r8
.LVL247:
.LM433:
	CMP	r7,#0
	JNZ	.L424
.LM434:
// inline asm begin
	// 924 "../src/kf32a9k1xxx_usart.c" 1
	CLR [r6], #31
	// 0 "" 2
.LM435:
// inline asm end
	POP	{r6, r7, r8}
	.cfi_remember_state
	.cfi_def_cfa_offset 4
.LVL248:
	POP	lr
	.cfi_def_cfa_offset 0
	JMP	lr
.LVL249:
.L424:
	.cfi_restore_state
.LM436:
// inline asm begin
	// 919 "../src/kf32a9k1xxx_usart.c" 1
	SET [r6], #31
	// 0 "" 2
.LM437:
// inline asm end
	POP	{r6, r7, r8}
	.cfi_def_cfa_offset 4
.LVL250:
	POP	lr
	.cfi_def_cfa_offset 0
	JMP	lr
	.cfi_endproc
.LFE29:
	.size	USART_Singlet_Line_Mode_Enable, .-USART_Singlet_Line_Mode_Enable
	.section .text$USART_BaudRate_Integer_Config
	.type	.text$USART_BaudRate_Integer_Config$scode_local_30, @function
	.text$USART_BaudRate_Integer_Config$scode_local_30:
	.align	1
	.export	USART_BaudRate_Integer_Config
	.type	USART_BaudRate_Integer_Config, @function
USART_BaudRate_Integer_Config:
.LFB30:
.LM438:
	.cfi_startproc
.LVL251:
	PUSH	{r6, r7, lr}
	.cfi_def_cfa_offset 12
	MOV	r6,r0
	ZXT.h	r7,r1
.LVL252:
.LM439:
	LD	r5,#1073744256
	CMP	r0,r5
	JZ	.L431
.LM440:
	LD	r5,#1073744384
	CMP	r0,r5
	JZ	.L431
.LM441:
	LD	r5,#1073744512
	CMP	r0,r5
	JZ	.L431
	LD	r5,#1073744768
	CMP	r0,r5
	JZ	.L431
	LD	r5,#1073749632
	MOV	r0,#1
.LVL253:
	CMP	r6,r5
	JZ	.L426
	LD	r5,#1073749888
	CMP	r6,r5
	JZ	.L426
	MOV	r0,#0
.L426:
.LM442:
	LD	r5,#CHECK_RESTRICTION
	LJMP	r5
.LVL254:
.LM443:
	LD.w	r4,[r6+#1]
.LVL255:
.LBB46:
.LBB47:
.LM444:
	LD	r5,#-65536
	ANL	r5,r4,r5
	ORL	r7,r7,r5
.LVL256:
.LBE47:
.LBE46:
.LM445:
	ST.w	[r6+#1],r7
.LM446:
	POP	{r6, r7}
	.cfi_remember_state
	.cfi_def_cfa_offset 4
	POP	lr
	.cfi_def_cfa_offset 0
	JMP	lr
.LVL257:
.L431:
	.cfi_restore_state
.LM447:
	MOV	r0,#1
.LVL258:
	JMP	.L426
	.cfi_endproc
.LFE30:
	.size	USART_BaudRate_Integer_Config, .-USART_BaudRate_Integer_Config
	.section .text$USART_BaudRate_Decimal1_Config
	.type	.text$USART_BaudRate_Decimal1_Config$scode_local_31, @function
	.text$USART_BaudRate_Decimal1_Config$scode_local_31:
	.align	1
	.export	USART_BaudRate_Decimal1_Config
	.type	USART_BaudRate_Decimal1_Config, @function
USART_BaudRate_Decimal1_Config:
.LFB31:
.LM448:
	.cfi_startproc
.LVL259:
	PUSH	{r6, r7, r8, lr}
	.cfi_def_cfa_offset 16
	MOV	r6,r0
	MOV	r7,r1
.LVL260:
.LM449:
	LD	r5,#1073744256
	CMP	r0,r5
	JZ	.L440
.LM450:
	LD	r5,#1073744384
	CMP	r0,r5
	JZ	.L440
.LM451:
	LD	r5,#1073744512
	CMP	r0,r5
	JZ	.L440
	LD	r5,#1073744768
	CMP	r0,r5
	JZ	.L440
	LD	r5,#1073749632
	MOV	r0,#1
.LVL261:
	CMP	r6,r5
	JZ	.L434
	LD	r5,#1073749888
	CMP	r6,r5
	JZ	.L434
	MOV	r0,#0
.L434:
.LM452:
	LD	r4,#CHECK_RESTRICTION
	MOV	r8,r4
	LJMP	r4
.LVL262:
.LM453:
	MOV	r4,#4
	LSR	r5,r7,r4
	MOV	r0,#1
	CMP	r5,#0
	JZ	.L436
	MOV	r0,#0
.L436:
	LJMP	r8
.LVL263:
.LM454:
	LD.w	r4,[r6+#1]
.LVL264:
.LM455:
	LSL	r7,#16
.LVL265:
.LBB48:
.LBB49:
.LM456:
	LD	r5,#-983041
	ANL	r5,r4,r5
	ORL	r7,r7,r5
.LVL266:
.LBE49:
.LBE48:
.LM457:
	ST.w	[r6+#1],r7
.LM458:
	POP	{r6, r7, r8}
	.cfi_remember_state
	.cfi_def_cfa_offset 4
	POP	lr
	.cfi_def_cfa_offset 0
	JMP	lr
.LVL267:
.L440:
	.cfi_restore_state
.LM459:
	MOV	r0,#1
.LVL268:
	JMP	.L434
	.cfi_endproc
.LFE31:
	.size	USART_BaudRate_Decimal1_Config, .-USART_BaudRate_Decimal1_Config
	.section .text$USART_BaudRate_Decimal2_Config
	.type	.text$USART_BaudRate_Decimal2_Config$scode_local_32, @function
	.text$USART_BaudRate_Decimal2_Config$scode_local_32:
	.align	1
	.export	USART_BaudRate_Decimal2_Config
	.type	USART_BaudRate_Decimal2_Config, @function
USART_BaudRate_Decimal2_Config:
.LFB32:
.LM460:
	.cfi_startproc
.LVL269:
	PUSH	{r6, r7, r8, lr}
	.cfi_def_cfa_offset 16
	MOV	r6,r0
	MOV	r7,r1
.LVL270:
.LM461:
	LD	r5,#1073744256
	CMP	r0,r5
	JZ	.L452
.LM462:
	LD	r5,#1073744384
	CMP	r0,r5
	JZ	.L452
.LM463:
	LD	r5,#1073744512
	CMP	r0,r5
	JZ	.L452
	LD	r5,#1073744768
	CMP	r0,r5
	JZ	.L452
	LD	r5,#1073749632
	MOV	r0,#1
.LVL271:
	CMP	r6,r5
	JZ	.L446
	LD	r5,#1073749888
	CMP	r6,r5
	JZ	.L446
	MOV	r0,#0
.L446:
.LM464:
	LD	r4,#CHECK_RESTRICTION
	MOV	r8,r4
	LJMP	r4
.LVL272:
.LM465:
	MOV	r4,#4
	LSR	r5,r7,r4
	MOV	r0,#1
	CMP	r5,#0
	JZ	.L448
	MOV	r0,#0
.L448:
	LJMP	r8
.LVL273:
.LM466:
	LD.w	r4,[r6+#1]
.LVL274:
.LM467:
	LSL	r7,#20
.LVL275:
.LBB50:
.LBB51:
.LM468:
	LD	r5,#-15728641
	ANL	r5,r4,r5
	ORL	r7,r7,r5
.LVL276:
.LBE51:
.LBE50:
.LM469:
	ST.w	[r6+#1],r7
.LM470:
	POP	{r6, r7, r8}
	.cfi_remember_state
	.cfi_def_cfa_offset 4
	POP	lr
	.cfi_def_cfa_offset 0
	JMP	lr
.LVL277:
.L452:
	.cfi_restore_state
.LM471:
	MOV	r0,#1
.LVL278:
	JMP	.L446
	.cfi_endproc
.LFE32:
	.size	USART_BaudRate_Decimal2_Config, .-USART_BaudRate_Decimal2_Config
	.section .text$USART_SendData
	.type	.text$USART_SendData$scode_local_33, @function
	.text$USART_SendData$scode_local_33:
	.align	1
	.export	USART_SendData
	.type	USART_SendData, @function
USART_SendData:
.LFB33:
.LM472:
	.cfi_startproc
.LVL279:
	PUSH	{r6, r7, lr}
	.cfi_def_cfa_offset 12
	MOV	r6,r0
	ZXT.b	r7,r1
.LM473:
	MOV	r0,#1
.LVL280:
	LD	r5,#1073744256
	CMP	r6,r5
	JZ	.L458
.LM474:
	LD	r5,#1073744384
	CMP	r6,r5
	JZ	.L458
.LM475:
	LD	r5,#1073744512
	CMP	r6,r5
	JZ	.L458
	LD	r5,#1073744768
	CMP	r6,r5
	JZ	.L458
	LD	r5,#1073749632
	CMP	r6,r5
	JZ	.L458
	LD	r5,#1073749888
	CMP	r6,r5
	JZ	.L458
	MOV	r0,#0
.L458:
.LM476:
	LD	r5,#CHECK_RESTRICTION
	LJMP	r5
.LVL281:
.LM477:
	ST.w	[r6+#3],r7
.LM478:
	MOV	r4,#1
	LSL	r4,#12
.L460:
.LM479:
	LD.w	r5,[r6+#2]
	ANL	r5,r5,r4
	JNZ	.L460
.LM480:
	MOV	r4,#1
	LSL	r4,#12
.L469:
	LD.w	r5,[r6+#2]
	ANL	r5,r5,r4
	JZ	.L469
.LM481:
	POP	{r6, r7}
	.cfi_def_cfa_offset 4
.LVL282:
	POP	lr
	.cfi_def_cfa_offset 0
	JMP	lr
	.cfi_endproc
.LFE33:
	.size	USART_SendData, .-USART_SendData
	.section .text$USART_ReceiveData
	.type	.text$USART_ReceiveData$scode_local_34, @function
	.text$USART_ReceiveData$scode_local_34:
	.align	1
	.export	USART_ReceiveData
	.type	USART_ReceiveData, @function
USART_ReceiveData:
.LFB34:
.LM482:
	.cfi_startproc
.LVL283:
	PUSH	{r6, lr}
	.cfi_def_cfa_offset 8
	MOV	r6,r0
.LM483:
	LD	r5,#1073744256
	CMP	r0,r5
	JZ	.L479
.LM484:
	LD	r5,#1073744384
	CMP	r0,r5
	JZ	.L479
.LM485:
	LD	r5,#1073744512
	CMP	r0,r5
	JZ	.L479
	LD	r5,#1073744768
	CMP	r0,r5
	JZ	.L479
	LD	r5,#1073749632
	MOV	r0,#1
.LVL284:
	CMP	r6,r5
	JZ	.L474
	LD	r5,#1073749888
	CMP	r6,r5
	JZ	.L474
	MOV	r0,#0
.L474:
.LM486:
	LD	r5,#CHECK_RESTRICTION
	LJMP	r5
.LVL285:
.LM487:
	LD.w	r0,[r6+#3]
.LM488:
	POP	r6
	.cfi_remember_state
	.cfi_def_cfa_offset 4
.LVL286:
	POP	lr
	.cfi_def_cfa_offset 0
	JMP	lr
.LVL287:
.L479:
	.cfi_restore_state
.LM489:
	MOV	r0,#1
.LVL288:
	LD	r5,#CHECK_RESTRICTION
	LJMP	r5
.LVL289:
.LM490:
	LD.w	r0,[r6+#3]
.LM491:
	POP	r6
	.cfi_def_cfa_offset 4
.LVL290:
	POP	lr
	.cfi_def_cfa_offset 0
	JMP	lr
	.cfi_endproc
.LFE34:
	.size	USART_ReceiveData, .-USART_ReceiveData
	.section .text$USART_Address_Match_Config
	.type	.text$USART_Address_Match_Config$scode_local_35, @function
	.text$USART_Address_Match_Config$scode_local_35:
	.align	1
	.export	USART_Address_Match_Config
	.type	USART_Address_Match_Config, @function
USART_Address_Match_Config:
.LFB35:
.LM492:
	.cfi_startproc
.LVL291:
	PUSH	{r6, r7, lr}
	.cfi_def_cfa_offset 12
	MOV	r6,r0
	ZXT.b	r7,r1
.LVL292:
.LM493:
	LD	r5,#1073744256
	CMP	r0,r5
	JZ	.L487
.LM494:
	LD	r5,#1073744384
	CMP	r0,r5
	JZ	.L487
.LM495:
	LD	r5,#1073744512
	CMP	r0,r5
	JZ	.L487
	LD	r5,#1073744768
	CMP	r0,r5
	JZ	.L487
	LD	r5,#1073749632
	MOV	r0,#1
.LVL293:
	CMP	r6,r5
	JZ	.L482
	LD	r5,#1073749888
	CMP	r6,r5
	JZ	.L482
	MOV	r0,#0
.L482:
.LM496:
	LD	r5,#CHECK_RESTRICTION
	LJMP	r5
.LVL294:
.LM497:
	LD.w	r4,[r6+#6]
.LVL295:
.LBB52:
.LBB53:
.LM498:
	MOV	r5,#255
	NOT	r5,r5
	ANL	r5,r4,r5
	ORL	r7,r7,r5
.LVL296:
.LBE53:
.LBE52:
.LM499:
	ST.w	[r6+#6],r7
.LM500:
	POP	{r6, r7}
	.cfi_remember_state
	.cfi_def_cfa_offset 4
	POP	lr
	.cfi_def_cfa_offset 0
	JMP	lr
.LVL297:
.L487:
	.cfi_restore_state
.LM501:
	MOV	r0,#1
.LVL298:
	JMP	.L482
	.cfi_endproc
.LFE35:
	.size	USART_Address_Match_Config, .-USART_Address_Match_Config
	.section .text$USART_Send_Idle_Frame_Enable
	.type	.text$USART_Send_Idle_Frame_Enable$scode_local_36, @function
	.text$USART_Send_Idle_Frame_Enable$scode_local_36:
	.align	1
	.export	USART_Send_Idle_Frame_Enable
	.type	USART_Send_Idle_Frame_Enable, @function
USART_Send_Idle_Frame_Enable:
.LFB36:
.LM502:
	.cfi_startproc
.LVL299:
	PUSH	{r6, r7, r8, lr}
	.cfi_def_cfa_offset 16
	MOV	r6,r0
	MOV	r7,r1
.LVL300:
.LM503:
	LD	r5,#1073744256
	CMP	r0,r5
	JZ	.L496
.LM504:
	LD	r5,#1073744384
	CMP	r0,r5
	JZ	.L496
.LM505:
	LD	r5,#1073744512
	CMP	r0,r5
	JZ	.L496
	LD	r5,#1073744768
	CMP	r0,r5
	JZ	.L496
	LD	r5,#1073749632
	MOV	r0,#1
.LVL301:
	CMP	r6,r5
	JZ	.L490
	LD	r5,#1073749888
	CMP	r6,r5
	JZ	.L490
	MOV	r0,#0
.L490:
.LM506:
	LD	r5,#CHECK_RESTRICTION
	MOV	r8,r5
	LJMP	r5
.LVL302:
.LM507:
	MOV	r0,#1
	CMP	r7,r0
	JLS	.L492
	MOV	r0,#0
.L492:
	LJMP	r8
.LVL303:
.LM508:
	LD.w	r5,[r6]
.LVL304:
.LM509:
	LSL	r7,#17
.LVL305:
.LBB54:
.LBB55:
.LM510:
	CLR	r5,#17
.LVL306:
	ORL	r7,r7,r5
.LVL307:
.LBE55:
.LBE54:
.LM511:
	ST.w	[r6],r7
.LM512:
	POP	{r6, r7, r8}
	.cfi_remember_state
	.cfi_def_cfa_offset 4
	POP	lr
	.cfi_def_cfa_offset 0
	JMP	lr
.LVL308:
.L496:
	.cfi_restore_state
.LM513:
	MOV	r0,#1
.LVL309:
	JMP	.L490
	.cfi_endproc
.LFE36:
	.size	USART_Send_Idle_Frame_Enable, .-USART_Send_Idle_Frame_Enable
	.section .text$USART_Receive_Idle_Frame_Config
	.type	.text$USART_Receive_Idle_Frame_Config$scode_local_37, @function
	.text$USART_Receive_Idle_Frame_Config$scode_local_37:
	.align	1
	.export	USART_Receive_Idle_Frame_Config
	.type	USART_Receive_Idle_Frame_Config, @function
USART_Receive_Idle_Frame_Config:
.LFB37:
.LM514:
	.cfi_startproc
.LVL310:
	PUSH	{r6, r7, r8, lr}
	.cfi_def_cfa_offset 16
	MOV	r6,r0
	MOV	r7,r1
.LVL311:
.LM515:
	LD	r5,#1073744256
	CMP	r0,r5
	JZ	.L505
.LM516:
	LD	r5,#1073744384
	CMP	r0,r5
	JZ	.L505
.LM517:
	LD	r5,#1073744512
	CMP	r0,r5
	JZ	.L505
	LD	r5,#1073744768
	CMP	r0,r5
	JZ	.L505
	LD	r5,#1073749632
	MOV	r0,#1
.LVL312:
	CMP	r6,r5
	JZ	.L499
	LD	r5,#1073749888
	CMP	r6,r5
	JZ	.L499
	MOV	r0,#0
.L499:
.LM518:
	LD	r5,#CHECK_RESTRICTION
	MOV	r8,r5
	LJMP	r5
.LVL313:
.LM519:
	MOV	r0,#1
	CMP	r7,r0
	JLS	.L501
	MOV	r0,#0
.L501:
	LJMP	r8
.LVL314:
.LM520:
	LD.w	r5,[r6]
.LVL315:
.LM521:
	LSL	r7,#12
.LVL316:
.LBB56:
.LBB57:
.LM522:
	CLR	r5,#12
.LVL317:
	ORL	r7,r7,r5
.LVL318:
.LBE57:
.LBE56:
.LM523:
	ST.w	[r6],r7
.LM524:
	POP	{r6, r7, r8}
	.cfi_remember_state
	.cfi_def_cfa_offset 4
	POP	lr
	.cfi_def_cfa_offset 0
	JMP	lr
.LVL319:
.L505:
	.cfi_restore_state
.LM525:
	MOV	r0,#1
.LVL320:
	JMP	.L499
	.cfi_endproc
.LFE37:
	.size	USART_Receive_Idle_Frame_Config, .-USART_Receive_Idle_Frame_Config
	.section .text$USART_7816_Cmd
	.type	.text$USART_7816_Cmd$scode_local_38, @function
	.text$USART_7816_Cmd$scode_local_38:
	.align	1
	.export	USART_7816_Cmd
	.type	USART_7816_Cmd, @function
USART_7816_Cmd:
.LFB38:
.LM526:
	.cfi_startproc
.LVL321:
	PUSH	{r6, r7, r8, lr}
	.cfi_def_cfa_offset 16
	MOV	r6,r0
	MOV	r7,r1
.LM527:
	MOV	r0,#1
.LVL322:
	LD	r5,#1073744256
	CMP	r6,r5
	JZ	.L508
.LM528:
	LD	r5,#1073744384
	CMP	r6,r5
	JZ	.L508
.LM529:
	LD	r5,#1073744512
	CMP	r6,r5
	JZ	.L508
	LD	r5,#1073744768
	CMP	r6,r5
	JZ	.L508
	LD	r5,#1073749632
	CMP	r6,r5
	JZ	.L508
	LD	r5,#1073749888
	CMP	r6,r5
	JZ	.L508
	MOV	r0,#0
.L508:
.LM530:
	LD	r5,#CHECK_RESTRICTION
	MOV	r8,r5
	LJMP	r5
.LVL323:
.LM531:
	MOV	r0,#1
	CMP	r7,r0
	JLS	.L510
	MOV	r0,#0
.L510:
	LJMP	r8
.LVL324:
.LM532:
	ADD	r6,#16
.LVL325:
.LM533:
	CMP	r7,#0
	JNZ	.L518
.LM534:
// inline asm begin
	// 1109 "../src/kf32a9k1xxx_usart.c" 1
	CLR [r6], #0
	// 0 "" 2
.LM535:
// inline asm end
	POP	{r6, r7, r8}
	.cfi_remember_state
	.cfi_def_cfa_offset 4
.LVL326:
	POP	lr
	.cfi_def_cfa_offset 0
	JMP	lr
.LVL327:
.L518:
	.cfi_restore_state
.LM536:
// inline asm begin
	// 1104 "../src/kf32a9k1xxx_usart.c" 1
	SET [r6], #0
	// 0 "" 2
.LM537:
// inline asm end
	POP	{r6, r7, r8}
	.cfi_def_cfa_offset 4
.LVL328:
	POP	lr
	.cfi_def_cfa_offset 0
	JMP	lr
	.cfi_endproc
.LFE38:
	.size	USART_7816_Cmd, .-USART_7816_Cmd
	.section .text$USART_7816_CLKOUT_Enable
	.type	.text$USART_7816_CLKOUT_Enable$scode_local_39, @function
	.text$USART_7816_CLKOUT_Enable$scode_local_39:
	.align	1
	.export	USART_7816_CLKOUT_Enable
	.type	USART_7816_CLKOUT_Enable, @function
USART_7816_CLKOUT_Enable:
.LFB39:
.LM538:
	.cfi_startproc
.LVL329:
	PUSH	{r6, r7, r8, lr}
	.cfi_def_cfa_offset 16
	MOV	r6,r0
	MOV	r7,r1
.LM539:
	MOV	r0,#1
.LVL330:
	LD	r5,#1073744256
	CMP	r6,r5
	JZ	.L520
.LM540:
	LD	r5,#1073744384
	CMP	r6,r5
	JZ	.L520
.LM541:
	LD	r5,#1073744512
	CMP	r6,r5
	JZ	.L520
	LD	r5,#1073744768
	CMP	r6,r5
	JZ	.L520
	LD	r5,#1073749632
	CMP	r6,r5
	JZ	.L520
	LD	r5,#1073749888
	CMP	r6,r5
	JZ	.L520
	MOV	r0,#0
.L520:
.LM542:
	LD	r5,#CHECK_RESTRICTION
	MOV	r8,r5
	LJMP	r5
.LVL331:
.LM543:
	MOV	r0,#1
	CMP	r7,r0
	JLS	.L522
	MOV	r0,#0
.L522:
	LJMP	r8
.LVL332:
.LM544:
	ADD	r6,#16
.LVL333:
.LM545:
	CMP	r7,#0
	JNZ	.L530
.LM546:
// inline asm begin
	// 1135 "../src/kf32a9k1xxx_usart.c" 1
	CLR [r6], #1
	// 0 "" 2
.LM547:
// inline asm end
	POP	{r6, r7, r8}
	.cfi_remember_state
	.cfi_def_cfa_offset 4
.LVL334:
	POP	lr
	.cfi_def_cfa_offset 0
	JMP	lr
.LVL335:
.L530:
	.cfi_restore_state
.LM548:
// inline asm begin
	// 1130 "../src/kf32a9k1xxx_usart.c" 1
	SET [r6], #1
	// 0 "" 2
.LM549:
// inline asm end
	POP	{r6, r7, r8}
	.cfi_def_cfa_offset 4
.LVL336:
	POP	lr
	.cfi_def_cfa_offset 0
	JMP	lr
	.cfi_endproc
.LFE39:
	.size	USART_7816_CLKOUT_Enable, .-USART_7816_CLKOUT_Enable
	.section .text$USART_7816_Error_Signal_Config
	.type	.text$USART_7816_Error_Signal_Config$scode_local_40, @function
	.text$USART_7816_Error_Signal_Config$scode_local_40:
	.align	1
	.export	USART_7816_Error_Signal_Config
	.type	USART_7816_Error_Signal_Config, @function
USART_7816_Error_Signal_Config:
.LFB40:
.LM550:
	.cfi_startproc
.LVL337:
	PUSH	{r6, r7, r8, lr}
	.cfi_def_cfa_offset 16
	MOV	r6,r0
	MOV	r7,r1
.LM551:
	MOV	r0,#1
.LVL338:
	LD	r5,#1073744256
	CMP	r6,r5
	JZ	.L532
.LM552:
	LD	r5,#1073744384
	CMP	r6,r5
	JZ	.L532
.LM553:
	LD	r5,#1073744512
	CMP	r6,r5
	JZ	.L532
	LD	r5,#1073744768
	CMP	r6,r5
	JZ	.L532
	LD	r5,#1073749632
	CMP	r6,r5
	JZ	.L532
	LD	r5,#1073749888
	CMP	r6,r5
	JZ	.L532
	MOV	r0,#0
.L532:
.LM554:
	LD	r5,#CHECK_RESTRICTION
	MOV	r8,r5
	LJMP	r5
.LVL339:
.LM555:
	MOV	r0,#1
	CMP	r7,#0
	JZ	.L534
.LM556:
	CMP	r7,#8
	JZ	.L534
.LM557:
	CMP	r7,#12
	JZ	.L534
	MOV	r0,#0
.L534:
.LM558:
	LJMP	r8
.LVL340:
.LM559:
	LD.w	r5,[r6+#4]
.LVL341:
.LBB58:
.LBB59:
.LM560:
	CLR	r5,#2
	CLR	r5,#3
.LVL342:
	ORL	r7,r7,r5
.LVL343:
.LBE59:
.LBE58:
.LM561:
	ST.w	[r6+#4],r7
.LM562:
	POP	{r6, r7, r8}
	.cfi_def_cfa_offset 4
	POP	lr
	.cfi_def_cfa_offset 0
	JMP	lr
	.cfi_endproc
.LFE40:
	.size	USART_7816_Error_Signal_Config, .-USART_7816_Error_Signal_Config
	.section .text$USART_Passageway_Select_Config
	.type	.text$USART_Passageway_Select_Config$scode_local_41, @function
	.text$USART_Passageway_Select_Config$scode_local_41:
	.align	1
	.export	USART_Passageway_Select_Config
	.type	USART_Passageway_Select_Config, @function
USART_Passageway_Select_Config:
.LFB41:
.LM563:
	.cfi_startproc
.LVL344:
	PUSH	{r6, r7, r8, lr}
	.cfi_def_cfa_offset 16
	MOV	r6,r0
	MOV	r8,r1
.LM564:
	MOV	r0,#1
.LVL345:
	LD	r5,#1073744256
	CMP	r6,r5
	JZ	.L549
.LM565:
	LD	r5,#1073744384
	CMP	r6,r5
	JZ	.L549
.LM566:
	LD	r5,#1073744512
	CMP	r6,r5
	JZ	.L549
	LD	r5,#1073744768
	CMP	r6,r5
	JZ	.L549
	LD	r5,#1073749632
	CMP	r6,r5
	JZ	.L549
	LD	r5,#1073749888
	CMP	r6,r5
	JZ	.L549
	MOV	r0,#0
.L549:
.LM567:
	LD	r7,#CHECK_RESTRICTION
	LJMP	r7
.LVL346:
.LM568:
	MOV	r0,#1
	CMP	r8,#0
	JZ	.L551
.LM569:
	CMP	r8,#16
	JZ	.L552
	MOV	r0,#0
.L552:
	LJMP	r7
.LVL347:
.LM570:
	ADD	r6,#16
.LVL348:
// inline asm begin
	// 1178 "../src/kf32a9k1xxx_usart.c" 1
	SET [r6], #4
	// 0 "" 2
.LM571:
// inline asm end
	POP	{r6, r7, r8}
	.cfi_remember_state
	.cfi_def_cfa_offset 4
.LVL349:
	POP	lr
	.cfi_def_cfa_offset 0
	JMP	lr
.LVL350:
.L551:
	.cfi_restore_state
.LM572:
	LJMP	r7
.LVL351:
.LM573:
	ADD	r6,#16
.LVL352:
// inline asm begin
	// 1183 "../src/kf32a9k1xxx_usart.c" 1
	CLR [r6], #4
	// 0 "" 2
.LM574:
// inline asm end
	POP	{r6, r7, r8}
	.cfi_def_cfa_offset 4
.LVL353:
	POP	lr
	.cfi_def_cfa_offset 0
	JMP	lr
	.cfi_endproc
.LFE41:
	.size	USART_Passageway_Select_Config, .-USART_Passageway_Select_Config
	.section .text$USART_BGT_Config
	.type	.text$USART_BGT_Config$scode_local_42, @function
	.text$USART_BGT_Config$scode_local_42:
	.align	1
	.export	USART_BGT_Config
	.type	USART_BGT_Config, @function
USART_BGT_Config:
.LFB42:
.LM575:
	.cfi_startproc
.LVL354:
	PUSH	{r6, r7, r8, lr}
	.cfi_def_cfa_offset 16
	MOV	r6,r0
	MOV	r7,r1
.LM576:
	MOV	r0,#1
.LVL355:
	LD	r5,#1073744256
	CMP	r6,r5
	JZ	.L563
.LM577:
	LD	r5,#1073744384
	CMP	r6,r5
	JZ	.L563
.LM578:
	LD	r5,#1073744512
	CMP	r6,r5
	JZ	.L563
	LD	r5,#1073744768
	CMP	r6,r5
	JZ	.L563
	LD	r5,#1073749632
	CMP	r6,r5
	JZ	.L563
	LD	r5,#1073749888
	CMP	r6,r5
	JZ	.L563
	MOV	r0,#0
.L563:
.LM579:
	LD	r5,#CHECK_RESTRICTION
	MOV	r8,r5
	LJMP	r5
.LVL356:
.LM580:
	MOV	r0,#1
	CMP	r7,r0
	JLS	.L565
	MOV	r0,#0
.L565:
	LJMP	r8
.LVL357:
.LM581:
	ADD	r6,#16
.LVL358:
.LM582:
	CMP	r7,#0
	JNZ	.L573
.LM583:
// inline asm begin
	// 1211 "../src/kf32a9k1xxx_usart.c" 1
	CLR [r6], #5
	// 0 "" 2
.LM584:
// inline asm end
	POP	{r6, r7, r8}
	.cfi_remember_state
	.cfi_def_cfa_offset 4
.LVL359:
	POP	lr
	.cfi_def_cfa_offset 0
	JMP	lr
.LVL360:
.L573:
	.cfi_restore_state
.LM585:
// inline asm begin
	// 1206 "../src/kf32a9k1xxx_usart.c" 1
	SET [r6], #5
	// 0 "" 2
.LM586:
// inline asm end
	POP	{r6, r7, r8}
	.cfi_def_cfa_offset 4
.LVL361:
	POP	lr
	.cfi_def_cfa_offset 0
	JMP	lr
	.cfi_endproc
.LFE42:
	.size	USART_BGT_Config, .-USART_BGT_Config
	.section .text$USART_Transmit_Repeat_Enable
	.type	.text$USART_Transmit_Repeat_Enable$scode_local_43, @function
	.text$USART_Transmit_Repeat_Enable$scode_local_43:
	.align	1
	.export	USART_Transmit_Repeat_Enable
	.type	USART_Transmit_Repeat_Enable, @function
USART_Transmit_Repeat_Enable:
.LFB43:
.LM587:
	.cfi_startproc
.LVL362:
	PUSH	{r6, r7, r8, lr}
	.cfi_def_cfa_offset 16
	MOV	r6,r0
	MOV	r7,r1
.LM588:
	MOV	r0,#1
.LVL363:
	LD	r5,#1073744256
	CMP	r6,r5
	JZ	.L575
.LM589:
	LD	r5,#1073744384
	CMP	r6,r5
	JZ	.L575
.LM590:
	LD	r5,#1073744512
	CMP	r6,r5
	JZ	.L575
	LD	r5,#1073744768
	CMP	r6,r5
	JZ	.L575
	LD	r5,#1073749632
	CMP	r6,r5
	JZ	.L575
	LD	r5,#1073749888
	CMP	r6,r5
	JZ	.L575
	MOV	r0,#0
.L575:
.LM591:
	LD	r5,#CHECK_RESTRICTION
	MOV	r8,r5
	LJMP	r5
.LVL364:
.LM592:
	MOV	r0,#1
	CMP	r7,r0
	JLS	.L577
	MOV	r0,#0
.L577:
	LJMP	r8
.LVL365:
.LM593:
	ADD	r6,#16
.LVL366:
.LM594:
	CMP	r7,#0
	JNZ	.L585
.LM595:
// inline asm begin
	// 1239 "../src/kf32a9k1xxx_usart.c" 1
	CLR [r6], #8
	// 0 "" 2
.LM596:
// inline asm end
	POP	{r6, r7, r8}
	.cfi_remember_state
	.cfi_def_cfa_offset 4
.LVL367:
	POP	lr
	.cfi_def_cfa_offset 0
	JMP	lr
.LVL368:
.L585:
	.cfi_restore_state
.LM597:
// inline asm begin
	// 1234 "../src/kf32a9k1xxx_usart.c" 1
	SET [r6], #8
	// 0 "" 2
.LM598:
// inline asm end
	POP	{r6, r7, r8}
	.cfi_def_cfa_offset 4
.LVL369:
	POP	lr
	.cfi_def_cfa_offset 0
	JMP	lr
	.cfi_endproc
.LFE43:
	.size	USART_Transmit_Repeat_Enable, .-USART_Transmit_Repeat_Enable
	.section .text$USART_Receive_Repeat_Enable
	.type	.text$USART_Receive_Repeat_Enable$scode_local_44, @function
	.text$USART_Receive_Repeat_Enable$scode_local_44:
	.align	1
	.export	USART_Receive_Repeat_Enable
	.type	USART_Receive_Repeat_Enable, @function
USART_Receive_Repeat_Enable:
.LFB44:
.LM599:
	.cfi_startproc
.LVL370:
	PUSH	{r6, r7, r8, lr}
	.cfi_def_cfa_offset 16
	MOV	r6,r0
	MOV	r7,r1
.LM600:
	MOV	r0,#1
.LVL371:
	LD	r5,#1073744256
	CMP	r6,r5
	JZ	.L587
.LM601:
	LD	r5,#1073744384
	CMP	r6,r5
	JZ	.L587
.LM602:
	LD	r5,#1073744512
	CMP	r6,r5
	JZ	.L587
	LD	r5,#1073744768
	CMP	r6,r5
	JZ	.L587
	LD	r5,#1073749632
	CMP	r6,r5
	JZ	.L587
	LD	r5,#1073749888
	CMP	r6,r5
	JZ	.L587
	MOV	r0,#0
.L587:
.LM603:
	LD	r5,#CHECK_RESTRICTION
	MOV	r8,r5
	LJMP	r5
.LVL372:
.LM604:
	MOV	r0,#1
	CMP	r7,r0
	JLS	.L589
	MOV	r0,#0
.L589:
	LJMP	r8
.LVL373:
.LM605:
	ADD	r6,#16
.LVL374:
.LM606:
	CMP	r7,#0
	JNZ	.L597
.LM607:
// inline asm begin
	// 1267 "../src/kf32a9k1xxx_usart.c" 1
	CLR [r6], #9
	// 0 "" 2
.LM608:
// inline asm end
	POP	{r6, r7, r8}
	.cfi_remember_state
	.cfi_def_cfa_offset 4
.LVL375:
	POP	lr
	.cfi_def_cfa_offset 0
	JMP	lr
.LVL376:
.L597:
	.cfi_restore_state
.LM609:
// inline asm begin
	// 1262 "../src/kf32a9k1xxx_usart.c" 1
	SET [r6], #9
	// 0 "" 2
.LM610:
// inline asm end
	POP	{r6, r7, r8}
	.cfi_def_cfa_offset 4
.LVL377:
	POP	lr
	.cfi_def_cfa_offset 0
	JMP	lr
	.cfi_endproc
.LFE44:
	.size	USART_Receive_Repeat_Enable, .-USART_Receive_Repeat_Enable
	.section .text$USART_Transmit_Repeat_Times_Config
	.type	.text$USART_Transmit_Repeat_Times_Config$scode_local_45, @function
	.text$USART_Transmit_Repeat_Times_Config$scode_local_45:
	.align	1
	.export	USART_Transmit_Repeat_Times_Config
	.type	USART_Transmit_Repeat_Times_Config, @function
USART_Transmit_Repeat_Times_Config:
.LFB45:
.LM611:
	.cfi_startproc
.LVL378:
	PUSH	{r6, r7, r8, lr}
	.cfi_def_cfa_offset 16
	MOV	r6,r0
	MOV	r7,r1
.LM612:
	MOV	r0,#1
.LVL379:
	LD	r5,#1073744256
	CMP	r6,r5
	JZ	.L599
.LM613:
	LD	r5,#1073744384
	CMP	r6,r5
	JZ	.L599
.LM614:
	LD	r5,#1073744512
	CMP	r6,r5
	JZ	.L599
	LD	r5,#1073744768
	CMP	r6,r5
	JZ	.L599
	LD	r5,#1073749632
	CMP	r6,r5
	JZ	.L599
	LD	r5,#1073749888
	CMP	r6,r5
	JZ	.L599
	MOV	r0,#0
.L599:
.LM615:
	LD	r5,#CHECK_RESTRICTION
	MOV	r8,r5
	LJMP	r5
.LVL380:
.LM616:
	MOV	r0,#1
	CMP	r7,#0
	JZ	.L601
.LM617:
	MOV	r5,#1
	LSL	r5,#10
	CMP	r7,r5
	JZ	.L601
.LM618:
	MOV	r5,#1
	LSL	r5,#11
	CMP	r7,r5
	JZ	.L601
	LD	r5,#3072
	CMP	r7,r5
	JZ	.L601
	MOV	r0,#0
.L601:
.LM619:
	LJMP	r8
.LVL381:
.LM620:
	LD.w	r5,[r6+#4]
.LVL382:
.LBB60:
.LBB61:
.LM621:
	CLR	r5,#10
	CLR	r5,#11
.LVL383:
	ORL	r7,r7,r5
.LVL384:
.LBE61:
.LBE60:
.LM622:
	ST.w	[r6+#4],r7
.LM623:
	POP	{r6, r7, r8}
	.cfi_def_cfa_offset 4
	POP	lr
	.cfi_def_cfa_offset 0
	JMP	lr
	.cfi_endproc
.LFE45:
	.size	USART_Transmit_Repeat_Times_Config, .-USART_Transmit_Repeat_Times_Config
	.section .text$USART_Receive_Repeat_Times_Config
	.type	.text$USART_Receive_Repeat_Times_Config$scode_local_46, @function
	.text$USART_Receive_Repeat_Times_Config$scode_local_46:
	.align	1
	.export	USART_Receive_Repeat_Times_Config
	.type	USART_Receive_Repeat_Times_Config, @function
USART_Receive_Repeat_Times_Config:
.LFB46:
.LM624:
	.cfi_startproc
.LVL385:
	PUSH	{r6, r7, r8, lr}
	.cfi_def_cfa_offset 16
	MOV	r6,r0
	MOV	r7,r1
.LM625:
	MOV	r0,#1
.LVL386:
	LD	r5,#1073744256
	CMP	r6,r5
	JZ	.L613
.LM626:
	LD	r5,#1073744384
	CMP	r6,r5
	JZ	.L613
.LM627:
	LD	r5,#1073744512
	CMP	r6,r5
	JZ	.L613
	LD	r5,#1073744768
	CMP	r6,r5
	JZ	.L613
	LD	r5,#1073749632
	CMP	r6,r5
	JZ	.L613
	LD	r5,#1073749888
	CMP	r6,r5
	JZ	.L613
	MOV	r0,#0
.L613:
.LM628:
	LD	r5,#CHECK_RESTRICTION
	MOV	r8,r5
	LJMP	r5
.LVL387:
.LM629:
	MOV	r0,#1
	CMP	r7,#0
	JZ	.L615
.LM630:
	MOV	r5,#1
	LSL	r5,#12
	CMP	r7,r5
	JZ	.L615
.LM631:
	MOV	r5,#1
	LSL	r5,#13
	CMP	r7,r5
	JZ	.L615
	LD	r5,#12288
	CMP	r7,r5
	JZ	.L615
	MOV	r0,#0
.L615:
.LM632:
	LJMP	r8
.LVL388:
.LM633:
	LD.w	r5,[r6+#4]
.LVL389:
.LBB62:
.LBB63:
.LM634:
	CLR	r5,#12
	CLR	r5,#13
.LVL390:
	ORL	r7,r7,r5
.LVL391:
.LBE63:
.LBE62:
.LM635:
	ST.w	[r6+#4],r7
.LM636:
	POP	{r6, r7, r8}
	.cfi_def_cfa_offset 4
	POP	lr
	.cfi_def_cfa_offset 0
	JMP	lr
	.cfi_endproc
.LFE46:
	.size	USART_Receive_Repeat_Times_Config, .-USART_Receive_Repeat_Times_Config
	.section .text$USART_7816_CLKDIV_Config
	.type	.text$USART_7816_CLKDIV_Config$scode_local_47, @function
	.text$USART_7816_CLKDIV_Config$scode_local_47:
	.align	1
	.export	USART_7816_CLKDIV_Config
	.type	USART_7816_CLKDIV_Config, @function
USART_7816_CLKDIV_Config:
.LFB47:
.LM637:
	.cfi_startproc
.LVL392:
	PUSH	{r6, r7, lr}
	.cfi_def_cfa_offset 12
	MOV	r6,r0
	ZXT.b	r7,r1
.LVL393:
.LM638:
	LD	r5,#1073744256
	CMP	r0,r5
	JZ	.L632
.LM639:
	LD	r5,#1073744384
	CMP	r0,r5
	JZ	.L632
.LM640:
	LD	r5,#1073744512
	CMP	r0,r5
	JZ	.L632
	LD	r5,#1073744768
	CMP	r0,r5
	JZ	.L632
	LD	r5,#1073749632
	MOV	r0,#1
.LVL394:
	CMP	r6,r5
	JZ	.L627
	LD	r5,#1073749888
	CMP	r6,r5
	JZ	.L627
	MOV	r0,#0
.L627:
.LM641:
	LD	r5,#CHECK_RESTRICTION
	LJMP	r5
.LVL395:
.LM642:
	LD.w	r4,[r6+#4]
.LVL396:
.LM643:
	LSL	r7,#16
.LVL397:
.LBB64:
.LBB65:
.LM644:
	LD	r5,#-16711681
	ANL	r5,r4,r5
	ORL	r7,r7,r5
.LBE65:
.LBE64:
.LM645:
	ST.w	[r6+#4],r7
.LM646:
	POP	{r6, r7}
	.cfi_remember_state
	.cfi_def_cfa_offset 4
	POP	lr
	.cfi_def_cfa_offset 0
	JMP	lr
.LVL398:
.L632:
	.cfi_restore_state
.LM647:
	MOV	r0,#1
.LVL399:
	JMP	.L627
	.cfi_endproc
.LFE47:
	.size	USART_7816_CLKDIV_Config, .-USART_7816_CLKDIV_Config
	.section .text$USART_7816_EGT_Config
	.type	.text$USART_7816_EGT_Config$scode_local_48, @function
	.text$USART_7816_EGT_Config$scode_local_48:
	.align	1
	.export	USART_7816_EGT_Config
	.type	USART_7816_EGT_Config, @function
USART_7816_EGT_Config:
.LFB48:
.LM648:
	.cfi_startproc
.LVL400:
	PUSH	{r6, r7, lr}
	.cfi_def_cfa_offset 12
	MOV	r6,r0
	ZXT.b	r7,r1
.LVL401:
.LM649:
	LD	r5,#1073744256
	CMP	r0,r5
	JZ	.L640
.LM650:
	LD	r5,#1073744384
	CMP	r0,r5
	JZ	.L640
.LM651:
	LD	r5,#1073744512
	CMP	r0,r5
	JZ	.L640
	LD	r5,#1073744768
	CMP	r0,r5
	JZ	.L640
	LD	r5,#1073749632
	MOV	r0,#1
.LVL402:
	CMP	r6,r5
	JZ	.L635
	LD	r5,#1073749888
	CMP	r6,r5
	JZ	.L635
	MOV	r0,#0
.L635:
.LM652:
	LD	r5,#CHECK_RESTRICTION
	LJMP	r5
.LVL403:
.LM653:
	LD.w	r4,[r6+#4]
.LVL404:
.LM654:
	LSL	r7,#24
.LVL405:
.LBB66:
.LBB67:
.LM655:
	LD	r5,#16777215
	ANL	r5,r4,r5
	ORL	r7,r7,r5
.LBE67:
.LBE66:
.LM656:
	ST.w	[r6+#4],r7
.LM657:
	POP	{r6, r7}
	.cfi_remember_state
	.cfi_def_cfa_offset 4
	POP	lr
	.cfi_def_cfa_offset 0
	JMP	lr
.LVL406:
.L640:
	.cfi_restore_state
.LM658:
	MOV	r0,#1
.LVL407:
	JMP	.L635
	.cfi_endproc
.LFE48:
	.size	USART_7816_EGT_Config, .-USART_7816_EGT_Config
	.section .text$USART_7816_Resend_Mode_Select
	.type	.text$USART_7816_Resend_Mode_Select$scode_local_49, @function
	.text$USART_7816_Resend_Mode_Select$scode_local_49:
	.align	1
	.export	USART_7816_Resend_Mode_Select
	.type	USART_7816_Resend_Mode_Select, @function
USART_7816_Resend_Mode_Select:
.LFB49:
.LM659:
	.cfi_startproc
.LVL408:
	PUSH	{r6, r7, lr}
	.cfi_def_cfa_offset 12
	MOV	r6,r0
	MOV	r7,r1
.LVL409:
.LM660:
	LD	r5,#1073744256
	CMP	r0,r5
	JZ	.L648
.LM661:
	LD	r5,#1073744384
	CMP	r0,r5
	JZ	.L648
.LM662:
	LD	r5,#1073744512
	CMP	r0,r5
	JZ	.L648
	LD	r5,#1073744768
	CMP	r0,r5
	JZ	.L648
	LD	r5,#1073749632
	MOV	r0,#1
.LVL410:
	CMP	r6,r5
	JZ	.L643
	LD	r5,#1073749888
	CMP	r6,r5
	JZ	.L643
	MOV	r0,#0
.L643:
.LM663:
	LD	r5,#CHECK_RESTRICTION
	LJMP	r5
.LVL411:
.LM664:
	LD.w	r5,[r6+#4]
.LVL412:
.LM665:
	LSL	r7,#14
.LVL413:
.LBB68:
.LBB69:
.LM666:
	CLR	r5,#14
.LVL414:
	ORL	r7,r7,r5
.LVL415:
.LBE69:
.LBE68:
.LM667:
	ST.w	[r6+#4],r7
.LM668:
	POP	{r6, r7}
	.cfi_remember_state
	.cfi_def_cfa_offset 4
	POP	lr
	.cfi_def_cfa_offset 0
	JMP	lr
.LVL416:
.L648:
	.cfi_restore_state
.LM669:
	MOV	r0,#1
.LVL417:
	JMP	.L643
	.cfi_endproc
.LFE49:
	.size	USART_7816_Resend_Mode_Select, .-USART_7816_Resend_Mode_Select
	.section .text$USART_Receive_Overflow_INT_Enable
	.type	.text$USART_Receive_Overflow_INT_Enable$scode_local_50, @function
	.text$USART_Receive_Overflow_INT_Enable$scode_local_50:
	.align	1
	.export	USART_Receive_Overflow_INT_Enable
	.type	USART_Receive_Overflow_INT_Enable, @function
USART_Receive_Overflow_INT_Enable:
.LFB50:
.LM670:
	.cfi_startproc
.LVL418:
	PUSH	{r6, r7, r8, lr}
	.cfi_def_cfa_offset 16
	MOV	r6,r0
	MOV	r7,r1
.LM671:
	MOV	r0,#1
.LVL419:
	LD	r5,#1073744256
	CMP	r6,r5
	JZ	.L651
.LM672:
	LD	r5,#1073744384
	CMP	r6,r5
	JZ	.L651
.LM673:
	LD	r5,#1073744512
	CMP	r6,r5
	JZ	.L651
	LD	r5,#1073744768
	CMP	r6,r5
	JZ	.L651
	LD	r5,#1073749632
	CMP	r6,r5
	JZ	.L651
	LD	r5,#1073749888
	CMP	r6,r5
	JZ	.L651
	MOV	r0,#0
.L651:
.LM674:
	LD	r5,#CHECK_RESTRICTION
	MOV	r8,r5
	LJMP	r5
.LVL420:
.LM675:
	MOV	r0,#1
	CMP	r7,r0
	JLS	.L653
	MOV	r0,#0
.L653:
	LJMP	r8
.LVL421:
.LM676:
	ADD	r6,#20
.LVL422:
.LM677:
	CMP	r7,#0
	JNZ	.L661
.LM678:
// inline asm begin
	// 1402 "../src/kf32a9k1xxx_usart.c" 1
	CLR [r6], #0
	// 0 "" 2
.LM679:
// inline asm end
	POP	{r6, r7, r8}
	.cfi_remember_state
	.cfi_def_cfa_offset 4
.LVL423:
	POP	lr
	.cfi_def_cfa_offset 0
	JMP	lr
.LVL424:
.L661:
	.cfi_restore_state
.LM680:
// inline asm begin
	// 1397 "../src/kf32a9k1xxx_usart.c" 1
	SET [r6], #0
	// 0 "" 2
.LM681:
// inline asm end
	POP	{r6, r7, r8}
	.cfi_def_cfa_offset 4
.LVL425:
	POP	lr
	.cfi_def_cfa_offset 0
	JMP	lr
	.cfi_endproc
.LFE50:
	.size	USART_Receive_Overflow_INT_Enable, .-USART_Receive_Overflow_INT_Enable
	.section .text$USART_Parity_ERROR_INT_Enable
	.type	.text$USART_Parity_ERROR_INT_Enable$scode_local_51, @function
	.text$USART_Parity_ERROR_INT_Enable$scode_local_51:
	.align	1
	.export	USART_Parity_ERROR_INT_Enable
	.type	USART_Parity_ERROR_INT_Enable, @function
USART_Parity_ERROR_INT_Enable:
.LFB51:
.LM682:
	.cfi_startproc
.LVL426:
	PUSH	{r6, r7, r8, lr}
	.cfi_def_cfa_offset 16
	MOV	r6,r0
	MOV	r7,r1
.LM683:
	MOV	r0,#1
.LVL427:
	LD	r5,#1073744256
	CMP	r6,r5
	JZ	.L663
.LM684:
	LD	r5,#1073744384
	CMP	r6,r5
	JZ	.L663
.LM685:
	LD	r5,#1073744512
	CMP	r6,r5
	JZ	.L663
	LD	r5,#1073744768
	CMP	r6,r5
	JZ	.L663
	LD	r5,#1073749632
	CMP	r6,r5
	JZ	.L663
	LD	r5,#1073749888
	CMP	r6,r5
	JZ	.L663
	MOV	r0,#0
.L663:
.LM686:
	LD	r5,#CHECK_RESTRICTION
	MOV	r8,r5
	LJMP	r5
.LVL428:
.LM687:
	MOV	r0,#1
	CMP	r7,r0
	JLS	.L665
	MOV	r0,#0
.L665:
	LJMP	r8
.LVL429:
.LM688:
	ADD	r6,#20
.LVL430:
.LM689:
	CMP	r7,#0
	JNZ	.L673
.LM690:
// inline asm begin
	// 1428 "../src/kf32a9k1xxx_usart.c" 1
	CLR [r6], #1
	// 0 "" 2
.LM691:
// inline asm end
	POP	{r6, r7, r8}
	.cfi_remember_state
	.cfi_def_cfa_offset 4
.LVL431:
	POP	lr
	.cfi_def_cfa_offset 0
	JMP	lr
.LVL432:
.L673:
	.cfi_restore_state
.LM692:
// inline asm begin
	// 1423 "../src/kf32a9k1xxx_usart.c" 1
	SET [r6], #1
	// 0 "" 2
.LM693:
// inline asm end
	POP	{r6, r7, r8}
	.cfi_def_cfa_offset 4
.LVL433:
	POP	lr
	.cfi_def_cfa_offset 0
	JMP	lr
	.cfi_endproc
.LFE51:
	.size	USART_Parity_ERROR_INT_Enable, .-USART_Parity_ERROR_INT_Enable
	.section .text$USART_Frame_ERROE_INT_Enable
	.type	.text$USART_Frame_ERROE_INT_Enable$scode_local_52, @function
	.text$USART_Frame_ERROE_INT_Enable$scode_local_52:
	.align	1
	.export	USART_Frame_ERROE_INT_Enable
	.type	USART_Frame_ERROE_INT_Enable, @function
USART_Frame_ERROE_INT_Enable:
.LFB52:
.LM694:
	.cfi_startproc
.LVL434:
	PUSH	{r6, r7, r8, lr}
	.cfi_def_cfa_offset 16
	MOV	r6,r0
	MOV	r7,r1
.LM695:
	MOV	r0,#1
.LVL435:
	LD	r5,#1073744256
	CMP	r6,r5
	JZ	.L675
.LM696:
	LD	r5,#1073744384
	CMP	r6,r5
	JZ	.L675
.LM697:
	LD	r5,#1073744512
	CMP	r6,r5
	JZ	.L675
	LD	r5,#1073744768
	CMP	r6,r5
	JZ	.L675
	LD	r5,#1073749632
	CMP	r6,r5
	JZ	.L675
	LD	r5,#1073749888
	CMP	r6,r5
	JZ	.L675
	MOV	r0,#0
.L675:
.LM698:
	LD	r5,#CHECK_RESTRICTION
	MOV	r8,r5
	LJMP	r5
.LVL436:
.LM699:
	MOV	r0,#1
	CMP	r7,r0
	JLS	.L677
	MOV	r0,#0
.L677:
	LJMP	r8
.LVL437:
.LM700:
	ADD	r6,#20
.LVL438:
.LM701:
	CMP	r7,#0
	JNZ	.L685
.LM702:
// inline asm begin
	// 1454 "../src/kf32a9k1xxx_usart.c" 1
	CLR [r6], #2
	// 0 "" 2
.LM703:
// inline asm end
	POP	{r6, r7, r8}
	.cfi_remember_state
	.cfi_def_cfa_offset 4
.LVL439:
	POP	lr
	.cfi_def_cfa_offset 0
	JMP	lr
.LVL440:
.L685:
	.cfi_restore_state
.LM704:
// inline asm begin
	// 1449 "../src/kf32a9k1xxx_usart.c" 1
	SET [r6], #2
	// 0 "" 2
.LM705:
// inline asm end
	POP	{r6, r7, r8}
	.cfi_def_cfa_offset 4
.LVL441:
	POP	lr
	.cfi_def_cfa_offset 0
	JMP	lr
	.cfi_endproc
.LFE52:
	.size	USART_Frame_ERROE_INT_Enable, .-USART_Frame_ERROE_INT_Enable
	.section .text$USART_Blank_INT_Enable
	.type	.text$USART_Blank_INT_Enable$scode_local_53, @function
	.text$USART_Blank_INT_Enable$scode_local_53:
	.align	1
	.export	USART_Blank_INT_Enable
	.type	USART_Blank_INT_Enable, @function
USART_Blank_INT_Enable:
.LFB53:
.LM706:
	.cfi_startproc
.LVL442:
	PUSH	{r6, r7, r8, lr}
	.cfi_def_cfa_offset 16
	MOV	r6,r0
	MOV	r7,r1
.LM707:
	MOV	r0,#1
.LVL443:
	LD	r5,#1073744256
	CMP	r6,r5
	JZ	.L687
.LM708:
	LD	r5,#1073744384
	CMP	r6,r5
	JZ	.L687
.LM709:
	LD	r5,#1073744512
	CMP	r6,r5
	JZ	.L687
	LD	r5,#1073744768
	CMP	r6,r5
	JZ	.L687
	LD	r5,#1073749632
	CMP	r6,r5
	JZ	.L687
	LD	r5,#1073749888
	CMP	r6,r5
	JZ	.L687
	MOV	r0,#0
.L687:
.LM710:
	LD	r5,#CHECK_RESTRICTION
	MOV	r8,r5
	LJMP	r5
.LVL444:
.LM711:
	MOV	r0,#1
	CMP	r7,r0
	JLS	.L689
	MOV	r0,#0
.L689:
	LJMP	r8
.LVL445:
.LM712:
	ADD	r6,#20
.LVL446:
.LM713:
	CMP	r7,#0
	JNZ	.L697
.LM714:
// inline asm begin
	// 1480 "../src/kf32a9k1xxx_usart.c" 1
	CLR [r6], #3
	// 0 "" 2
.LM715:
// inline asm end
	POP	{r6, r7, r8}
	.cfi_remember_state
	.cfi_def_cfa_offset 4
.LVL447:
	POP	lr
	.cfi_def_cfa_offset 0
	JMP	lr
.LVL448:
.L697:
	.cfi_restore_state
.LM716:
// inline asm begin
	// 1475 "../src/kf32a9k1xxx_usart.c" 1
	SET [r6], #3
	// 0 "" 2
.LM717:
// inline asm end
	POP	{r6, r7, r8}
	.cfi_def_cfa_offset 4
.LVL449:
	POP	lr
	.cfi_def_cfa_offset 0
	JMP	lr
	.cfi_endproc
.LFE53:
	.size	USART_Blank_INT_Enable, .-USART_Blank_INT_Enable
	.section .text$USART_Auto_BaudRate_TimeOver_INT_Enable
	.type	.text$USART_Auto_BaudRate_TimeOver_INT_Enable$scode_local_54, @function
	.text$USART_Auto_BaudRate_TimeOver_INT_Enable$scode_local_54:
	.align	1
	.export	USART_Auto_BaudRate_TimeOver_INT_Enable
	.type	USART_Auto_BaudRate_TimeOver_INT_Enable, @function
USART_Auto_BaudRate_TimeOver_INT_Enable:
.LFB54:
.LM718:
	.cfi_startproc
.LVL450:
	PUSH	{r6, r7, r8, lr}
	.cfi_def_cfa_offset 16
	MOV	r6,r0
	MOV	r7,r1
.LM719:
	MOV	r0,#1
.LVL451:
	LD	r5,#1073744256
	CMP	r6,r5
	JZ	.L699
.LM720:
	LD	r5,#1073744384
	CMP	r6,r5
	JZ	.L699
.LM721:
	LD	r5,#1073744512
	CMP	r6,r5
	JZ	.L699
	LD	r5,#1073744768
	CMP	r6,r5
	JZ	.L699
	LD	r5,#1073749632
	CMP	r6,r5
	JZ	.L699
	LD	r5,#1073749888
	CMP	r6,r5
	JZ	.L699
	MOV	r0,#0
.L699:
.LM722:
	LD	r5,#CHECK_RESTRICTION
	MOV	r8,r5
	LJMP	r5
.LVL452:
.LM723:
	MOV	r0,#1
	CMP	r7,r0
	JLS	.L701
	MOV	r0,#0
.L701:
	LJMP	r8
.LVL453:
.LM724:
	ADD	r6,#20
.LVL454:
.LM725:
	CMP	r7,#0
	JNZ	.L709
.LM726:
// inline asm begin
	// 1507 "../src/kf32a9k1xxx_usart.c" 1
	CLR [r6], #4
	// 0 "" 2
.LM727:
// inline asm end
	POP	{r6, r7, r8}
	.cfi_remember_state
	.cfi_def_cfa_offset 4
.LVL455:
	POP	lr
	.cfi_def_cfa_offset 0
	JMP	lr
.LVL456:
.L709:
	.cfi_restore_state
.LM728:
// inline asm begin
	// 1502 "../src/kf32a9k1xxx_usart.c" 1
	SET [r6], #4
	// 0 "" 2
.LM729:
// inline asm end
	POP	{r6, r7, r8}
	.cfi_def_cfa_offset 4
.LVL457:
	POP	lr
	.cfi_def_cfa_offset 0
	JMP	lr
	.cfi_endproc
.LFE54:
	.size	USART_Auto_BaudRate_TimeOver_INT_Enable, .-USART_Auto_BaudRate_TimeOver_INT_Enable
	.section .text$USART_WeakUP_INT_Enable
	.type	.text$USART_WeakUP_INT_Enable$scode_local_55, @function
	.text$USART_WeakUP_INT_Enable$scode_local_55:
	.align	1
	.export	USART_WeakUP_INT_Enable
	.type	USART_WeakUP_INT_Enable, @function
USART_WeakUP_INT_Enable:
.LFB55:
.LM730:
	.cfi_startproc
.LVL458:
	PUSH	{r6, r7, r8, lr}
	.cfi_def_cfa_offset 16
	MOV	r6,r0
	MOV	r7,r1
.LM731:
	MOV	r0,#1
.LVL459:
	LD	r5,#1073744256
	CMP	r6,r5
	JZ	.L711
.LM732:
	LD	r5,#1073744384
	CMP	r6,r5
	JZ	.L711
.LM733:
	LD	r5,#1073744512
	CMP	r6,r5
	JZ	.L711
	LD	r5,#1073744768
	CMP	r6,r5
	JZ	.L711
	LD	r5,#1073749632
	CMP	r6,r5
	JZ	.L711
	LD	r5,#1073749888
	CMP	r6,r5
	JZ	.L711
	MOV	r0,#0
.L711:
.LM734:
	LD	r5,#CHECK_RESTRICTION
	MOV	r8,r5
	LJMP	r5
.LVL460:
.LM735:
	MOV	r0,#1
	CMP	r7,r0
	JLS	.L713
	MOV	r0,#0
.L713:
	LJMP	r8
.LVL461:
.LM736:
	ADD	r6,#20
.LVL462:
.LM737:
	CMP	r7,#0
	JNZ	.L721
.LM738:
// inline asm begin
	// 1533 "../src/kf32a9k1xxx_usart.c" 1
	CLR [r6], #5
	// 0 "" 2
.LM739:
// inline asm end
	POP	{r6, r7, r8}
	.cfi_remember_state
	.cfi_def_cfa_offset 4
.LVL463:
	POP	lr
	.cfi_def_cfa_offset 0
	JMP	lr
.LVL464:
.L721:
	.cfi_restore_state
.LM740:
// inline asm begin
	// 1528 "../src/kf32a9k1xxx_usart.c" 1
	SET [r6], #5
	// 0 "" 2
.LM741:
// inline asm end
	POP	{r6, r7, r8}
	.cfi_def_cfa_offset 4
.LVL465:
	POP	lr
	.cfi_def_cfa_offset 0
	JMP	lr
	.cfi_endproc
.LFE55:
	.size	USART_WeakUP_INT_Enable, .-USART_WeakUP_INT_Enable
	.section .text$USART_Transmit_ERROR_INT_Enable
	.type	.text$USART_Transmit_ERROR_INT_Enable$scode_local_56, @function
	.text$USART_Transmit_ERROR_INT_Enable$scode_local_56:
	.align	1
	.export	USART_Transmit_ERROR_INT_Enable
	.type	USART_Transmit_ERROR_INT_Enable, @function
USART_Transmit_ERROR_INT_Enable:
.LFB56:
.LM742:
	.cfi_startproc
.LVL466:
	PUSH	{r6, r7, r8, lr}
	.cfi_def_cfa_offset 16
	MOV	r6,r0
	MOV	r7,r1
.LM743:
	MOV	r0,#1
.LVL467:
	LD	r5,#1073744256
	CMP	r6,r5
	JZ	.L723
.LM744:
	LD	r5,#1073744384
	CMP	r6,r5
	JZ	.L723
.LM745:
	LD	r5,#1073744512
	CMP	r6,r5
	JZ	.L723
	LD	r5,#1073744768
	CMP	r6,r5
	JZ	.L723
	LD	r5,#1073749632
	CMP	r6,r5
	JZ	.L723
	LD	r5,#1073749888
	CMP	r6,r5
	JZ	.L723
	MOV	r0,#0
.L723:
.LM746:
	LD	r5,#CHECK_RESTRICTION
	MOV	r8,r5
	LJMP	r5
.LVL468:
.LM747:
	MOV	r0,#1
	CMP	r7,r0
	JLS	.L725
	MOV	r0,#0
.L725:
	LJMP	r8
.LVL469:
.LM748:
	ADD	r6,#20
.LVL470:
.LM749:
	CMP	r7,#0
	JNZ	.L733
.LM750:
// inline asm begin
	// 1559 "../src/kf32a9k1xxx_usart.c" 1
	CLR [r6], #6
	// 0 "" 2
.LM751:
// inline asm end
	POP	{r6, r7, r8}
	.cfi_remember_state
	.cfi_def_cfa_offset 4
.LVL471:
	POP	lr
	.cfi_def_cfa_offset 0
	JMP	lr
.LVL472:
.L733:
	.cfi_restore_state
.LM752:
// inline asm begin
	// 1554 "../src/kf32a9k1xxx_usart.c" 1
	SET [r6], #6
	// 0 "" 2
.LM753:
// inline asm end
	POP	{r6, r7, r8}
	.cfi_def_cfa_offset 4
.LVL473:
	POP	lr
	.cfi_def_cfa_offset 0
	JMP	lr
	.cfi_endproc
.LFE56:
	.size	USART_Transmit_ERROR_INT_Enable, .-USART_Transmit_ERROR_INT_Enable
	.section .text$USART_Receive_ERROR_INT_Enable
	.type	.text$USART_Receive_ERROR_INT_Enable$scode_local_57, @function
	.text$USART_Receive_ERROR_INT_Enable$scode_local_57:
	.align	1
	.export	USART_Receive_ERROR_INT_Enable
	.type	USART_Receive_ERROR_INT_Enable, @function
USART_Receive_ERROR_INT_Enable:
.LFB57:
.LM754:
	.cfi_startproc
.LVL474:
	PUSH	{r6, r7, r8, lr}
	.cfi_def_cfa_offset 16
	MOV	r6,r0
	MOV	r7,r1
.LM755:
	MOV	r0,#1
.LVL475:
	LD	r5,#1073744256
	CMP	r6,r5
	JZ	.L735
.LM756:
	LD	r5,#1073744384
	CMP	r6,r5
	JZ	.L735
.LM757:
	LD	r5,#1073744512
	CMP	r6,r5
	JZ	.L735
	LD	r5,#1073744768
	CMP	r6,r5
	JZ	.L735
	LD	r5,#1073749632
	CMP	r6,r5
	JZ	.L735
	LD	r5,#1073749888
	CMP	r6,r5
	JZ	.L735
	MOV	r0,#0
.L735:
.LM758:
	LD	r5,#CHECK_RESTRICTION
	MOV	r8,r5
	LJMP	r5
.LVL476:
.LM759:
	MOV	r0,#1
	CMP	r7,r0
	JLS	.L737
	MOV	r0,#0
.L737:
	LJMP	r8
.LVL477:
.LM760:
	ADD	r6,#20
.LVL478:
.LM761:
	CMP	r7,#0
	JNZ	.L745
.LM762:
// inline asm begin
	// 1585 "../src/kf32a9k1xxx_usart.c" 1
	CLR [r6], #7
	// 0 "" 2
.LM763:
// inline asm end
	POP	{r6, r7, r8}
	.cfi_remember_state
	.cfi_def_cfa_offset 4
.LVL479:
	POP	lr
	.cfi_def_cfa_offset 0
	JMP	lr
.LVL480:
.L745:
	.cfi_restore_state
.LM764:
// inline asm begin
	// 1580 "../src/kf32a9k1xxx_usart.c" 1
	SET [r6], #7
	// 0 "" 2
.LM765:
// inline asm end
	POP	{r6, r7, r8}
	.cfi_def_cfa_offset 4
.LVL481:
	POP	lr
	.cfi_def_cfa_offset 0
	JMP	lr
	.cfi_endproc
.LFE57:
	.size	USART_Receive_ERROR_INT_Enable, .-USART_Receive_ERROR_INT_Enable
	.section .text$USART_CTS_INT_Enable
	.type	.text$USART_CTS_INT_Enable$scode_local_58, @function
	.text$USART_CTS_INT_Enable$scode_local_58:
	.align	1
	.export	USART_CTS_INT_Enable
	.type	USART_CTS_INT_Enable, @function
USART_CTS_INT_Enable:
.LFB58:
.LM766:
	.cfi_startproc
.LVL482:
	PUSH	{r6, r7, r8, lr}
	.cfi_def_cfa_offset 16
	MOV	r6,r0
	MOV	r7,r1
.LM767:
	MOV	r0,#1
.LVL483:
	LD	r5,#1073744256
	CMP	r6,r5
	JZ	.L747
.LM768:
	LD	r5,#1073744384
	CMP	r6,r5
	JZ	.L747
.LM769:
	LD	r5,#1073744512
	CMP	r6,r5
	JZ	.L747
	LD	r5,#1073744768
	CMP	r6,r5
	JZ	.L747
	LD	r5,#1073749632
	CMP	r6,r5
	JZ	.L747
	LD	r5,#1073749888
	CMP	r6,r5
	JZ	.L747
	MOV	r0,#0
.L747:
.LM770:
	LD	r5,#CHECK_RESTRICTION
	MOV	r8,r5
	LJMP	r5
.LVL484:
.LM771:
	MOV	r0,#1
	CMP	r7,r0
	JLS	.L749
	MOV	r0,#0
.L749:
	LJMP	r8
.LVL485:
.LM772:
	ADD	r6,#20
.LVL486:
.LM773:
	CMP	r7,#0
	JNZ	.L757
.LM774:
// inline asm begin
	// 1611 "../src/kf32a9k1xxx_usart.c" 1
	CLR [r6], #8
	// 0 "" 2
.LM775:
// inline asm end
	POP	{r6, r7, r8}
	.cfi_remember_state
	.cfi_def_cfa_offset 4
.LVL487:
	POP	lr
	.cfi_def_cfa_offset 0
	JMP	lr
.LVL488:
.L757:
	.cfi_restore_state
.LM776:
// inline asm begin
	// 1606 "../src/kf32a9k1xxx_usart.c" 1
	SET [r6], #8
	// 0 "" 2
.LM777:
// inline asm end
	POP	{r6, r7, r8}
	.cfi_def_cfa_offset 4
.LVL489:
	POP	lr
	.cfi_def_cfa_offset 0
	JMP	lr
	.cfi_endproc
.LFE58:
	.size	USART_CTS_INT_Enable, .-USART_CTS_INT_Enable
	.section .text$USART_RDR_INT_Enable
	.type	.text$USART_RDR_INT_Enable$scode_local_59, @function
	.text$USART_RDR_INT_Enable$scode_local_59:
	.align	1
	.export	USART_RDR_INT_Enable
	.type	USART_RDR_INT_Enable, @function
USART_RDR_INT_Enable:
.LFB59:
.LM778:
	.cfi_startproc
.LVL490:
	PUSH	{r6, r7, r8, lr}
	.cfi_def_cfa_offset 16
	MOV	r6,r0
	MOV	r7,r1
.LM779:
	MOV	r0,#1
.LVL491:
	LD	r5,#1073744256
	CMP	r6,r5
	JZ	.L759
.LM780:
	LD	r5,#1073744384
	CMP	r6,r5
	JZ	.L759
.LM781:
	LD	r5,#1073744512
	CMP	r6,r5
	JZ	.L759
	LD	r5,#1073744768
	CMP	r6,r5
	JZ	.L759
	LD	r5,#1073749632
	CMP	r6,r5
	JZ	.L759
	LD	r5,#1073749888
	CMP	r6,r5
	JZ	.L759
	MOV	r0,#0
.L759:
.LM782:
	LD	r5,#CHECK_RESTRICTION
	MOV	r8,r5
	LJMP	r5
.LVL492:
.LM783:
	MOV	r0,#1
	CMP	r7,r0
	JLS	.L761
	MOV	r0,#0
.L761:
	LJMP	r8
.LVL493:
.LM784:
	ADD	r6,#20
.LVL494:
.LM785:
	CMP	r7,#0
	JNZ	.L769
.LM786:
// inline asm begin
	// 1637 "../src/kf32a9k1xxx_usart.c" 1
	CLR [r6], #9
	// 0 "" 2
.LM787:
// inline asm end
	POP	{r6, r7, r8}
	.cfi_remember_state
	.cfi_def_cfa_offset 4
.LVL495:
	POP	lr
	.cfi_def_cfa_offset 0
	JMP	lr
.LVL496:
.L769:
	.cfi_restore_state
.LM788:
// inline asm begin
	// 1632 "../src/kf32a9k1xxx_usart.c" 1
	SET [r6], #9
	// 0 "" 2
.LM789:
// inline asm end
	POP	{r6, r7, r8}
	.cfi_def_cfa_offset 4
.LVL497:
	POP	lr
	.cfi_def_cfa_offset 0
	JMP	lr
	.cfi_endproc
.LFE59:
	.size	USART_RDR_INT_Enable, .-USART_RDR_INT_Enable
	.section .text$USART_TFE_INT_Enable
	.type	.text$USART_TFE_INT_Enable$scode_local_60, @function
	.text$USART_TFE_INT_Enable$scode_local_60:
	.align	1
	.export	USART_TFE_INT_Enable
	.type	USART_TFE_INT_Enable, @function
USART_TFE_INT_Enable:
.LFB60:
.LM790:
	.cfi_startproc
.LVL498:
	PUSH	{r6, r7, r8, lr}
	.cfi_def_cfa_offset 16
	MOV	r6,r0
	MOV	r7,r1
.LM791:
	MOV	r0,#1
.LVL499:
	LD	r5,#1073744256
	CMP	r6,r5
	JZ	.L771
.LM792:
	LD	r5,#1073744384
	CMP	r6,r5
	JZ	.L771
.LM793:
	LD	r5,#1073744512
	CMP	r6,r5
	JZ	.L771
	LD	r5,#1073744768
	CMP	r6,r5
	JZ	.L771
	LD	r5,#1073749632
	CMP	r6,r5
	JZ	.L771
	LD	r5,#1073749888
	CMP	r6,r5
	JZ	.L771
	MOV	r0,#0
.L771:
.LM794:
	LD	r5,#CHECK_RESTRICTION
	MOV	r8,r5
	LJMP	r5
.LVL500:
.LM795:
	MOV	r0,#1
	CMP	r7,r0
	JLS	.L773
	MOV	r0,#0
.L773:
	LJMP	r8
.LVL501:
.LM796:
	ADD	r6,#20
.LVL502:
.LM797:
	CMP	r7,#0
	JNZ	.L781
.LM798:
// inline asm begin
	// 1663 "../src/kf32a9k1xxx_usart.c" 1
	CLR [r6], #10
	// 0 "" 2
.LM799:
// inline asm end
	POP	{r6, r7, r8}
	.cfi_remember_state
	.cfi_def_cfa_offset 4
.LVL503:
	POP	lr
	.cfi_def_cfa_offset 0
	JMP	lr
.LVL504:
.L781:
	.cfi_restore_state
.LM800:
// inline asm begin
	// 1658 "../src/kf32a9k1xxx_usart.c" 1
	SET [r6], #10
	// 0 "" 2
.LM801:
// inline asm end
	POP	{r6, r7, r8}
	.cfi_def_cfa_offset 4
.LVL505:
	POP	lr
	.cfi_def_cfa_offset 0
	JMP	lr
	.cfi_endproc
.LFE60:
	.size	USART_TFE_INT_Enable, .-USART_TFE_INT_Enable
	.section .text$USART_TXE_INT_Enable
	.type	.text$USART_TXE_INT_Enable$scode_local_61, @function
	.text$USART_TXE_INT_Enable$scode_local_61:
	.align	1
	.export	USART_TXE_INT_Enable
	.type	USART_TXE_INT_Enable, @function
USART_TXE_INT_Enable:
.LFB61:
.LM802:
	.cfi_startproc
.LVL506:
	PUSH	{r6, r7, r8, lr}
	.cfi_def_cfa_offset 16
	MOV	r6,r0
	MOV	r7,r1
.LM803:
	MOV	r0,#1
.LVL507:
	LD	r5,#1073744256
	CMP	r6,r5
	JZ	.L783
.LM804:
	LD	r5,#1073744384
	CMP	r6,r5
	JZ	.L783
.LM805:
	LD	r5,#1073744512
	CMP	r6,r5
	JZ	.L783
	LD	r5,#1073744768
	CMP	r6,r5
	JZ	.L783
	LD	r5,#1073749632
	CMP	r6,r5
	JZ	.L783
	LD	r5,#1073749888
	CMP	r6,r5
	JZ	.L783
	MOV	r0,#0
.L783:
.LM806:
	LD	r5,#CHECK_RESTRICTION
	MOV	r8,r5
	LJMP	r5
.LVL508:
.LM807:
	MOV	r0,#1
	CMP	r7,r0
	JLS	.L785
	MOV	r0,#0
.L785:
	LJMP	r8
.LVL509:
.LM808:
	ADD	r6,#20
.LVL510:
.LM809:
	CMP	r7,#0
	JNZ	.L793
.LM810:
// inline asm begin
	// 1689 "../src/kf32a9k1xxx_usart.c" 1
	CLR [r6], #11
	// 0 "" 2
.LM811:
// inline asm end
	POP	{r6, r7, r8}
	.cfi_remember_state
	.cfi_def_cfa_offset 4
.LVL511:
	POP	lr
	.cfi_def_cfa_offset 0
	JMP	lr
.LVL512:
.L793:
	.cfi_restore_state
.LM812:
// inline asm begin
	// 1684 "../src/kf32a9k1xxx_usart.c" 1
	SET [r6], #11
	// 0 "" 2
.LM813:
// inline asm end
	POP	{r6, r7, r8}
	.cfi_def_cfa_offset 4
.LVL513:
	POP	lr
	.cfi_def_cfa_offset 0
	JMP	lr
	.cfi_endproc
.LFE61:
	.size	USART_TXE_INT_Enable, .-USART_TXE_INT_Enable
	.section .text$USART_DMA_Read_Receive_Enable
	.type	.text$USART_DMA_Read_Receive_Enable$scode_local_62, @function
	.text$USART_DMA_Read_Receive_Enable$scode_local_62:
	.align	1
	.export	USART_DMA_Read_Receive_Enable
	.type	USART_DMA_Read_Receive_Enable, @function
USART_DMA_Read_Receive_Enable:
.LFB62:
.LM814:
	.cfi_startproc
.LVL514:
	PUSH	{r6, r7, r8, lr}
	.cfi_def_cfa_offset 16
	MOV	r6,r0
	MOV	r7,r1
.LM815:
	MOV	r0,#1
.LVL515:
	LD	r5,#1073744256
	CMP	r6,r5
	JZ	.L795
.LM816:
	LD	r5,#1073744384
	CMP	r6,r5
	JZ	.L795
.LM817:
	LD	r5,#1073744512
	CMP	r6,r5
	JZ	.L795
	LD	r5,#1073744768
	CMP	r6,r5
	JZ	.L795
	LD	r5,#1073749632
	CMP	r6,r5
	JZ	.L795
	LD	r5,#1073749888
	CMP	r6,r5
	JZ	.L795
	MOV	r0,#0
.L795:
.LM818:
	LD	r5,#CHECK_RESTRICTION
	MOV	r8,r5
	LJMP	r5
.LVL516:
.LM819:
	MOV	r0,#1
	CMP	r7,r0
	JLS	.L797
	MOV	r0,#0
.L797:
	LJMP	r8
.LVL517:
.LM820:
	ADD	r6,#20
.LVL518:
.LM821:
	CMP	r7,#0
	JNZ	.L805
.LM822:
// inline asm begin
	// 1715 "../src/kf32a9k1xxx_usart.c" 1
	CLR [r6], #16
	// 0 "" 2
.LM823:
// inline asm end
	POP	{r6, r7, r8}
	.cfi_remember_state
	.cfi_def_cfa_offset 4
.LVL519:
	POP	lr
	.cfi_def_cfa_offset 0
	JMP	lr
.LVL520:
.L805:
	.cfi_restore_state
.LM824:
// inline asm begin
	// 1710 "../src/kf32a9k1xxx_usart.c" 1
	SET [r6], #16
	// 0 "" 2
.LM825:
// inline asm end
	POP	{r6, r7, r8}
	.cfi_def_cfa_offset 4
.LVL521:
	POP	lr
	.cfi_def_cfa_offset 0
	JMP	lr
	.cfi_endproc
.LFE62:
	.size	USART_DMA_Read_Receive_Enable, .-USART_DMA_Read_Receive_Enable
	.section .text$USART_DMA_Write_Transmit_Enable
	.type	.text$USART_DMA_Write_Transmit_Enable$scode_local_63, @function
	.text$USART_DMA_Write_Transmit_Enable$scode_local_63:
	.align	1
	.export	USART_DMA_Write_Transmit_Enable
	.type	USART_DMA_Write_Transmit_Enable, @function
USART_DMA_Write_Transmit_Enable:
.LFB63:
.LM826:
	.cfi_startproc
.LVL522:
	PUSH	{r6, r7, r8, lr}
	.cfi_def_cfa_offset 16
	MOV	r6,r0
	MOV	r7,r1
.LM827:
	MOV	r0,#1
.LVL523:
	LD	r5,#1073744256
	CMP	r6,r5
	JZ	.L807
.LM828:
	LD	r5,#1073744384
	CMP	r6,r5
	JZ	.L807
.LM829:
	LD	r5,#1073744512
	CMP	r6,r5
	JZ	.L807
	LD	r5,#1073744768
	CMP	r6,r5
	JZ	.L807
	LD	r5,#1073749632
	CMP	r6,r5
	JZ	.L807
	LD	r5,#1073749888
	CMP	r6,r5
	JZ	.L807
	MOV	r0,#0
.L807:
.LM830:
	LD	r5,#CHECK_RESTRICTION
	MOV	r8,r5
	LJMP	r5
.LVL524:
.LM831:
	MOV	r0,#1
	CMP	r7,r0
	JLS	.L809
	MOV	r0,#0
.L809:
	LJMP	r8
.LVL525:
.LM832:
	ADD	r6,#20
.LVL526:
.LM833:
	CMP	r7,#0
	JNZ	.L817
.LM834:
// inline asm begin
	// 1741 "../src/kf32a9k1xxx_usart.c" 1
	CLR [r6], #17
	// 0 "" 2
.LM835:
// inline asm end
	POP	{r6, r7, r8}
	.cfi_remember_state
	.cfi_def_cfa_offset 4
.LVL527:
	POP	lr
	.cfi_def_cfa_offset 0
	JMP	lr
.LVL528:
.L817:
	.cfi_restore_state
.LM836:
// inline asm begin
	// 1736 "../src/kf32a9k1xxx_usart.c" 1
	SET [r6], #17
	// 0 "" 2
.LM837:
// inline asm end
	POP	{r6, r7, r8}
	.cfi_def_cfa_offset 4
.LVL529:
	POP	lr
	.cfi_def_cfa_offset 0
	JMP	lr
	.cfi_endproc
.LFE63:
	.size	USART_DMA_Write_Transmit_Enable, .-USART_DMA_Write_Transmit_Enable
	.section .text$USART_IDLE_INT_Enable
	.type	.text$USART_IDLE_INT_Enable$scode_local_64, @function
	.text$USART_IDLE_INT_Enable$scode_local_64:
	.align	1
	.export	USART_IDLE_INT_Enable
	.type	USART_IDLE_INT_Enable, @function
USART_IDLE_INT_Enable:
.LFB64:
.LM838:
	.cfi_startproc
.LVL530:
	PUSH	{r6, r7, r8, lr}
	.cfi_def_cfa_offset 16
	MOV	r6,r0
	MOV	r7,r1
.LM839:
	MOV	r0,#1
.LVL531:
	LD	r5,#1073744256
	CMP	r6,r5
	JZ	.L819
.LM840:
	LD	r5,#1073744384
	CMP	r6,r5
	JZ	.L819
.LM841:
	LD	r5,#1073744512
	CMP	r6,r5
	JZ	.L819
	LD	r5,#1073744768
	CMP	r6,r5
	JZ	.L819
	LD	r5,#1073749632
	CMP	r6,r5
	JZ	.L819
	LD	r5,#1073749888
	CMP	r6,r5
	JZ	.L819
	MOV	r0,#0
.L819:
.LM842:
	LD	r5,#CHECK_RESTRICTION
	MOV	r8,r5
	LJMP	r5
.LVL532:
.LM843:
	MOV	r0,#1
	CMP	r7,r0
	JLS	.L821
	MOV	r0,#0
.L821:
	LJMP	r8
.LVL533:
.LM844:
	ADD	r6,#20
.LVL534:
.LM845:
	CMP	r7,#0
	JNZ	.L829
.LM846:
// inline asm begin
	// 1767 "../src/kf32a9k1xxx_usart.c" 1
	CLR [r6], #12
	// 0 "" 2
.LM847:
// inline asm end
	POP	{r6, r7, r8}
	.cfi_remember_state
	.cfi_def_cfa_offset 4
.LVL535:
	POP	lr
	.cfi_def_cfa_offset 0
	JMP	lr
.LVL536:
.L829:
	.cfi_restore_state
.LM848:
// inline asm begin
	// 1762 "../src/kf32a9k1xxx_usart.c" 1
	SET [r6], #12
	// 0 "" 2
.LM849:
// inline asm end
	POP	{r6, r7, r8}
	.cfi_def_cfa_offset 4
.LVL537:
	POP	lr
	.cfi_def_cfa_offset 0
	JMP	lr
	.cfi_endproc
.LFE64:
	.size	USART_IDLE_INT_Enable, .-USART_IDLE_INT_Enable
	.section .text$USART_Get_Receive_Overflow_Flag
	.type	.text$USART_Get_Receive_Overflow_Flag$scode_local_65, @function
	.text$USART_Get_Receive_Overflow_Flag$scode_local_65:
	.align	1
	.export	USART_Get_Receive_Overflow_Flag
	.type	USART_Get_Receive_Overflow_Flag, @function
USART_Get_Receive_Overflow_Flag:
.LFB65:
.LM850:
	.cfi_startproc
.LVL538:
	PUSH	{r6, lr}
	.cfi_def_cfa_offset 8
	MOV	r6,r0
.LM851:
	MOV	r0,#1
.LVL539:
	LD	r5,#1073744256
	CMP	r6,r5
	JZ	.L831
.LM852:
	LD	r5,#1073744384
	CMP	r6,r5
	JZ	.L831
.LM853:
	LD	r5,#1073744512
	CMP	r6,r5
	JZ	.L831
	LD	r5,#1073744768
	CMP	r6,r5
	JZ	.L831
	LD	r5,#1073749632
	CMP	r6,r5
	JZ	.L831
	LD	r5,#1073749888
	CMP	r6,r5
	JZ	.L831
	MOV	r0,#0
.L831:
.LM854:
	LD	r5,#CHECK_RESTRICTION
	LJMP	r5
.LVL540:
.LM855:
	LD.w	r0,[r6+#2]
.LM856:
	MOV	r5,#1
	ANL	r0,r0,r5
	POP	r6
	.cfi_def_cfa_offset 4
.LVL541:
	POP	lr
	.cfi_def_cfa_offset 0
	JMP	lr
	.cfi_endproc
.LFE65:
	.size	USART_Get_Receive_Overflow_Flag, .-USART_Get_Receive_Overflow_Flag
	.section .text$USART_Get_Parity_ERROR_Flag
	.type	.text$USART_Get_Parity_ERROR_Flag$scode_local_66, @function
	.text$USART_Get_Parity_ERROR_Flag$scode_local_66:
	.align	1
	.export	USART_Get_Parity_ERROR_Flag
	.type	USART_Get_Parity_ERROR_Flag, @function
USART_Get_Parity_ERROR_Flag:
.LFB66:
.LM857:
	.cfi_startproc
.LVL542:
	PUSH	{r6, lr}
	.cfi_def_cfa_offset 8
	MOV	r6,r0
.LM858:
	MOV	r0,#1
.LVL543:
	LD	r5,#1073744256
	CMP	r6,r5
	JZ	.L839
.LM859:
	LD	r5,#1073744384
	CMP	r6,r5
	JZ	.L839
.LM860:
	LD	r5,#1073744512
	CMP	r6,r5
	JZ	.L839
	LD	r5,#1073744768
	CMP	r6,r5
	JZ	.L839
	LD	r5,#1073749632
	CMP	r6,r5
	JZ	.L839
	LD	r5,#1073749888
	CMP	r6,r5
	JZ	.L839
	MOV	r0,#0
.L839:
.LM861:
	LD	r5,#CHECK_RESTRICTION
	LJMP	r5
.LVL544:
.LM862:
	LD.w	r0,[r6+#2]
	LSR	r0,#1
.LM863:
	MOV	r5,#1
	ANL	r0,r0,r5
	POP	r6
	.cfi_def_cfa_offset 4
.LVL545:
	POP	lr
	.cfi_def_cfa_offset 0
	JMP	lr
	.cfi_endproc
.LFE66:
	.size	USART_Get_Parity_ERROR_Flag, .-USART_Get_Parity_ERROR_Flag
	.section .text$USART_Get_Frame_ERROR_Flag
	.type	.text$USART_Get_Frame_ERROR_Flag$scode_local_67, @function
	.text$USART_Get_Frame_ERROR_Flag$scode_local_67:
	.align	1
	.export	USART_Get_Frame_ERROR_Flag
	.type	USART_Get_Frame_ERROR_Flag, @function
USART_Get_Frame_ERROR_Flag:
.LFB67:
.LM864:
	.cfi_startproc
.LVL546:
	PUSH	{r6, lr}
	.cfi_def_cfa_offset 8
	MOV	r6,r0
.LM865:
	MOV	r0,#1
.LVL547:
	LD	r5,#1073744256
	CMP	r6,r5
	JZ	.L847
.LM866:
	LD	r5,#1073744384
	CMP	r6,r5
	JZ	.L847
.LM867:
	LD	r5,#1073744512
	CMP	r6,r5
	JZ	.L847
	LD	r5,#1073744768
	CMP	r6,r5
	JZ	.L847
	LD	r5,#1073749632
	CMP	r6,r5
	JZ	.L847
	LD	r5,#1073749888
	CMP	r6,r5
	JZ	.L847
	MOV	r0,#0
.L847:
.LM868:
	LD	r5,#CHECK_RESTRICTION
	LJMP	r5
.LVL548:
.LM869:
	LD.w	r0,[r6+#2]
	LSR	r0,#2
.LM870:
	MOV	r5,#1
	ANL	r0,r0,r5
	POP	r6
	.cfi_def_cfa_offset 4
.LVL549:
	POP	lr
	.cfi_def_cfa_offset 0
	JMP	lr
	.cfi_endproc
.LFE67:
	.size	USART_Get_Frame_ERROR_Flag, .-USART_Get_Frame_ERROR_Flag
	.section .text$USART_Get_Blank_Flag
	.type	.text$USART_Get_Blank_Flag$scode_local_68, @function
	.text$USART_Get_Blank_Flag$scode_local_68:
	.align	1
	.export	USART_Get_Blank_Flag
	.type	USART_Get_Blank_Flag, @function
USART_Get_Blank_Flag:
.LFB68:
.LM871:
	.cfi_startproc
.LVL550:
	PUSH	{r6, lr}
	.cfi_def_cfa_offset 8
	MOV	r6,r0
.LM872:
	MOV	r0,#1
.LVL551:
	LD	r5,#1073744256
	CMP	r6,r5
	JZ	.L855
.LM873:
	LD	r5,#1073744384
	CMP	r6,r5
	JZ	.L855
.LM874:
	LD	r5,#1073744512
	CMP	r6,r5
	JZ	.L855
	LD	r5,#1073744768
	CMP	r6,r5
	JZ	.L855
	LD	r5,#1073749632
	CMP	r6,r5
	JZ	.L855
	LD	r5,#1073749888
	CMP	r6,r5
	JZ	.L855
	MOV	r0,#0
.L855:
.LM875:
	LD	r5,#CHECK_RESTRICTION
	LJMP	r5
.LVL552:
.LM876:
	LD.w	r0,[r6+#2]
	LSR	r0,#3
.LM877:
	MOV	r5,#1
	ANL	r0,r0,r5
	POP	r6
	.cfi_def_cfa_offset 4
.LVL553:
	POP	lr
	.cfi_def_cfa_offset 0
	JMP	lr
	.cfi_endproc
.LFE68:
	.size	USART_Get_Blank_Flag, .-USART_Get_Blank_Flag
	.section .text$USART_Get_Auto_Baudrate_TimeOver_Flag
	.type	.text$USART_Get_Auto_Baudrate_TimeOver_Flag$scode_local_69, @function
	.text$USART_Get_Auto_Baudrate_TimeOver_Flag$scode_local_69:
	.align	1
	.export	USART_Get_Auto_Baudrate_TimeOver_Flag
	.type	USART_Get_Auto_Baudrate_TimeOver_Flag, @function
USART_Get_Auto_Baudrate_TimeOver_Flag:
.LFB69:
.LM878:
	.cfi_startproc
.LVL554:
	PUSH	{r6, lr}
	.cfi_def_cfa_offset 8
	MOV	r6,r0
.LM879:
	MOV	r0,#1
.LVL555:
	LD	r5,#1073744256
	CMP	r6,r5
	JZ	.L863
.LM880:
	LD	r5,#1073744384
	CMP	r6,r5
	JZ	.L863
.LM881:
	LD	r5,#1073744512
	CMP	r6,r5
	JZ	.L863
	LD	r5,#1073744768
	CMP	r6,r5
	JZ	.L863
	LD	r5,#1073749632
	CMP	r6,r5
	JZ	.L863
	LD	r5,#1073749888
	CMP	r6,r5
	JZ	.L863
	MOV	r0,#0
.L863:
.LM882:
	LD	r5,#CHECK_RESTRICTION
	LJMP	r5
.LVL556:
.LM883:
	LD.w	r0,[r6+#2]
	LSR	r0,#4
.LM884:
	MOV	r5,#1
	ANL	r0,r0,r5
	POP	r6
	.cfi_def_cfa_offset 4
.LVL557:
	POP	lr
	.cfi_def_cfa_offset 0
	JMP	lr
	.cfi_endproc
.LFE69:
	.size	USART_Get_Auto_Baudrate_TimeOver_Flag, .-USART_Get_Auto_Baudrate_TimeOver_Flag
	.section .text$USART_Get_WeakUP_Flag
	.type	.text$USART_Get_WeakUP_Flag$scode_local_70, @function
	.text$USART_Get_WeakUP_Flag$scode_local_70:
	.align	1
	.export	USART_Get_WeakUP_Flag
	.type	USART_Get_WeakUP_Flag, @function
USART_Get_WeakUP_Flag:
.LFB70:
.LM885:
	.cfi_startproc
.LVL558:
	PUSH	{r6, lr}
	.cfi_def_cfa_offset 8
	MOV	r6,r0
.LM886:
	MOV	r0,#1
.LVL559:
	LD	r5,#1073744256
	CMP	r6,r5
	JZ	.L871
.LM887:
	LD	r5,#1073744384
	CMP	r6,r5
	JZ	.L871
.LM888:
	LD	r5,#1073744512
	CMP	r6,r5
	JZ	.L871
	LD	r5,#1073744768
	CMP	r6,r5
	JZ	.L871
	LD	r5,#1073749632
	CMP	r6,r5
	JZ	.L871
	LD	r5,#1073749888
	CMP	r6,r5
	JZ	.L871
	MOV	r0,#0
.L871:
.LM889:
	LD	r5,#CHECK_RESTRICTION
	LJMP	r5
.LVL560:
.LM890:
	LD.w	r0,[r6+#2]
	LSR	r0,#5
.LM891:
	MOV	r5,#1
	ANL	r0,r0,r5
	POP	r6
	.cfi_def_cfa_offset 4
.LVL561:
	POP	lr
	.cfi_def_cfa_offset 0
	JMP	lr
	.cfi_endproc
.LFE70:
	.size	USART_Get_WeakUP_Flag, .-USART_Get_WeakUP_Flag
	.section .text$USART_Get_7816Transmit_ERROR_Flag
	.type	.text$USART_Get_7816Transmit_ERROR_Flag$scode_local_71, @function
	.text$USART_Get_7816Transmit_ERROR_Flag$scode_local_71:
	.align	1
	.export	USART_Get_7816Transmit_ERROR_Flag
	.type	USART_Get_7816Transmit_ERROR_Flag, @function
USART_Get_7816Transmit_ERROR_Flag:
.LFB71:
.LM892:
	.cfi_startproc
.LVL562:
	PUSH	{r6, lr}
	.cfi_def_cfa_offset 8
	MOV	r6,r0
.LM893:
	MOV	r0,#1
.LVL563:
	LD	r5,#1073744256
	CMP	r6,r5
	JZ	.L879
.LM894:
	LD	r5,#1073744384
	CMP	r6,r5
	JZ	.L879
.LM895:
	LD	r5,#1073744512
	CMP	r6,r5
	JZ	.L879
	LD	r5,#1073744768
	CMP	r6,r5
	JZ	.L879
	LD	r5,#1073749632
	CMP	r6,r5
	JZ	.L879
	LD	r5,#1073749888
	CMP	r6,r5
	JZ	.L879
	MOV	r0,#0
.L879:
.LM896:
	LD	r5,#CHECK_RESTRICTION
	LJMP	r5
.LVL564:
.LM897:
	LD.w	r0,[r6+#2]
	LSR	r0,#6
.LM898:
	MOV	r5,#1
	ANL	r0,r0,r5
	POP	r6
	.cfi_def_cfa_offset 4
.LVL565:
	POP	lr
	.cfi_def_cfa_offset 0
	JMP	lr
	.cfi_endproc
.LFE71:
	.size	USART_Get_7816Transmit_ERROR_Flag, .-USART_Get_7816Transmit_ERROR_Flag
	.section .text$USART_Get_7816Receive_ERROR_Flag
	.type	.text$USART_Get_7816Receive_ERROR_Flag$scode_local_72, @function
	.text$USART_Get_7816Receive_ERROR_Flag$scode_local_72:
	.align	1
	.export	USART_Get_7816Receive_ERROR_Flag
	.type	USART_Get_7816Receive_ERROR_Flag, @function
USART_Get_7816Receive_ERROR_Flag:
.LFB72:
.LM899:
	.cfi_startproc
.LVL566:
	PUSH	{r6, lr}
	.cfi_def_cfa_offset 8
	MOV	r6,r0
.LM900:
	MOV	r0,#1
.LVL567:
	LD	r5,#1073744256
	CMP	r6,r5
	JZ	.L887
.LM901:
	LD	r5,#1073744384
	CMP	r6,r5
	JZ	.L887
.LM902:
	LD	r5,#1073744512
	CMP	r6,r5
	JZ	.L887
	LD	r5,#1073744768
	CMP	r6,r5
	JZ	.L887
	LD	r5,#1073749632
	CMP	r6,r5
	JZ	.L887
	LD	r5,#1073749888
	CMP	r6,r5
	JZ	.L887
	MOV	r0,#0
.L887:
.LM903:
	LD	r5,#CHECK_RESTRICTION
	LJMP	r5
.LVL568:
.LM904:
	LD.w	r0,[r6+#2]
	LSR	r0,#7
.LM905:
	MOV	r5,#1
	ANL	r0,r0,r5
	POP	r6
	.cfi_def_cfa_offset 4
.LVL569:
	POP	lr
	.cfi_def_cfa_offset 0
	JMP	lr
	.cfi_endproc
.LFE72:
	.size	USART_Get_7816Receive_ERROR_Flag, .-USART_Get_7816Receive_ERROR_Flag
	.section .text$USART_Get_CTS_Flag
	.type	.text$USART_Get_CTS_Flag$scode_local_73, @function
	.text$USART_Get_CTS_Flag$scode_local_73:
	.align	1
	.export	USART_Get_CTS_Flag
	.type	USART_Get_CTS_Flag, @function
USART_Get_CTS_Flag:
.LFB73:
.LM906:
	.cfi_startproc
.LVL570:
	PUSH	{r6, lr}
	.cfi_def_cfa_offset 8
	MOV	r6,r0
.LM907:
	MOV	r0,#1
.LVL571:
	LD	r5,#1073744256
	CMP	r6,r5
	JZ	.L895
.LM908:
	LD	r5,#1073744384
	CMP	r6,r5
	JZ	.L895
.LM909:
	LD	r5,#1073744512
	CMP	r6,r5
	JZ	.L895
	LD	r5,#1073744768
	CMP	r6,r5
	JZ	.L895
	LD	r5,#1073749632
	CMP	r6,r5
	JZ	.L895
	LD	r5,#1073749888
	CMP	r6,r5
	JZ	.L895
	MOV	r0,#0
.L895:
.LM910:
	LD	r5,#CHECK_RESTRICTION
	LJMP	r5
.LVL572:
.LM911:
	LD.w	r0,[r6+#2]
	LSR	r0,#8
.LM912:
	MOV	r5,#1
	ANL	r0,r0,r5
	POP	r6
	.cfi_def_cfa_offset 4
.LVL573:
	POP	lr
	.cfi_def_cfa_offset 0
	JMP	lr
	.cfi_endproc
.LFE73:
	.size	USART_Get_CTS_Flag, .-USART_Get_CTS_Flag
	.section .text$USART_Get_Receive_BUFR_Ready_Flag
	.type	.text$USART_Get_Receive_BUFR_Ready_Flag$scode_local_74, @function
	.text$USART_Get_Receive_BUFR_Ready_Flag$scode_local_74:
	.align	1
	.export	USART_Get_Receive_BUFR_Ready_Flag
	.type	USART_Get_Receive_BUFR_Ready_Flag, @function
USART_Get_Receive_BUFR_Ready_Flag:
.LFB74:
.LM913:
	.cfi_startproc
.LVL574:
	PUSH	{r6, lr}
	.cfi_def_cfa_offset 8
	MOV	r6,r0
.LM914:
	MOV	r0,#1
.LVL575:
	LD	r5,#1073744256
	CMP	r6,r5
	JZ	.L903
.LM915:
	LD	r5,#1073744384
	CMP	r6,r5
	JZ	.L903
.LM916:
	LD	r5,#1073744512
	CMP	r6,r5
	JZ	.L903
	LD	r5,#1073744768
	CMP	r6,r5
	JZ	.L903
	LD	r5,#1073749632
	CMP	r6,r5
	JZ	.L903
	LD	r5,#1073749888
	CMP	r6,r5
	JZ	.L903
	MOV	r0,#0
.L903:
.LM917:
	LD	r5,#CHECK_RESTRICTION
	LJMP	r5
.LVL576:
.LM918:
	LD.w	r0,[r6+#2]
	LSR	r0,#11
.LM919:
	MOV	r5,#1
	ANL	r0,r0,r5
	POP	r6
	.cfi_def_cfa_offset 4
.LVL577:
	POP	lr
	.cfi_def_cfa_offset 0
	JMP	lr
	.cfi_endproc
.LFE74:
	.size	USART_Get_Receive_BUFR_Ready_Flag, .-USART_Get_Receive_BUFR_Ready_Flag
	.section .text$USART_Get_WUEN_Flag
	.type	.text$USART_Get_WUEN_Flag$scode_local_75, @function
	.text$USART_Get_WUEN_Flag$scode_local_75:
	.align	1
	.export	USART_Get_WUEN_Flag
	.type	USART_Get_WUEN_Flag, @function
USART_Get_WUEN_Flag:
.LFB75:
.LM920:
	.cfi_startproc
.LVL578:
	PUSH	{r6, lr}
	.cfi_def_cfa_offset 8
	MOV	r6,r0
.LM921:
	MOV	r0,#1
.LVL579:
	LD	r5,#1073744256
	CMP	r6,r5
	JZ	.L911
.LM922:
	LD	r5,#1073744384
	CMP	r6,r5
	JZ	.L911
.LM923:
	LD	r5,#1073744512
	CMP	r6,r5
	JZ	.L911
	LD	r5,#1073744768
	CMP	r6,r5
	JZ	.L911
	LD	r5,#1073749632
	CMP	r6,r5
	JZ	.L911
	LD	r5,#1073749888
	CMP	r6,r5
	JZ	.L911
	MOV	r0,#0
.L911:
.LM924:
	LD	r5,#CHECK_RESTRICTION
	LJMP	r5
.LVL580:
.LM925:
	LD.w	r0,[r6]
	LSR	r0,#7
.LM926:
	MOV	r5,#1
	ANL	r0,r0,r5
	POP	r6
	.cfi_def_cfa_offset 4
.LVL581:
	POP	lr
	.cfi_def_cfa_offset 0
	JMP	lr
	.cfi_endproc
.LFE75:
	.size	USART_Get_WUEN_Flag, .-USART_Get_WUEN_Flag
	.section .text$USART_Get_Transmit_BUFR_Empty_Flag
	.type	.text$USART_Get_Transmit_BUFR_Empty_Flag$scode_local_76, @function
	.text$USART_Get_Transmit_BUFR_Empty_Flag$scode_local_76:
	.align	1
	.export	USART_Get_Transmit_BUFR_Empty_Flag
	.type	USART_Get_Transmit_BUFR_Empty_Flag, @function
USART_Get_Transmit_BUFR_Empty_Flag:
.LFB76:
.LM927:
	.cfi_startproc
.LVL582:
	PUSH	{r6, lr}
	.cfi_def_cfa_offset 8
	MOV	r6,r0
.LM928:
	MOV	r0,#1
.LVL583:
	LD	r5,#1073744256
	CMP	r6,r5
	JZ	.L919
.LM929:
	LD	r5,#1073744384
	CMP	r6,r5
	JZ	.L919
.LM930:
	LD	r5,#1073744512
	CMP	r6,r5
	JZ	.L919
	LD	r5,#1073744768
	CMP	r6,r5
	JZ	.L919
	LD	r5,#1073749632
	CMP	r6,r5
	JZ	.L919
	LD	r5,#1073749888
	CMP	r6,r5
	JZ	.L919
	MOV	r0,#0
.L919:
.LM931:
	LD	r5,#CHECK_RESTRICTION
	LJMP	r5
.LVL584:
.LM932:
	LD.w	r0,[r6+#2]
	LSR	r0,#12
.LM933:
	MOV	r5,#1
	ANL	r0,r0,r5
	POP	r6
	.cfi_def_cfa_offset 4
.LVL585:
	POP	lr
	.cfi_def_cfa_offset 0
	JMP	lr
	.cfi_endproc
.LFE76:
	.size	USART_Get_Transmit_BUFR_Empty_Flag, .-USART_Get_Transmit_BUFR_Empty_Flag
	.section .text$USART_Get_Transmitter_Empty_Flag
	.type	.text$USART_Get_Transmitter_Empty_Flag$scode_local_77, @function
	.text$USART_Get_Transmitter_Empty_Flag$scode_local_77:
	.align	1
	.export	USART_Get_Transmitter_Empty_Flag
	.type	USART_Get_Transmitter_Empty_Flag, @function
USART_Get_Transmitter_Empty_Flag:
.LFB77:
.LM934:
	.cfi_startproc
.LVL586:
	PUSH	{r6, lr}
	.cfi_def_cfa_offset 8
	MOV	r6,r0
.LM935:
	MOV	r0,#1
.LVL587:
	LD	r5,#1073744256
	CMP	r6,r5
	JZ	.L927
.LM936:
	LD	r5,#1073744384
	CMP	r6,r5
	JZ	.L927
.LM937:
	LD	r5,#1073744512
	CMP	r6,r5
	JZ	.L927
	LD	r5,#1073744768
	CMP	r6,r5
	JZ	.L927
	LD	r5,#1073749632
	CMP	r6,r5
	JZ	.L927
	LD	r5,#1073749888
	CMP	r6,r5
	JZ	.L927
	MOV	r0,#0
.L927:
.LM938:
	LD	r5,#CHECK_RESTRICTION
	LJMP	r5
.LVL588:
.LM939:
	LD.w	r0,[r6+#2]
	LSR	r0,#13
.LM940:
	MOV	r5,#1
	ANL	r0,r0,r5
	POP	r6
	.cfi_def_cfa_offset 4
.LVL589:
	POP	lr
	.cfi_def_cfa_offset 0
	JMP	lr
	.cfi_endproc
.LFE77:
	.size	USART_Get_Transmitter_Empty_Flag, .-USART_Get_Transmitter_Empty_Flag
	.section .text$USART_Get_Receive_Frame_Idel_Flag
	.type	.text$USART_Get_Receive_Frame_Idel_Flag$scode_local_78, @function
	.text$USART_Get_Receive_Frame_Idel_Flag$scode_local_78:
	.align	1
	.export	USART_Get_Receive_Frame_Idel_Flag
	.type	USART_Get_Receive_Frame_Idel_Flag, @function
USART_Get_Receive_Frame_Idel_Flag:
.LFB78:
.LM941:
	.cfi_startproc
.LVL590:
	PUSH	{r6, lr}
	.cfi_def_cfa_offset 8
	MOV	r6,r0
.LM942:
	MOV	r0,#1
.LVL591:
	LD	r5,#1073744256
	CMP	r6,r5
	JZ	.L935
.LM943:
	LD	r5,#1073744384
	CMP	r6,r5
	JZ	.L935
.LM944:
	LD	r5,#1073744512
	CMP	r6,r5
	JZ	.L935
	LD	r5,#1073744768
	CMP	r6,r5
	JZ	.L935
	LD	r5,#1073749632
	CMP	r6,r5
	JZ	.L935
	LD	r5,#1073749888
	CMP	r6,r5
	JZ	.L935
	MOV	r0,#0
.L935:
.LM945:
	LD	r5,#CHECK_RESTRICTION
	LJMP	r5
.LVL592:
.LM946:
	LD.w	r0,[r6+#2]
	LSR	r0,#15
.LM947:
	MOV	r5,#1
	ANL	r0,r0,r5
	POP	r6
	.cfi_def_cfa_offset 4
.LVL593:
	POP	lr
	.cfi_def_cfa_offset 0
	JMP	lr
	.cfi_endproc
.LFE78:
	.size	USART_Get_Receive_Frame_Idel_Flag, .-USART_Get_Receive_Frame_Idel_Flag
	.section .text$USART_Clear_Receive_Overflow_INT_Flag
	.type	.text$USART_Clear_Receive_Overflow_INT_Flag$scode_local_79, @function
	.text$USART_Clear_Receive_Overflow_INT_Flag$scode_local_79:
	.align	1
	.export	USART_Clear_Receive_Overflow_INT_Flag
	.type	USART_Clear_Receive_Overflow_INT_Flag, @function
USART_Clear_Receive_Overflow_INT_Flag:
.LFB79:
.LM948:
	.cfi_startproc
.LVL594:
	PUSH	{r6, lr}
	.cfi_def_cfa_offset 8
	MOV	r6,r0
.LM949:
	MOV	r0,#1
.LVL595:
	LD	r5,#1073744256
	CMP	r6,r5
	JZ	.L943
.LM950:
	LD	r5,#1073744384
	CMP	r6,r5
	JZ	.L943
.LM951:
	LD	r5,#1073744512
	CMP	r6,r5
	JZ	.L943
	LD	r5,#1073744768
	CMP	r6,r5
	JZ	.L943
	LD	r5,#1073749632
	CMP	r6,r5
	JZ	.L943
	LD	r5,#1073749888
	CMP	r6,r5
	JZ	.L943
	MOV	r0,#0
.L943:
.LM952:
	LD	r5,#CHECK_RESTRICTION
	LJMP	r5
.LVL596:
.LM953:
	MOV	r5,#8
	ADD	r3,r6,r5
// inline asm begin
	// 2134 "../src/kf32a9k1xxx_usart.c" 1
	SET [r3], #16
	// 0 "" 2
.LM954:
// inline asm end
	MOV	r4,#1
.L945:
.LM955:
	LD.w	r5,[r6+#2]
	ANL	r5,r5,r4
	JNZ	.L945
.LM956:
// inline asm begin
	// 2136 "../src/kf32a9k1xxx_usart.c" 1
	CLR [r3], #16
	// 0 "" 2
.LM957:
// inline asm end
	POP	r6
	.cfi_def_cfa_offset 4
.LVL597:
	POP	lr
	.cfi_def_cfa_offset 0
	JMP	lr
	.cfi_endproc
.LFE79:
	.size	USART_Clear_Receive_Overflow_INT_Flag, .-USART_Clear_Receive_Overflow_INT_Flag
	.section .text$USART_Clear_Parity_ERROR_INT_Flag
	.type	.text$USART_Clear_Parity_ERROR_INT_Flag$scode_local_80, @function
	.text$USART_Clear_Parity_ERROR_INT_Flag$scode_local_80:
	.align	1
	.export	USART_Clear_Parity_ERROR_INT_Flag
	.type	USART_Clear_Parity_ERROR_INT_Flag, @function
USART_Clear_Parity_ERROR_INT_Flag:
.LFB80:
.LM958:
	.cfi_startproc
.LVL598:
	PUSH	{r6, lr}
	.cfi_def_cfa_offset 8
	MOV	r6,r0
.LM959:
	MOV	r0,#1
.LVL599:
	LD	r5,#1073744256
	CMP	r6,r5
	JZ	.L953
.LM960:
	LD	r5,#1073744384
	CMP	r6,r5
	JZ	.L953
.LM961:
	LD	r5,#1073744512
	CMP	r6,r5
	JZ	.L953
	LD	r5,#1073744768
	CMP	r6,r5
	JZ	.L953
	LD	r5,#1073749632
	CMP	r6,r5
	JZ	.L953
	LD	r5,#1073749888
	CMP	r6,r5
	JZ	.L953
	MOV	r0,#0
.L953:
.LM962:
	LD	r5,#CHECK_RESTRICTION
	LJMP	r5
.LVL600:
.LM963:
	MOV	r5,#8
	ADD	r3,r6,r5
// inline asm begin
	// 2151 "../src/kf32a9k1xxx_usart.c" 1
	SET [r3], #17
	// 0 "" 2
.LM964:
// inline asm end
	MOV	r4,#2
.L955:
.LM965:
	LD.w	r5,[r6+#2]
	ANL	r5,r5,r4
	JNZ	.L955
.LM966:
// inline asm begin
	// 2153 "../src/kf32a9k1xxx_usart.c" 1
	CLR [r3], #17
	// 0 "" 2
.LM967:
// inline asm end
	POP	r6
	.cfi_def_cfa_offset 4
.LVL601:
	POP	lr
	.cfi_def_cfa_offset 0
	JMP	lr
	.cfi_endproc
.LFE80:
	.size	USART_Clear_Parity_ERROR_INT_Flag, .-USART_Clear_Parity_ERROR_INT_Flag
	.section .text$USART_Clear_Frame_ERROR_INT_Flag
	.type	.text$USART_Clear_Frame_ERROR_INT_Flag$scode_local_81, @function
	.text$USART_Clear_Frame_ERROR_INT_Flag$scode_local_81:
	.align	1
	.export	USART_Clear_Frame_ERROR_INT_Flag
	.type	USART_Clear_Frame_ERROR_INT_Flag, @function
USART_Clear_Frame_ERROR_INT_Flag:
.LFB81:
.LM968:
	.cfi_startproc
.LVL602:
	PUSH	{r6, lr}
	.cfi_def_cfa_offset 8
	MOV	r6,r0
.LM969:
	MOV	r0,#1
.LVL603:
	LD	r5,#1073744256
	CMP	r6,r5
	JZ	.L963
.LM970:
	LD	r5,#1073744384
	CMP	r6,r5
	JZ	.L963
.LM971:
	LD	r5,#1073744512
	CMP	r6,r5
	JZ	.L963
	LD	r5,#1073744768
	CMP	r6,r5
	JZ	.L963
	LD	r5,#1073749632
	CMP	r6,r5
	JZ	.L963
	LD	r5,#1073749888
	CMP	r6,r5
	JZ	.L963
	MOV	r0,#0
.L963:
.LM972:
	LD	r5,#CHECK_RESTRICTION
	LJMP	r5
.LVL604:
.LM973:
	MOV	r5,#8
	ADD	r3,r6,r5
// inline asm begin
	// 2168 "../src/kf32a9k1xxx_usart.c" 1
	SET [r3], #18
	// 0 "" 2
.LM974:
// inline asm end
	MOV	r4,#4
.L965:
.LM975:
	LD.w	r5,[r6+#2]
	ANL	r5,r5,r4
	JNZ	.L965
.LM976:
// inline asm begin
	// 2170 "../src/kf32a9k1xxx_usart.c" 1
	CLR [r3], #18
	// 0 "" 2
.LM977:
// inline asm end
	POP	r6
	.cfi_def_cfa_offset 4
.LVL605:
	POP	lr
	.cfi_def_cfa_offset 0
	JMP	lr
	.cfi_endproc
.LFE81:
	.size	USART_Clear_Frame_ERROR_INT_Flag, .-USART_Clear_Frame_ERROR_INT_Flag
	.section .text$USART_Clear_Blank_INT_Flag
	.type	.text$USART_Clear_Blank_INT_Flag$scode_local_82, @function
	.text$USART_Clear_Blank_INT_Flag$scode_local_82:
	.align	1
	.export	USART_Clear_Blank_INT_Flag
	.type	USART_Clear_Blank_INT_Flag, @function
USART_Clear_Blank_INT_Flag:
.LFB82:
.LM978:
	.cfi_startproc
.LVL606:
	PUSH	{r6, lr}
	.cfi_def_cfa_offset 8
	MOV	r6,r0
.LM979:
	MOV	r0,#1
.LVL607:
	LD	r5,#1073744256
	CMP	r6,r5
	JZ	.L973
.LM980:
	LD	r5,#1073744384
	CMP	r6,r5
	JZ	.L973
.LM981:
	LD	r5,#1073744512
	CMP	r6,r5
	JZ	.L973
	LD	r5,#1073744768
	CMP	r6,r5
	JZ	.L973
	LD	r5,#1073749632
	CMP	r6,r5
	JZ	.L973
	LD	r5,#1073749888
	CMP	r6,r5
	JZ	.L973
	MOV	r0,#0
.L973:
.LM982:
	LD	r5,#CHECK_RESTRICTION
	LJMP	r5
.LVL608:
.LM983:
	MOV	r5,#8
	ADD	r3,r6,r5
// inline asm begin
	// 2185 "../src/kf32a9k1xxx_usart.c" 1
	SET [r3], #19
	// 0 "" 2
.LM984:
// inline asm end
	MOV	r4,#8
.L975:
.LM985:
	LD.w	r5,[r6+#2]
	ANL	r5,r5,r4
	JNZ	.L975
.LM986:
// inline asm begin
	// 2187 "../src/kf32a9k1xxx_usart.c" 1
	CLR [r3], #19
	// 0 "" 2
.LM987:
// inline asm end
	POP	r6
	.cfi_def_cfa_offset 4
.LVL609:
	POP	lr
	.cfi_def_cfa_offset 0
	JMP	lr
	.cfi_endproc
.LFE82:
	.size	USART_Clear_Blank_INT_Flag, .-USART_Clear_Blank_INT_Flag
	.section .text$USART_Clear_Auto_BaudRate_TimeOver_INT_Flag
	.type	.text$USART_Clear_Auto_BaudRate_TimeOver_INT_Flag$scode_local_83, @function
	.text$USART_Clear_Auto_BaudRate_TimeOver_INT_Flag$scode_local_83:
	.align	1
	.export	USART_Clear_Auto_BaudRate_TimeOver_INT_Flag
	.type	USART_Clear_Auto_BaudRate_TimeOver_INT_Flag, @function
USART_Clear_Auto_BaudRate_TimeOver_INT_Flag:
.LFB83:
.LM988:
	.cfi_startproc
.LVL610:
	PUSH	{r6, lr}
	.cfi_def_cfa_offset 8
	MOV	r6,r0
.LM989:
	MOV	r0,#1
.LVL611:
	LD	r5,#1073744256
	CMP	r6,r5
	JZ	.L983
.LM990:
	LD	r5,#1073744384
	CMP	r6,r5
	JZ	.L983
.LM991:
	LD	r5,#1073744512
	CMP	r6,r5
	JZ	.L983
	LD	r5,#1073744768
	CMP	r6,r5
	JZ	.L983
	LD	r5,#1073749632
	CMP	r6,r5
	JZ	.L983
	LD	r5,#1073749888
	CMP	r6,r5
	JZ	.L983
	MOV	r0,#0
.L983:
.LM992:
	LD	r5,#CHECK_RESTRICTION
	LJMP	r5
.LVL612:
.LM993:
	MOV	r5,#8
	ADD	r3,r6,r5
// inline asm begin
	// 2202 "../src/kf32a9k1xxx_usart.c" 1
	SET [r3], #20
	// 0 "" 2
.LM994:
// inline asm end
	MOV	r4,#16
.L985:
.LM995:
	LD.w	r5,[r6+#2]
	ANL	r5,r5,r4
	JNZ	.L985
.LM996:
// inline asm begin
	// 2204 "../src/kf32a9k1xxx_usart.c" 1
	CLR [r3], #20
	// 0 "" 2
.LM997:
// inline asm end
	POP	r6
	.cfi_def_cfa_offset 4
.LVL613:
	POP	lr
	.cfi_def_cfa_offset 0
	JMP	lr
	.cfi_endproc
.LFE83:
	.size	USART_Clear_Auto_BaudRate_TimeOver_INT_Flag, .-USART_Clear_Auto_BaudRate_TimeOver_INT_Flag
	.section .text$USART_Clear_WeakUP_INT_Flag
	.type	.text$USART_Clear_WeakUP_INT_Flag$scode_local_84, @function
	.text$USART_Clear_WeakUP_INT_Flag$scode_local_84:
	.align	1
	.export	USART_Clear_WeakUP_INT_Flag
	.type	USART_Clear_WeakUP_INT_Flag, @function
USART_Clear_WeakUP_INT_Flag:
.LFB84:
.LM998:
	.cfi_startproc
.LVL614:
	PUSH	{r6, lr}
	.cfi_def_cfa_offset 8
	MOV	r6,r0
.LM999:
	MOV	r0,#1
.LVL615:
	LD	r5,#1073744256
	CMP	r6,r5
	JZ	.L993
.LM1000:
	LD	r5,#1073744384
	CMP	r6,r5
	JZ	.L993
.LM1001:
	LD	r5,#1073744512
	CMP	r6,r5
	JZ	.L993
	LD	r5,#1073744768
	CMP	r6,r5
	JZ	.L993
	LD	r5,#1073749632
	CMP	r6,r5
	JZ	.L993
	LD	r5,#1073749888
	CMP	r6,r5
	JZ	.L993
	MOV	r0,#0
.L993:
.LM1002:
	LD	r5,#CHECK_RESTRICTION
	LJMP	r5
.LVL616:
.LM1003:
	MOV	r5,#8
	ADD	r3,r6,r5
// inline asm begin
	// 2219 "../src/kf32a9k1xxx_usart.c" 1
	SET [r3], #21
	// 0 "" 2
.LM1004:
// inline asm end
	MOV	r4,#32
.L995:
.LM1005:
	LD.w	r5,[r6+#2]
	ANL	r5,r5,r4
	JNZ	.L995
.LM1006:
// inline asm begin
	// 2221 "../src/kf32a9k1xxx_usart.c" 1
	CLR [r3], #21
	// 0 "" 2
.LM1007:
// inline asm end
	POP	r6
	.cfi_def_cfa_offset 4
.LVL617:
	POP	lr
	.cfi_def_cfa_offset 0
	JMP	lr
	.cfi_endproc
.LFE84:
	.size	USART_Clear_WeakUP_INT_Flag, .-USART_Clear_WeakUP_INT_Flag
	.section .text$USART_Clear_Transmit_ERROR_INT_Flag
	.type	.text$USART_Clear_Transmit_ERROR_INT_Flag$scode_local_85, @function
	.text$USART_Clear_Transmit_ERROR_INT_Flag$scode_local_85:
	.align	1
	.export	USART_Clear_Transmit_ERROR_INT_Flag
	.type	USART_Clear_Transmit_ERROR_INT_Flag, @function
USART_Clear_Transmit_ERROR_INT_Flag:
.LFB85:
.LM1008:
	.cfi_startproc
.LVL618:
	PUSH	{r6, lr}
	.cfi_def_cfa_offset 8
	MOV	r6,r0
.LM1009:
	MOV	r0,#1
.LVL619:
	LD	r5,#1073744256
	CMP	r6,r5
	JZ	.L1003
.LM1010:
	LD	r5,#1073744384
	CMP	r6,r5
	JZ	.L1003
.LM1011:
	LD	r5,#1073744512
	CMP	r6,r5
	JZ	.L1003
	LD	r5,#1073744768
	CMP	r6,r5
	JZ	.L1003
	LD	r5,#1073749632
	CMP	r6,r5
	JZ	.L1003
	LD	r5,#1073749888
	CMP	r6,r5
	JZ	.L1003
	MOV	r0,#0
.L1003:
.LM1012:
	LD	r5,#CHECK_RESTRICTION
	LJMP	r5
.LVL620:
.LM1013:
	MOV	r5,#8
	ADD	r3,r6,r5
// inline asm begin
	// 2236 "../src/kf32a9k1xxx_usart.c" 1
	SET [r3], #22
	// 0 "" 2
.LM1014:
// inline asm end
	MOV	r4,#64
.L1005:
.LM1015:
	LD.w	r5,[r6+#2]
	ANL	r5,r5,r4
	JNZ	.L1005
.LM1016:
// inline asm begin
	// 2238 "../src/kf32a9k1xxx_usart.c" 1
	CLR [r3], #22
	// 0 "" 2
.LM1017:
// inline asm end
	POP	r6
	.cfi_def_cfa_offset 4
.LVL621:
	POP	lr
	.cfi_def_cfa_offset 0
	JMP	lr
	.cfi_endproc
.LFE85:
	.size	USART_Clear_Transmit_ERROR_INT_Flag, .-USART_Clear_Transmit_ERROR_INT_Flag
	.section .text$USART_Clear_Receive_ERROR_INT_Flag
	.type	.text$USART_Clear_Receive_ERROR_INT_Flag$scode_local_86, @function
	.text$USART_Clear_Receive_ERROR_INT_Flag$scode_local_86:
	.align	1
	.export	USART_Clear_Receive_ERROR_INT_Flag
	.type	USART_Clear_Receive_ERROR_INT_Flag, @function
USART_Clear_Receive_ERROR_INT_Flag:
.LFB86:
.LM1018:
	.cfi_startproc
.LVL622:
	PUSH	{r6, lr}
	.cfi_def_cfa_offset 8
	MOV	r6,r0
.LM1019:
	MOV	r0,#1
.LVL623:
	LD	r5,#1073744256
	CMP	r6,r5
	JZ	.L1013
.LM1020:
	LD	r5,#1073744384
	CMP	r6,r5
	JZ	.L1013
.LM1021:
	LD	r5,#1073744512
	CMP	r6,r5
	JZ	.L1013
	LD	r5,#1073744768
	CMP	r6,r5
	JZ	.L1013
	LD	r5,#1073749632
	CMP	r6,r5
	JZ	.L1013
	LD	r5,#1073749888
	CMP	r6,r5
	JZ	.L1013
	MOV	r0,#0
.L1013:
.LM1022:
	LD	r5,#CHECK_RESTRICTION
	LJMP	r5
.LVL624:
.LM1023:
	MOV	r5,#8
	ADD	r3,r6,r5
// inline asm begin
	// 2253 "../src/kf32a9k1xxx_usart.c" 1
	SET [r3], #23
	// 0 "" 2
.LM1024:
// inline asm end
	MOV	r4,#128
.L1015:
.LM1025:
	LD.w	r5,[r6+#2]
	ANL	r5,r5,r4
	JNZ	.L1015
.LM1026:
// inline asm begin
	// 2255 "../src/kf32a9k1xxx_usart.c" 1
	CLR [r3], #23
	// 0 "" 2
.LM1027:
// inline asm end
	POP	r6
	.cfi_def_cfa_offset 4
.LVL625:
	POP	lr
	.cfi_def_cfa_offset 0
	JMP	lr
	.cfi_endproc
.LFE86:
	.size	USART_Clear_Receive_ERROR_INT_Flag, .-USART_Clear_Receive_ERROR_INT_Flag
	.section .text$USART_Clear_CTS_INT_Flag
	.type	.text$USART_Clear_CTS_INT_Flag$scode_local_87, @function
	.text$USART_Clear_CTS_INT_Flag$scode_local_87:
	.align	1
	.export	USART_Clear_CTS_INT_Flag
	.type	USART_Clear_CTS_INT_Flag, @function
USART_Clear_CTS_INT_Flag:
.LFB87:
.LM1028:
	.cfi_startproc
.LVL626:
	PUSH	{r6, lr}
	.cfi_def_cfa_offset 8
	MOV	r6,r0
.LM1029:
	MOV	r0,#1
.LVL627:
	LD	r5,#1073744256
	CMP	r6,r5
	JZ	.L1023
.LM1030:
	LD	r5,#1073744384
	CMP	r6,r5
	JZ	.L1023
.LM1031:
	LD	r5,#1073744512
	CMP	r6,r5
	JZ	.L1023
	LD	r5,#1073744768
	CMP	r6,r5
	JZ	.L1023
	LD	r5,#1073749632
	CMP	r6,r5
	JZ	.L1023
	LD	r5,#1073749888
	CMP	r6,r5
	JZ	.L1023
	MOV	r0,#0
.L1023:
.LM1032:
	LD	r5,#CHECK_RESTRICTION
	LJMP	r5
.LVL628:
.LM1033:
	MOV	r5,#8
	ADD	r3,r6,r5
// inline asm begin
	// 2270 "../src/kf32a9k1xxx_usart.c" 1
	SET [r3], #24
	// 0 "" 2
.LM1034:
// inline asm end
	MOV	r4,#255
	ADD	r4,r4,#1
.L1025:
.LM1035:
	LD.w	r5,[r6+#2]
	ANL	r5,r5,r4
	JNZ	.L1025
.LM1036:
// inline asm begin
	// 2272 "../src/kf32a9k1xxx_usart.c" 1
	CLR [r3], #24
	// 0 "" 2
.LM1037:
// inline asm end
	POP	r6
	.cfi_def_cfa_offset 4
.LVL629:
	POP	lr
	.cfi_def_cfa_offset 0
	JMP	lr
	.cfi_endproc
.LFE87:
	.size	USART_Clear_CTS_INT_Flag, .-USART_Clear_CTS_INT_Flag
	.section .text$USART_Clear_Receive_BUFR_INT_Flag
	.type	.text$USART_Clear_Receive_BUFR_INT_Flag$scode_local_88, @function
	.text$USART_Clear_Receive_BUFR_INT_Flag$scode_local_88:
	.align	1
	.export	USART_Clear_Receive_BUFR_INT_Flag
	.type	USART_Clear_Receive_BUFR_INT_Flag, @function
USART_Clear_Receive_BUFR_INT_Flag:
.LFB88:
.LM1038:
	.cfi_startproc
.LVL630:
	PUSH	{r6, lr}
	.cfi_def_cfa_offset 8
	MOV	r6,r0
.LM1039:
	MOV	r0,#1
.LVL631:
	LD	r5,#1073744256
	CMP	r6,r5
	JZ	.L1033
.LM1040:
	LD	r5,#1073744384
	CMP	r6,r5
	JZ	.L1033
.LM1041:
	LD	r5,#1073744512
	CMP	r6,r5
	JZ	.L1033
	LD	r5,#1073744768
	CMP	r6,r5
	JZ	.L1033
	LD	r5,#1073749632
	CMP	r6,r5
	JZ	.L1033
	LD	r5,#1073749888
	CMP	r6,r5
	JZ	.L1033
	MOV	r0,#0
.L1033:
.LM1042:
	LD	r5,#CHECK_RESTRICTION
	LJMP	r5
.LVL632:
.LM1043:
	MOV	r5,#8
	ADD	r3,r6,r5
// inline asm begin
	// 2287 "../src/kf32a9k1xxx_usart.c" 1
	SET [r3], #9
	// 0 "" 2
.LM1044:
// inline asm end
	MOV	r4,#1
	LSL	r4,#11
.L1035:
.LM1045:
	LD.w	r5,[r6+#2]
	ANL	r5,r5,r4
	JNZ	.L1035
.LM1046:
// inline asm begin
	// 2289 "../src/kf32a9k1xxx_usart.c" 1
	CLR [r3], #9
	// 0 "" 2
.LM1047:
// inline asm end
	POP	r6
	.cfi_def_cfa_offset 4
.LVL633:
	POP	lr
	.cfi_def_cfa_offset 0
	JMP	lr
	.cfi_endproc
.LFE88:
	.size	USART_Clear_Receive_BUFR_INT_Flag, .-USART_Clear_Receive_BUFR_INT_Flag
	.section .text$USART_Clear_Transmit_BUFR_INT_Flag
	.type	.text$USART_Clear_Transmit_BUFR_INT_Flag$scode_local_89, @function
	.text$USART_Clear_Transmit_BUFR_INT_Flag$scode_local_89:
	.align	1
	.export	USART_Clear_Transmit_BUFR_INT_Flag
	.type	USART_Clear_Transmit_BUFR_INT_Flag, @function
USART_Clear_Transmit_BUFR_INT_Flag:
.LFB89:
.LM1048:
	.cfi_startproc
.LVL634:
	PUSH	{r6, lr}
	.cfi_def_cfa_offset 8
	MOV	r6,r0
.LM1049:
	MOV	r0,#1
.LVL635:
	LD	r5,#1073744256
	CMP	r6,r5
	JZ	.L1043
.LM1050:
	LD	r5,#1073744384
	CMP	r6,r5
	JZ	.L1043
.LM1051:
	LD	r5,#1073744512
	CMP	r6,r5
	JZ	.L1043
	LD	r5,#1073744768
	CMP	r6,r5
	JZ	.L1043
	LD	r5,#1073749632
	CMP	r6,r5
	JZ	.L1043
	LD	r5,#1073749888
	CMP	r6,r5
	JZ	.L1043
	MOV	r0,#0
.L1043:
.LM1052:
	LD	r5,#CHECK_RESTRICTION
	LJMP	r5
.LVL636:
.LM1053:
	MOV	r5,#8
	ADD	r3,r6,r5
// inline asm begin
	// 2304 "../src/kf32a9k1xxx_usart.c" 1
	SET [r3], #10
	// 0 "" 2
.LM1054:
// inline asm end
	MOV	r4,#1
	LSL	r4,#12
.L1045:
.LM1055:
	LD.w	r5,[r6+#2]
	ANL	r5,r5,r4
	JZ	.L1045
.LM1056:
// inline asm begin
	// 2306 "../src/kf32a9k1xxx_usart.c" 1
	CLR [r3], #10
	// 0 "" 2
.LM1057:
// inline asm end
	POP	r6
	.cfi_def_cfa_offset 4
.LVL637:
	POP	lr
	.cfi_def_cfa_offset 0
	JMP	lr
	.cfi_endproc
.LFE89:
	.size	USART_Clear_Transmit_BUFR_INT_Flag, .-USART_Clear_Transmit_BUFR_INT_Flag
	.text	
.Letext0: