	.file	"kf32a9k1xxx_flash.c"
	.text	
.Ltext0:
	.cfi_sections	.debug_frame
	.section .indata$CHECK_RESTRICTION_RAM
	.type	.indata$CHECK_RESTRICTION_RAM$scode_local_1, @function
	.indata$CHECK_RESTRICTION_RAM$scode_local_1:
	.align	1
	.export	CHECK_RESTRICTION_RAM
	.type	CHECK_RESTRICTION_RAM, @function
CHECK_RESTRICTION_RAM:
.LFB1:
.LM1:
	.cfi_startproc
.LVL0:
.LM2:
	CMP	r0,#0
	JNZ	.L5
.L4:
	JMP	.L4
.L5:
.LM3:
	JMP	lr
	.cfi_endproc
.LFE1:
	.size	CHECK_RESTRICTION_RAM, .-CHECK_RESTRICTION_RAM
	.section .indata$FLASH_Get_NonVolatile_Memory_Unlock_Status_RAM
	.type	.indata$FLASH_Get_NonVolatile_Memory_Unlock_Status_RAM$scode_local_2, @function
	.indata$FLASH_Get_NonVolatile_Memory_Unlock_Status_RAM$scode_local_2:
	.align	1
	.export	FLASH_Get_NonVolatile_Memory_Unlock_Status_RAM
	.type	FLASH_Get_NonVolatile_Memory_Unlock_Status_RAM, @function
FLASH_Get_NonVolatile_Memory_Unlock_Status_RAM:
.LFB3:
.LM4:
	.cfi_startproc
.LM5:
	LD	r5,#1075839232
	LD.w	r0,[r5]
.LM6:
	MOV	r5,#1
	ANL	r0,r0,r5
	JMP	lr
	.cfi_endproc
.LFE3:
	.size	FLASH_Get_NonVolatile_Memory_Unlock_Status_RAM, .-FLASH_Get_NonVolatile_Memory_Unlock_Status_RAM
	.section .indata$FLASH_Clear_NonVolatile_Memory_Unlock_Status_RAM
	.type	.indata$FLASH_Clear_NonVolatile_Memory_Unlock_Status_RAM$scode_local_3, @function
	.indata$FLASH_Clear_NonVolatile_Memory_Unlock_Status_RAM$scode_local_3:
	.align	1
	.export	FLASH_Clear_NonVolatile_Memory_Unlock_Status_RAM
	.type	FLASH_Clear_NonVolatile_Memory_Unlock_Status_RAM, @function
FLASH_Clear_NonVolatile_Memory_Unlock_Status_RAM:
.LFB4:
.LM7:
	.cfi_startproc
.LVL1:
.LM8:
	LD	r5,#1075839232
	LD.w	r3,[r5]
.LVL2:
.LBB286:
.LBB287:
.LM9:
	LD	r4,#65534
	ANL	r4,r3,r4
	LD	r3,#1353646081
.LVL3:
	ORL	r4,r4,r3
.LBE287:
.LBE286:
.LM10:
	ST.w	[r5],r4
.LM11:
	JMP	lr
	.cfi_endproc
.LFE4:
	.size	FLASH_Clear_NonVolatile_Memory_Unlock_Status_RAM, .-FLASH_Clear_NonVolatile_Memory_Unlock_Status_RAM
	.section .text$FLASH_Clear_NonVolatile_Memory_Unlock_Status
	.type	.text$FLASH_Clear_NonVolatile_Memory_Unlock_Status$scode_local_4, @function
	.text$FLASH_Clear_NonVolatile_Memory_Unlock_Status$scode_local_4:
	.align	1
	.export	FLASH_Clear_NonVolatile_Memory_Unlock_Status
	.type	FLASH_Clear_NonVolatile_Memory_Unlock_Status, @function
FLASH_Clear_NonVolatile_Memory_Unlock_Status:
.LFB5:
.LM12:
	.cfi_startproc
.LVL4:
.LM13:
	LD	r5,#1075839232
	LD.w	r3,[r5]
.LVL5:
.LBB288:
.LBB289:
.LM14:
	LD	r4,#65534
	ANL	r4,r3,r4
	LD	r3,#1353646081
.LVL6:
	ORL	r4,r4,r3
.LBE289:
.LBE288:
.LM15:
	ST.w	[r5],r4
.LM16:
	JMP	lr
	.cfi_endproc
.LFE5:
	.size	FLASH_Clear_NonVolatile_Memory_Unlock_Status, .-FLASH_Clear_NonVolatile_Memory_Unlock_Status
	.section .indata$FLASH_Unlock_ISP_RAM
	.type	.indata$FLASH_Unlock_ISP_RAM$scode_local_5, @function
	.indata$FLASH_Unlock_ISP_RAM$scode_local_5:
	.align	1
	.export	FLASH_Unlock_ISP_RAM
	.type	FLASH_Unlock_ISP_RAM, @function
FLASH_Unlock_ISP_RAM:
.LFB6:
.LM17:
	.cfi_startproc
.LM18:
	LD	r5,#1075839232
	LD	r4,#-2023406815
	ST.w	[r5+#10],r4
.LM19:
	LD	r4,#84148994
	ST.w	[r5+#10],r4
.LM20:
	JMP	lr
	.cfi_endproc
.LFE6:
	.size	FLASH_Unlock_ISP_RAM, .-FLASH_Unlock_ISP_RAM
	.section .text$FLASH_Unlock_ISP
	.type	.text$FLASH_Unlock_ISP$scode_local_6, @function
	.text$FLASH_Unlock_ISP$scode_local_6:
	.align	1
	.export	FLASH_Unlock_ISP
	.type	FLASH_Unlock_ISP, @function
FLASH_Unlock_ISP:
.LFB7:
.LM21:
	.cfi_startproc
.LM22:
	LD	r5,#1075839232
	LD	r4,#-2023406815
	ST.w	[r5+#10],r4
.LM23:
	LD	r4,#84148994
	ST.w	[r5+#10],r4
.LM24:
	JMP	lr
	.cfi_endproc
.LFE7:
	.size	FLASH_Unlock_ISP, .-FLASH_Unlock_ISP
	.section .indata$FLASH_Get_Flash_Unlock_Status_RAM
	.type	.indata$FLASH_Get_Flash_Unlock_Status_RAM$scode_local_7, @function
	.indata$FLASH_Get_Flash_Unlock_Status_RAM$scode_local_7:
	.align	1
	.export	FLASH_Get_Flash_Unlock_Status_RAM
	.type	FLASH_Get_Flash_Unlock_Status_RAM, @function
FLASH_Get_Flash_Unlock_Status_RAM:
.LFB8:
.LM25:
	.cfi_startproc
.LM26:
	LD	r5,#1075839232
	LD.w	r0,[r5]
	LSR	r0,#1
.LM27:
	MOV	r5,#1
	ANL	r0,r0,r5
	JMP	lr
	.cfi_endproc
.LFE8:
	.size	FLASH_Get_Flash_Unlock_Status_RAM, .-FLASH_Get_Flash_Unlock_Status_RAM
	.section .indata$FLASH_Clear_Flash_Unlock_Status_RAM
	.type	.indata$FLASH_Clear_Flash_Unlock_Status_RAM$scode_local_8, @function
	.indata$FLASH_Clear_Flash_Unlock_Status_RAM$scode_local_8:
	.align	1
	.export	FLASH_Clear_Flash_Unlock_Status_RAM
	.type	FLASH_Clear_Flash_Unlock_Status_RAM, @function
FLASH_Clear_Flash_Unlock_Status_RAM:
.LFB9:
.LM28:
	.cfi_startproc
.LVL7:
.LM29:
	LD	r5,#1075839232
	LD.w	r3,[r5]
.LVL8:
.LBB290:
.LBB291:
.LM30:
	LD	r4,#65533
	ANL	r4,r3,r4
	LD	r3,#1353646082
.LVL9:
	ORL	r4,r4,r3
.LBE291:
.LBE290:
.LM31:
	ST.w	[r5],r4
.LM32:
	JMP	lr
	.cfi_endproc
.LFE9:
	.size	FLASH_Clear_Flash_Unlock_Status_RAM, .-FLASH_Clear_Flash_Unlock_Status_RAM
	.section .text$FLASH_Clear_Flash_Unlock_Status
	.type	.text$FLASH_Clear_Flash_Unlock_Status$scode_local_9, @function
	.text$FLASH_Clear_Flash_Unlock_Status$scode_local_9:
	.align	1
	.export	FLASH_Clear_Flash_Unlock_Status
	.type	FLASH_Clear_Flash_Unlock_Status, @function
FLASH_Clear_Flash_Unlock_Status:
.LFB10:
.LM33:
	.cfi_startproc
.LVL10:
.LM34:
	LD	r5,#1075839232
	LD.w	r3,[r5]
.LVL11:
.LBB292:
.LBB293:
.LM35:
	LD	r4,#65533
	ANL	r4,r3,r4
	LD	r3,#1353646082
.LVL12:
	ORL	r4,r4,r3
.LBE293:
.LBE292:
.LM36:
	ST.w	[r5],r4
.LM37:
	JMP	lr
	.cfi_endproc
.LFE10:
	.size	FLASH_Clear_Flash_Unlock_Status, .-FLASH_Clear_Flash_Unlock_Status
	.section .indata$FLASH_Unlock_Code_RAM
	.type	.indata$FLASH_Unlock_Code_RAM$scode_local_10, @function
	.indata$FLASH_Unlock_Code_RAM$scode_local_10:
	.align	1
	.export	FLASH_Unlock_Code_RAM
	.type	FLASH_Unlock_Code_RAM, @function
FLASH_Unlock_Code_RAM:
.LFB11:
.LM38:
	.cfi_startproc
.LM39:
	LD	r5,#1075839232
	LD	r4,#2023406814
	ST.w	[r5+#11],r4
.LM40:
	LD	r4,#370480147
	ST.w	[r5+#11],r4
.LM41:
	JMP	lr
	.cfi_endproc
.LFE11:
	.size	FLASH_Unlock_Code_RAM, .-FLASH_Unlock_Code_RAM
	.section .text$FLASH_Unlock_Code
	.type	.text$FLASH_Unlock_Code$scode_local_11, @function
	.text$FLASH_Unlock_Code$scode_local_11:
	.align	1
	.export	FLASH_Unlock_Code
	.type	FLASH_Unlock_Code, @function
FLASH_Unlock_Code:
.LFB12:
.LM42:
	.cfi_startproc
.LM43:
	LD	r5,#1075839232
	LD	r4,#2023406814
	ST.w	[r5+#11],r4
.LM44:
	LD	r4,#370480147
	ST.w	[r5+#11],r4
.LM45:
	JMP	lr
	.cfi_endproc
.LFE12:
	.size	FLASH_Unlock_Code, .-FLASH_Unlock_Code
	.section .indata$FLASH_Get_Config_Unlock_Status_RAM
	.type	.indata$FLASH_Get_Config_Unlock_Status_RAM$scode_local_12, @function
	.indata$FLASH_Get_Config_Unlock_Status_RAM$scode_local_12:
	.align	1
	.export	FLASH_Get_Config_Unlock_Status_RAM
	.type	FLASH_Get_Config_Unlock_Status_RAM, @function
FLASH_Get_Config_Unlock_Status_RAM:
.LFB13:
.LM46:
	.cfi_startproc
.LM47:
	LD	r5,#1075839232
	LD.w	r0,[r5]
	LSR	r0,#2
.LM48:
	MOV	r5,#1
	ANL	r0,r0,r5
	JMP	lr
	.cfi_endproc
.LFE13:
	.size	FLASH_Get_Config_Unlock_Status_RAM, .-FLASH_Get_Config_Unlock_Status_RAM
	.section .indata$FLASH_Clear_Config_Unlock_Status_RAM
	.type	.indata$FLASH_Clear_Config_Unlock_Status_RAM$scode_local_13, @function
	.indata$FLASH_Clear_Config_Unlock_Status_RAM$scode_local_13:
	.align	1
	.export	FLASH_Clear_Config_Unlock_Status_RAM
	.type	FLASH_Clear_Config_Unlock_Status_RAM, @function
FLASH_Clear_Config_Unlock_Status_RAM:
.LFB14:
.LM49:
	.cfi_startproc
.LVL13:
.LM50:
	LD	r5,#1075839232
	LD.w	r3,[r5]
.LVL14:
.LBB294:
.LBB295:
.LM51:
	LD	r4,#65531
	ANL	r4,r3,r4
	LD	r3,#1353646084
.LVL15:
	ORL	r4,r4,r3
.LBE295:
.LBE294:
.LM52:
	ST.w	[r5],r4
.LM53:
	JMP	lr
	.cfi_endproc
.LFE14:
	.size	FLASH_Clear_Config_Unlock_Status_RAM, .-FLASH_Clear_Config_Unlock_Status_RAM
	.section .text$FLASH_Clear_Config_Unlock_Status
	.type	.text$FLASH_Clear_Config_Unlock_Status$scode_local_14, @function
	.text$FLASH_Clear_Config_Unlock_Status$scode_local_14:
	.align	1
	.export	FLASH_Clear_Config_Unlock_Status
	.type	FLASH_Clear_Config_Unlock_Status, @function
FLASH_Clear_Config_Unlock_Status:
.LFB15:
.LM54:
	.cfi_startproc
.LVL16:
.LM55:
	LD	r5,#1075839232
	LD.w	r3,[r5]
.LVL17:
.LBB296:
.LBB297:
.LM56:
	LD	r4,#65531
	ANL	r4,r3,r4
	LD	r3,#1353646084
.LVL18:
	ORL	r4,r4,r3
.LBE297:
.LBE296:
.LM57:
	ST.w	[r5],r4
.LM58:
	JMP	lr
	.cfi_endproc
.LFE15:
	.size	FLASH_Clear_Config_Unlock_Status, .-FLASH_Clear_Config_Unlock_Status
	.section .indata$FLASH_Unlock_User_Config_RAM
	.type	.indata$FLASH_Unlock_User_Config_RAM$scode_local_15, @function
	.indata$FLASH_Unlock_User_Config_RAM$scode_local_15:
	.align	1
	.export	FLASH_Unlock_User_Config_RAM
	.type	FLASH_Unlock_User_Config_RAM, @function
FLASH_Unlock_User_Config_RAM:
.LFB16:
.LM59:
	.cfi_startproc
.LM60:
	LD	r5,#1075839232
	LD	r4,#-2019933218
	ST.w	[r5+#12],r4
.LM61:
	LD	r4,#656811300
	ST.w	[r5+#12],r4
.LM62:
	JMP	lr
	.cfi_endproc
.LFE16:
	.size	FLASH_Unlock_User_Config_RAM, .-FLASH_Unlock_User_Config_RAM
	.section .text$FLASH_Unlock_User_Config
	.type	.text$FLASH_Unlock_User_Config$scode_local_16, @function
	.text$FLASH_Unlock_User_Config$scode_local_16:
	.align	1
	.export	FLASH_Unlock_User_Config
	.type	FLASH_Unlock_User_Config, @function
FLASH_Unlock_User_Config:
.LFB17:
.LM63:
	.cfi_startproc
.LM64:
	LD	r5,#1075839232
	LD	r4,#-2019933218
	ST.w	[r5+#12],r4
.LM65:
	LD	r4,#656811300
	ST.w	[r5+#12],r4
.LM66:
	JMP	lr
	.cfi_endproc
.LFE17:
	.size	FLASH_Unlock_User_Config, .-FLASH_Unlock_User_Config
	.section .indata$FLASH_Data_Write_Enable_RAM
	.type	.indata$FLASH_Data_Write_Enable_RAM$scode_local_17, @function
	.indata$FLASH_Data_Write_Enable_RAM$scode_local_17:
	.align	1
	.export	FLASH_Data_Write_Enable_RAM
	.type	FLASH_Data_Write_Enable_RAM, @function
FLASH_Data_Write_Enable_RAM:
.LFB18:
.LM67:
	.cfi_startproc
.LVL19:
.LBB298:
.LBB299:
.LM68:
	CMP	r0,#1
	JLS	.L27
.L26:
	JMP	.L26
.L27:
.LBE299:
.LBE298:
.LM69:
	LD	r5,#1075839232
.LM70:
	CMP	r0,#0
	JNZ	.L28
.LM71:
// inline asm begin
	// 306 "../src/kf32a9k1xxx_flash.c" 1
	CLR [r5], #3
	// 0 "" 2
.LM72:
// inline asm end
	JMP	lr
.L28:
.LM73:
// inline asm begin
	// 301 "../src/kf32a9k1xxx_flash.c" 1
	SET [r5], #3
	// 0 "" 2
.LM74:
// inline asm end
	JMP	lr
	.cfi_endproc
.LFE18:
	.size	FLASH_Data_Write_Enable_RAM, .-FLASH_Data_Write_Enable_RAM
	.section .indata$FLASH_Zone_Config_RAM
	.type	.indata$FLASH_Zone_Config_RAM$scode_local_18, @function
	.indata$FLASH_Zone_Config_RAM$scode_local_18:
	.align	1
	.export	FLASH_Zone_Config_RAM
	.type	FLASH_Zone_Config_RAM, @function
FLASH_Zone_Config_RAM:
.LFB19:
.LM75:
	.cfi_startproc
.LVL20:
.LM76:
	CMP	r0,#0
	JZ	.L30
.LVL21:
.LBB300:
.LBB301:
.LM77:
	CMP	r0,#16
	JZ	.L34
.L33:
	JMP	.L33
.LVL22:
.L30:
.LBE301:
.LBE300:
.LM78:
	LD	r5,#1075839232
// inline asm begin
	// 332 "../src/kf32a9k1xxx_flash.c" 1
	CLR [r5], #4
	// 0 "" 2
.LM79:
// inline asm end
	JMP	lr
.LVL23:
.L34:
.LM80:
	LD	r5,#1075839232
// inline asm begin
	// 327 "../src/kf32a9k1xxx_flash.c" 1
	SET [r5], #4
	// 0 "" 2
.LM81:
// inline asm end
	JMP	lr
	.cfi_endproc
.LFE19:
	.size	FLASH_Zone_Config_RAM, .-FLASH_Zone_Config_RAM
	.section .text$FLASH_Zone_Config
	.type	.text$FLASH_Zone_Config$scode_local_19, @function
	.text$FLASH_Zone_Config$scode_local_19:
	.align	1
	.export	FLASH_Zone_Config
	.type	FLASH_Zone_Config, @function
FLASH_Zone_Config:
.LFB20:
.LM82:
	.cfi_startproc
.LVL24:
	PUSH	lr
	.cfi_def_cfa_offset 4
.LM83:
	CMP	r0,#0
	JZ	.L36
.LM84:
	MOV	r5,#1
	CMP	r0,#16
	JZ	.L37
	MOV	r5,#0
.L37:
	MOV	r0,r5
.LVL25:
	LD	r5,#CHECK_RESTRICTION
	LJMP	r5
.LVL26:
.LM85:
	LD	r5,#1075839232
// inline asm begin
	// 352 "../src/kf32a9k1xxx_flash.c" 1
	SET [r5], #4
	// 0 "" 2
.LM86:
// inline asm end
	POP	lr
	.cfi_remember_state
	.cfi_def_cfa_offset 0
	JMP	lr
.LVL27:
.L36:
	.cfi_restore_state
.LM87:
	MOV	r0,#1
.LVL28:
	LD	r5,#CHECK_RESTRICTION
	LJMP	r5
.LVL29:
.LM88:
	LD	r5,#1075839232
// inline asm begin
	// 357 "../src/kf32a9k1xxx_flash.c" 1
	CLR [r5], #4
	// 0 "" 2
.LM89:
// inline asm end
	POP	lr
	.cfi_def_cfa_offset 0
	JMP	lr
	.cfi_endproc
.LFE20:
	.size	FLASH_Zone_Config, .-FLASH_Zone_Config
	.section .indata$FLASH_Standby_Mode_Config_RAM
	.type	.indata$FLASH_Standby_Mode_Config_RAM$scode_local_20, @function
	.indata$FLASH_Standby_Mode_Config_RAM$scode_local_20:
	.align	1
	.export	FLASH_Standby_Mode_Config_RAM
	.type	FLASH_Standby_Mode_Config_RAM, @function
FLASH_Standby_Mode_Config_RAM:
.LFB21:
.LM90:
	.cfi_startproc
.LVL30:
.LM91:
	CMP	r0,#0
	JZ	.L43
.LM92:
	CMP	r0,#32
	JZ	.L43
.LM93:
	CMP	r0,#64
	JZ	.L43
.LVL31:
.LBB302:
.LBB303:
.LM94:
	CMP	r0,#96
	JZ	.L43
.L54:
	JMP	.L54
.LVL32:
.L43:
.LBE303:
.LBE302:
.LM95:
	LD	r5,#1075839232
	LD.w	r3,[r5]
.LVL33:
.LBB304:
.LBB305:
.LM96:
	LD	r4,#65503
	ANL	r4,r3,r4
.LBE305:
.LBE304:
.LM97:
	LD	r3,#1353646080
.LVL34:
	ORL	r4,r4,r3
.LBB307:
.LBB306:
.LM98:
	ORL	r0,r4,r0
.LVL35:
.LBE306:
.LBE307:
.LM99:
	ST.w	[r5],r0
.LM100:
	JMP	lr
	.cfi_endproc
.LFE21:
	.size	FLASH_Standby_Mode_Config_RAM, .-FLASH_Standby_Mode_Config_RAM
	.section .indata$FLASH_Read_Mode_Config_RAM
	.type	.indata$FLASH_Read_Mode_Config_RAM$scode_local_21, @function
	.indata$FLASH_Read_Mode_Config_RAM$scode_local_21:
	.align	1
	.export	FLASH_Read_Mode_Config_RAM
	.type	FLASH_Read_Mode_Config_RAM, @function
FLASH_Read_Mode_Config_RAM:
.LFB22:
.LM101:
	.cfi_startproc
.LVL36:
.LM102:
	CMP	r0,#0
	JZ	.L57
.LVL37:
.LBB308:
.LBB309:
.LM103:
	CMP	r0,#2
	JZ	.L61
.L60:
	JMP	.L60
.LVL38:
.L57:
.LBE309:
.LBE308:
.LM104:
	LD	r5,#1075839236
// inline asm begin
	// 408 "../src/kf32a9k1xxx_flash.c" 1
	CLR [r5], #1
	// 0 "" 2
.LM105:
// inline asm end
	JMP	lr
.LVL39:
.L61:
.LM106:
	LD	r5,#1075839236
// inline asm begin
	// 403 "../src/kf32a9k1xxx_flash.c" 1
	SET [r5], #1
	// 0 "" 2
.LM107:
// inline asm end
	JMP	lr
	.cfi_endproc
.LFE22:
	.size	FLASH_Read_Mode_Config_RAM, .-FLASH_Read_Mode_Config_RAM
	.section .indata$FLASH_Calibration_Updata_Enable_RAM
	.type	.indata$FLASH_Calibration_Updata_Enable_RAM$scode_local_22, @function
	.indata$FLASH_Calibration_Updata_Enable_RAM$scode_local_22:
	.align	1
	.export	FLASH_Calibration_Updata_Enable_RAM
	.type	FLASH_Calibration_Updata_Enable_RAM, @function
FLASH_Calibration_Updata_Enable_RAM:
.LFB23:
.LM108:
	.cfi_startproc
.LVL40:
.LBB310:
.LBB311:
.LM109:
	CMP	r0,#1
	JLS	.L66
.L64:
	JMP	.L64
.L66:
.LVL41:
.LBE311:
.LBE310:
.LM110:
	LD	r5,#1075839232
	LD.w	r3,[r5+#1]
.LVL42:
.LBB312:
.LBB313:
.LM111:
	LD	r4,#65534
	ANL	r4,r3,r4
.LBE313:
.LBE312:
.LM112:
	LD	r3,#-1604386816
.LVL43:
	ORL	r4,r4,r3
.LM113:
	LSL	r0,#2
.LVL44:
.LBB315:
.LBB314:
.LM114:
	ORL	r0,r4,r0
.LBE314:
.LBE315:
.LM115:
	ST.w	[r5+#1],r0
.LM116:
	JMP	lr
	.cfi_endproc
.LFE23:
	.size	FLASH_Calibration_Updata_Enable_RAM, .-FLASH_Calibration_Updata_Enable_RAM
	.section .indata$FLASH_Information_Zone_Wipe_Unlock_Config_RAM
	.type	.indata$FLASH_Information_Zone_Wipe_Unlock_Config_RAM$scode_local_23, @function
	.indata$FLASH_Information_Zone_Wipe_Unlock_Config_RAM$scode_local_23:
	.align	1
	.export	FLASH_Information_Zone_Wipe_Unlock_Config_RAM
	.type	FLASH_Information_Zone_Wipe_Unlock_Config_RAM, @function
FLASH_Information_Zone_Wipe_Unlock_Config_RAM:
.LFB24:
.LM117:
	.cfi_startproc
.LVL45:
.LBB316:
.LBB317:
.LM118:
	CMP	r0,#1
	JLS	.L71
.L69:
	JMP	.L69
.L71:
.LVL46:
.LBE317:
.LBE316:
.LM119:
	LD	r5,#1075839232
	LD.w	r3,[r5+#1]
.LVL47:
.LBB318:
.LBB319:
.LM120:
	LD	r4,#65534
	ANL	r4,r3,r4
.LBE319:
.LBE318:
.LM121:
	LD	r3,#-1604386816
.LVL48:
	ORL	r4,r4,r3
.LM122:
	LSL	r0,#15
.LVL49:
.LBB321:
.LBB320:
.LM123:
	ORL	r0,r4,r0
.LBE320:
.LBE321:
.LM124:
	ST.w	[r5+#1],r0
.LM125:
	JMP	lr
	.cfi_endproc
.LFE24:
	.size	FLASH_Information_Zone_Wipe_Unlock_Config_RAM, .-FLASH_Information_Zone_Wipe_Unlock_Config_RAM
	.section .indata$FLASH_Half_Page_Write_Size_Config_RAM
	.type	.indata$FLASH_Half_Page_Write_Size_Config_RAM$scode_local_24, @function
	.indata$FLASH_Half_Page_Write_Size_Config_RAM$scode_local_24:
	.align	1
	.export	FLASH_Half_Page_Write_Size_Config_RAM
	.type	FLASH_Half_Page_Write_Size_Config_RAM, @function
FLASH_Half_Page_Write_Size_Config_RAM:
.LFB25:
.LM126:
	.cfi_startproc
.LVL50:
.LM127:
	MOV	r4,#6
	LSR	r5,r0,r4
.LBB322:
.LBB323:
.LM128:
	CMP	r5,#0
	JZ	.L76
.L74:
	JMP	.L74
.L76:
.LVL51:
.LBE323:
.LBE322:
.LM129:
	LD	r5,#1075839232
	LD.w	r3,[r5+#2]
.LVL52:
.LM130:
	LSL	r0,#5
.LVL53:
.LBB324:
.LBB325:
.LM131:
	LD	r4,#-2017
	ANL	r4,r3,r4
	ORL	r0,r0,r4
.LVL54:
.LBE325:
.LBE324:
.LM132:
	ST.w	[r5+#2],r0
.LM133:
	JMP	lr
	.cfi_endproc
.LFE25:
	.size	FLASH_Half_Page_Write_Size_Config_RAM, .-FLASH_Half_Page_Write_Size_Config_RAM
	.section .indata$FLASH_Program_Cmd_Config_RAM
	.type	.indata$FLASH_Program_Cmd_Config_RAM$scode_local_25, @function
	.indata$FLASH_Program_Cmd_Config_RAM$scode_local_25:
	.align	1
	.export	FLASH_Program_Cmd_Config_RAM
	.type	FLASH_Program_Cmd_Config_RAM, @function
FLASH_Program_Cmd_Config_RAM:
.LFB26:
.LM134:
	.cfi_startproc
.LVL55:
.LM135:
	CMP	r0,#21
	JZ	.L78
.LM136:
	CMP	r0,#10
	JZ	.L78
.LM137:
	CMP	r0,#27
	JZ	.L78
.LVL56:
.LBB326:
.LBB327:
.LM138:
	CMP	r0,#5
	JZ	.L78
.L89:
	JMP	.L89
.LVL57:
.L78:
.LBE327:
.LBE326:
.LM139:
	LD	r5,#1075839232
	LD.w	r3,[r5+#2]
.LVL58:
.LBB328:
.LBB329:
.LM140:
	MOV	r4,#31
	NOT	r4,r4
	ANL	r4,r3,r4
	ORL	r0,r0,r4
.LVL59:
.LBE329:
.LBE328:
.LM141:
	ST.w	[r5+#2],r0
.LM142:
	JMP	lr
	.cfi_endproc
.LFE26:
	.size	FLASH_Program_Cmd_Config_RAM, .-FLASH_Program_Cmd_Config_RAM
	.section .indata$FLASH_Executive_Cmd_RAM
	.type	.indata$FLASH_Executive_Cmd_RAM$scode_local_26, @function
	.indata$FLASH_Executive_Cmd_RAM$scode_local_26:
	.align	1
	.export	FLASH_Executive_Cmd_RAM
	.type	FLASH_Executive_Cmd_RAM, @function
FLASH_Executive_Cmd_RAM:
.LFB27:
.LM143:
	.cfi_startproc
.LVL60:
.LM144:
	LD	r5,#1075839232
	LD.w	r3,[r5+#3]
.LVL61:
.LBB330:
.LBB331:
.LM145:
	LD	r4,#65534
	ANL	r4,r3,r4
	LD	r3,#1353646081
.LVL62:
	ORL	r4,r4,r3
.LBE331:
.LBE330:
.LM146:
	ST.w	[r5+#3],r4
.LM147:
	JMP	lr
	.cfi_endproc
.LFE27:
	.size	FLASH_Executive_Cmd_RAM, .-FLASH_Executive_Cmd_RAM
	.section .text$FLASH_Executive_Cmd
	.type	.text$FLASH_Executive_Cmd$scode_local_27, @function
	.text$FLASH_Executive_Cmd$scode_local_27:
	.align	1
	.export	FLASH_Executive_Cmd
	.type	FLASH_Executive_Cmd, @function
FLASH_Executive_Cmd:
.LFB28:
.LM148:
	.cfi_startproc
.LVL63:
.LM149:
	LD	r5,#1075839232
	LD.w	r3,[r5+#3]
.LVL64:
.LBB332:
.LBB333:
.LM150:
	LD	r4,#65534
	ANL	r4,r3,r4
	LD	r3,#1353646081
.LVL65:
	ORL	r4,r4,r3
.LBE333:
.LBE332:
.LM151:
	ST.w	[r5+#3],r4
.LM152:
	JMP	lr
	.cfi_endproc
.LFE28:
	.size	FLASH_Executive_Cmd, .-FLASH_Executive_Cmd
	.section .indata$FLASH_NonVolatile_Memory_ECC_Enable_RAM
	.type	.indata$FLASH_NonVolatile_Memory_ECC_Enable_RAM$scode_local_28, @function
	.indata$FLASH_NonVolatile_Memory_ECC_Enable_RAM$scode_local_28:
	.align	1
	.export	FLASH_NonVolatile_Memory_ECC_Enable_RAM
	.type	FLASH_NonVolatile_Memory_ECC_Enable_RAM, @function
FLASH_NonVolatile_Memory_ECC_Enable_RAM:
.LFB29:
.LM153:
	.cfi_startproc
.LVL66:
.LBB334:
.LBB335:
.LM154:
	CMP	r0,#1
	JLS	.L98
.L97:
	JMP	.L97
.L98:
.LBE335:
.LBE334:
.LM155:
	LD	r5,#1075839252
.LM156:
	CMP	r0,#0
	JNZ	.L99
.LM157:
// inline asm begin
	// 553 "../src/kf32a9k1xxx_flash.c" 1
	CLR [r5], #7
	// 0 "" 2
.LM158:
// inline asm end
	JMP	lr
.L99:
.LM159:
// inline asm begin
	// 548 "../src/kf32a9k1xxx_flash.c" 1
	SET [r5], #7
	// 0 "" 2
.LM160:
// inline asm end
	JMP	lr
	.cfi_endproc
.LFE29:
	.size	FLASH_NonVolatile_Memory_ECC_Enable_RAM, .-FLASH_NonVolatile_Memory_ECC_Enable_RAM
	.section .indata$FLASH_Linear_Prefetch_Enable_RAM
	.type	.indata$FLASH_Linear_Prefetch_Enable_RAM$scode_local_29, @function
	.indata$FLASH_Linear_Prefetch_Enable_RAM$scode_local_29:
	.align	1
	.export	FLASH_Linear_Prefetch_Enable_RAM
	.type	FLASH_Linear_Prefetch_Enable_RAM, @function
FLASH_Linear_Prefetch_Enable_RAM:
.LFB30:
.LM161:
	.cfi_startproc
.LVL67:
.LBB336:
.LBB337:
.LM162:
	CMP	r0,#1
	JLS	.L105
.L104:
	JMP	.L104
.L105:
.LBE337:
.LBE336:
.LM163:
	LD	r5,#1075839252
.LM164:
	CMP	r0,#0
	JNZ	.L106
.LM165:
// inline asm begin
	// 577 "../src/kf32a9k1xxx_flash.c" 1
	CLR [r5], #6
	// 0 "" 2
.LM166:
// inline asm end
	JMP	lr
.L106:
.LM167:
// inline asm begin
	// 572 "../src/kf32a9k1xxx_flash.c" 1
	SET [r5], #6
	// 0 "" 2
.LM168:
// inline asm end
	JMP	lr
	.cfi_endproc
.LFE30:
	.size	FLASH_Linear_Prefetch_Enable_RAM, .-FLASH_Linear_Prefetch_Enable_RAM
	.section .indata$FLASH_Period_Number_Config_RAM
	.type	.indata$FLASH_Period_Number_Config_RAM$scode_local_30, @function
	.indata$FLASH_Period_Number_Config_RAM$scode_local_30:
	.align	1
	.export	FLASH_Period_Number_Config_RAM
	.type	FLASH_Period_Number_Config_RAM, @function
FLASH_Period_Number_Config_RAM:
.LFB31:
.LM169:
	.cfi_startproc
.LVL68:
.LM170:
	MOV	r4,#4
	LSR	r5,r0,r4
.LBB338:
.LBB339:
.LM171:
	CMP	r5,#0
	JZ	.L111
.L109:
	JMP	.L109
.L111:
.LVL69:
.LBE339:
.LBE338:
.LM172:
	LD	r5,#1075839232
	LD.w	r3,[r5+#5]
.LVL70:
.LM173:
	SUB	r0,r0,#1
.LVL71:
.LBB340:
.LBB341:
.LM174:
	MOV	r4,#15
	NOT	r4,r4
	ANL	r4,r3,r4
	ORL	r0,r0,r4
.LBE341:
.LBE340:
.LM175:
	ST.w	[r5+#5],r0
.LM176:
	JMP	lr
	.cfi_endproc
.LFE31:
	.size	FLASH_Period_Number_Config_RAM, .-FLASH_Period_Number_Config_RAM
	.section .indata$FLASH_Program_Addr_Config_RAM
	.type	.indata$FLASH_Program_Addr_Config_RAM$scode_local_31, @function
	.indata$FLASH_Program_Addr_Config_RAM$scode_local_31:
	.align	1
	.export	FLASH_Program_Addr_Config_RAM
	.type	FLASH_Program_Addr_Config_RAM, @function
FLASH_Program_Addr_Config_RAM:
.LFB32:
.LM177:
	.cfi_startproc
.LVL72:
.LM178:
	MOV	r4,#20
	LSR	r5,r0,r4
.LBB342:
.LBB343:
.LM179:
	CMP	r5,#0
	JZ	.L116
.L114:
	JMP	.L114
.L116:
.LVL73:
.LBE343:
.LBE342:
.LM180:
	LD	r5,#1075839232
	LD.w	r3,[r5+#7]
.LVL74:
.LBB344:
.LBB345:
.LM181:
	LD	r4,#-1048573
	ANL	r4,r3,r4
	ORL	r0,r0,r4
.LVL75:
.LBE345:
.LBE344:
.LM182:
	ST.w	[r5+#7],r0
.LM183:
	JMP	lr
	.cfi_endproc
.LFE32:
	.size	FLASH_Program_Addr_Config_RAM, .-FLASH_Program_Addr_Config_RAM
	.section .indata$FLASH_Get_Program_Status_RAM
	.type	.indata$FLASH_Get_Program_Status_RAM$scode_local_32, @function
	.indata$FLASH_Get_Program_Status_RAM$scode_local_32:
	.align	1
	.export	FLASH_Get_Program_Status_RAM
	.type	FLASH_Get_Program_Status_RAM, @function
FLASH_Get_Program_Status_RAM:
.LFB33:
.LM184:
	.cfi_startproc
.LM185:
	LD	r5,#1075839232
	LD.w	r0,[r5+#8]
	LSR	r0,#3
.LM186:
	MOV	r5,#1
	ANL	r0,r0,r5
	JMP	lr
	.cfi_endproc
.LFE33:
	.size	FLASH_Get_Program_Status_RAM, .-FLASH_Get_Program_Status_RAM
	.section .text$FLASH_Get_Program_Status
	.type	.text$FLASH_Get_Program_Status$scode_local_33, @function
	.text$FLASH_Get_Program_Status$scode_local_33:
	.align	1
	.export	FLASH_Get_Program_Status
	.type	FLASH_Get_Program_Status, @function
FLASH_Get_Program_Status:
.LFB34:
.LM187:
	.cfi_startproc
.LM188:
	LD	r5,#1075839232
	LD.w	r0,[r5+#8]
	LSR	r0,#3
.LM189:
	MOV	r5,#1
	ANL	r0,r0,r5
	JMP	lr
	.cfi_endproc
.LFE34:
	.size	FLASH_Get_Program_Status, .-FLASH_Get_Program_Status
	.section .indata$FLASH_Get_Wipe_Status_RAM
	.type	.indata$FLASH_Get_Wipe_Status_RAM$scode_local_34, @function
	.indata$FLASH_Get_Wipe_Status_RAM$scode_local_34:
	.align	1
	.export	FLASH_Get_Wipe_Status_RAM
	.type	FLASH_Get_Wipe_Status_RAM, @function
FLASH_Get_Wipe_Status_RAM:
.LFB35:
.LM190:
	.cfi_startproc
.LM191:
	LD	r5,#1075839232
	LD.w	r0,[r5+#8]
	LSR	r0,#2
.LM192:
	MOV	r5,#1
	ANL	r0,r0,r5
	JMP	lr
	.cfi_endproc
.LFE35:
	.size	FLASH_Get_Wipe_Status_RAM, .-FLASH_Get_Wipe_Status_RAM
	.section .text$FLASH_Get_Wipe_Status
	.type	.text$FLASH_Get_Wipe_Status$scode_local_35, @function
	.text$FLASH_Get_Wipe_Status$scode_local_35:
	.align	1
	.export	FLASH_Get_Wipe_Status
	.type	FLASH_Get_Wipe_Status, @function
FLASH_Get_Wipe_Status:
.LFB36:
.LM193:
	.cfi_startproc
.LM194:
	LD	r5,#1075839232
	LD.w	r0,[r5+#8]
	LSR	r0,#2
.LM195:
	MOV	r5,#1
	ANL	r0,r0,r5
	JMP	lr
	.cfi_endproc
.LFE36:
	.size	FLASH_Get_Wipe_Status, .-FLASH_Get_Wipe_Status
	.section .indata$FLASH_Get_Compute_Complete_Status_RAM
	.type	.indata$FLASH_Get_Compute_Complete_Status_RAM$scode_local_36, @function
	.indata$FLASH_Get_Compute_Complete_Status_RAM$scode_local_36:
	.align	1
	.export	FLASH_Get_Compute_Complete_Status_RAM
	.type	FLASH_Get_Compute_Complete_Status_RAM, @function
FLASH_Get_Compute_Complete_Status_RAM:
.LFB37:
.LM196:
	.cfi_startproc
.LM197:
	LD	r5,#1075839232
	LD.w	r0,[r5+#8]
	LSR	r0,#1
.LM198:
	MOV	r5,#1
	ANL	r0,r0,r5
	JMP	lr
	.cfi_endproc
.LFE37:
	.size	FLASH_Get_Compute_Complete_Status_RAM, .-FLASH_Get_Compute_Complete_Status_RAM
	.section .indata$FLASH_Clear_Compute_Complete_Status_RAM
	.type	.indata$FLASH_Clear_Compute_Complete_Status_RAM$scode_local_37, @function
	.indata$FLASH_Clear_Compute_Complete_Status_RAM$scode_local_37:
	.align	1
	.export	FLASH_Clear_Compute_Complete_Status_RAM
	.type	FLASH_Clear_Compute_Complete_Status_RAM, @function
FLASH_Clear_Compute_Complete_Status_RAM:
.LFB38:
.LM199:
	.cfi_startproc
.LM200:
	LD	r3,#1075839232
	LD.w	r5,[r3+#8]
	MOV	r4,#2
	ANL	r5,r5,r4
	JZ	.L122
.LM201:
	LD	r2,#1075839264
.L127:
// inline asm begin
	// 733 "../src/kf32a9k1xxx_flash.c" 1
	SET [r2], #1
	// 0 "" 2
.LM202:
// inline asm end
	LD.w	r5,[r3+#8]
	ANL	r5,r5,r4
	JNZ	.L127
.L122:
.LM203:
	JMP	lr
	.cfi_endproc
.LFE38:
	.size	FLASH_Clear_Compute_Complete_Status_RAM, .-FLASH_Clear_Compute_Complete_Status_RAM
	.section .indata$FLASH_Get_CFG_Error_Flag_RAM
	.type	.indata$FLASH_Get_CFG_Error_Flag_RAM$scode_local_38, @function
	.indata$FLASH_Get_CFG_Error_Flag_RAM$scode_local_38:
	.align	1
	.export	FLASH_Get_CFG_Error_Flag_RAM
	.type	FLASH_Get_CFG_Error_Flag_RAM, @function
FLASH_Get_CFG_Error_Flag_RAM:
.LFB39:
.LM204:
	.cfi_startproc
.LM205:
	LD	r5,#1075839232
	LD.w	r0,[r5+#8]
.LM206:
	MOV	r5,#1
	ANL	r0,r0,r5
	JMP	lr
	.cfi_endproc
.LFE39:
	.size	FLASH_Get_CFG_Error_Flag_RAM, .-FLASH_Get_CFG_Error_Flag_RAM
	.section .indata$FLASH_Clear_CFG_Error_Flag_RAM
	.type	.indata$FLASH_Clear_CFG_Error_Flag_RAM$scode_local_39, @function
	.indata$FLASH_Clear_CFG_Error_Flag_RAM$scode_local_39:
	.align	1
	.export	FLASH_Clear_CFG_Error_Flag_RAM
	.type	FLASH_Clear_CFG_Error_Flag_RAM, @function
FLASH_Clear_CFG_Error_Flag_RAM:
.LFB40:
.LM207:
	.cfi_startproc
.LM208:
	LD	r3,#1075839232
	LD.w	r5,[r3+#8]
	MOV	r4,#1
	ANL	r5,r5,r4
	JZ	.L131
.LM209:
	LD	r2,#1075839264
.L136:
// inline asm begin
	// 771 "../src/kf32a9k1xxx_flash.c" 1
	SET [r2], #0
	// 0 "" 2
.LM210:
// inline asm end
	LD.w	r5,[r3+#8]
	ANL	r5,r5,r4
	JNZ	.L136
.L131:
.LM211:
	JMP	lr
	.cfi_endproc
.LFE40:
	.size	FLASH_Clear_CFG_Error_Flag_RAM, .-FLASH_Clear_CFG_Error_Flag_RAM
	.section .indata$FLASH_CheckSum_Addr_Config_RAM
	.type	.indata$FLASH_CheckSum_Addr_Config_RAM$scode_local_40, @function
	.indata$FLASH_CheckSum_Addr_Config_RAM$scode_local_40:
	.align	1
	.export	FLASH_CheckSum_Addr_Config_RAM
	.type	FLASH_CheckSum_Addr_Config_RAM, @function
FLASH_CheckSum_Addr_Config_RAM:
.LFB41:
.LM212:
	.cfi_startproc
.LVL76:
.LM213:
	MOV	r4,#20
	LSR	r5,r0,r4
.LBB346:
.LBB347:
.LM214:
	CMP	r5,#0
	JZ	.L145
.L142:
	JMP	.L142
.L145:
.LVL77:
.LBE347:
.LBE346:
.LM215:
	LSR	r5,r1,r4
.LBB348:
.LBB349:
.LM216:
	CMP	r5,#0
	JZ	.L146
.L143:
	JMP	.L143
.L146:
.LBE349:
.LBE348:
.LM217:
	LD	r5,#1075839232
	ST.w	[r5+#14],r0
.LM218:
	ST.w	[r5+#15],r1
.LM219:
	JMP	lr
	.cfi_endproc
.LFE41:
	.size	FLASH_CheckSum_Addr_Config_RAM, .-FLASH_CheckSum_Addr_Config_RAM
	.section .indata$FLASH_Start_SIG_Compute_Enable_RAM
	.type	.indata$FLASH_Start_SIG_Compute_Enable_RAM$scode_local_41, @function
	.indata$FLASH_Start_SIG_Compute_Enable_RAM$scode_local_41:
	.align	1
	.export	FLASH_Start_SIG_Compute_Enable_RAM
	.type	FLASH_Start_SIG_Compute_Enable_RAM, @function
FLASH_Start_SIG_Compute_Enable_RAM:
.LFB42:
.LM220:
	.cfi_startproc
.LVL78:
.LBB350:
.LBB351:
.LM221:
	CMP	r0,#1
	JLS	.L152
.L151:
	JMP	.L151
.L152:
.LBE351:
.LBE350:
.LM222:
	LD	r5,#1075839292
.LM223:
	CMP	r0,#0
	JNZ	.L153
.LM224:
// inline asm begin
	// 813 "../src/kf32a9k1xxx_flash.c" 1
	CLR [r5], #20
	// 0 "" 2
.LM225:
// inline asm end
	JMP	lr
.L153:
.LM226:
// inline asm begin
	// 808 "../src/kf32a9k1xxx_flash.c" 1
	SET [r5], #20
	// 0 "" 2
.LM227:
// inline asm end
	JMP	lr
	.cfi_endproc
.LFE42:
	.size	FLASH_Start_SIG_Compute_Enable_RAM, .-FLASH_Start_SIG_Compute_Enable_RAM
	.section .indata$FLASH_Get_CheckSum_Result_RAM
	.type	.indata$FLASH_Get_CheckSum_Result_RAM$scode_local_42, @function
	.indata$FLASH_Get_CheckSum_Result_RAM$scode_local_42:
	.align	1
	.export	FLASH_Get_CheckSum_Result_RAM
	.type	FLASH_Get_CheckSum_Result_RAM, @function
FLASH_Get_CheckSum_Result_RAM:
.LFB43:
.LM228:
	.cfi_startproc
.LVL79:
.LM229:
	LD	r5,#1075839232
	LD.w	r4,[r5+#16]
.LVL80:
.LM230:
	ST.w	[r0],r4
.LM231:
	LD.w	r4,[r5+#17]
.LVL81:
	ST.w	[r0+#1],r4
.LVL82:
.LM232:
	LD.w	r4,[r5+#18]
.LVL83:
	ST.w	[r0+#2],r4
.LVL84:
.LM233:
	LD.w	r5,[r5+#19]
	ST.w	[r0+#3],r5
.LVL85:
.LM234:
	JMP	lr
	.cfi_endproc
.LFE43:
	.size	FLASH_Get_CheckSum_Result_RAM, .-FLASH_Get_CheckSum_Result_RAM
	.section .indata$FLASH_Wipe_Configuration_RAM
	.type	.indata$FLASH_Wipe_Configuration_RAM$scode_local_43, @function
	.indata$FLASH_Wipe_Configuration_RAM$scode_local_43:
	.align	1
	.export	FLASH_Wipe_Configuration_RAM
	.type	FLASH_Wipe_Configuration_RAM, @function
FLASH_Wipe_Configuration_RAM:
.LFB44:
.LM235:
	.cfi_startproc
.LVL86:
.LBB352:
.LBB353:
.LM236:
	CMP	r0,#2
	JLS	.L167
.L164:
	JMP	.L164
.L167:
.LVL87:
.LBE353:
.LBE352:
.LM237:
	MOV	r4,#20
	LSR	r5,r1,r4
.LBB354:
.LBB355:
.LM238:
	CMP	r5,#0
	JZ	.L168
.L165:
	JMP	.L165
.L168:
.LBE355:
.LBE354:
.LBB356:
.LBB357:
.LM239:
	LD	r5,#1075839232
	LD	r4,#-2023406815
	ST.w	[r5+#10],r4
.LM240:
	LD	r4,#84148994
	ST.w	[r5+#10],r4
.LBE357:
.LBE356:
.LBB358:
.LBB359:
.LM241:
	LD	r4,#2023406814
	ST.w	[r5+#11],r4
.LM242:
	LD	r4,#370480147
	ST.w	[r5+#11],r4
.LBE359:
.LBE358:
.LBB360:
.LBB361:
.LM243:
	LD	r4,#-2019933218
	ST.w	[r5+#12],r4
.LM244:
	LD	r4,#656811300
	ST.w	[r5+#12],r4
.LBE361:
.LBE360:
.LM245:
	MOV	r4,#10
.LM246:
	CMP	r0,#2
	JZ	.L158
.LM247:
	ST.w	[r5+#7],r1
.LM248:
	MOV	r4,#27
.LM249:
	CMP	r0,#1
	JZ	.L169
.L158:
.LVL88:
.LM250:
	LD	r3,#1075839232
	LD.w	r2,[r3+#2]
.LVL89:
.LBB362:
.LBB363:
.LM251:
	MOV	r5,#31
	NOT	r5,r5
	ANL	r5,r2,r5
	ORL	r4,r4,r5
.LVL90:
.LBE363:
.LBE362:
.LM252:
	ST.w	[r3+#2],r4
.LVL91:
.LBB364:
.LBB365:
.LM253:
	LD.w	r4,[r3+#3]
.LVL92:
.LBB366:
.LBB367:
.LM254:
	LD	r5,#65534
	ANL	r5,r4,r5
	LD	r4,#1353646081
.LVL93:
	ORL	r5,r5,r4
.LBE367:
.LBE366:
.LM255:
	ST.w	[r3+#3],r5
.LBE365:
.LBE364:
.LBB368:
.LBB369:
.LM256:
	MOV	r4,#4
.L159:
.LM257:
	LD.w	r5,[r3+#8]
	ANL	r5,r5,r4
	JNZ	.L159
.LVL94:
.LBE369:
.LBE368:
.LBB370:
.LBB371:
.LM258:
	LD	r5,#1075839232
// inline asm begin
	// 332 "../src/kf32a9k1xxx_flash.c" 1
	CLR [r5], #4
	// 0 "" 2
.LVL95:
// inline asm end
.LBE371:
.LBE370:
.LBB372:
.LBB373:
.LM259:
	LD.w	r3,[r5]
.LVL96:
.LBB374:
.LBB375:
.LM260:
	LD	r4,#65534
	ANL	r4,r3,r4
	LD	r3,#1353646081
.LVL97:
	ORL	r4,r4,r3
.LBE375:
.LBE374:
.LM261:
	ST.w	[r5],r4
.LVL98:
.LBE373:
.LBE372:
.LBB376:
.LBB377:
.LM262:
	LD.w	r3,[r5]
.LVL99:
.LBB378:
.LBB379:
.LM263:
	LD	r4,#65533
	ANL	r4,r3,r4
	LD	r3,#1353646082
.LVL100:
	ORL	r4,r4,r3
.LBE379:
.LBE378:
.LM264:
	ST.w	[r5],r4
.LVL101:
.LBE377:
.LBE376:
.LBB380:
.LBB381:
.LM265:
	LD.w	r3,[r5]
.LVL102:
.LBB382:
.LBB383:
.LM266:
	LD	r4,#65531
	ANL	r4,r3,r4
	LD	r3,#1353646084
.LVL103:
	ORL	r4,r4,r3
.LBE383:
.LBE382:
.LM267:
	ST.w	[r5],r4
.LBE381:
.LBE380:
.LM268:
	JMP	lr
.LVL104:
.L169:
.LM269:
// inline asm begin
	// 891 "../src/kf32a9k1xxx_flash.c" 1
	SET [r5], #4
	// 0 "" 2
// inline asm end
	JMP	.L158
	.cfi_endproc
.LFE44:
	.size	FLASH_Wipe_Configuration_RAM, .-FLASH_Wipe_Configuration_RAM
	.section .text$FLASH_Wipe_Configuration
	.type	.text$FLASH_Wipe_Configuration$scode_local_44, @function
	.text$FLASH_Wipe_Configuration$scode_local_44:
	.align	1
	.export	FLASH_Wipe_Configuration
	.type	FLASH_Wipe_Configuration, @function
FLASH_Wipe_Configuration:
.LFB45:
.LM270:
	.cfi_startproc
.LVL105:
	PUSH	{r6, r7, r8, lr}
	.cfi_def_cfa_offset 16
	MOV	r6,r0
	MOV	r8,r1
.LVL106:
.LM271:
	MOV	r0,#1
.LVL107:
	CMP	r6,#2
	JLS	.L171
	MOV	r0,#0
.L171:
	LD	r7,#CHECK_RESTRICTION
	LJMP	r7
.LVL108:
.LM272:
	MOV	r5,r8
	LSR	r5,#20
	MOV	r0,#1
	CMP	r5,#0
	JZ	.L172
	MOV	r0,#0
.L172:
	LJMP	r7
.LVL109:
.LBB384:
.LBB385:
.LM273:
	LD	r5,#1075839232
	LD	r4,#-2023406815
	ST.w	[r5+#10],r4
.LM274:
	LD	r4,#84148994
	ST.w	[r5+#10],r4
.LBE385:
.LBE384:
.LBB386:
.LBB387:
.LM275:
	LD	r4,#2023406814
	ST.w	[r5+#11],r4
.LM276:
	LD	r4,#370480147
	ST.w	[r5+#11],r4
.LBE387:
.LBE386:
.LBB388:
.LBB389:
.LM277:
	LD	r4,#-2019933218
	ST.w	[r5+#12],r4
.LM278:
	LD	r4,#656811300
	ST.w	[r5+#12],r4
.LBE389:
.LBE388:
.LM279:
	MOV	r4,#10
.LM280:
	CMP	r6,#2
	JZ	.L173
.LM281:
	MOV	r4,r8
	ST.w	[r5+#7],r4
.LM282:
	MOV	r4,#27
.LM283:
	CMP	r6,#1
	JZ	.L182
.L173:
.LVL110:
.LM284:
	LD	r3,#1075839232
	LD.w	r2,[r3+#2]
.LVL111:
.LBB390:
.LBB391:
.LM285:
	MOV	r5,#31
	NOT	r5,r5
	ANL	r5,r2,r5
	ORL	r4,r4,r5
.LVL112:
.LBE391:
.LBE390:
.LM286:
	ST.w	[r3+#2],r4
.LVL113:
.LBB392:
.LBB393:
.LM287:
	LD.w	r4,[r3+#3]
.LVL114:
.LBB394:
.LBB395:
.LM288:
	LD	r5,#65534
	ANL	r5,r4,r5
	LD	r4,#1353646081
.LVL115:
	ORL	r5,r5,r4
.LBE395:
.LBE394:
.LM289:
	ST.w	[r3+#3],r5
.LBE393:
.LBE392:
.LBB396:
.LBB397:
.LM290:
	MOV	r4,#4
.L174:
.LM291:
	LD.w	r5,[r3+#8]
	ANL	r5,r5,r4
	JNZ	.L174
.LVL116:
.LBE397:
.LBE396:
.LBB398:
.LBB399:
.LM292:
	LD	r5,#1075839232
// inline asm begin
	// 332 "../src/kf32a9k1xxx_flash.c" 1
	CLR [r5], #4
	// 0 "" 2
.LVL117:
// inline asm end
.LBE399:
.LBE398:
.LBB400:
.LBB401:
.LM293:
	LD.w	r3,[r5]
.LVL118:
.LBB402:
.LBB403:
.LM294:
	LD	r4,#65534
	ANL	r4,r3,r4
	LD	r3,#1353646081
.LVL119:
	ORL	r4,r4,r3
.LBE403:
.LBE402:
.LM295:
	ST.w	[r5],r4
.LVL120:
.LBE401:
.LBE400:
.LBB404:
.LBB405:
.LM296:
	LD.w	r3,[r5]
.LVL121:
.LBB406:
.LBB407:
.LM297:
	LD	r4,#65533
	ANL	r4,r3,r4
	LD	r3,#1353646082
.LVL122:
	ORL	r4,r4,r3
.LBE407:
.LBE406:
.LM298:
	ST.w	[r5],r4
.LVL123:
.LBE405:
.LBE404:
.LBB408:
.LBB409:
.LM299:
	LD.w	r3,[r5]
.LVL124:
.LBB410:
.LBB411:
.LM300:
	LD	r4,#65531
	ANL	r4,r3,r4
	LD	r3,#1353646084
.LVL125:
	ORL	r4,r4,r3
.LBE411:
.LBE410:
.LM301:
	ST.w	[r5],r4
.LBE409:
.LBE408:
.LM302:
	POP	{r6, r7, r8}
	.cfi_remember_state
	.cfi_def_cfa_offset 4
.LVL126:
	POP	lr
	.cfi_def_cfa_offset 0
	JMP	lr
.LVL127:
.L182:
	.cfi_restore_state
.LM303:
// inline asm begin
	// 977 "../src/kf32a9k1xxx_flash.c" 1
	SET [r5], #4
	// 0 "" 2
// inline asm end
	JMP	.L173
	.cfi_endproc
.LFE45:
	.size	FLASH_Wipe_Configuration, .-FLASH_Wipe_Configuration
	.section .indata$FLASH_Program_Configuration_RAM
	.type	.indata$FLASH_Program_Configuration_RAM$scode_local_45, @function
	.indata$FLASH_Program_Configuration_RAM$scode_local_45:
	.align	1
	.export	FLASH_Program_Configuration_RAM
	.type	FLASH_Program_Configuration_RAM, @function
FLASH_Program_Configuration_RAM:
.LFB46:
.LM304:
	.cfi_startproc
.LVL128:
	PUSH	r6
	.cfi_def_cfa_offset 4
.LVL129:
.LM305:
	LD.w	r3,[r0]
	CMP	r3,#21
	JZ	.L184
.LVL130:
.LBB412:
.LBB413:
.LM306:
	CMP	r3,#5
	JZ	.L184
.L207:
	JMP	.L207
.LVL131:
.L184:
.LBE413:
.LBE412:
.LM307:
	LD.w	r2,[r0+#1]
.LVL132:
.LBB414:
.LBB415:
.LM308:
	CMP	r2,#1
	JLS	.L214
.L209:
	JMP	.L209
.L214:
.LBE415:
.LBE414:
.LM309:
	LD.w	r4,[r0+#2]
.LVL133:
	MOV	r1,#20
	LSR	r5,r4,r1
.LBB416:
.LBB417:
.LM310:
	CMP	r5,#0
	JZ	.L215
.L208:
	JMP	.L208
.L215:
.LBE417:
.LBE416:
.LM311:
	LD.w	r1,[r0+#3]
.LVL134:
	MOV	r6,#6
	LSR	r5,r1,r6
.LBB418:
.LBB419:
.LM312:
	CMP	r5,#0
	JZ	.L216
.L210:
	JMP	.L210
.L216:
.LBE419:
.LBE418:
.LBB420:
.LBB421:
.LM313:
	LD	r5,#1075839232
	LD	r6,#-2023406815
	ST.w	[r5+#10],r6
.LM314:
	LD	r6,#84148994
	ST.w	[r5+#10],r6
.LBE421:
.LBE420:
.LBB422:
.LBB423:
.LM315:
	LD	r6,#-2019933218
	ST.w	[r5+#12],r6
.LM316:
	LD	r6,#656811300
	ST.w	[r5+#12],r6
.LBE423:
.LBE422:
.LBB424:
.LBB425:
.LM317:
	LD	r6,#2023406814
	ST.w	[r5+#11],r6
.LM318:
	LD	r6,#370480147
	ST.w	[r5+#11],r6
.LBE425:
.LBE424:
.LM319:
// inline asm begin
	// 1054 "../src/kf32a9k1xxx_flash.c" 1
	SET [r5], #3
	// 0 "" 2
.LM320:
// inline asm end
	CMP	r2,#0
	JZ	.L189
.LM321:
// inline asm begin
	// 1059 "../src/kf32a9k1xxx_flash.c" 1
	SET [r5], #4
	// 0 "" 2
// inline asm end
.L189:
.LVL135:
.LM322:
	LD.w	r0,[r0+#4]
.LVL136:
.LM323:
	CMP	r3,#21
	JZ	.L190
.LVL137:
.LBB426:
.LM324:
	LD	r2,#1075839232
.LVL138:
	LD.w	r6,[r2+#2]
.LVL139:
.LM325:
	LSL	r1,#5
.LVL140:
.LBB427:
.LBB428:
.LM326:
	LD	r5,#-2048
	ANL	r5,r6,r5
.LBE428:
.LBE427:
.LM327:
	ORL	r1,r1,r5
.LBB430:
.LBB429:
.LM328:
	ORL	r3,r1,r3
.LVL141:
.LBE429:
.LBE430:
.LM329:
	ST.w	[r2+#2],r3
.LVL142:
.LBB431:
.LBB432:
.LM330:
	LD.w	r3,[r2+#3]
.LVL143:
.LBB433:
.LBB434:
.LM331:
	LD	r5,#65534
	ANL	r3,r3,r5
.LVL144:
	LD	r5,#1353646081
	ORL	r5,r3,r5
.LBE434:
.LBE433:
.LM332:
	ST.w	[r2+#3],r5
.LVL145:
.LM333:
	MOV	r1,#1
	LSL	r1,#9
	ADD	r1,r4,r1
	SUB	r0,r0,r4
.LVL146:
.LBE432:
.LBE431:
.LBB435:
.LBB436:
.LM334:
	MOV	r3,#8
.LVL147:
.L195:
.LBE436:
.LBE435:
.LM335:
	LD.w	r5,[r0+r4]
// inline asm begin
	// 1084 "../src/kf32a9k1xxx_flash.c" 1
	ST.w [r4], r5
	// 0 "" 2
.LVL148:
.LM336:
// inline asm end
	ADD	r5,r4,#4
.LM337:
	ADD	r6,r0,r4
.LM338:
	LD.w	r6,[r6+#1]
// inline asm begin
	// 1087 "../src/kf32a9k1xxx_flash.c" 1
	ST.w [r5], r6
	// 0 "" 2
.LM339:
// inline asm end
	ADD	r4,#8
.LVL149:
.L191:
.LBB438:
.LBB437:
.LM340:
	LD.w	r5,[r2+#8]
	ANL	r5,r5,r3
	JNZ	.L191
.LBE437:
.LBE438:
.LM341:
	CMP	r4,r1
	JNZ	.L195
.LVL150:
.L193:
.LBE426:
.LBB439:
.LBB440:
.LM342:
	LD	r3,#1075839232
	MOV	r4,#4
.L201:
	LD.w	r5,[r3+#8]
	ANL	r5,r5,r4
	JNZ	.L201
.LVL151:
.LBE440:
.LBE439:
.LBB441:
.LBB442:
.LM343:
	LD	r5,#1075839232
// inline asm begin
	// 332 "../src/kf32a9k1xxx_flash.c" 1
	CLR [r5], #4
	// 0 "" 2
// inline asm end
.LBE442:
.LBE441:
.LBB443:
.LBB444:
.LM344:
// inline asm begin
	// 306 "../src/kf32a9k1xxx_flash.c" 1
	CLR [r5], #3
	// 0 "" 2
.LVL152:
// inline asm end
.LBE444:
.LBE443:
.LBB445:
.LBB446:
.LM345:
	LD.w	r3,[r5]
.LVL153:
.LBB447:
.LBB448:
.LM346:
	LD	r4,#65534
	ANL	r3,r3,r4
.LVL154:
	LD	r4,#1353646081
	ORL	r4,r3,r4
.LBE448:
.LBE447:
.LM347:
	ST.w	[r5],r4
.LVL155:
.LBE446:
.LBE445:
.LBB449:
.LBB450:
.LM348:
	LD.w	r3,[r5]
.LVL156:
.LBB451:
.LBB452:
.LM349:
	LD	r4,#65533
	ANL	r3,r3,r4
.LVL157:
	LD	r4,#1353646082
	ORL	r4,r3,r4
.LBE452:
.LBE451:
.LM350:
	ST.w	[r5],r4
.LVL158:
.LBE450:
.LBE449:
.LBB453:
.LBB454:
.LM351:
	LD.w	r3,[r5]
.LVL159:
.LBB455:
.LBB456:
.LM352:
	LD	r4,#65531
	ANL	r3,r3,r4
.LVL160:
	LD	r4,#1353646084
	ORL	r4,r3,r4
.LBE456:
.LBE455:
.LM353:
	ST.w	[r5],r4
.LBE454:
.LBE453:
.LM354:
	POP	r6
	.cfi_remember_state
	.cfi_def_cfa_offset 0
	JMP	lr
.LVL161:
.L190:
	.cfi_restore_state
.LM355:
	LD	r5,#1075839232
	LD.w	r1,[r5+#2]
.LVL162:
.LBB457:
.LBB458:
.LM356:
	MOV	r2,#31
.LVL163:
	NOT	r2,r2
	ANL	r2,r1,r2
	ORL	r3,r2,r3
.LBE458:
.LBE457:
.LM357:
	ST.w	[r5+#2],r3
.LM358:
	LD.w	r5,[r0]
// inline asm begin
	// 1103 "../src/kf32a9k1xxx_flash.c" 1
	ST.w [r4], r5
	// 0 "" 2
.LVL164:
.LM359:
// inline asm end
	ADD	r4,r4,#4
.LVL165:
.LM360:
	LD.w	r5,[r0+#1]
// inline asm begin
	// 1106 "../src/kf32a9k1xxx_flash.c" 1
	ST.w [r4], r5
	// 0 "" 2
.LVL166:
// inline asm end
.LBB459:
.LBB460:
.LM361:
	LD	r5,#1075839232
	LD.w	r3,[r5+#3]
.LVL167:
.LBB461:
.LBB462:
.LM362:
	LD	r4,#65534
	ANL	r3,r3,r4
.LVL168:
	LD	r4,#1353646081
	ORL	r4,r3,r4
.LBE462:
.LBE461:
.LM363:
	ST.w	[r5+#3],r4
	JMP	.L193
.LBE460:
.LBE459:
	.cfi_endproc
.LFE46:
	.size	FLASH_Program_Configuration_RAM, .-FLASH_Program_Configuration_RAM
	.section .text$FLASH_Program_Configuration
	.type	.text$FLASH_Program_Configuration$scode_local_46, @function
	.text$FLASH_Program_Configuration$scode_local_46:
	.align	1
	.export	FLASH_Program_Configuration
	.type	FLASH_Program_Configuration, @function
FLASH_Program_Configuration:
.LFB47:
.LM364:
	.cfi_startproc
.LVL169:
	PUSH	{r6, r7, lr}
	.cfi_def_cfa_offset 12
	MOV	r6,r0
.LVL170:
.LM365:
	LD.w	r5,[r0]
	MOV	r0,#1
.LVL171:
	CMP	r5,#21
	JZ	.L218
.LM366:
	CMP	r5,#5
	JZ	.L218
	MOV	r0,#0
.L218:
.LM367:
	LD	r7,#CHECK_RESTRICTION
	LJMP	r7
.LVL172:
.LM368:
	MOV	r0,#1
	LD.w	r5,[r6+#1]
	CMP	r5,r0
	JLS	.L220
	MOV	r0,#0
.L220:
	LJMP	r7
.LVL173:
.LM369:
	LD.w	r5,[r6+#2]
	LSR	r5,#20
	MOV	r0,#1
	CMP	r5,#0
	JZ	.L221
	MOV	r0,#0
.L221:
	LJMP	r7
.LVL174:
.LM370:
	LD.w	r5,[r6+#3]
	LSR	r5,#6
	MOV	r0,#1
	CMP	r5,#0
	JZ	.L222
	MOV	r0,#0
.L222:
	LJMP	r7
.LVL175:
.LBB463:
.LBB464:
.LM371:
	LD	r5,#1075839232
	LD	r4,#-2023406815
	ST.w	[r5+#10],r4
.LM372:
	LD	r4,#84148994
	ST.w	[r5+#10],r4
.LBE464:
.LBE463:
.LBB465:
.LBB466:
.LM373:
	LD	r4,#-2019933218
	ST.w	[r5+#12],r4
.LM374:
	LD	r4,#656811300
	ST.w	[r5+#12],r4
.LBE466:
.LBE465:
.LBB467:
.LBB468:
.LM375:
	LD	r4,#2023406814
	ST.w	[r5+#11],r4
.LM376:
	LD	r4,#370480147
	ST.w	[r5+#11],r4
.LBE468:
.LBE467:
.LM377:
// inline asm begin
	// 1160 "../src/kf32a9k1xxx_flash.c" 1
	SET [r5], #3
	// 0 "" 2
.LM378:
// inline asm end
	LD.w	r5,[r6+#1]
	CMP	r5,#0
	JZ	.L223
.LM379:
	LD	r5,#1075839232
// inline asm begin
	// 1165 "../src/kf32a9k1xxx_flash.c" 1
	SET [r5], #4
	// 0 "" 2
// inline asm end
.L223:
.LM380:
	LD.w	r4,[r6+#2]
.LVL176:
.LM381:
	LD.w	r0,[r6+#4]
.LVL177:
.LM382:
	LD.w	r5,[r6]
	CMP	r5,#21
	JZ	.L224
.LVL178:
.LBB469:
.LM383:
	LD	r2,#1075839232
	LD.w	r7,[r2+#2]
.LVL179:
.LM384:
	LD.w	r1,[r6+#3]
	LSL	r1,#5
.LBB470:
.LBB471:
.LM385:
	LD	r3,#-2048
	ANL	r3,r7,r3
.LBE471:
.LBE470:
.LM386:
	ORL	r3,r1,r3
.LBB473:
.LBB472:
.LM387:
	ORL	r5,r3,r5
.LVL180:
.LBE472:
.LBE473:
.LM388:
	ST.w	[r2+#2],r5
.LVL181:
.LBB474:
.LBB475:
.LM389:
	LD.w	r3,[r2+#3]
.LVL182:
.LBB476:
.LBB477:
.LM390:
	LD	r5,#65534
	ANL	r3,r3,r5
.LVL183:
	LD	r5,#1353646081
	ORL	r5,r3,r5
.LBE477:
.LBE476:
.LM391:
	ST.w	[r2+#3],r5
.LVL184:
.LM392:
	MOV	r1,#1
	LSL	r1,#9
	ADD	r1,r4,r1
	SUB	r0,r0,r4
.LVL185:
.LBE475:
.LBE474:
.LBB478:
.LBB479:
.LM393:
	MOV	r3,#8
.LVL186:
.L229:
.LBE479:
.LBE478:
.LM394:
	LD.w	r5,[r0+r4]
// inline asm begin
	// 1190 "../src/kf32a9k1xxx_flash.c" 1
	ST.w [r4], r5
	// 0 "" 2
.LVL187:
.LM395:
// inline asm end
	ADD	r5,r4,#4
.LM396:
	ADD	r6,r0,r4
.LM397:
	LD.w	r6,[r6+#1]
// inline asm begin
	// 1193 "../src/kf32a9k1xxx_flash.c" 1
	ST.w [r5], r6
	// 0 "" 2
.LM398:
// inline asm end
	ADD	r4,#8
.LVL188:
.L225:
.LBB481:
.LBB480:
.LM399:
	LD.w	r5,[r2+#8]
	ANL	r5,r5,r3
	JNZ	.L225
.LBE480:
.LBE481:
.LM400:
	CMP	r4,r1
	JNZ	.L229
.LVL189:
.L227:
.LBE469:
.LBB482:
.LBB483:
.LM401:
	LD	r4,#1075839232
	MOV	r5,#4
.L240:
	LD.w	r0,[r4+#8]
	ANL	r0,r0,r5
	JNZ	.L240
.LBE483:
.LBE482:
.LM402:
	LD	r5,#FLASH_Zone_Config
	LJMP	r5
.LVL190:
.LBB484:
.LBB485:
.LM403:
	LD	r5,#1075839232
// inline asm begin
	// 306 "../src/kf32a9k1xxx_flash.c" 1
	CLR [r5], #3
	// 0 "" 2
.LVL191:
// inline asm end
.LBE485:
.LBE484:
.LBB486:
.LBB487:
.LM404:
	LD.w	r3,[r5]
.LVL192:
.LBB488:
.LBB489:
.LM405:
	LD	r4,#65534
	ANL	r3,r3,r4
.LVL193:
	LD	r4,#1353646081
	ORL	r4,r3,r4
.LBE489:
.LBE488:
.LM406:
	ST.w	[r5],r4
.LVL194:
.LBE487:
.LBE486:
.LBB490:
.LBB491:
.LM407:
	LD.w	r3,[r5]
.LVL195:
.LBB492:
.LBB493:
.LM408:
	LD	r4,#65533
	ANL	r3,r3,r4
.LVL196:
	LD	r4,#1353646082
	ORL	r4,r3,r4
.LBE493:
.LBE492:
.LM409:
	ST.w	[r5],r4
.LVL197:
.LBE491:
.LBE490:
.LBB494:
.LBB495:
.LM410:
	LD.w	r3,[r5]
.LVL198:
.LBB496:
.LBB497:
.LM411:
	LD	r4,#65531
	ANL	r3,r3,r4
.LVL199:
	LD	r4,#1353646084
	ORL	r4,r3,r4
.LBE497:
.LBE496:
.LM412:
	ST.w	[r5],r4
.LBE495:
.LBE494:
.LM413:
	POP	{r6, r7}
	.cfi_remember_state
	.cfi_def_cfa_offset 4
	POP	lr
	.cfi_def_cfa_offset 0
	JMP	lr
.LVL200:
.L224:
	.cfi_restore_state
.LM414:
	LD	r3,#1075839232
	LD.w	r1,[r3+#2]
.LVL201:
.LBB498:
.LBB499:
.LM415:
	MOV	r2,#31
	NOT	r2,r2
	ANL	r2,r1,r2
	ORL	r5,r2,r5
.LBE499:
.LBE498:
.LM416:
	ST.w	[r3+#2],r5
.LM417:
	LD.w	r5,[r0]
// inline asm begin
	// 1209 "../src/kf32a9k1xxx_flash.c" 1
	ST.w [r4], r5
	// 0 "" 2
.LVL202:
.LM418:
// inline asm end
	ADD	r4,r4,#4
.LM419:
	LD.w	r5,[r0+#1]
// inline asm begin
	// 1212 "../src/kf32a9k1xxx_flash.c" 1
	ST.w [r4], r5
	// 0 "" 2
.LVL203:
// inline asm end
.LBB500:
.LBB501:
.LM420:
	LD	r5,#1075839232
	LD.w	r3,[r5+#3]
.LVL204:
.LBB502:
.LBB503:
.LM421:
	LD	r4,#65534
	ANL	r3,r3,r4
.LVL205:
	LD	r4,#1353646081
	ORL	r4,r3,r4
.LBE503:
.LBE502:
.LM422:
	ST.w	[r5+#3],r4
	JMP	.L227
.LBE501:
.LBE500:
	.cfi_endproc
.LFE47:
	.size	FLASH_Program_Configuration, .-FLASH_Program_Configuration
	.section .indata$Read_Flash_or_CFR_RAM
	.type	.indata$Read_Flash_or_CFR_RAM$scode_local_47, @function
	.indata$Read_Flash_or_CFR_RAM$scode_local_47:
	.align	1
	.export	Read_Flash_or_CFR_RAM
	.type	Read_Flash_or_CFR_RAM, @function
Read_Flash_or_CFR_RAM:
.LFB48:
.LM423:
	.cfi_startproc
.LVL206:
.LBB504:
.LBB505:
.LM424:
	CMP	r1,#1
	JLS	.L257
.L255:
	JMP	.L255
.L257:
.LBE505:
.LBE504:
.LBB506:
.LBB507:
.LM425:
	LD	r5,#1075839232
	LD	r4,#-2023406815
	ST.w	[r5+#10],r4
.LM426:
	LD	r4,#84148994
	ST.w	[r5+#10],r4
.LBE507:
.LBE506:
.LBB508:
.LBB509:
.LM427:
	LD	r4,#-2019933218
	ST.w	[r5+#12],r4
.LM428:
	LD	r4,#656811300
	ST.w	[r5+#12],r4
.LBE509:
.LBE508:
.LBB510:
.LBB511:
.LM429:
	LD	r4,#2023406814
	ST.w	[r5+#11],r4
.LM430:
	LD	r4,#370480147
	ST.w	[r5+#11],r4
.LBE511:
.LBE510:
.LM431:
	CMP	r1,#1
	JNZ	.L258
.LVL207:
.LBB512:
.LBB513:
.LM432:
// inline asm begin
	// 327 "../src/kf32a9k1xxx_flash.c" 1
	SET [r5], #4
	// 0 "" 2
.LVL208:
// inline asm end
.LBE513:
.LBE512:
.LM433:
	LD.w	r0,[r0]
.LVL209:
	LD	r5,#read_data
	ST.w	[r5],r0
.LVL210:
.LBB514:
.LBB515:
.LM434:
	LD	r5,#1075839232
// inline asm begin
	// 332 "../src/kf32a9k1xxx_flash.c" 1
	CLR [r5], #4
	// 0 "" 2
.LVL211:
// inline asm end
.L254:
.LBE515:
.LBE514:
.LBB516:
.LBB517:
.LM435:
	LD	r5,#1075839232
	LD.w	r3,[r5]
.LVL212:
.LBB518:
.LBB519:
.LM436:
	LD	r4,#65534
	ANL	r4,r3,r4
	LD	r3,#1353646081
.LVL213:
	ORL	r4,r4,r3
.LBE519:
.LBE518:
.LM437:
	ST.w	[r5],r4
.LVL214:
.LBE517:
.LBE516:
.LBB520:
.LBB521:
.LM438:
	LD.w	r3,[r5]
.LVL215:
.LBB522:
.LBB523:
.LM439:
	LD	r4,#65533
	ANL	r4,r3,r4
	LD	r3,#1353646082
.LVL216:
	ORL	r4,r4,r3
.LBE523:
.LBE522:
.LM440:
	ST.w	[r5],r4
.LVL217:
.LBE521:
.LBE520:
.LBB524:
.LBB525:
.LM441:
	LD.w	r3,[r5]
.LVL218:
.LBB526:
.LBB527:
.LM442:
	LD	r4,#65531
	ANL	r4,r3,r4
	LD	r3,#1353646084
.LVL219:
	ORL	r4,r4,r3
.LBE527:
.LBE526:
.LM443:
	ST.w	[r5],r4
.LBE525:
.LBE524:
.LM444:
	JMP	lr
.LVL220:
.L258:
.LM445:
	LD.w	r0,[r0]
.LVL221:
	LD	r5,#read_data
	ST.w	[r5],r0
	JMP	.L254
	.cfi_endproc
.LFE48:
	.size	Read_Flash_or_CFR_RAM, .-Read_Flash_or_CFR_RAM
	.section .text$Read_Flash_or_CFR
	.type	.text$Read_Flash_or_CFR$scode_local_48, @function
	.text$Read_Flash_or_CFR$scode_local_48:
	.align	1
	.export	Read_Flash_or_CFR
	.type	Read_Flash_or_CFR, @function
Read_Flash_or_CFR:
.LFB49:
.LM446:
	.cfi_startproc
.LVL222:
	PUSH	{r6, r7, lr}
	.cfi_def_cfa_offset 12
	MOV	r7,r0
	MOV	r6,r1
.LM447:
	MOV	r0,#1
.LVL223:
	CMP	r1,r0
	JLS	.L260
	MOV	r0,#0
.L260:
	LD	r5,#CHECK_RESTRICTION
	LJMP	r5
.LVL224:
.LBB528:
.LBB529:
.LM448:
	LD	r5,#1075839232
	LD	r4,#-2023406815
	ST.w	[r5+#10],r4
.LM449:
	LD	r4,#84148994
	ST.w	[r5+#10],r4
.LBE529:
.LBE528:
.LBB530:
.LBB531:
.LM450:
	LD	r4,#-2019933218
	ST.w	[r5+#12],r4
.LM451:
	LD	r4,#656811300
	ST.w	[r5+#12],r4
.LBE531:
.LBE530:
.LBB532:
.LBB533:
.LM452:
	LD	r4,#2023406814
	ST.w	[r5+#11],r4
.LM453:
	LD	r4,#370480147
	ST.w	[r5+#11],r4
.LBE533:
.LBE532:
.LM454:
	CMP	r6,#1
	JZ	.L261
.LVL225:
.LM455:
	LD.w	r0,[r7]
	LD	r5,#read_data
	ST.w	[r5],r0
.L262:
.LVL226:
.LBB534:
.LBB535:
.LM456:
	LD	r5,#1075839232
	LD.w	r3,[r5]
.LVL227:
.LBB536:
.LBB537:
.LM457:
	LD	r4,#65534
	ANL	r4,r3,r4
	LD	r3,#1353646081
.LVL228:
	ORL	r4,r4,r3
.LBE537:
.LBE536:
.LM458:
	ST.w	[r5],r4
.LVL229:
.LBE535:
.LBE534:
.LBB538:
.LBB539:
.LM459:
	LD.w	r3,[r5]
.LVL230:
.LBB540:
.LBB541:
.LM460:
	LD	r4,#65533
	ANL	r4,r3,r4
	LD	r3,#1353646082
.LVL231:
	ORL	r4,r4,r3
.LBE541:
.LBE540:
.LM461:
	ST.w	[r5],r4
.LVL232:
.LBE539:
.LBE538:
.LBB542:
.LBB543:
.LM462:
	LD.w	r3,[r5]
.LVL233:
.LBB544:
.LBB545:
.LM463:
	LD	r4,#65531
	ANL	r4,r3,r4
	LD	r3,#1353646084
.LVL234:
	ORL	r4,r4,r3
.LBE545:
.LBE544:
.LM464:
	ST.w	[r5],r4
.LBE543:
.LBE542:
.LM465:
	POP	{r6, r7}
	.cfi_remember_state
	.cfi_def_cfa_offset 4
.LVL235:
	POP	lr
	.cfi_def_cfa_offset 0
	JMP	lr
.LVL236:
.L261:
	.cfi_restore_state
.LBB546:
.LBB547:
.LM466:
// inline asm begin
	// 327 "../src/kf32a9k1xxx_flash.c" 1
	SET [r5], #4
	// 0 "" 2
.LVL237:
// inline asm end
.LBE547:
.LBE546:
.LM467:
	LD.w	r0,[r7]
	LD	r5,#read_data
	ST.w	[r5],r0
.LVL238:
.LBB548:
.LBB549:
.LM468:
	LD	r5,#1075839232
// inline asm begin
	// 332 "../src/kf32a9k1xxx_flash.c" 1
	CLR [r5], #4
	// 0 "" 2
// inline asm end
	JMP	.L262
.LBE549:
.LBE548:
	.cfi_endproc
.LFE49:
	.size	Read_Flash_or_CFR, .-Read_Flash_or_CFR
	.section .text$Read_Soft_Device_ID1
	.type	.text$Read_Soft_Device_ID1$scode_local_49, @function
	.text$Read_Soft_Device_ID1$scode_local_49:
	.align	1
	.export	Read_Soft_Device_ID1
	.type	Read_Soft_Device_ID1, @function
Read_Soft_Device_ID1:
.LFB50:
.LM469:
	.cfi_startproc
	PUSH	lr
	.cfi_def_cfa_offset 4
.LM470:
	LD	r0,#1092
	MOV	r1,#1
	LD	r5,#Read_Flash_or_CFR
	LJMP	r5
.LVL239:
.LM471:
	POP	lr
	.cfi_def_cfa_offset 0
	JMP	lr
	.cfi_endproc
.LFE50:
	.size	Read_Soft_Device_ID1, .-Read_Soft_Device_ID1
	.section .text$Read_Soft_Device_ID2
	.type	.text$Read_Soft_Device_ID2$scode_local_50, @function
	.text$Read_Soft_Device_ID2$scode_local_50:
	.align	1
	.export	Read_Soft_Device_ID2
	.type	Read_Soft_Device_ID2, @function
Read_Soft_Device_ID2:
.LFB51:
.LM472:
	.cfi_startproc
	PUSH	lr
	.cfi_def_cfa_offset 4
.LM473:
	LD	r0,#1096
	MOV	r1,#1
	LD	r5,#Read_Flash_or_CFR
	LJMP	r5
.LVL240:
.LM474:
	POP	lr
	.cfi_def_cfa_offset 0
	JMP	lr
	.cfi_endproc
.LFE51:
	.size	Read_Soft_Device_ID2, .-Read_Soft_Device_ID2
	.section .text$Read_Soft_Device_ID3
	.type	.text$Read_Soft_Device_ID3$scode_local_51, @function
	.text$Read_Soft_Device_ID3$scode_local_51:
	.align	1
	.export	Read_Soft_Device_ID3
	.type	Read_Soft_Device_ID3, @function
Read_Soft_Device_ID3:
.LFB52:
.LM475:
	.cfi_startproc
	PUSH	lr
	.cfi_def_cfa_offset 4
.LM476:
	LD	r0,#1100
	MOV	r1,#1
	LD	r5,#Read_Flash_or_CFR
	LJMP	r5
.LVL241:
.LM477:
	POP	lr
	.cfi_def_cfa_offset 0
	JMP	lr
	.cfi_endproc
.LFE52:
	.size	Read_Soft_Device_ID3, .-Read_Soft_Device_ID3
	.section .text$Read_Soft_Device_ID4
	.type	.text$Read_Soft_Device_ID4$scode_local_52, @function
	.text$Read_Soft_Device_ID4$scode_local_52:
	.align	1
	.export	Read_Soft_Device_ID4
	.type	Read_Soft_Device_ID4, @function
Read_Soft_Device_ID4:
.LFB53:
.LM478:
	.cfi_startproc
	PUSH	lr
	.cfi_def_cfa_offset 4
.LM479:
	LD	r0,#1104
	MOV	r1,#1
	LD	r5,#Read_Flash_or_CFR
	LJMP	r5
.LVL242:
.LM480:
	POP	lr
	.cfi_def_cfa_offset 0
	JMP	lr
	.cfi_endproc
.LFE53:
	.size	Read_Soft_Device_ID4, .-Read_Soft_Device_ID4
	.section .text$CACHE_Get_CACHE_ECC_Error_Flag
	.type	.text$CACHE_Get_CACHE_ECC_Error_Flag$scode_local_53, @function
	.text$CACHE_Get_CACHE_ECC_Error_Flag$scode_local_53:
	.align	1
	.export	CACHE_Get_CACHE_ECC_Error_Flag
	.type	CACHE_Get_CACHE_ECC_Error_Flag, @function
CACHE_Get_CACHE_ECC_Error_Flag:
.LFB54:
.LM481:
	.cfi_startproc
.LM482:
	LD	r5,#1075839168
	LD.w	r0,[r5]
	MOV	r5,#1
	LSL	r5,#9
	ANL	r0,r0,r5
.LM483:
	LSR	r0,#9
	JMP	lr
	.cfi_endproc
.LFE54:
	.size	CACHE_Get_CACHE_ECC_Error_Flag, .-CACHE_Get_CACHE_ECC_Error_Flag
	.section .text$CACHE_Get_FLASH_ECC_Error_Flag
	.type	.text$CACHE_Get_FLASH_ECC_Error_Flag$scode_local_54, @function
	.text$CACHE_Get_FLASH_ECC_Error_Flag$scode_local_54:
	.align	1
	.export	CACHE_Get_FLASH_ECC_Error_Flag
	.type	CACHE_Get_FLASH_ECC_Error_Flag, @function
CACHE_Get_FLASH_ECC_Error_Flag:
.LFB55:
.LM484:
	.cfi_startproc
.LM485:
	LD	r5,#1075839168
	LD.w	r0,[r5]
	MOV	r5,#255
	ADD	r5,r5,#1
	ANL	r0,r0,r5
.LM486:
	LSR	r0,#8
	JMP	lr
	.cfi_endproc
.LFE55:
	.size	CACHE_Get_FLASH_ECC_Error_Flag, .-CACHE_Get_FLASH_ECC_Error_Flag
	.section .text$CACHE_RAM_Check_ECC_Error_INT_Enable
	.type	.text$CACHE_RAM_Check_ECC_Error_INT_Enable$scode_local_55, @function
	.text$CACHE_RAM_Check_ECC_Error_INT_Enable$scode_local_55:
	.align	1
	.export	CACHE_RAM_Check_ECC_Error_INT_Enable
	.type	CACHE_RAM_Check_ECC_Error_INT_Enable, @function
CACHE_RAM_Check_ECC_Error_INT_Enable:
.LFB56:
.LM487:
	.cfi_startproc
.LVL243:
	PUSH	{r6, lr}
	.cfi_def_cfa_offset 8
	MOV	r6,r0
.LVL244:
.LM488:
	MOV	r0,#1
.LVL245:
	CMP	r6,r0
	JLS	.L270
	MOV	r0,#0
.L270:
	LD	r5,#CHECK_RESTRICTION
	LJMP	r5
.LVL246:
.LM489:
	LD	r5,#1075839168
	LD.w	r4,[r5]
.LVL247:
.LM490:
	LSL	r6,#7
.LVL248:
.LBB550:
.LBB551:
.LM491:
	CLR	r4,#7
.LVL249:
	ORL	r6,r6,r4
.LVL250:
.LBE551:
.LBE550:
.LM492:
	ST.w	[r5],r6
.LM493:
	POP	r6
	.cfi_def_cfa_offset 4
	POP	lr
	.cfi_def_cfa_offset 0
	JMP	lr
	.cfi_endproc
.LFE56:
	.size	CACHE_RAM_Check_ECC_Error_INT_Enable, .-CACHE_RAM_Check_ECC_Error_INT_Enable
	.section .text$CACHE_CACHE_Check_ECC_Error_INT_Enable
	.type	.text$CACHE_CACHE_Check_ECC_Error_INT_Enable$scode_local_56, @function
	.text$CACHE_CACHE_Check_ECC_Error_INT_Enable$scode_local_56:
	.align	1
	.export	CACHE_CACHE_Check_ECC_Error_INT_Enable
	.type	CACHE_CACHE_Check_ECC_Error_INT_Enable, @function
CACHE_CACHE_Check_ECC_Error_INT_Enable:
.LFB57:
.LM494:
	.cfi_startproc
.LVL251:
	PUSH	{r6, lr}
	.cfi_def_cfa_offset 8
	MOV	r6,r0
.LVL252:
.LM495:
	MOV	r0,#1
.LVL253:
	CMP	r6,r0
	JLS	.L272
	MOV	r0,#0
.L272:
	LD	r5,#CHECK_RESTRICTION
	LJMP	r5
.LVL254:
.LM496:
	LD	r5,#1075839168
	LD.w	r4,[r5]
.LVL255:
.LM497:
	LSL	r6,#6
.LVL256:
.LBB552:
.LBB553:
.LM498:
	CLR	r4,#6
.LVL257:
	ORL	r6,r6,r4
.LVL258:
.LBE553:
.LBE552:
.LM499:
	ST.w	[r5],r6
.LM500:
	POP	r6
	.cfi_def_cfa_offset 4
	POP	lr
	.cfi_def_cfa_offset 0
	JMP	lr
	.cfi_endproc
.LFE57:
	.size	CACHE_CACHE_Check_ECC_Error_INT_Enable, .-CACHE_CACHE_Check_ECC_Error_INT_Enable
	.section .text$CACHE_FLASH_Check_ECC_Error_INT_Enable
	.type	.text$CACHE_FLASH_Check_ECC_Error_INT_Enable$scode_local_57, @function
	.text$CACHE_FLASH_Check_ECC_Error_INT_Enable$scode_local_57:
	.align	1
	.export	CACHE_FLASH_Check_ECC_Error_INT_Enable
	.type	CACHE_FLASH_Check_ECC_Error_INT_Enable, @function
CACHE_FLASH_Check_ECC_Error_INT_Enable:
.LFB58:
.LM501:
	.cfi_startproc
.LVL259:
	PUSH	{r6, lr}
	.cfi_def_cfa_offset 8
	MOV	r6,r0
.LVL260:
.LM502:
	MOV	r0,#1
.LVL261:
	CMP	r6,r0
	JLS	.L274
	MOV	r0,#0
.L274:
	LD	r5,#CHECK_RESTRICTION
	LJMP	r5
.LVL262:
.LM503:
	LD	r5,#1075839168
	LD.w	r4,[r5]
.LVL263:
.LM504:
	LSL	r6,#5
.LVL264:
.LBB554:
.LBB555:
.LM505:
	CLR	r4,#5
.LVL265:
	ORL	r6,r6,r4
.LVL266:
.LBE555:
.LBE554:
.LM506:
	ST.w	[r5],r6
.LM507:
	POP	r6
	.cfi_def_cfa_offset 4
	POP	lr
	.cfi_def_cfa_offset 0
	JMP	lr
	.cfi_endproc
.LFE58:
	.size	CACHE_FLASH_Check_ECC_Error_INT_Enable, .-CACHE_FLASH_Check_ECC_Error_INT_Enable
	.section .text$CACHE_CACHE_Check_ECC_Enable
	.type	.text$CACHE_CACHE_Check_ECC_Enable$scode_local_58, @function
	.text$CACHE_CACHE_Check_ECC_Enable$scode_local_58:
	.align	1
	.export	CACHE_CACHE_Check_ECC_Enable
	.type	CACHE_CACHE_Check_ECC_Enable, @function
CACHE_CACHE_Check_ECC_Enable:
.LFB59:
.LM508:
	.cfi_startproc
.LVL267:
	PUSH	{r6, lr}
	.cfi_def_cfa_offset 8
	MOV	r6,r0
.LVL268:
.LM509:
	MOV	r0,#1
.LVL269:
	CMP	r6,r0
	JLS	.L276
	MOV	r0,#0
.L276:
	LD	r5,#CHECK_RESTRICTION
	LJMP	r5
.LVL270:
.LM510:
	LD	r5,#1075839168
	LD.w	r4,[r5]
.LVL271:
.LM511:
	LSL	r6,#4
.LVL272:
.LBB556:
.LBB557:
.LM512:
	CLR	r4,#4
.LVL273:
	ORL	r6,r6,r4
.LVL274:
.LBE557:
.LBE556:
.LM513:
	ST.w	[r5],r6
.LM514:
	POP	r6
	.cfi_def_cfa_offset 4
	POP	lr
	.cfi_def_cfa_offset 0
	JMP	lr
	.cfi_endproc
.LFE59:
	.size	CACHE_CACHE_Check_ECC_Enable, .-CACHE_CACHE_Check_ECC_Enable
	.section .text$CACHE_Instruction_CACHE_Read_2Row_Enable
	.type	.text$CACHE_Instruction_CACHE_Read_2Row_Enable$scode_local_59, @function
	.text$CACHE_Instruction_CACHE_Read_2Row_Enable$scode_local_59:
	.align	1
	.export	CACHE_Instruction_CACHE_Read_2Row_Enable
	.type	CACHE_Instruction_CACHE_Read_2Row_Enable, @function
CACHE_Instruction_CACHE_Read_2Row_Enable:
.LFB60:
.LM515:
	.cfi_startproc
.LVL275:
	PUSH	{r6, lr}
	.cfi_def_cfa_offset 8
	MOV	r6,r0
.LVL276:
.LM516:
	MOV	r0,#1
.LVL277:
	CMP	r6,r0
	JLS	.L278
	MOV	r0,#0
.L278:
	LD	r5,#CHECK_RESTRICTION
	LJMP	r5
.LVL278:
.LM517:
	LD	r5,#1075839168
	LD.w	r4,[r5]
.LVL279:
.LM518:
	LSL	r6,#3
.LVL280:
.LBB558:
.LBB559:
.LM519:
	CLR	r4,#3
.LVL281:
	ORL	r6,r6,r4
.LVL282:
.LBE559:
.LBE558:
.LM520:
	ST.w	[r5],r6
.LM521:
	POP	r6
	.cfi_def_cfa_offset 4
	POP	lr
	.cfi_def_cfa_offset 0
	JMP	lr
	.cfi_endproc
.LFE60:
	.size	CACHE_Instruction_CACHE_Read_2Row_Enable, .-CACHE_Instruction_CACHE_Read_2Row_Enable
	.section .text$CACHE_Instruction_CACHE_Write_2Row_Enable
	.type	.text$CACHE_Instruction_CACHE_Write_2Row_Enable$scode_local_60, @function
	.text$CACHE_Instruction_CACHE_Write_2Row_Enable$scode_local_60:
	.align	1
	.export	CACHE_Instruction_CACHE_Write_2Row_Enable
	.type	CACHE_Instruction_CACHE_Write_2Row_Enable, @function
CACHE_Instruction_CACHE_Write_2Row_Enable:
.LFB61:
.LM522:
	.cfi_startproc
.LVL283:
	PUSH	{r6, lr}
	.cfi_def_cfa_offset 8
	MOV	r6,r0
.LVL284:
.LM523:
	MOV	r0,#1
.LVL285:
	CMP	r6,r0
	JLS	.L280
	MOV	r0,#0
.L280:
	LD	r5,#CHECK_RESTRICTION
	LJMP	r5
.LVL286:
.LM524:
	LD	r5,#1075839168
	LD.w	r4,[r5]
.LVL287:
.LM525:
	LSL	r6,#2
.LVL288:
.LBB560:
.LBB561:
.LM526:
	CLR	r4,#2
.LVL289:
	ORL	r6,r6,r4
.LVL290:
.LBE561:
.LBE560:
.LM527:
	ST.w	[r5],r6
.LM528:
	POP	r6
	.cfi_def_cfa_offset 4
	POP	lr
	.cfi_def_cfa_offset 0
	JMP	lr
	.cfi_endproc
.LFE61:
	.size	CACHE_Instruction_CACHE_Write_2Row_Enable, .-CACHE_Instruction_CACHE_Write_2Row_Enable
	.section .text$CACHE_CACHE_Reset_Enable
	.type	.text$CACHE_CACHE_Reset_Enable$scode_local_61, @function
	.text$CACHE_CACHE_Reset_Enable$scode_local_61:
	.align	1
	.export	CACHE_CACHE_Reset_Enable
	.type	CACHE_CACHE_Reset_Enable, @function
CACHE_CACHE_Reset_Enable:
.LFB62:
.LM529:
	.cfi_startproc
.LVL291:
	PUSH	{r6, lr}
	.cfi_def_cfa_offset 8
	MOV	r6,r0
.LVL292:
.LM530:
	MOV	r0,#1
.LVL293:
	CMP	r6,r0
	JLS	.L282
	MOV	r0,#0
.L282:
	LD	r5,#CHECK_RESTRICTION
	LJMP	r5
.LVL294:
.LM531:
	LD	r5,#1075839168
	LD.w	r4,[r5]
.LVL295:
.LM532:
	ADD	r6,r6,r6
.LVL296:
.LBB562:
.LBB563:
.LM533:
	CLR	r4,#1
.LVL297:
	ORL	r6,r6,r4
.LBE563:
.LBE562:
.LM534:
	ST.w	[r5],r6
.LM535:
	POP	r6
	.cfi_def_cfa_offset 4
	POP	lr
	.cfi_def_cfa_offset 0
	JMP	lr
	.cfi_endproc
.LFE62:
	.size	CACHE_CACHE_Reset_Enable, .-CACHE_CACHE_Reset_Enable
	.section .text$CACHE_CACHE_Enable
	.type	.text$CACHE_CACHE_Enable$scode_local_62, @function
	.text$CACHE_CACHE_Enable$scode_local_62:
	.align	1
	.export	CACHE_CACHE_Enable
	.type	CACHE_CACHE_Enable, @function
CACHE_CACHE_Enable:
.LFB63:
.LM536:
	.cfi_startproc
.LVL298:
	PUSH	{r6, lr}
	.cfi_def_cfa_offset 8
	MOV	r6,r0
.LVL299:
.LM537:
	MOV	r0,#1
.LVL300:
	CMP	r6,r0
	JLS	.L284
	MOV	r0,#0
.L284:
	LD	r5,#CHECK_RESTRICTION
	LJMP	r5
.LVL301:
.LM538:
	LD	r5,#1075839168
	LD.w	r4,[r5]
.LVL302:
.LBB564:
.LBB565:
.LM539:
	CLR	r4,#0
.LVL303:
	ORL	r6,r6,r4
.LVL304:
.LBE565:
.LBE564:
.LM540:
	ST.w	[r5],r6
.LM541:
	POP	r6
	.cfi_def_cfa_offset 4
	POP	lr
	.cfi_def_cfa_offset 0
	JMP	lr
	.cfi_endproc
.LFE63:
	.size	CACHE_CACHE_Enable, .-CACHE_CACHE_Enable
	.export	read_data
	.section .bss$comm$read_data
	.type	.bss$comm$read_data$scode_local_63, @function
	.bss$comm$read_data$scode_local_63:
	.align	2
	.type	read_data, @object
	.size	read_data, 4
read_data:
	.fill 4, 1
	.text	
.Letext0: