	.file	"kf32a9k1xxx_canfd.c"
	.text	
.Ltext0:
	.cfi_sections	.debug_frame
	.section .text$CANFD_Reset
	.type	.text$CANFD_Reset$scode_local_1, @function
	.text$CANFD_Reset$scode_local_1:
	.align	1
	.export	CANFD_Reset
	.type	CANFD_Reset, @function
CANFD_Reset:
.LFB1:
.LM1:
	.cfi_startproc
.LVL0:
	PUSH	{r6, lr}
	.cfi_def_cfa_offset 8
.LM2:
	LD	r5,#1073753728
	CMP	r0,r5
	JZ	.L2
.LM3:
	MOV	r6,#1
	LD	r5,#1073753856
	CMP	r0,r5
	JZ	.L3
	MOV	r6,#0
.L3:
	ZXT.b	r6,r6
	MOV	r0,r6
.LVL1:
	LD	r5,#CHECK_RESTRICTION
	LJMP	r5
.LVL2:
.LM4:
	CMP	r6,#0
	JNZ	.L9
.L1:
.LM5:
	POP	r6
	.cfi_remember_state
	.cfi_def_cfa_offset 4
	POP	lr
	.cfi_def_cfa_offset 0
	JMP	lr
.LVL3:
.L2:
	.cfi_restore_state
.LM6:
	MOV	r0,#1
.LVL4:
	LD	r5,#CHECK_RESTRICTION
	LJMP	r5
.LVL5:
.LM7:
	MOV	r0,#1
	LSL	r0,#29
	MOV	r1,#1
	LD	r6,#RST_CTL3_Peripheral_Reset_Enable
	LJMP	r6
.LVL6:
.LM8:
	MOV	r0,#1
	LSL	r0,#29
	MOV	r1,#1
	LD	r5,#PCLK_CTL3_Peripheral_Clock_Enable
	LJMP	r5
.LVL7:
.LM9:
	MOV	r0,#1
	LSL	r0,#29
	MOV	r1,#0
	LJMP	r6
.LVL8:
.LM10:
	POP	r6
	.cfi_remember_state
	.cfi_def_cfa_offset 4
	POP	lr
	.cfi_def_cfa_offset 0
	JMP	lr
.L9:
	.cfi_restore_state
.LM11:
	MOV	r0,#1
	LSL	r0,#30
	MOV	r1,#1
	LD	r6,#RST_CTL3_Peripheral_Reset_Enable
	LJMP	r6
.LVL9:
.LM12:
	MOV	r0,#1
	LSL	r0,#30
	MOV	r1,#1
	LD	r5,#PCLK_CTL3_Peripheral_Clock_Enable
	LJMP	r5
.LVL10:
.LM13:
	MOV	r0,#1
	LSL	r0,#30
	MOV	r1,#0
	LJMP	r6
.LVL11:
	JMP	.L1
	.cfi_endproc
.LFE1:
	.size	CANFD_Reset, .-CANFD_Reset
	.section .text$CANFD_Get_Rx_Information_Count
	.type	.text$CANFD_Get_Rx_Information_Count$scode_local_2, @function
	.text$CANFD_Get_Rx_Information_Count$scode_local_2:
	.align	1
	.export	CANFD_Get_Rx_Information_Count
	.type	CANFD_Get_Rx_Information_Count, @function
CANFD_Get_Rx_Information_Count:
.LFB2:
.LM14:
	.cfi_startproc
.LVL12:
	PUSH	{r6, lr}
	.cfi_def_cfa_offset 8
	MOV	r6,r0
.LVL13:
.LM15:
	LD	r5,#1073753728
	MOV	r0,#1
.LVL14:
	CMP	r6,r5
	JZ	.L11
.LM16:
	LD	r5,#1073753856
	CMP	r6,r5
	JZ	.L11
	MOV	r0,#0
.L11:
.LM17:
	LD	r5,#CHECK_RESTRICTION
	LJMP	r5
.LVL15:
.LM18:
	LD.w	r0,[r6]
.LVL16:
	LD	r5,#2130706432
	ANL	r0,r0,r5
.LVL17:
.LM19:
	LSR	r0,#24
	POP	r6
	.cfi_def_cfa_offset 4
.LVL18:
	POP	lr
	.cfi_def_cfa_offset 0
	JMP	lr
	.cfi_endproc
.LFE2:
	.size	CANFD_Get_Rx_Information_Count, .-CANFD_Get_Rx_Information_Count
	.section .text$CANFD_Bus_Status_Enable
	.type	.text$CANFD_Bus_Status_Enable$scode_local_3, @function
	.text$CANFD_Bus_Status_Enable$scode_local_3:
	.align	1
	.export	CANFD_Bus_Status_Enable
	.type	CANFD_Bus_Status_Enable, @function
CANFD_Bus_Status_Enable:
.LFB3:
.LM20:
	.cfi_startproc
.LVL19:
	PUSH	{r6, r7, r8, lr}
	.cfi_def_cfa_offset 16
	MOV	r6,r0
	MOV	r7,r1
.LVL20:
.LM21:
	MOV	r0,#1
.LVL21:
	LD	r5,#1073753728
	CMP	r6,r5
	JZ	.L15
.LM22:
	LD	r5,#1073753856
	CMP	r6,r5
	JZ	.L15
	MOV	r0,#0
.L15:
.LM23:
	LD	r5,#CHECK_RESTRICTION
	MOV	r8,r5
	LJMP	r5
.LVL22:
.LM24:
	MOV	r0,#1
	CMP	r7,r0
	JLS	.L17
	MOV	r0,#0
.L17:
	LJMP	r8
.LVL23:
.LM25:
	MOV	r5,#0
	CMP	r7,r5
	JNZ	.L18
.LM26:
	MOV	r5,#1
	LSL	r5,#23
.L18:
.LVL24:
.LM27:
	LD.w	r4,[r6]
.LVL25:
.LBB54:
.LBB55:
.LM28:
	CLR	r4,#23
.LVL26:
	ORL	r5,r5,r4
.LVL27:
.LBE55:
.LBE54:
.LM29:
	ST.w	[r6],r5
.LM30:
	POP	{r6, r7, r8}
	.cfi_def_cfa_offset 4
.LVL28:
	POP	lr
	.cfi_def_cfa_offset 0
	JMP	lr
	.cfi_endproc
.LFE3:
	.size	CANFD_Bus_Status_Enable, .-CANFD_Bus_Status_Enable
	.section .text$CANFD_Get_Error_Status
	.type	.text$CANFD_Get_Error_Status$scode_local_4, @function
	.text$CANFD_Get_Error_Status$scode_local_4:
	.align	1
	.export	CANFD_Get_Error_Status
	.type	CANFD_Get_Error_Status, @function
CANFD_Get_Error_Status:
.LFB4:
.LM31:
	.cfi_startproc
.LVL29:
	PUSH	{r6, lr}
	.cfi_def_cfa_offset 8
	MOV	r6,r0
.LM32:
	MOV	r0,#1
.LVL30:
	LD	r5,#1073753728
	CMP	r6,r5
	JZ	.L22
.LM33:
	LD	r5,#1073753856
	CMP	r6,r5
	JZ	.L22
	MOV	r0,#0
.L22:
.LM34:
	LD	r5,#CHECK_RESTRICTION
	LJMP	r5
.LVL31:
.LM35:
	LD.w	r0,[r6]
	LSR	r0,#22
.LM36:
	MOV	r5,#1
	ANL	r0,r0,r5
	POP	r6
	.cfi_def_cfa_offset 4
.LVL32:
	POP	lr
	.cfi_def_cfa_offset 0
	JMP	lr
	.cfi_endproc
.LFE4:
	.size	CANFD_Get_Error_Status, .-CANFD_Get_Error_Status
	.section .text$CANFD_Get_Tx_Status
	.type	.text$CANFD_Get_Tx_Status$scode_local_5, @function
	.text$CANFD_Get_Tx_Status$scode_local_5:
	.align	1
	.export	CANFD_Get_Tx_Status
	.type	CANFD_Get_Tx_Status, @function
CANFD_Get_Tx_Status:
.LFB5:
.LM37:
	.cfi_startproc
.LVL33:
	PUSH	{r6, lr}
	.cfi_def_cfa_offset 8
	MOV	r6,r0
.LM38:
	MOV	r0,#1
.LVL34:
	LD	r5,#1073753728
	CMP	r6,r5
	JZ	.L26
.LM39:
	LD	r5,#1073753856
	CMP	r6,r5
	JZ	.L26
	MOV	r0,#0
.L26:
.LM40:
	LD	r5,#CHECK_RESTRICTION
	LJMP	r5
.LVL35:
.LM41:
	LD.w	r0,[r6]
	LSR	r0,#21
.LM42:
	MOV	r5,#1
	ANL	r0,r0,r5
	POP	r6
	.cfi_def_cfa_offset 4
.LVL36:
	POP	lr
	.cfi_def_cfa_offset 0
	JMP	lr
	.cfi_endproc
.LFE5:
	.size	CANFD_Get_Tx_Status, .-CANFD_Get_Tx_Status
	.section .text$CANFD_Get_Rx_Status
	.type	.text$CANFD_Get_Rx_Status$scode_local_6, @function
	.text$CANFD_Get_Rx_Status$scode_local_6:
	.align	1
	.export	CANFD_Get_Rx_Status
	.type	CANFD_Get_Rx_Status, @function
CANFD_Get_Rx_Status:
.LFB6:
.LM43:
	.cfi_startproc
.LVL37:
	PUSH	{r6, lr}
	.cfi_def_cfa_offset 8
	MOV	r6,r0
.LM44:
	MOV	r0,#1
.LVL38:
	LD	r5,#1073753728
	CMP	r6,r5
	JZ	.L30
.LM45:
	LD	r5,#1073753856
	CMP	r6,r5
	JZ	.L30
	MOV	r0,#0
.L30:
.LM46:
	LD	r5,#CHECK_RESTRICTION
	LJMP	r5
.LVL39:
.LM47:
	LD.w	r0,[r6]
	LSR	r0,#20
.LM48:
	MOV	r5,#1
	ANL	r0,r0,r5
	POP	r6
	.cfi_def_cfa_offset 4
.LVL40:
	POP	lr
	.cfi_def_cfa_offset 0
	JMP	lr
	.cfi_endproc
.LFE6:
	.size	CANFD_Get_Rx_Status, .-CANFD_Get_Rx_Status
	.section .text$CANFD_Get_Tx_Complete_Status
	.type	.text$CANFD_Get_Tx_Complete_Status$scode_local_7, @function
	.text$CANFD_Get_Tx_Complete_Status$scode_local_7:
	.align	1
	.export	CANFD_Get_Tx_Complete_Status
	.type	CANFD_Get_Tx_Complete_Status, @function
CANFD_Get_Tx_Complete_Status:
.LFB7:
.LM49:
	.cfi_startproc
.LVL41:
	PUSH	{r6, lr}
	.cfi_def_cfa_offset 8
	MOV	r6,r0
.LM50:
	MOV	r0,#1
.LVL42:
	LD	r5,#1073753728
	CMP	r6,r5
	JZ	.L34
.LM51:
	LD	r5,#1073753856
	CMP	r6,r5
	JZ	.L34
	MOV	r0,#0
.L34:
.LM52:
	LD	r5,#CHECK_RESTRICTION
	LJMP	r5
.LVL43:
.LM53:
	LD.w	r0,[r6]
	LSR	r0,#20
.LM54:
	MOV	r5,#1
	ANL	r0,r0,r5
	POP	r6
	.cfi_def_cfa_offset 4
.LVL44:
	POP	lr
	.cfi_def_cfa_offset 0
	JMP	lr
	.cfi_endproc
.LFE7:
	.size	CANFD_Get_Tx_Complete_Status, .-CANFD_Get_Tx_Complete_Status
	.section .text$CANFD_Remotely_Frame_Answer_Enable
	.type	.text$CANFD_Remotely_Frame_Answer_Enable$scode_local_8, @function
	.text$CANFD_Remotely_Frame_Answer_Enable$scode_local_8:
	.align	1
	.export	CANFD_Remotely_Frame_Answer_Enable
	.type	CANFD_Remotely_Frame_Answer_Enable, @function
CANFD_Remotely_Frame_Answer_Enable:
.LFB8:
.LM55:
	.cfi_startproc
.LVL45:
	PUSH	{r6, r7, r8, lr}
	.cfi_def_cfa_offset 16
	MOV	r6,r0
	MOV	r7,r1
.LVL46:
.LM56:
	LD	r5,#1073753728
	MOV	r0,#1
.LVL47:
	CMP	r6,r5
	JZ	.L38
.LM57:
	LD	r5,#1073753856
	CMP	r6,r5
	JZ	.L38
	MOV	r0,#0
.L38:
.LM58:
	LD	r5,#CHECK_RESTRICTION
	MOV	r8,r5
	LJMP	r5
.LVL48:
.LM59:
	MOV	r0,#1
	CMP	r7,r0
	JLS	.L40
	MOV	r0,#0
.L40:
	LJMP	r8
.LVL49:
.LM60:
	LD.w	r5,[r6]
.LVL50:
.LM61:
	LSL	r7,#15
.LVL51:
.LBB56:
.LBB57:
.LM62:
	CLR	r5,#15
.LVL52:
	ORL	r7,r7,r5
.LVL53:
.LBE57:
.LBE56:
.LM63:
	ST.w	[r6],r7
.LM64:
	POP	{r6, r7, r8}
	.cfi_def_cfa_offset 4
	POP	lr
	.cfi_def_cfa_offset 0
	JMP	lr
	.cfi_endproc
.LFE8:
	.size	CANFD_Remotely_Frame_Answer_Enable, .-CANFD_Remotely_Frame_Answer_Enable
	.section .text$CANFD_Full_Mailbox_Rx_Enable
	.type	.text$CANFD_Full_Mailbox_Rx_Enable$scode_local_9, @function
	.text$CANFD_Full_Mailbox_Rx_Enable$scode_local_9:
	.align	1
	.export	CANFD_Full_Mailbox_Rx_Enable
	.type	CANFD_Full_Mailbox_Rx_Enable, @function
CANFD_Full_Mailbox_Rx_Enable:
.LFB9:
.LM65:
	.cfi_startproc
.LVL54:
	PUSH	{r6, r7, r8, lr}
	.cfi_def_cfa_offset 16
	MOV	r6,r0
	MOV	r7,r1
.LVL55:
.LM66:
	LD	r5,#1073753728
	MOV	r0,#1
.LVL56:
	CMP	r6,r5
	JZ	.L43
.LM67:
	LD	r5,#1073753856
	CMP	r6,r5
	JZ	.L43
	MOV	r0,#0
.L43:
.LM68:
	LD	r5,#CHECK_RESTRICTION
	MOV	r8,r5
	LJMP	r5
.LVL57:
.LM69:
	MOV	r0,#1
	CMP	r7,r0
	JLS	.L45
	MOV	r0,#0
.L45:
	LJMP	r8
.LVL58:
.LM70:
	LD.w	r5,[r6]
.LVL59:
.LM71:
	LSL	r7,#14
.LVL60:
.LBB58:
.LBB59:
.LM72:
	CLR	r5,#14
.LVL61:
	ORL	r7,r7,r5
.LVL62:
.LBE59:
.LBE58:
.LM73:
	ST.w	[r6],r7
.LM74:
	POP	{r6, r7, r8}
	.cfi_def_cfa_offset 4
	POP	lr
	.cfi_def_cfa_offset 0
	JMP	lr
	.cfi_endproc
.LFE9:
	.size	CANFD_Full_Mailbox_Rx_Enable, .-CANFD_Full_Mailbox_Rx_Enable
	.section .text$CANFD_Mailbox_Load_Select
	.type	.text$CANFD_Mailbox_Load_Select$scode_local_10, @function
	.text$CANFD_Mailbox_Load_Select$scode_local_10:
	.align	1
	.export	CANFD_Mailbox_Load_Select
	.type	CANFD_Mailbox_Load_Select, @function
CANFD_Mailbox_Load_Select:
.LFB10:
.LM75:
	.cfi_startproc
.LVL63:
	PUSH	{r6, r7, r8, lr}
	.cfi_def_cfa_offset 16
	MOV	r6,r0
	MOV	r7,r1
.LVL64:
.LM76:
	LD	r5,#1073753728
	MOV	r0,#1
.LVL65:
	CMP	r6,r5
	JZ	.L48
.LM77:
	LD	r5,#1073753856
	CMP	r6,r5
	JZ	.L48
	MOV	r0,#0
.L48:
.LM78:
	LD	r5,#CHECK_RESTRICTION
	MOV	r8,r5
	LJMP	r5
.LVL66:
.LM79:
	MOV	r0,#1
	CMP	r7,#3
	JLS	.L50
	MOV	r0,#0
.L50:
	LJMP	r8
.LVL67:
.LM80:
	LD.w	r5,[r6]
.LVL68:
.LM81:
	LSL	r7,#12
.LVL69:
.LBB60:
.LBB61:
.LM82:
	CLR	r5,#12
	CLR	r5,#13
.LVL70:
	ORL	r7,r7,r5
.LVL71:
.LBE61:
.LBE60:
.LM83:
	ST.w	[r6],r7
.LM84:
	POP	{r6, r7, r8}
	.cfi_def_cfa_offset 4
	POP	lr
	.cfi_def_cfa_offset 0
	JMP	lr
	.cfi_endproc
.LFE10:
	.size	CANFD_Mailbox_Load_Select, .-CANFD_Mailbox_Load_Select
	.section .text$CANFD_Get_RAM_Data_Full_Status
	.type	.text$CANFD_Get_RAM_Data_Full_Status$scode_local_11, @function
	.text$CANFD_Get_RAM_Data_Full_Status$scode_local_11:
	.align	1
	.export	CANFD_Get_RAM_Data_Full_Status
	.type	CANFD_Get_RAM_Data_Full_Status, @function
CANFD_Get_RAM_Data_Full_Status:
.LFB11:
.LM85:
	.cfi_startproc
.LVL72:
	PUSH	{r6, lr}
	.cfi_def_cfa_offset 8
	MOV	r6,r0
.LM86:
	MOV	r0,#1
.LVL73:
	LD	r5,#1073753728
	CMP	r6,r5
	JZ	.L53
.LM87:
	LD	r5,#1073753856
	CMP	r6,r5
	JZ	.L53
	MOV	r0,#0
.L53:
.LM88:
	LD	r5,#CHECK_RESTRICTION
	LJMP	r5
.LVL74:
.LM89:
	LD.w	r0,[r6]
	LSR	r0,#17
.LM90:
	MOV	r5,#1
	ANL	r0,r0,r5
	POP	r6
	.cfi_def_cfa_offset 4
.LVL75:
	POP	lr
	.cfi_def_cfa_offset 0
	JMP	lr
	.cfi_endproc
.LFE11:
	.size	CANFD_Get_RAM_Data_Full_Status, .-CANFD_Get_RAM_Data_Full_Status
	.section .text$CANFD_Get_RAM_Data_Spare_Status
	.type	.text$CANFD_Get_RAM_Data_Spare_Status$scode_local_12, @function
	.text$CANFD_Get_RAM_Data_Spare_Status$scode_local_12:
	.align	1
	.export	CANFD_Get_RAM_Data_Spare_Status
	.type	CANFD_Get_RAM_Data_Spare_Status, @function
CANFD_Get_RAM_Data_Spare_Status:
.LFB12:
.LM91:
	.cfi_startproc
.LVL76:
	PUSH	{r6, lr}
	.cfi_def_cfa_offset 8
	MOV	r6,r0
.LM92:
	MOV	r0,#1
.LVL77:
	LD	r5,#1073753728
	CMP	r6,r5
	JZ	.L57
.LM93:
	LD	r5,#1073753856
	CMP	r6,r5
	JZ	.L57
	MOV	r0,#0
.L57:
.LM94:
	LD	r5,#CHECK_RESTRICTION
	LJMP	r5
.LVL78:
.LM95:
	LD.w	r0,[r6]
	LSR	r0,#16
.LM96:
	MOV	r5,#1
	ANL	r0,r0,r5
	POP	r6
	.cfi_def_cfa_offset 4
.LVL79:
	POP	lr
	.cfi_def_cfa_offset 0
	JMP	lr
	.cfi_endproc
.LFE12:
	.size	CANFD_Get_RAM_Data_Spare_Status, .-CANFD_Get_RAM_Data_Spare_Status
	.section .text$CANFD_Clear_RAM_Full_Flag
	.type	.text$CANFD_Clear_RAM_Full_Flag$scode_local_13, @function
	.text$CANFD_Clear_RAM_Full_Flag$scode_local_13:
	.align	1
	.export	CANFD_Clear_RAM_Full_Flag
	.type	CANFD_Clear_RAM_Full_Flag, @function
CANFD_Clear_RAM_Full_Flag:
.LFB13:
.LM97:
	.cfi_startproc
.LVL80:
	PUSH	{r6, lr}
	.cfi_def_cfa_offset 8
	MOV	r6,r0
.LM98:
	MOV	r0,#1
.LVL81:
	LD	r5,#1073753728
	CMP	r6,r5
	JZ	.L61
.LM99:
	LD	r5,#1073753856
	CMP	r6,r5
	JZ	.L61
	MOV	r0,#0
.L61:
.LM100:
	LD	r5,#CHECK_RESTRICTION
	LJMP	r5
.LVL82:
.LM101:
// inline asm begin
	// 280 "../src/kf32a9k1xxx_canfd.c" 1
	SET [r6], #11
	// 0 "" 2
.LM102:
// inline asm end
	MOV	r4,#1
	LSL	r4,#11
.L63:
.LM103:
	LD.w	r5,[r6]
	ANL	r5,r5,r4
	JZ	.L63
.LM104:
// inline asm begin
	// 282 "../src/kf32a9k1xxx_canfd.c" 1
	CLR [r6], #11
	// 0 "" 2
.LM105:
// inline asm end
	POP	r6
	.cfi_def_cfa_offset 4
.LVL83:
	POP	lr
	.cfi_def_cfa_offset 0
	JMP	lr
	.cfi_endproc
.LFE13:
	.size	CANFD_Clear_RAM_Full_Flag, .-CANFD_Clear_RAM_Full_Flag
	.section .text$CANFD_Freed_Rx_Cache
	.type	.text$CANFD_Freed_Rx_Cache$scode_local_14, @function
	.text$CANFD_Freed_Rx_Cache$scode_local_14:
	.align	1
	.export	CANFD_Freed_Rx_Cache
	.type	CANFD_Freed_Rx_Cache, @function
CANFD_Freed_Rx_Cache:
.LFB14:
.LM106:
	.cfi_startproc
.LVL84:
	PUSH	{r6, lr}
	.cfi_def_cfa_offset 8
	MOV	r6,r0
.LM107:
	MOV	r0,#1
.LVL85:
	LD	r5,#1073753728
	CMP	r6,r5
	JZ	.L70
.LM108:
	LD	r5,#1073753856
	CMP	r6,r5
	JZ	.L70
	MOV	r0,#0
.L70:
.LM109:
	LD	r5,#CHECK_RESTRICTION
	LJMP	r5
.LVL86:
.LM110:
// inline asm begin
	// 295 "../src/kf32a9k1xxx_canfd.c" 1
	SET [r6], #10
	// 0 "" 2
.LM111:
// inline asm end
	MOV	r4,#1
	LSL	r4,#10
.L72:
.LM112:
	LD.w	r5,[r6]
	ANL	r5,r5,r4
	JZ	.L72
.LM113:
// inline asm begin
	// 297 "../src/kf32a9k1xxx_canfd.c" 1
	CLR [r6], #10
	// 0 "" 2
.LM114:
// inline asm end
	POP	r6
	.cfi_def_cfa_offset 4
.LVL87:
	POP	lr
	.cfi_def_cfa_offset 0
	JMP	lr
	.cfi_endproc
.LFE14:
	.size	CANFD_Freed_Rx_Cache, .-CANFD_Freed_Rx_Cache
	.section .text$CANFD_Terminate_Tx
	.type	.text$CANFD_Terminate_Tx$scode_local_15, @function
	.text$CANFD_Terminate_Tx$scode_local_15:
	.align	1
	.export	CANFD_Terminate_Tx
	.type	CANFD_Terminate_Tx, @function
CANFD_Terminate_Tx:
.LFB15:
.LM115:
	.cfi_startproc
.LVL88:
	PUSH	{r6, lr}
	.cfi_def_cfa_offset 8
	MOV	r6,r0
.LM116:
	MOV	r0,#1
.LVL89:
	LD	r5,#1073753728
	CMP	r6,r5
	JZ	.L79
.LM117:
	LD	r5,#1073753856
	CMP	r6,r5
	JZ	.L79
	MOV	r0,#0
.L79:
.LM118:
	LD	r5,#CHECK_RESTRICTION
	LJMP	r5
.LVL90:
.LM119:
// inline asm begin
	// 310 "../src/kf32a9k1xxx_canfd.c" 1
	SET [r6], #9
	// 0 "" 2
.LM120:
// inline asm end
	MOV	r4,#1
	LSL	r4,#9
.L81:
.LM121:
	LD.w	r5,[r6]
	ANL	r5,r5,r4
	JZ	.L81
.LM122:
// inline asm begin
	// 312 "../src/kf32a9k1xxx_canfd.c" 1
	CLR [r6], #9
	// 0 "" 2
.LM123:
// inline asm end
	POP	r6
	.cfi_def_cfa_offset 4
.LVL91:
	POP	lr
	.cfi_def_cfa_offset 0
	JMP	lr
	.cfi_endproc
.LFE15:
	.size	CANFD_Terminate_Tx, .-CANFD_Terminate_Tx
	.section .text$CANFD_Tx_Request
	.type	.text$CANFD_Tx_Request$scode_local_16, @function
	.text$CANFD_Tx_Request$scode_local_16:
	.align	1
	.export	CANFD_Tx_Request
	.type	CANFD_Tx_Request, @function
CANFD_Tx_Request:
.LFB16:
.LM124:
	.cfi_startproc
.LVL92:
	PUSH	{r6, lr}
	.cfi_def_cfa_offset 8
	MOV	r6,r0
.LM125:
	MOV	r0,#1
.LVL93:
	LD	r5,#1073753728
	CMP	r6,r5
	JZ	.L88
.LM126:
	LD	r5,#1073753856
	CMP	r6,r5
	JZ	.L88
	MOV	r0,#0
.L88:
.LM127:
	LD	r5,#CHECK_RESTRICTION
	LJMP	r5
.LVL94:
.LM128:
// inline asm begin
	// 325 "../src/kf32a9k1xxx_canfd.c" 1
	SET [r6], #8
	// 0 "" 2
.LM129:
// inline asm end
	MOV	r4,#255
	ADD	r4,r4,#1
.L90:
.LM130:
	LD.w	r5,[r6]
	ANL	r5,r5,r4
	JZ	.L90
.LM131:
// inline asm begin
	// 327 "../src/kf32a9k1xxx_canfd.c" 1
	CLR [r6], #8
	// 0 "" 2
.LM132:
// inline asm end
	POP	r6
	.cfi_def_cfa_offset 4
.LVL95:
	POP	lr
	.cfi_def_cfa_offset 0
	JMP	lr
	.cfi_endproc
.LFE16:
	.size	CANFD_Tx_Request, .-CANFD_Tx_Request
	.section .text$CANFD_Enable
	.type	.text$CANFD_Enable$scode_local_17, @function
	.text$CANFD_Enable$scode_local_17:
	.align	1
	.export	CANFD_Enable
	.type	CANFD_Enable, @function
CANFD_Enable:
.LFB17:
.LM133:
	.cfi_startproc
.LVL96:
	PUSH	{r6, r7, r8, lr}
	.cfi_def_cfa_offset 16
	MOV	r6,r0
	MOV	r7,r1
.LVL97:
.LM134:
	LD	r5,#1073753728
	MOV	r0,#1
.LVL98:
	CMP	r6,r5
	JZ	.L97
.LM135:
	LD	r5,#1073753856
	CMP	r6,r5
	JZ	.L97
	MOV	r0,#0
.L97:
.LM136:
	LD	r5,#CHECK_RESTRICTION
	MOV	r8,r5
	LJMP	r5
.LVL99:
.LM137:
	MOV	r0,#1
	CMP	r7,r0
	JLS	.L99
	MOV	r0,#0
.L99:
	LJMP	r8
.LVL100:
.LM138:
	LD.w	r5,[r6]
.LVL101:
.LM139:
	LSL	r7,#7
.LVL102:
.LBB62:
.LBB63:
.LM140:
	CLR	r5,#7
.LVL103:
	ORL	r7,r7,r5
.LVL104:
.LBE63:
.LBE62:
.LM141:
	ST.w	[r6],r7
.LM142:
	POP	{r6, r7, r8}
	.cfi_def_cfa_offset 4
	POP	lr
	.cfi_def_cfa_offset 0
	JMP	lr
	.cfi_endproc
.LFE17:
	.size	CANFD_Enable, .-CANFD_Enable
	.section .text$CANFD_Work_CLK_Select
	.type	.text$CANFD_Work_CLK_Select$scode_local_18, @function
	.text$CANFD_Work_CLK_Select$scode_local_18:
	.align	1
	.export	CANFD_Work_CLK_Select
	.type	CANFD_Work_CLK_Select, @function
CANFD_Work_CLK_Select:
.LFB18:
.LM143:
	.cfi_startproc
.LVL105:
	PUSH	{r6, r7, r8, lr}
	.cfi_def_cfa_offset 16
	MOV	r6,r0
	MOV	r7,r1
.LVL106:
.LM144:
	LD	r5,#1073753728
	MOV	r0,#1
.LVL107:
	CMP	r6,r5
	JZ	.L102
.LM145:
	LD	r5,#1073753856
	CMP	r6,r5
	JZ	.L102
	MOV	r0,#0
.L102:
.LM146:
	LD	r5,#CHECK_RESTRICTION
	MOV	r8,r5
	LJMP	r5
.LVL108:
.LM147:
	MOV	r0,#1
	CMP	r7,#3
	JLS	.L104
	MOV	r0,#0
.L104:
	LJMP	r8
.LVL109:
.LM148:
	LD.w	r5,[r6]
.LVL110:
.LM149:
	LSL	r7,#5
.LVL111:
.LBB64:
.LBB65:
.LM150:
	CLR	r5,#5
	CLR	r5,#6
.LVL112:
	ORL	r7,r7,r5
.LVL113:
.LBE65:
.LBE64:
.LM151:
	ST.w	[r6],r7
.LM152:
	POP	{r6, r7, r8}
	.cfi_def_cfa_offset 4
	POP	lr
	.cfi_def_cfa_offset 0
	JMP	lr
	.cfi_endproc
.LFE18:
	.size	CANFD_Work_CLK_Select, .-CANFD_Work_CLK_Select
	.section .text$CANFD_CANFD_Frame_Protocol_Select
	.type	.text$CANFD_CANFD_Frame_Protocol_Select$scode_local_19, @function
	.text$CANFD_CANFD_Frame_Protocol_Select$scode_local_19:
	.align	1
	.export	CANFD_CANFD_Frame_Protocol_Select
	.type	CANFD_CANFD_Frame_Protocol_Select, @function
CANFD_CANFD_Frame_Protocol_Select:
.LFB19:
.LM153:
	.cfi_startproc
.LVL114:
	PUSH	{r6, r7, r8, lr}
	.cfi_def_cfa_offset 16
	MOV	r6,r0
	MOV	r7,r1
.LVL115:
.LM154:
	LD	r5,#1073753728
	MOV	r0,#1
.LVL116:
	CMP	r6,r5
	JZ	.L107
.LM155:
	LD	r5,#1073753856
	CMP	r6,r5
	JZ	.L107
	MOV	r0,#0
.L107:
.LM156:
	LD	r5,#CHECK_RESTRICTION
	MOV	r8,r5
	LJMP	r5
.LVL117:
.LM157:
	MOV	r0,#1
	CMP	r7,r0
	JLS	.L109
	MOV	r0,#0
.L109:
	LJMP	r8
.LVL118:
.LM158:
	LD.w	r5,[r6]
.LVL119:
.LM159:
	LSL	r7,#4
.LVL120:
.LBB66:
.LBB67:
.LM160:
	CLR	r5,#4
.LVL121:
	ORL	r7,r7,r5
.LVL122:
.LBE67:
.LBE66:
.LM161:
	ST.w	[r6],r7
.LM162:
	POP	{r6, r7, r8}
	.cfi_def_cfa_offset 4
	POP	lr
	.cfi_def_cfa_offset 0
	JMP	lr
	.cfi_endproc
.LFE19:
	.size	CANFD_CANFD_Frame_Protocol_Select, .-CANFD_CANFD_Frame_Protocol_Select
	.section .text$CANFD_Sleep_Mode_Enable
	.type	.text$CANFD_Sleep_Mode_Enable$scode_local_20, @function
	.text$CANFD_Sleep_Mode_Enable$scode_local_20:
	.align	1
	.export	CANFD_Sleep_Mode_Enable
	.type	CANFD_Sleep_Mode_Enable, @function
CANFD_Sleep_Mode_Enable:
.LFB20:
.LM163:
	.cfi_startproc
.LVL123:
	PUSH	{r6, r7, r8, lr}
	.cfi_def_cfa_offset 16
	MOV	r6,r0
	MOV	r7,r1
.LVL124:
.LM164:
	LD	r5,#1073753728
	MOV	r0,#1
.LVL125:
	CMP	r6,r5
	JZ	.L112
.LM165:
	LD	r5,#1073753856
	CMP	r6,r5
	JZ	.L112
	MOV	r0,#0
.L112:
.LM166:
	LD	r5,#CHECK_RESTRICTION
	MOV	r8,r5
	LJMP	r5
.LVL126:
.LM167:
	MOV	r0,#1
	CMP	r7,r0
	JLS	.L114
	MOV	r0,#0
.L114:
	LJMP	r8
.LVL127:
.LM168:
	LD.w	r5,[r6]
.LVL128:
.LM169:
	LSL	r7,#3
.LVL129:
.LBB68:
.LBB69:
.LM170:
	CLR	r5,#3
.LVL130:
	ORL	r7,r7,r5
.LVL131:
.LBE69:
.LBE68:
.LM171:
	ST.w	[r6],r7
.LM172:
	POP	{r6, r7, r8}
	.cfi_def_cfa_offset 4
	POP	lr
	.cfi_def_cfa_offset 0
	JMP	lr
	.cfi_endproc
.LFE20:
	.size	CANFD_Sleep_Mode_Enable, .-CANFD_Sleep_Mode_Enable
	.section .text$CANFD_Loopback_Mode_Enable
	.type	.text$CANFD_Loopback_Mode_Enable$scode_local_21, @function
	.text$CANFD_Loopback_Mode_Enable$scode_local_21:
	.align	1
	.export	CANFD_Loopback_Mode_Enable
	.type	CANFD_Loopback_Mode_Enable, @function
CANFD_Loopback_Mode_Enable:
.LFB21:
.LM173:
	.cfi_startproc
.LVL132:
	PUSH	{r6, r7, r8, lr}
	.cfi_def_cfa_offset 16
	MOV	r6,r0
	MOV	r7,r1
.LVL133:
.LM174:
	LD	r5,#1073753728
	MOV	r0,#1
.LVL134:
	CMP	r6,r5
	JZ	.L117
.LM175:
	LD	r5,#1073753856
	CMP	r6,r5
	JZ	.L117
	MOV	r0,#0
.L117:
.LM176:
	LD	r5,#CHECK_RESTRICTION
	MOV	r8,r5
	LJMP	r5
.LVL135:
.LM177:
	MOV	r0,#1
	CMP	r7,r0
	JLS	.L119
	MOV	r0,#0
.L119:
	LJMP	r8
.LVL136:
.LM178:
	LD.w	r5,[r6]
.LVL137:
.LM179:
	LSL	r7,#2
.LVL138:
.LBB70:
.LBB71:
.LM180:
	CLR	r5,#2
.LVL139:
	ORL	r7,r7,r5
.LVL140:
.LBE71:
.LBE70:
.LM181:
	ST.w	[r6],r7
.LM182:
	POP	{r6, r7, r8}
	.cfi_def_cfa_offset 4
	POP	lr
	.cfi_def_cfa_offset 0
	JMP	lr
	.cfi_endproc
.LFE21:
	.size	CANFD_Loopback_Mode_Enable, .-CANFD_Loopback_Mode_Enable
	.section .text$CANFD_Quiet_Mode_Enable
	.type	.text$CANFD_Quiet_Mode_Enable$scode_local_22, @function
	.text$CANFD_Quiet_Mode_Enable$scode_local_22:
	.align	1
	.export	CANFD_Quiet_Mode_Enable
	.type	CANFD_Quiet_Mode_Enable, @function
CANFD_Quiet_Mode_Enable:
.LFB22:
.LM183:
	.cfi_startproc
.LVL141:
	PUSH	{r6, r7, r8, lr}
	.cfi_def_cfa_offset 16
	MOV	r6,r0
	MOV	r7,r1
.LVL142:
.LM184:
	LD	r5,#1073753728
	MOV	r0,#1
.LVL143:
	CMP	r6,r5
	JZ	.L122
.LM185:
	LD	r5,#1073753856
	CMP	r6,r5
	JZ	.L122
	MOV	r0,#0
.L122:
.LM186:
	LD	r5,#CHECK_RESTRICTION
	MOV	r8,r5
	LJMP	r5
.LVL144:
.LM187:
	MOV	r0,#1
	CMP	r7,r0
	JLS	.L124
	MOV	r0,#0
.L124:
	LJMP	r8
.LVL145:
.LM188:
	LD.w	r5,[r6]
.LVL146:
.LM189:
	ADD	r7,r7,r7
.LVL147:
.LBB72:
.LBB73:
.LM190:
	CLR	r5,#1
.LVL148:
	ORL	r7,r7,r5
.LBE73:
.LBE72:
.LM191:
	ST.w	[r6],r7
.LM192:
	POP	{r6, r7, r8}
	.cfi_def_cfa_offset 4
	POP	lr
	.cfi_def_cfa_offset 0
	JMP	lr
	.cfi_endproc
.LFE22:
	.size	CANFD_Quiet_Mode_Enable, .-CANFD_Quiet_Mode_Enable
	.section .text$CANFD_Reset_Mode_Select
	.type	.text$CANFD_Reset_Mode_Select$scode_local_23, @function
	.text$CANFD_Reset_Mode_Select$scode_local_23:
	.align	1
	.export	CANFD_Reset_Mode_Select
	.type	CANFD_Reset_Mode_Select, @function
CANFD_Reset_Mode_Select:
.LFB23:
.LM193:
	.cfi_startproc
.LVL149:
	PUSH	{r6, r7, r8, lr}
	.cfi_def_cfa_offset 16
	MOV	r6,r0
	MOV	r7,r1
.LVL150:
.LM194:
	LD	r5,#1073753728
	MOV	r0,#1
.LVL151:
	CMP	r6,r5
	JZ	.L127
.LM195:
	LD	r5,#1073753856
	CMP	r6,r5
	JZ	.L127
	MOV	r0,#0
.L127:
.LM196:
	LD	r5,#CHECK_RESTRICTION
	MOV	r8,r5
	LJMP	r5
.LVL152:
.LM197:
	MOV	r0,#1
	CMP	r7,r0
	JLS	.L129
	MOV	r0,#0
.L129:
	LJMP	r8
.LVL153:
.LM198:
	LD.w	r5,[r6]
.LVL154:
.LBB74:
.LBB75:
.LM199:
	CLR	r5,#0
.LVL155:
	ORL	r7,r7,r5
.LVL156:
.LBE75:
.LBE74:
.LM200:
	ST.w	[r6],r7
.LM201:
	POP	{r6, r7, r8}
	.cfi_def_cfa_offset 4
	POP	lr
	.cfi_def_cfa_offset 0
	JMP	lr
	.cfi_endproc
.LFE23:
	.size	CANFD_Reset_Mode_Select, .-CANFD_Reset_Mode_Select
	.section .text$CANFD_Clear_Timestamp_Count
	.type	.text$CANFD_Clear_Timestamp_Count$scode_local_24, @function
	.text$CANFD_Clear_Timestamp_Count$scode_local_24:
	.align	1
	.export	CANFD_Clear_Timestamp_Count
	.type	CANFD_Clear_Timestamp_Count, @function
CANFD_Clear_Timestamp_Count:
.LFB24:
.LM202:
	.cfi_startproc
.LVL157:
	PUSH	{r6, lr}
	.cfi_def_cfa_offset 8
	MOV	r6,r0
.LM203:
	MOV	r0,#1
.LVL158:
	LD	r5,#1073753728
	CMP	r6,r5
	JZ	.L132
.LM204:
	LD	r5,#1073753856
	CMP	r6,r5
	JZ	.L132
	MOV	r0,#0
.L132:
.LM205:
	LD	r5,#CHECK_RESTRICTION
	LJMP	r5
.LVL159:
.LM206:
	MOV	r5,#116
	ADD	r3,r6,r5
// inline asm begin
	// 478 "../src/kf32a9k1xxx_canfd.c" 1
	SET [r3], #11
	// 0 "" 2
.LM207:
// inline asm end
	MOV	r4,#1
	LSL	r4,#11
.L134:
.LM208:
	LD.w	r5,[r6+#29]
	ANL	r5,r5,r4
	JZ	.L134
.LM209:
// inline asm begin
	// 480 "../src/kf32a9k1xxx_canfd.c" 1
	CLR [r3], #11
	// 0 "" 2
.LM210:
// inline asm end
	POP	r6
	.cfi_def_cfa_offset 4
.LVL160:
	POP	lr
	.cfi_def_cfa_offset 0
	JMP	lr
	.cfi_endproc
.LFE24:
	.size	CANFD_Clear_Timestamp_Count, .-CANFD_Clear_Timestamp_Count
	.section .text$CANFD_Timestamp_Count_CLK_Select
	.type	.text$CANFD_Timestamp_Count_CLK_Select$scode_local_25, @function
	.text$CANFD_Timestamp_Count_CLK_Select$scode_local_25:
	.align	1
	.export	CANFD_Timestamp_Count_CLK_Select
	.type	CANFD_Timestamp_Count_CLK_Select, @function
CANFD_Timestamp_Count_CLK_Select:
.LFB25:
.LM211:
	.cfi_startproc
.LVL161:
	PUSH	{r6, r7, r8, lr}
	.cfi_def_cfa_offset 16
	MOV	r6,r0
	MOV	r7,r1
.LVL162:
.LM212:
	LD	r5,#1073753728
	MOV	r0,#1
.LVL163:
	CMP	r6,r5
	JZ	.L141
.LM213:
	LD	r5,#1073753856
	CMP	r6,r5
	JZ	.L141
	MOV	r0,#0
.L141:
.LM214:
	LD	r5,#CHECK_RESTRICTION
	MOV	r8,r5
	LJMP	r5
.LVL164:
.LM215:
	MOV	r0,#1
	CMP	r7,r0
	JLS	.L143
	MOV	r0,#0
.L143:
	LJMP	r8
.LVL165:
.LM216:
	LD.w	r5,[r6+#29]
.LVL166:
.LM217:
	LSL	r7,#10
.LVL167:
.LBB76:
.LBB77:
.LM218:
	CLR	r5,#10
.LVL168:
	ORL	r7,r7,r5
.LVL169:
.LBE77:
.LBE76:
.LM219:
	ST.w	[r6+#29],r7
.LM220:
	POP	{r6, r7, r8}
	.cfi_def_cfa_offset 4
	POP	lr
	.cfi_def_cfa_offset 0
	JMP	lr
	.cfi_endproc
.LFE25:
	.size	CANFD_Timestamp_Count_CLK_Select, .-CANFD_Timestamp_Count_CLK_Select
	.section .text$CANFD_Arbitration_Failure_Tx_Enable
	.type	.text$CANFD_Arbitration_Failure_Tx_Enable$scode_local_26, @function
	.text$CANFD_Arbitration_Failure_Tx_Enable$scode_local_26:
	.align	1
	.export	CANFD_Arbitration_Failure_Tx_Enable
	.type	CANFD_Arbitration_Failure_Tx_Enable, @function
CANFD_Arbitration_Failure_Tx_Enable:
.LFB26:
.LM221:
	.cfi_startproc
.LVL170:
	PUSH	{r6, r7, r8, lr}
	.cfi_def_cfa_offset 16
	MOV	r6,r0
	MOV	r7,r1
.LVL171:
.LM222:
	LD	r5,#1073753728
	MOV	r0,#1
.LVL172:
	CMP	r6,r5
	JZ	.L146
.LM223:
	LD	r5,#1073753856
	CMP	r6,r5
	JZ	.L146
	MOV	r0,#0
.L146:
.LM224:
	LD	r5,#CHECK_RESTRICTION
	MOV	r8,r5
	LJMP	r5
.LVL173:
.LM225:
	MOV	r0,#1
	CMP	r7,r0
	JLS	.L148
	MOV	r0,#0
.L148:
	LJMP	r8
.LVL174:
.LM226:
	LD.w	r5,[r6+#29]
.LVL175:
.LM227:
	LSL	r7,#9
.LVL176:
.LBB78:
.LBB79:
.LM228:
	CLR	r5,#9
.LVL177:
	ORL	r7,r7,r5
.LVL178:
.LBE79:
.LBE78:
.LM229:
	ST.w	[r6+#29],r7
.LM230:
	POP	{r6, r7, r8}
	.cfi_def_cfa_offset 4
	POP	lr
	.cfi_def_cfa_offset 0
	JMP	lr
	.cfi_endproc
.LFE26:
	.size	CANFD_Arbitration_Failure_Tx_Enable, .-CANFD_Arbitration_Failure_Tx_Enable
	.section .text$CANFD_Arbitration_Match_CLK_Select
	.type	.text$CANFD_Arbitration_Match_CLK_Select$scode_local_27, @function
	.text$CANFD_Arbitration_Match_CLK_Select$scode_local_27:
	.align	1
	.export	CANFD_Arbitration_Match_CLK_Select
	.type	CANFD_Arbitration_Match_CLK_Select, @function
CANFD_Arbitration_Match_CLK_Select:
.LFB27:
.LM231:
	.cfi_startproc
.LVL179:
	PUSH	{r6, r7, r8, lr}
	.cfi_def_cfa_offset 16
	MOV	r6,r0
	MOV	r7,r1
.LVL180:
.LM232:
	LD	r5,#1073753728
	MOV	r0,#1
.LVL181:
	CMP	r6,r5
	JZ	.L151
.LM233:
	LD	r5,#1073753856
	CMP	r6,r5
	JZ	.L151
	MOV	r0,#0
.L151:
.LM234:
	LD	r5,#CHECK_RESTRICTION
	MOV	r8,r5
	LJMP	r5
.LVL182:
.LM235:
	MOV	r0,#1
	CMP	r7,#3
	JLS	.L153
	MOV	r0,#0
.L153:
	LJMP	r8
.LVL183:
.LM236:
	LD.w	r5,[r6+#29]
.LVL184:
.LBB80:
.LBB81:
.LM237:
	CLR	r5,#0
	CLR	r5,#1
.LVL185:
	ORL	r7,r7,r5
.LVL186:
.LBE81:
.LBE80:
.LM238:
	ST.w	[r6+#29],r7
.LM239:
	POP	{r6, r7, r8}
	.cfi_def_cfa_offset 4
	POP	lr
	.cfi_def_cfa_offset 0
	JMP	lr
	.cfi_endproc
.LFE27:
	.size	CANFD_Arbitration_Match_CLK_Select, .-CANFD_Arbitration_Match_CLK_Select
	.section .text$CANFD_Rx_MAX_NUM_Of_Times_Config
	.type	.text$CANFD_Rx_MAX_NUM_Of_Times_Config$scode_local_28, @function
	.text$CANFD_Rx_MAX_NUM_Of_Times_Config$scode_local_28:
	.align	1
	.export	CANFD_Rx_MAX_NUM_Of_Times_Config
	.type	CANFD_Rx_MAX_NUM_Of_Times_Config, @function
CANFD_Rx_MAX_NUM_Of_Times_Config:
.LFB28:
.LM240:
	.cfi_startproc
.LVL187:
	PUSH	{r6, r7, r8, lr}
	.cfi_def_cfa_offset 16
	MOV	r6,r0
	MOV	r7,r1
.LVL188:
.LM241:
	LD	r5,#1073753728
	MOV	r0,#1
.LVL189:
	CMP	r6,r5
	JZ	.L156
.LM242:
	LD	r5,#1073753856
	CMP	r6,r5
	JZ	.L156
	MOV	r0,#0
.L156:
.LM243:
	LD	r5,#CHECK_RESTRICTION
	MOV	r8,r5
	LJMP	r5
.LVL190:
.LM244:
	MOV	r0,#1
	CMP	r7,#127
	JLS	.L158
	MOV	r0,#0
.L158:
	LJMP	r8
.LVL191:
.LM245:
	LD.w	r4,[r6+#29]
.LVL192:
.LM246:
	LSL	r7,#2
.LVL193:
.LBB82:
.LBB83:
.LM247:
	LD	r5,#-509
	ANL	r5,r4,r5
	ORL	r7,r7,r5
.LVL194:
.LBE83:
.LBE82:
.LM248:
	ST.w	[r6+#29],r7
.LM249:
	POP	{r6, r7, r8}
	.cfi_def_cfa_offset 4
	POP	lr
	.cfi_def_cfa_offset 0
	JMP	lr
	.cfi_endproc
.LFE28:
	.size	CANFD_Rx_MAX_NUM_Of_Times_Config, .-CANFD_Rx_MAX_NUM_Of_Times_Config
	.section .text$CANFD_Switch_BaudRate_Preset_Value
	.type	.text$CANFD_Switch_BaudRate_Preset_Value$scode_local_29, @function
	.text$CANFD_Switch_BaudRate_Preset_Value$scode_local_29:
	.align	1
	.export	CANFD_Switch_BaudRate_Preset_Value
	.type	CANFD_Switch_BaudRate_Preset_Value, @function
CANFD_Switch_BaudRate_Preset_Value:
.LFB29:
.LM250:
	.cfi_startproc
.LVL195:
	PUSH	{r6, r7, r8, lr}
	.cfi_def_cfa_offset 16
	MOV	r6,r0
	MOV	r7,r1
.LVL196:
.LM251:
	LD	r5,#1073753728
	MOV	r0,#1
.LVL197:
	CMP	r6,r5
	JZ	.L161
.LM252:
	LD	r5,#1073753856
	CMP	r6,r5
	JZ	.L161
	MOV	r0,#0
.L161:
.LM253:
	LD	r5,#CHECK_RESTRICTION
	MOV	r8,r5
	LJMP	r5
.LVL198:
.LM254:
	MOV	r0,#1
	CMP	r7,#63
	JLS	.L163
	MOV	r0,#0
.L163:
	LJMP	r8
.LVL199:
.LM255:
	LD.w	r4,[r6+#1]
.LVL200:
.LM256:
	LSL	r7,#16
.LVL201:
.LBB84:
.LBB85:
.LM257:
	LD	r5,#-4128769
	ANL	r5,r4,r5
	ORL	r7,r7,r5
.LVL202:
.LBE85:
.LBE84:
.LM258:
	ST.w	[r6+#1],r7
.LM259:
	POP	{r6, r7, r8}
	.cfi_def_cfa_offset 4
	POP	lr
	.cfi_def_cfa_offset 0
	JMP	lr
	.cfi_endproc
.LFE29:
	.size	CANFD_Switch_BaudRate_Preset_Value, .-CANFD_Switch_BaudRate_Preset_Value
	.section .text$CANFD_Bus_Sampling_Times_Config
	.type	.text$CANFD_Bus_Sampling_Times_Config$scode_local_30, @function
	.text$CANFD_Bus_Sampling_Times_Config$scode_local_30:
	.align	1
	.export	CANFD_Bus_Sampling_Times_Config
	.type	CANFD_Bus_Sampling_Times_Config, @function
CANFD_Bus_Sampling_Times_Config:
.LFB30:
.LM260:
	.cfi_startproc
.LVL203:
	PUSH	{r6, r7, r8, lr}
	.cfi_def_cfa_offset 16
	MOV	r6,r0
	MOV	r7,r1
.LVL204:
.LM261:
	LD	r5,#1073753728
	MOV	r0,#1
.LVL205:
	CMP	r6,r5
	JZ	.L166
.LM262:
	LD	r5,#1073753856
	CMP	r6,r5
	JZ	.L166
	MOV	r0,#0
.L166:
.LM263:
	LD	r5,#CHECK_RESTRICTION
	MOV	r8,r5
	LJMP	r5
.LVL206:
.LM264:
	MOV	r0,#1
	CMP	r7,r0
	JLS	.L168
	MOV	r0,#0
.L168:
	LJMP	r8
.LVL207:
.LM265:
	LD.w	r5,[r6+#1]
.LVL208:
.LM266:
	LSL	r7,#15
.LVL209:
.LBB86:
.LBB87:
.LM267:
	CLR	r5,#15
.LVL210:
	ORL	r7,r7,r5
.LVL211:
.LBE87:
.LBE86:
.LM268:
	ST.w	[r6+#1],r7
.LM269:
	POP	{r6, r7, r8}
	.cfi_def_cfa_offset 4
	POP	lr
	.cfi_def_cfa_offset 0
	JMP	lr
	.cfi_endproc
.LFE30:
	.size	CANFD_Bus_Sampling_Times_Config, .-CANFD_Bus_Sampling_Times_Config
	.section .text$CANFD_TimeSEG2_Config
	.type	.text$CANFD_TimeSEG2_Config$scode_local_31, @function
	.text$CANFD_TimeSEG2_Config$scode_local_31:
	.align	1
	.export	CANFD_TimeSEG2_Config
	.type	CANFD_TimeSEG2_Config, @function
CANFD_TimeSEG2_Config:
.LFB31:
.LM270:
	.cfi_startproc
.LVL212:
	PUSH	{r6, r7, r8, lr}
	.cfi_def_cfa_offset 16
	MOV	r6,r0
	MOV	r7,r1
.LVL213:
.LM271:
	LD	r5,#1073753728
	MOV	r0,#1
.LVL214:
	CMP	r6,r5
	JZ	.L171
.LM272:
	LD	r5,#1073753856
	CMP	r6,r5
	JZ	.L171
	MOV	r0,#0
.L171:
.LM273:
	LD	r4,#CHECK_RESTRICTION
	MOV	r8,r4
	LJMP	r4
.LVL215:
.LM274:
	MOV	r4,#3
	LSR	r5,r7,r4
	MOV	r0,#1
	CMP	r5,#0
	JZ	.L173
	MOV	r0,#0
.L173:
	LJMP	r8
.LVL216:
.LM275:
	LD.w	r4,[r6+#1]
.LVL217:
.LM276:
	LSL	r7,#12
.LVL218:
.LBB88:
.LBB89:
.LM277:
	LD	r5,#-28673
	ANL	r5,r4,r5
	ORL	r7,r7,r5
.LVL219:
.LBE89:
.LBE88:
.LM278:
	ST.w	[r6+#1],r7
.LM279:
	POP	{r6, r7, r8}
	.cfi_def_cfa_offset 4
	POP	lr
	.cfi_def_cfa_offset 0
	JMP	lr
	.cfi_endproc
.LFE31:
	.size	CANFD_TimeSEG2_Config, .-CANFD_TimeSEG2_Config
	.section .text$CANFD_TimeSEG1_Config
	.type	.text$CANFD_TimeSEG1_Config$scode_local_32, @function
	.text$CANFD_TimeSEG1_Config$scode_local_32:
	.align	1
	.export	CANFD_TimeSEG1_Config
	.type	CANFD_TimeSEG1_Config, @function
CANFD_TimeSEG1_Config:
.LFB32:
.LM280:
	.cfi_startproc
.LVL220:
	PUSH	{r6, r7, r8, lr}
	.cfi_def_cfa_offset 16
	MOV	r6,r0
	MOV	r7,r1
.LVL221:
.LM281:
	LD	r5,#1073753728
	MOV	r0,#1
.LVL222:
	CMP	r6,r5
	JZ	.L179
.LM282:
	LD	r5,#1073753856
	CMP	r6,r5
	JZ	.L179
	MOV	r0,#0
.L179:
.LM283:
	LD	r4,#CHECK_RESTRICTION
	MOV	r8,r4
	LJMP	r4
.LVL223:
.LM284:
	MOV	r4,#4
	LSR	r5,r7,r4
	MOV	r0,#1
	CMP	r5,#0
	JZ	.L181
	MOV	r0,#0
.L181:
	LJMP	r8
.LVL224:
.LM285:
	LD.w	r4,[r6+#1]
.LVL225:
.LM286:
	LSL	r7,#8
.LVL226:
.LBB90:
.LBB91:
.LM287:
	LD	r5,#-3841
	ANL	r5,r4,r5
	ORL	r7,r7,r5
.LVL227:
.LBE91:
.LBE90:
.LM288:
	ST.w	[r6+#1],r7
.LM289:
	POP	{r6, r7, r8}
	.cfi_def_cfa_offset 4
	POP	lr
	.cfi_def_cfa_offset 0
	JMP	lr
	.cfi_endproc
.LFE32:
	.size	CANFD_TimeSEG1_Config, .-CANFD_TimeSEG1_Config
	.section .text$CANFD_Sync_Jump_Width_Config
	.type	.text$CANFD_Sync_Jump_Width_Config$scode_local_33, @function
	.text$CANFD_Sync_Jump_Width_Config$scode_local_33:
	.align	1
	.export	CANFD_Sync_Jump_Width_Config
	.type	CANFD_Sync_Jump_Width_Config, @function
CANFD_Sync_Jump_Width_Config:
.LFB33:
.LM290:
	.cfi_startproc
.LVL228:
	PUSH	{r6, r7, r8, lr}
	.cfi_def_cfa_offset 16
	MOV	r6,r0
	MOV	r7,r1
.LVL229:
.LM291:
	LD	r5,#1073753728
	MOV	r0,#1
.LVL230:
	CMP	r6,r5
	JZ	.L187
.LM292:
	LD	r5,#1073753856
	CMP	r6,r5
	JZ	.L187
	MOV	r0,#0
.L187:
.LM293:
	LD	r4,#CHECK_RESTRICTION
	MOV	r8,r4
	LJMP	r4
.LVL231:
.LM294:
	MOV	r4,#2
	LSR	r5,r7,r4
	MOV	r0,#1
	CMP	r5,#0
	JZ	.L189
	MOV	r0,#0
.L189:
	LJMP	r8
.LVL232:
.LM295:
	LD.w	r5,[r6+#1]
.LVL233:
.LM296:
	LSL	r7,#6
.LVL234:
.LBB92:
.LBB93:
.LM297:
	CLR	r5,#6
	CLR	r5,#7
.LVL235:
	ORL	r7,r7,r5
.LVL236:
.LBE93:
.LBE92:
.LM298:
	ST.w	[r6+#1],r7
.LM299:
	POP	{r6, r7, r8}
	.cfi_def_cfa_offset 4
	POP	lr
	.cfi_def_cfa_offset 0
	JMP	lr
	.cfi_endproc
.LFE33:
	.size	CANFD_Sync_Jump_Width_Config, .-CANFD_Sync_Jump_Width_Config
	.section .text$CANFD_BaudRate_Div_Preset_Config
	.type	.text$CANFD_BaudRate_Div_Preset_Config$scode_local_34, @function
	.text$CANFD_BaudRate_Div_Preset_Config$scode_local_34:
	.align	1
	.export	CANFD_BaudRate_Div_Preset_Config
	.type	CANFD_BaudRate_Div_Preset_Config, @function
CANFD_BaudRate_Div_Preset_Config:
.LFB34:
.LM300:
	.cfi_startproc
.LVL237:
	PUSH	{r6, r7, r8, lr}
	.cfi_def_cfa_offset 16
	MOV	r6,r0
	MOV	r7,r1
.LVL238:
.LM301:
	LD	r5,#1073753728
	MOV	r0,#1
.LVL239:
	CMP	r6,r5
	JZ	.L195
.LM302:
	LD	r5,#1073753856
	CMP	r6,r5
	JZ	.L195
	MOV	r0,#0
.L195:
.LM303:
	LD	r4,#CHECK_RESTRICTION
	MOV	r8,r4
	LJMP	r4
.LVL240:
.LM304:
	MOV	r4,#6
	LSR	r5,r7,r4
	MOV	r0,#1
	CMP	r5,#0
	JZ	.L197
	MOV	r0,#0
.L197:
	LJMP	r8
.LVL241:
.LM305:
	LD.w	r4,[r6+#1]
.LVL242:
.LBB94:
.LBB95:
.LM306:
	LD	r5,#-4128769
	ANL	r5,r4,r5
	ORL	r7,r7,r5
.LVL243:
.LBE95:
.LBE94:
.LM307:
	ST.w	[r6+#1],r7
.LM308:
	POP	{r6, r7, r8}
	.cfi_def_cfa_offset 4
	POP	lr
	.cfi_def_cfa_offset 0
	JMP	lr
	.cfi_endproc
.LFE34:
	.size	CANFD_BaudRate_Div_Preset_Config, .-CANFD_BaudRate_Div_Preset_Config
	.section .text$CANFD_Get_Error_Code
	.type	.text$CANFD_Get_Error_Code$scode_local_35, @function
	.text$CANFD_Get_Error_Code$scode_local_35:
	.align	1
	.export	CANFD_Get_Error_Code
	.type	CANFD_Get_Error_Code, @function
CANFD_Get_Error_Code:
.LFB35:
.LM309:
	.cfi_startproc
.LVL244:
	PUSH	{r6, lr}
	.cfi_def_cfa_offset 8
	MOV	r6,r0
.LM310:
	LD	r5,#1073753728
	MOV	r0,#1
.LVL245:
	CMP	r6,r5
	JZ	.L203
.LM311:
	LD	r5,#1073753856
	CMP	r6,r5
	JZ	.L203
	MOV	r0,#0
.L203:
.LM312:
	LD	r5,#CHECK_RESTRICTION
	LJMP	r5
.LVL246:
.LM313:
	LD.w	r0,[r6+#2]
	LD	r5,#49152
	ANL	r0,r0,r5
.LM314:
	LSR	r0,#14
	POP	r6
	.cfi_def_cfa_offset 4
.LVL247:
	POP	lr
	.cfi_def_cfa_offset 0
	JMP	lr
	.cfi_endproc
.LFE35:
	.size	CANFD_Get_Error_Code, .-CANFD_Get_Error_Code
	.section .text$CANFD_Get_Error_Direction
	.type	.text$CANFD_Get_Error_Direction$scode_local_36, @function
	.text$CANFD_Get_Error_Direction$scode_local_36:
	.align	1
	.export	CANFD_Get_Error_Direction
	.type	CANFD_Get_Error_Direction, @function
CANFD_Get_Error_Direction:
.LFB36:
.LM315:
	.cfi_startproc
.LVL248:
	PUSH	{r6, lr}
	.cfi_def_cfa_offset 8
	MOV	r6,r0
.LM316:
	LD	r5,#1073753728
	MOV	r0,#1
.LVL249:
	CMP	r6,r5
	JZ	.L207
.LM317:
	LD	r5,#1073753856
	CMP	r6,r5
	JZ	.L207
	MOV	r0,#0
.L207:
.LM318:
	LD	r5,#CHECK_RESTRICTION
	LJMP	r5
.LVL250:
.LM319:
	LD.w	r0,[r6+#2]
	MOV	r5,#1
	LSL	r5,#13
	ANL	r0,r0,r5
	LSR	r0,#13
	ZXT.b	r0,r0
.LM320:
	POP	r6
	.cfi_def_cfa_offset 4
.LVL251:
	POP	lr
	.cfi_def_cfa_offset 0
	JMP	lr
	.cfi_endproc
.LFE36:
	.size	CANFD_Get_Error_Direction, .-CANFD_Get_Error_Direction
	.section .text$CANFD_Get_Error_SEG
	.type	.text$CANFD_Get_Error_SEG$scode_local_37, @function
	.text$CANFD_Get_Error_SEG$scode_local_37:
	.align	1
	.export	CANFD_Get_Error_SEG
	.type	CANFD_Get_Error_SEG, @function
CANFD_Get_Error_SEG:
.LFB37:
.LM321:
	.cfi_startproc
.LVL252:
	PUSH	{r6, lr}
	.cfi_def_cfa_offset 8
	MOV	r6,r0
.LM322:
	LD	r5,#1073753728
	MOV	r0,#1
.LVL253:
	CMP	r6,r5
	JZ	.L211
.LM323:
	LD	r5,#1073753856
	CMP	r6,r5
	JZ	.L211
	MOV	r0,#0
.L211:
.LM324:
	LD	r5,#CHECK_RESTRICTION
	LJMP	r5
.LVL254:
.LM325:
	LD.w	r0,[r6+#2]
	LD	r5,#7936
	ANL	r0,r0,r5
.LM326:
	LSR	r0,#8
	POP	r6
	.cfi_def_cfa_offset 4
.LVL255:
	POP	lr
	.cfi_def_cfa_offset 0
	JMP	lr
	.cfi_endproc
.LFE37:
	.size	CANFD_Get_Error_SEG, .-CANFD_Get_Error_SEG
	.section .text$CANFD_Get_Bus_Seize_Lost_Bit
	.type	.text$CANFD_Get_Bus_Seize_Lost_Bit$scode_local_38, @function
	.text$CANFD_Get_Bus_Seize_Lost_Bit$scode_local_38:
	.align	1
	.export	CANFD_Get_Bus_Seize_Lost_Bit
	.type	CANFD_Get_Bus_Seize_Lost_Bit, @function
CANFD_Get_Bus_Seize_Lost_Bit:
.LFB38:
.LM327:
	.cfi_startproc
.LVL256:
	PUSH	{r6, lr}
	.cfi_def_cfa_offset 8
	MOV	r6,r0
.LM328:
	LD	r5,#1073753728
	MOV	r0,#1
.LVL257:
	CMP	r6,r5
	JZ	.L215
.LM329:
	LD	r5,#1073753856
	CMP	r6,r5
	JZ	.L215
	MOV	r0,#0
.L215:
.LM330:
	LD	r5,#CHECK_RESTRICTION
	LJMP	r5
.LVL258:
.LM331:
	LD.w	r0,[r6+#2]
.LM332:
	MOV	r5,#31
	ANL	r0,r0,r5
	POP	r6
	.cfi_def_cfa_offset 4
.LVL259:
	POP	lr
	.cfi_def_cfa_offset 0
	JMP	lr
	.cfi_endproc
.LFE38:
	.size	CANFD_Get_Bus_Seize_Lost_Bit, .-CANFD_Get_Bus_Seize_Lost_Bit
	.section .text$CANFD_Get_EROR_Register_Value
	.type	.text$CANFD_Get_EROR_Register_Value$scode_local_39, @function
	.text$CANFD_Get_EROR_Register_Value$scode_local_39:
	.align	1
	.export	CANFD_Get_EROR_Register_Value
	.type	CANFD_Get_EROR_Register_Value, @function
CANFD_Get_EROR_Register_Value:
.LFB39:
.LM333:
	.cfi_startproc
.LVL260:
	PUSH	{r6, r7, r8, lr}
	.cfi_def_cfa_offset 16
	MOV	r6,r0
	MOV	r7,r1
.LVL261:
.LM334:
	LD	r5,#1073753728
	MOV	r0,#1
.LVL262:
	CMP	r6,r5
	JZ	.L219
.LM335:
	LD	r5,#1073753856
	CMP	r6,r5
	JZ	.L219
	MOV	r0,#0
.L219:
.LM336:
	LD	r5,#CHECK_RESTRICTION
	MOV	r8,r5
	LJMP	r5
.LVL263:
.LM337:
	MOV	r0,#1
	LD	r5,#16711680
	CMP	r7,r5
	JLS	.L221
	MOV	r0,#0
.L221:
	LJMP	r8
.LVL264:
.LM338:
	LD.w	r4,[r6+#3]
	LSL	r7,#3
.LVL265:
	MOV	r5,#255
	LSL	r5,r5,r7
	ANL	r5,r5,r4
.LM339:
	LSR	r0,r5,r7
.LVL266:
.LM340:
	ZXT.b	r0,r0
.LVL267:
	POP	{r6, r7, r8}
	.cfi_def_cfa_offset 4
.LVL268:
	POP	lr
	.cfi_def_cfa_offset 0
	JMP	lr
	.cfi_endproc
.LFE39:
	.size	CANFD_Get_EROR_Register_Value, .-CANFD_Get_EROR_Register_Value
	.section .text$CANFD_Set_EROR_Register_Value
	.type	.text$CANFD_Set_EROR_Register_Value$scode_local_40, @function
	.text$CANFD_Set_EROR_Register_Value$scode_local_40:
	.align	1
	.export	CANFD_Set_EROR_Register_Value
	.type	CANFD_Set_EROR_Register_Value, @function
CANFD_Set_EROR_Register_Value:
.LFB40:
.LM341:
	.cfi_startproc
.LVL269:
	PUSH	{r6, r7, r8, r9, lr}
	.cfi_def_cfa_offset 20
	MOV	r6,r0
	MOV	r9,r1
	MOV	r8,r2
.LVL270:
.LM342:
	LD	r5,#1073753728
	MOV	r0,#1
.LVL271:
	CMP	r6,r5
	JZ	.L224
.LM343:
	LD	r5,#1073753856
	CMP	r6,r5
	JZ	.L224
	MOV	r0,#0
.L224:
.LM344:
	LD	r7,#CHECK_RESTRICTION
	LJMP	r7
.LVL272:
.LM345:
	MOV	r0,#1
	LD	r5,#16711680
	CMP	r9,r5
	JLS	.L226
	MOV	r0,#0
.L226:
	LJMP	r7
.LVL273:
.LM346:
	MOV	r0,#1
	MOV	r5,#255
	CMP	r8,r5
	JLS	.L227
	MOV	r0,#0
.L227:
	LJMP	r7
.LVL274:
.LM347:
	LSL	r9,#3
.LVL275:
.LM348:
	LD.w	r4,[r6+#3]
.LVL276:
.LM349:
	MOV	r5,#255
	LSL	r5,r9
.LVL277:
.LM350:
	NOT	r5,r5
.LVL278:
.LBB96:
.LBB97:
.LM351:
	ANL	r5,r5,r4
.LVL279:
.LBE97:
.LBE96:
.LM352:
	MOV	r4,r8
.LVL280:
	LSL	r4,r9
.LVL281:
.LBB99:
.LBB98:
.LM353:
	ORL	r5,r5,r4
.LBE98:
.LBE99:
.LM354:
	ST.w	[r6+#3],r5
.LM355:
	POP	{r6, r7, r8, r9}
	.cfi_def_cfa_offset 4
.LVL282:
	POP	lr
	.cfi_def_cfa_offset 0
	JMP	lr
	.cfi_endproc
.LFE40:
	.size	CANFD_Set_EROR_Register_Value, .-CANFD_Set_EROR_Register_Value
	.section .text$CANFD_Set_Global_Mask_Register_Value
	.type	.text$CANFD_Set_Global_Mask_Register_Value$scode_local_41, @function
	.text$CANFD_Set_Global_Mask_Register_Value$scode_local_41:
	.align	1
	.export	CANFD_Set_Global_Mask_Register_Value
	.type	CANFD_Set_Global_Mask_Register_Value, @function
CANFD_Set_Global_Mask_Register_Value:
.LFB41:
.LM356:
	.cfi_startproc
.LVL283:
	PUSH	{r6, r7, lr}
	.cfi_def_cfa_offset 12
	MOV	r6,r0
	MOV	r7,r1
.LM357:
	LD	r5,#1073753728
	MOV	r0,#1
.LVL284:
	CMP	r6,r5
	JZ	.L230
.LM358:
	LD	r5,#1073753856
	CMP	r6,r5
	JZ	.L230
	MOV	r0,#0
.L230:
.LM359:
	LD	r5,#CHECK_RESTRICTION
	LJMP	r5
.LVL285:
.LM360:
	ST.w	[r6+#5],r7
.LM361:
	POP	{r6, r7}
	.cfi_def_cfa_offset 4
.LVL286:
	POP	lr
	.cfi_def_cfa_offset 0
	JMP	lr
	.cfi_endproc
.LFE41:
	.size	CANFD_Set_Global_Mask_Register_Value, .-CANFD_Set_Global_Mask_Register_Value
	.section .text$CANFD_Get_Rx_Cache_Register_Group
	.type	.text$CANFD_Get_Rx_Cache_Register_Group$scode_local_42, @function
	.text$CANFD_Get_Rx_Cache_Register_Group$scode_local_42:
	.align	1
	.export	CANFD_Get_Rx_Cache_Register_Group
	.type	CANFD_Get_Rx_Cache_Register_Group, @function
CANFD_Get_Rx_Cache_Register_Group:
.LFB42:
.LM362:
	.cfi_startproc
.LVL287:
	PUSH	{r6, r7, r8, lr}
	.cfi_def_cfa_offset 16
	MOV	r6,r0
	ZXT.b	r7,r1
.LM363:
	LD	r5,#1073753728
	MOV	r0,#1
.LVL288:
	CMP	r6,r5
	JZ	.L234
.LM364:
	LD	r5,#1073753856
	CMP	r6,r5
	JZ	.L234
	MOV	r0,#0
.L234:
.LM365:
	LD	r5,#CHECK_RESTRICTION
	MOV	r8,r5
	LJMP	r5
.LVL289:
.LM366:
	MOV	r0,#1
	CMP	r7,#17
	JLS	.L236
	MOV	r0,#0
.L236:
	LJMP	r8
.LVL290:
.LM367:
	ADD	r7,#8
.LVL291:
	LSL	r7,#2
.LVL292:
	LD.w	r0,[r6+r7]
.LM368:
	POP	{r6, r7, r8}
	.cfi_def_cfa_offset 4
	POP	lr
	.cfi_def_cfa_offset 0
	JMP	lr
	.cfi_endproc
.LFE42:
	.size	CANFD_Get_Rx_Cache_Register_Group, .-CANFD_Get_Rx_Cache_Register_Group
	.section .text$CANFD_Get_Timestamp_Value
	.type	.text$CANFD_Get_Timestamp_Value$scode_local_43, @function
	.text$CANFD_Get_Timestamp_Value$scode_local_43:
	.align	1
	.export	CANFD_Get_Timestamp_Value
	.type	CANFD_Get_Timestamp_Value, @function
CANFD_Get_Timestamp_Value:
.LFB43:
.LM369:
	.cfi_startproc
.LVL293:
	PUSH	{r6, lr}
	.cfi_def_cfa_offset 8
	MOV	r6,r0
.LM370:
	LD	r5,#1073753728
	MOV	r0,#1
.LVL294:
	CMP	r6,r5
	JZ	.L239
.LM371:
	LD	r5,#1073753856
	CMP	r6,r5
	JZ	.L239
	MOV	r0,#0
.L239:
.LM372:
	LD	r5,#CHECK_RESTRICTION
	LJMP	r5
.LVL295:
.LM373:
	LD.w	r0,[r6+#26]
.LM374:
	LD	r5,#65534
	ANL	r0,r0,r5
	POP	r6
	.cfi_def_cfa_offset 4
.LVL296:
	POP	lr
	.cfi_def_cfa_offset 0
	JMP	lr
	.cfi_endproc
.LFE43:
	.size	CANFD_Get_Timestamp_Value, .-CANFD_Get_Timestamp_Value
	.section .text$CANFD_Set_Timestamp_Value
	.type	.text$CANFD_Set_Timestamp_Value$scode_local_44, @function
	.text$CANFD_Set_Timestamp_Value$scode_local_44:
	.align	1
	.export	CANFD_Set_Timestamp_Value
	.type	CANFD_Set_Timestamp_Value, @function
CANFD_Set_Timestamp_Value:
.LFB44:
.LM375:
	.cfi_startproc
.LVL297:
	PUSH	{r6, r7, r8, lr}
	.cfi_def_cfa_offset 16
	MOV	r6,r0
	ZXT.h	r8,r1
.LM376:
	LD	r5,#1073753728
	MOV	r0,#1
.LVL298:
	CMP	r6,r5
	JZ	.L243
.LM377:
	LD	r5,#1073753856
	CMP	r6,r5
	JZ	.L243
	MOV	r0,#0
.L243:
.LM378:
	LD	r7,#CHECK_RESTRICTION
	LJMP	r7
.LVL299:
.LM379:
	MOV	r0,#1
	LJMP	r7
.LVL300:
.LM380:
	MOV	r5,r8
	ST.w	[r6+#26],r5
.LM381:
	POP	{r6, r7, r8}
	.cfi_def_cfa_offset 4
.LVL301:
	POP	lr
	.cfi_def_cfa_offset 0
	JMP	lr
	.cfi_endproc
.LFE44:
	.size	CANFD_Set_Timestamp_Value, .-CANFD_Set_Timestamp_Value
	.section .text$CANFD_Get_CRC_Timestamp_Value
	.type	.text$CANFD_Get_CRC_Timestamp_Value$scode_local_45, @function
	.text$CANFD_Get_CRC_Timestamp_Value$scode_local_45:
	.align	1
	.export	CANFD_Get_CRC_Timestamp_Value
	.type	CANFD_Get_CRC_Timestamp_Value, @function
CANFD_Get_CRC_Timestamp_Value:
.LFB45:
.LM382:
	.cfi_startproc
.LVL302:
	PUSH	{r6, lr}
	.cfi_def_cfa_offset 8
	MOV	r6,r0
.LM383:
	LD	r5,#1073753728
	MOV	r0,#1
.LVL303:
	CMP	r6,r5
	JZ	.L247
.LM384:
	LD	r5,#1073753856
	CMP	r6,r5
	JZ	.L247
	MOV	r0,#0
.L247:
.LM385:
	LD	r5,#CHECK_RESTRICTION
	LJMP	r5
.LVL304:
.LM386:
	LD.w	r0,[r6+#27]
.LM387:
	LD	r5,#8191
	ANL	r0,r0,r5
	POP	r6
	.cfi_def_cfa_offset 4
.LVL305:
	POP	lr
	.cfi_def_cfa_offset 0
	JMP	lr
	.cfi_endproc
.LFE45:
	.size	CANFD_Get_CRC_Timestamp_Value, .-CANFD_Get_CRC_Timestamp_Value
	.section .text$CANFD_LPCAN_Tx_Pin_Select
	.type	.text$CANFD_LPCAN_Tx_Pin_Select$scode_local_46, @function
	.text$CANFD_LPCAN_Tx_Pin_Select$scode_local_46:
	.align	1
	.export	CANFD_LPCAN_Tx_Pin_Select
	.type	CANFD_LPCAN_Tx_Pin_Select, @function
CANFD_LPCAN_Tx_Pin_Select:
.LFB46:
.LM388:
	.cfi_startproc
.LVL306:
	PUSH	{r6, r7, r8, lr}
	.cfi_def_cfa_offset 16
	MOV	r6,r0
	MOV	r7,r1
.LVL307:
.LM389:
	LD	r5,#1073753728
	MOV	r0,#1
.LVL308:
	CMP	r6,r5
	JZ	.L251
.LM390:
	LD	r5,#1073753856
	CMP	r6,r5
	JZ	.L251
	MOV	r0,#0
.L251:
.LM391:
	LD	r5,#CHECK_RESTRICTION
	MOV	r8,r5
	LJMP	r5
.LVL309:
.LM392:
	MOV	r0,#1
	CMP	r7,r0
	JLS	.L253
	MOV	r0,#0
.L253:
	LJMP	r8
.LVL310:
.LM393:
	LD.w	r5,[r6+#6]
.LVL311:
.LM394:
	LSL	r7,#30
.LVL312:
.LBB100:
.LBB101:
.LM395:
	CLR	r5,#30
.LVL313:
	ORL	r7,r7,r5
.LVL314:
.LBE101:
.LBE100:
.LM396:
	ST.w	[r6+#6],r7
.LM397:
	POP	{r6, r7, r8}
	.cfi_def_cfa_offset 4
	POP	lr
	.cfi_def_cfa_offset 0
	JMP	lr
	.cfi_endproc
.LFE46:
	.size	CANFD_LPCAN_Tx_Pin_Select, .-CANFD_LPCAN_Tx_Pin_Select
	.section .text$CANFD_Clear_INT_Bit
	.type	.text$CANFD_Clear_INT_Bit$scode_local_47, @function
	.text$CANFD_Clear_INT_Bit$scode_local_47:
	.align	1
	.export	CANFD_Clear_INT_Bit
	.type	CANFD_Clear_INT_Bit, @function
CANFD_Clear_INT_Bit:
.LFB47:
.LM398:
	.cfi_startproc
.LVL315:
	PUSH	{r6, r7, r8, lr}
	.cfi_def_cfa_offset 16
	MOV	r6,r0
	MOV	r8,r1
.LVL316:
.LM399:
	MOV	r0,#1
.LVL317:
	LD	r5,#1073753728
	CMP	r6,r5
	JZ	.L256
.LM400:
	LD	r5,#1073753856
	CMP	r6,r5
	JZ	.L256
	MOV	r0,#0
.L256:
.LM401:
	LD	r7,#CHECK_RESTRICTION
	LJMP	r7
.LVL318:
.LM402:
	MOV	r0,#1
	LJMP	r7
.LVL319:
.LM403:
	MOV	r1,#1
	LSL	r1,r8
.LVL320:
.LM404:
	LD.w	r5,[r6+#6]
	NOT	r4,r1
.LVL321:
.LBB102:
.LBB103:
.LM405:
	ANL	r5,r4,r5
.LVL322:
	ORL	r5,r5,r1
.LBE103:
.LBE102:
.LM406:
	ST.w	[r6+#6],r5
.L258:
.LM407:
	LD.w	r5,[r6+#7]
	ANL	r5,r1,r5
	JNZ	.L258
.LM408:
	LD.w	r5,[r6+#6]
.LVL323:
.LBB104:
.LBB105:
.LM409:
	ANL	r4,r4,r5
.LVL324:
.LBE105:
.LBE104:
.LM410:
	ST.w	[r6+#6],r4
.LM411:
	POP	{r6, r7, r8}
	.cfi_def_cfa_offset 4
.LVL325:
	POP	lr
	.cfi_def_cfa_offset 0
	JMP	lr
	.cfi_endproc
.LFE47:
	.size	CANFD_Clear_INT_Bit, .-CANFD_Clear_INT_Bit
	.section .text$CANFD_INT_Enable
	.type	.text$CANFD_INT_Enable$scode_local_48, @function
	.text$CANFD_INT_Enable$scode_local_48:
	.align	1
	.export	CANFD_INT_Enable
	.type	CANFD_INT_Enable, @function
CANFD_INT_Enable:
.LFB48:
.LM412:
	.cfi_startproc
.LVL326:
	PUSH	{r6, r7, r8, r9, lr}
	.cfi_def_cfa_offset 20
	MOV	r6,r0
	MOV	r8,r1
	MOV	r9,r2
.LVL327:
.LM413:
	LD	r5,#1073753728
	MOV	r0,#1
.LVL328:
	CMP	r6,r5
	JZ	.L262
.LM414:
	LD	r5,#1073753856
	CMP	r6,r5
	JZ	.L262
	MOV	r0,#0
.L262:
.LM415:
	LD	r7,#CHECK_RESTRICTION
	LJMP	r7
.LVL329:
.LM416:
	MOV	r0,#1
	LJMP	r7
.LVL330:
.LM417:
	MOV	r0,#1
	CMP	r9,r0
	JLS	.L264
	MOV	r0,#0
.L264:
	LJMP	r7
.LVL331:
.LM418:
	LD.w	r4,[r6+#6]
.LVL332:
.LM419:
	MOV	r5,#1
	LSL	r5,r8
.LVL333:
.LM420:
	NOT	r5,r5
.LVL334:
.LBB106:
.LBB107:
.LM421:
	ANL	r5,r5,r4
.LVL335:
.LBE107:
.LBE106:
.LM422:
	MOV	r4,r9
.LVL336:
	LSL	r4,r8
.LVL337:
.LBB109:
.LBB108:
.LM423:
	ORL	r5,r5,r4
.LBE108:
.LBE109:
.LM424:
	ST.w	[r6+#6],r5
.LM425:
	POP	{r6, r7, r8, r9}
	.cfi_def_cfa_offset 4
.LVL338:
	POP	lr
	.cfi_def_cfa_offset 0
	JMP	lr
	.cfi_endproc
.LFE48:
	.size	CANFD_INT_Enable, .-CANFD_INT_Enable
	.section .text$CANFD_Get_Rx_No_Blank_Flag
	.type	.text$CANFD_Get_Rx_No_Blank_Flag$scode_local_49, @function
	.text$CANFD_Get_Rx_No_Blank_Flag$scode_local_49:
	.align	1
	.export	CANFD_Get_Rx_No_Blank_Flag
	.type	CANFD_Get_Rx_No_Blank_Flag, @function
CANFD_Get_Rx_No_Blank_Flag:
.LFB49:
.LM426:
	.cfi_startproc
.LVL339:
	PUSH	{r6, lr}
	.cfi_def_cfa_offset 8
	MOV	r6,r0
.LM427:
	LD	r5,#1073753728
	MOV	r0,#1
.LVL340:
	CMP	r6,r5
	JZ	.L267
.LM428:
	LD	r5,#1073753856
	CMP	r6,r5
	JZ	.L267
	MOV	r0,#0
.L267:
.LM429:
	LD	r5,#CHECK_RESTRICTION
	LJMP	r5
.LVL341:
.LM430:
	LD.w	r0,[r6+#7]
	MOV	r5,#1
	LSL	r5,#10
	ANL	r0,r0,r5
.LM431:
	LSR	r0,#10
	POP	r6
	.cfi_def_cfa_offset 4
.LVL342:
	POP	lr
	.cfi_def_cfa_offset 0
	JMP	lr
	.cfi_endproc
.LFE49:
	.size	CANFD_Get_Rx_No_Blank_Flag, .-CANFD_Get_Rx_No_Blank_Flag
	.section .text$CANFD_Get_Rxfinish_DMA_Flag
	.type	.text$CANFD_Get_Rxfinish_DMA_Flag$scode_local_50, @function
	.text$CANFD_Get_Rxfinish_DMA_Flag$scode_local_50:
	.align	1
	.export	CANFD_Get_Rxfinish_DMA_Flag
	.type	CANFD_Get_Rxfinish_DMA_Flag, @function
CANFD_Get_Rxfinish_DMA_Flag:
.LFB50:
.LM432:
	.cfi_startproc
.LVL343:
	PUSH	{r6, lr}
	.cfi_def_cfa_offset 8
	MOV	r6,r0
.LM433:
	LD	r5,#1073753728
	MOV	r0,#1
.LVL344:
	CMP	r6,r5
	JZ	.L271
.LM434:
	LD	r5,#1073753856
	CMP	r6,r5
	JZ	.L271
	MOV	r0,#0
.L271:
.LM435:
	LD	r5,#CHECK_RESTRICTION
	LJMP	r5
.LVL345:
.LM436:
	LD.w	r0,[r6+#7]
	MOV	r5,#1
	LSL	r5,#9
	ANL	r0,r0,r5
.LM437:
	LSR	r0,#9
	POP	r6
	.cfi_def_cfa_offset 4
.LVL346:
	POP	lr
	.cfi_def_cfa_offset 0
	JMP	lr
	.cfi_endproc
.LFE50:
	.size	CANFD_Get_Rxfinish_DMA_Flag, .-CANFD_Get_Rxfinish_DMA_Flag
	.section .text$CANFD_Get_Txfinish_DMA_Flag
	.type	.text$CANFD_Get_Txfinish_DMA_Flag$scode_local_51, @function
	.text$CANFD_Get_Txfinish_DMA_Flag$scode_local_51:
	.align	1
	.export	CANFD_Get_Txfinish_DMA_Flag
	.type	CANFD_Get_Txfinish_DMA_Flag, @function
CANFD_Get_Txfinish_DMA_Flag:
.LFB51:
.LM438:
	.cfi_startproc
.LVL347:
	PUSH	{r6, lr}
	.cfi_def_cfa_offset 8
	MOV	r6,r0
.LM439:
	LD	r5,#1073753728
	MOV	r0,#1
.LVL348:
	CMP	r6,r5
	JZ	.L275
.LM440:
	LD	r5,#1073753856
	CMP	r6,r5
	JZ	.L275
	MOV	r0,#0
.L275:
.LM441:
	LD	r5,#CHECK_RESTRICTION
	LJMP	r5
.LVL349:
.LM442:
	LD.w	r0,[r6+#7]
	MOV	r5,#255
	ADD	r5,r5,#1
	ANL	r0,r0,r5
.LM443:
	LSR	r0,#8
	POP	r6
	.cfi_def_cfa_offset 4
.LVL350:
	POP	lr
	.cfi_def_cfa_offset 0
	JMP	lr
	.cfi_endproc
.LFE51:
	.size	CANFD_Get_Txfinish_DMA_Flag, .-CANFD_Get_Txfinish_DMA_Flag
	.section .text$CANFD_Get_INT_Flag
	.type	.text$CANFD_Get_INT_Flag$scode_local_52, @function
	.text$CANFD_Get_INT_Flag$scode_local_52:
	.align	1
	.export	CANFD_Get_INT_Flag
	.type	CANFD_Get_INT_Flag, @function
CANFD_Get_INT_Flag:
.LFB52:
.LM444:
	.cfi_startproc
.LVL351:
	PUSH	{r6, r7, r8, lr}
	.cfi_def_cfa_offset 16
	MOV	r6,r0
	MOV	r8,r1
.LM445:
	MOV	r0,#1
.LVL352:
	LD	r5,#1073753728
	CMP	r6,r5
	JZ	.L279
.LM446:
	LD	r5,#1073753856
	CMP	r6,r5
	JZ	.L279
	MOV	r0,#0
.L279:
.LM447:
	LD	r7,#CHECK_RESTRICTION
	LJMP	r7
.LVL353:
.LM448:
	MOV	r0,#1
	LJMP	r7
.LVL354:
.LM449:
	LD.w	r5,[r6+#7]
	MOV	r1,#1
	LSL	r1,r8
	ANL	r1,r1,r5
	MOV	r5,#0
	SUB	r5,r5,r1
	ORL	r0,r5,r1
.LM450:
	LSR	r0,#31
	POP	{r6, r7, r8}
	.cfi_def_cfa_offset 4
.LVL355:
	POP	lr
	.cfi_def_cfa_offset 0
	JMP	lr
	.cfi_endproc
.LFE52:
	.size	CANFD_Get_INT_Flag, .-CANFD_Get_INT_Flag
	.section .text$CANFD_Get_AMSTA_MATWINNER_Value
	.type	.text$CANFD_Get_AMSTA_MATWINNER_Value$scode_local_53, @function
	.text$CANFD_Get_AMSTA_MATWINNER_Value$scode_local_53:
	.align	1
	.export	CANFD_Get_AMSTA_MATWINNER_Value
	.type	CANFD_Get_AMSTA_MATWINNER_Value, @function
CANFD_Get_AMSTA_MATWINNER_Value:
.LFB53:
.LM451:
	.cfi_startproc
.LVL356:
	PUSH	{r6, lr}
	.cfi_def_cfa_offset 8
	MOV	r6,r0
.LM452:
	LD	r5,#1073753728
	MOV	r0,#1
.LVL357:
	CMP	r6,r5
	JZ	.L283
.LM453:
	LD	r5,#1073753856
	CMP	r6,r5
	JZ	.L283
	MOV	r0,#0
.L283:
.LM454:
	LD	r5,#CHECK_RESTRICTION
	LJMP	r5
.LVL358:
.LM455:
	LD.w	r0,[r6+#30]
.LM456:
	LD	r5,#511
	ANL	r0,r0,r5
	POP	r6
	.cfi_def_cfa_offset 4
.LVL359:
	POP	lr
	.cfi_def_cfa_offset 0
	JMP	lr
	.cfi_endproc
.LFE53:
	.size	CANFD_Get_AMSTA_MATWINNER_Value, .-CANFD_Get_AMSTA_MATWINNER_Value
	.section .text$CANFD_Get_Rx_Match_Flag
	.type	.text$CANFD_Get_Rx_Match_Flag$scode_local_54, @function
	.text$CANFD_Get_Rx_Match_Flag$scode_local_54:
	.align	1
	.export	CANFD_Get_Rx_Match_Flag
	.type	CANFD_Get_Rx_Match_Flag, @function
CANFD_Get_Rx_Match_Flag:
.LFB54:
.LM457:
	.cfi_startproc
.LVL360:
	PUSH	{r6, lr}
	.cfi_def_cfa_offset 8
	MOV	r6,r0
.LM458:
	LD	r5,#1073753728
	MOV	r0,#1
.LVL361:
	CMP	r6,r5
	JZ	.L287
.LM459:
	LD	r5,#1073753856
	CMP	r6,r5
	JZ	.L287
	MOV	r0,#0
.L287:
.LM460:
	LD	r5,#CHECK_RESTRICTION
	LJMP	r5
.LVL362:
.LM461:
	LD.w	r0,[r6+#30]
	MOV	r5,#1
	LSL	r5,#9
	ANL	r0,r0,r5
.LM462:
	LSR	r0,#9
	POP	r6
	.cfi_def_cfa_offset 4
.LVL363:
	POP	lr
	.cfi_def_cfa_offset 0
	JMP	lr
	.cfi_endproc
.LFE54:
	.size	CANFD_Get_Rx_Match_Flag, .-CANFD_Get_Rx_Match_Flag
	.section .text$CANFD_Get_AMSTA_ARBWINNER_Value
	.type	.text$CANFD_Get_AMSTA_ARBWINNER_Value$scode_local_55, @function
	.text$CANFD_Get_AMSTA_ARBWINNER_Value$scode_local_55:
	.align	1
	.export	CANFD_Get_AMSTA_ARBWINNER_Value
	.type	CANFD_Get_AMSTA_ARBWINNER_Value, @function
CANFD_Get_AMSTA_ARBWINNER_Value:
.LFB55:
.LM463:
	.cfi_startproc
.LVL364:
	PUSH	{r6, lr}
	.cfi_def_cfa_offset 8
	MOV	r6,r0
.LM464:
	LD	r5,#1073753728
	MOV	r0,#1
.LVL365:
	CMP	r6,r5
	JZ	.L291
.LM465:
	LD	r5,#1073753856
	CMP	r6,r5
	JZ	.L291
	MOV	r0,#0
.L291:
.LM466:
	LD	r5,#CHECK_RESTRICTION
	LJMP	r5
.LVL366:
.LM467:
	LD.w	r0,[r6+#30]
	LSL	r0,#7
.LM468:
	LSR	r0,#23
	POP	r6
	.cfi_def_cfa_offset 4
.LVL367:
	POP	lr
	.cfi_def_cfa_offset 0
	JMP	lr
	.cfi_endproc
.LFE55:
	.size	CANFD_Get_AMSTA_ARBWINNER_Value, .-CANFD_Get_AMSTA_ARBWINNER_Value
	.section .text$CANFD_Get_Tx_Arbitration0_Flag
	.type	.text$CANFD_Get_Tx_Arbitration0_Flag$scode_local_56, @function
	.text$CANFD_Get_Tx_Arbitration0_Flag$scode_local_56:
	.align	1
	.export	CANFD_Get_Tx_Arbitration0_Flag
	.type	CANFD_Get_Tx_Arbitration0_Flag, @function
CANFD_Get_Tx_Arbitration0_Flag:
.LFB56:
.LM469:
	.cfi_startproc
.LVL368:
	PUSH	{r6, lr}
	.cfi_def_cfa_offset 8
	MOV	r6,r0
.LM470:
	LD	r5,#1073753728
	MOV	r0,#1
.LVL369:
	CMP	r6,r5
	JZ	.L295
.LM471:
	LD	r5,#1073753856
	CMP	r6,r5
	JZ	.L295
	MOV	r0,#0
.L295:
.LM472:
	LD	r5,#CHECK_RESTRICTION
	LJMP	r5
.LVL370:
.LM473:
	LD.w	r0,[r6+#30]
	MOV	r5,#1
	LSL	r5,#25
	ANL	r0,r0,r5
.LM474:
	LSR	r0,#25
	POP	r6
	.cfi_def_cfa_offset 4
.LVL371:
	POP	lr
	.cfi_def_cfa_offset 0
	JMP	lr
	.cfi_endproc
.LFE56:
	.size	CANFD_Get_Tx_Arbitration0_Flag, .-CANFD_Get_Tx_Arbitration0_Flag
	.section .text$CANFD_Get_Tx_Arbitration1_Flag
	.type	.text$CANFD_Get_Tx_Arbitration1_Flag$scode_local_57, @function
	.text$CANFD_Get_Tx_Arbitration1_Flag$scode_local_57:
	.align	1
	.export	CANFD_Get_Tx_Arbitration1_Flag
	.type	CANFD_Get_Tx_Arbitration1_Flag, @function
CANFD_Get_Tx_Arbitration1_Flag:
.LFB57:
.LM475:
	.cfi_startproc
.LVL372:
	PUSH	{r6, lr}
	.cfi_def_cfa_offset 8
	MOV	r6,r0
.LM476:
	LD	r5,#1073753728
	MOV	r0,#1
.LVL373:
	CMP	r6,r5
	JZ	.L299
.LM477:
	LD	r5,#1073753856
	CMP	r6,r5
	JZ	.L299
	MOV	r0,#0
.L299:
.LM478:
	LD	r5,#CHECK_RESTRICTION
	LJMP	r5
.LVL374:
.LM479:
	LD.w	r0,[r6+#30]
	MOV	r5,#1
	LSL	r5,#26
	ANL	r0,r0,r5
.LM480:
	LSR	r0,#26
	POP	r6
	.cfi_def_cfa_offset 4
.LVL375:
	POP	lr
	.cfi_def_cfa_offset 0
	JMP	lr
	.cfi_endproc
.LFE57:
	.size	CANFD_Get_Tx_Arbitration1_Flag, .-CANFD_Get_Tx_Arbitration1_Flag
	.text	
.Letext0: