	.file	"kf32a9k1xxx_pclk.c"
	.text	
.Ltext0:
	.cfi_sections	.debug_frame
	.section .text$PCLK_CTL0_Peripheral_Clock_Enable
	.type	.text$PCLK_CTL0_Peripheral_Clock_Enable$scode_local_1, @function
	.text$PCLK_CTL0_Peripheral_Clock_Enable$scode_local_1:
	.align	1
	.export	PCLK_CTL0_Peripheral_Clock_Enable
	.type	PCLK_CTL0_Peripheral_Clock_Enable, @function
PCLK_CTL0_Peripheral_Clock_Enable:
.LFB1:
.LM1:
	.cfi_startproc
.LVL0:
	PUSH	{r6, r7, r8, lr}
	.cfi_def_cfa_offset 16
	MOV	r6,r0
	MOV	r7,r1
.LM2:
	MOV	r4,#8
	LSR	r5,r0,r4
	MOV	r0,#0
.LVL1:
	CMP	r5,r0
	JNZ	.L2
.LM3:
	SUB	r0,r0,r6
	ORL	r0,r0,r6
	LSR	r0,#31
.L2:
.LM4:
	LD	r5,#CHECK_RESTRICTION
	MOV	r8,r5
	LJMP	r5
.LVL2:
.LM5:
	MOV	r0,#1
	CMP	r7,r0
	JLS	.L3
	MOV	r0,#0
.L3:
	LJMP	r8
.LVL3:
.LM6:
	LD	r5,#1073751616
	LD.w	r4,[r5]
.LM7:
	CMP	r7,#0
	JNZ	.L8
.LM8:
	NOT	r6,r6
.LVL4:
	ANL	r6,r6,r4
.LVL5:
	ST.w	[r5],r6
.LM9:
	POP	{r6, r7, r8}
	.cfi_remember_state
	.cfi_def_cfa_offset 4
.LVL6:
	POP	lr
	.cfi_def_cfa_offset 0
	JMP	lr
.LVL7:
.L8:
	.cfi_restore_state
.LM10:
	ORL	r6,r6,r4
.LVL8:
	ST.w	[r5],r6
.LM11:
	POP	{r6, r7, r8}
	.cfi_def_cfa_offset 4
.LVL9:
	POP	lr
	.cfi_def_cfa_offset 0
	JMP	lr
	.cfi_endproc
.LFE1:
	.size	PCLK_CTL0_Peripheral_Clock_Enable, .-PCLK_CTL0_Peripheral_Clock_Enable
	.section .text$PCLK_CTL1_Peripheral_Clock_Enable
	.type	.text$PCLK_CTL1_Peripheral_Clock_Enable$scode_local_2, @function
	.text$PCLK_CTL1_Peripheral_Clock_Enable$scode_local_2:
	.align	1
	.export	PCLK_CTL1_Peripheral_Clock_Enable
	.type	PCLK_CTL1_Peripheral_Clock_Enable, @function
PCLK_CTL1_Peripheral_Clock_Enable:
.LFB2:
.LM12:
	.cfi_startproc
.LVL10:
	PUSH	{r6, r7, r8, lr}
	.cfi_def_cfa_offset 16
	MOV	r6,r0
	MOV	r7,r1
.LM13:
	LD	r5,#-532413567
	ANL	r5,r0,r5
	MOV	r0,#0
.LVL11:
	CMP	r5,r0
	JNZ	.L10
.LM14:
	SUB	r0,r0,r6
	ORL	r0,r0,r6
	LSR	r0,#31
.L10:
.LM15:
	LD	r5,#CHECK_RESTRICTION
	MOV	r8,r5
	LJMP	r5
.LVL12:
.LM16:
	MOV	r0,#1
	CMP	r7,r0
	JLS	.L11
	MOV	r0,#0
.L11:
	LJMP	r8
.LVL13:
.LM17:
	LD	r5,#1073751616
	LD.w	r4,[r5+#1]
.LM18:
	CMP	r7,#0
	JNZ	.L15
.LM19:
	NOT	r6,r6
.LVL14:
	ANL	r6,r6,r4
.LVL15:
	ST.w	[r5+#1],r6
.LM20:
	POP	{r6, r7, r8}
	.cfi_remember_state
	.cfi_def_cfa_offset 4
.LVL16:
	POP	lr
	.cfi_def_cfa_offset 0
	JMP	lr
.LVL17:
.L15:
	.cfi_restore_state
.LM21:
	ORL	r6,r6,r4
.LVL18:
	ST.w	[r5+#1],r6
.LM22:
	POP	{r6, r7, r8}
	.cfi_def_cfa_offset 4
.LVL19:
	POP	lr
	.cfi_def_cfa_offset 0
	JMP	lr
	.cfi_endproc
.LFE2:
	.size	PCLK_CTL1_Peripheral_Clock_Enable, .-PCLK_CTL1_Peripheral_Clock_Enable
	.section .text$PCLK_CTL2_Peripheral_Clock_Enable
	.type	.text$PCLK_CTL2_Peripheral_Clock_Enable$scode_local_3, @function
	.text$PCLK_CTL2_Peripheral_Clock_Enable$scode_local_3:
	.align	1
	.export	PCLK_CTL2_Peripheral_Clock_Enable
	.type	PCLK_CTL2_Peripheral_Clock_Enable, @function
PCLK_CTL2_Peripheral_Clock_Enable:
.LFB3:
.LM23:
	.cfi_startproc
.LVL20:
	PUSH	{r6, r7, r8, lr}
	.cfi_def_cfa_offset 16
	MOV	r6,r0
	MOV	r7,r1
.LM24:
	LD	r5,#1184800988
	ANL	r5,r0,r5
	MOV	r0,#0
.LVL21:
	CMP	r5,r0
	JNZ	.L17
.LM25:
	SUB	r0,r0,r6
	ORL	r0,r0,r6
	LSR	r0,#31
.L17:
.LM26:
	LD	r5,#CHECK_RESTRICTION
	MOV	r8,r5
	LJMP	r5
.LVL22:
.LM27:
	MOV	r0,#1
	CMP	r7,r0
	JLS	.L18
	MOV	r0,#0
.L18:
	LJMP	r8
.LVL23:
.LM28:
	LD	r5,#1073751616
	LD.w	r4,[r5+#2]
.LM29:
	CMP	r7,#0
	JNZ	.L22
.LM30:
	NOT	r6,r6
.LVL24:
	ANL	r6,r6,r4
.LVL25:
	ST.w	[r5+#2],r6
.LM31:
	POP	{r6, r7, r8}
	.cfi_remember_state
	.cfi_def_cfa_offset 4
.LVL26:
	POP	lr
	.cfi_def_cfa_offset 0
	JMP	lr
.LVL27:
.L22:
	.cfi_restore_state
.LM32:
	ORL	r6,r6,r4
.LVL28:
	ST.w	[r5+#2],r6
.LM33:
	POP	{r6, r7, r8}
	.cfi_def_cfa_offset 4
.LVL29:
	POP	lr
	.cfi_def_cfa_offset 0
	JMP	lr
	.cfi_endproc
.LFE3:
	.size	PCLK_CTL2_Peripheral_Clock_Enable, .-PCLK_CTL2_Peripheral_Clock_Enable
	.section .text$PCLK_CTL3_Peripheral_Clock_Enable
	.type	.text$PCLK_CTL3_Peripheral_Clock_Enable$scode_local_4, @function
	.text$PCLK_CTL3_Peripheral_Clock_Enable$scode_local_4:
	.align	1
	.export	PCLK_CTL3_Peripheral_Clock_Enable
	.type	PCLK_CTL3_Peripheral_Clock_Enable, @function
PCLK_CTL3_Peripheral_Clock_Enable:
.LFB4:
.LM34:
	.cfi_startproc
.LVL30:
	PUSH	{r6, r7, r8, lr}
	.cfi_def_cfa_offset 16
	MOV	r6,r0
	MOV	r7,r1
.LM35:
	LD	r5,#301177
	ANL	r5,r0,r5
	MOV	r0,#0
.LVL31:
	CMP	r5,r0
	JNZ	.L24
.LM36:
	SUB	r0,r0,r6
	ORL	r0,r0,r6
	LSR	r0,#31
.L24:
.LM37:
	LD	r5,#CHECK_RESTRICTION
	MOV	r8,r5
	LJMP	r5
.LVL32:
.LM38:
	MOV	r0,#1
	CMP	r7,r0
	JLS	.L25
	MOV	r0,#0
.L25:
	LJMP	r8
.LVL33:
.LM39:
	LD	r5,#1073751616
	LD.w	r4,[r5+#3]
.LM40:
	CMP	r7,#0
	JNZ	.L29
.LM41:
	NOT	r6,r6
.LVL34:
	ANL	r6,r6,r4
.LVL35:
	ST.w	[r5+#3],r6
.LM42:
	POP	{r6, r7, r8}
	.cfi_remember_state
	.cfi_def_cfa_offset 4
.LVL36:
	POP	lr
	.cfi_def_cfa_offset 0
	JMP	lr
.LVL37:
.L29:
	.cfi_restore_state
.LM43:
	ORL	r6,r6,r4
.LVL38:
	ST.w	[r5+#3],r6
.LM44:
	POP	{r6, r7, r8}
	.cfi_def_cfa_offset 4
.LVL39:
	POP	lr
	.cfi_def_cfa_offset 0
	JMP	lr
	.cfi_endproc
.LFE4:
	.size	PCLK_CTL3_Peripheral_Clock_Enable, .-PCLK_CTL3_Peripheral_Clock_Enable
	.text	
.Letext0: