	.file	"kf32a9k1xxx_atim.c"
	.text	
.Ltext0:
	.cfi_sections	.debug_frame
	.section .text$ATIM_Reset
	.type	.text$ATIM_Reset$scode_local_1, @function
	.text$ATIM_Reset$scode_local_1:
	.align	1
	.export	ATIM_Reset
	.type	ATIM_Reset, @function
ATIM_Reset:
.LFB1:
.LM1:
	.cfi_startproc
.LVL0:
	PUSH	{r6, lr}
	.cfi_def_cfa_offset 8
.LM2:
	MOV	r6,#1
	LD	r5,#1073742592
	CMP	r0,r5
	JZ	.L2
	MOV	r6,#0
.L2:
	ZXT.b	r6,r6
	MOV	r0,r6
.LVL1:
	LD	r5,#CHECK_RESTRICTION
	LJMP	r5
.LVL2:
.LM3:
	CMP	r6,#0
	JNZ	.L8
.L1:
.LM4:
	POP	r6
	.cfi_remember_state
	.cfi_def_cfa_offset 4
	POP	lr
	.cfi_def_cfa_offset 0
	JMP	lr
.L8:
	.cfi_restore_state
.LM5:
	MOV	r0,#64
	MOV	r1,#1
	LD	r6,#RST_CTL1_Peripheral_Reset_Enable
	LJMP	r6
.LVL3:
.LM6:
	MOV	r0,#64
	MOV	r1,#0
	LJMP	r6
.LVL4:
.LM7:
	MOV	r0,#64
	MOV	r1,#1
	LD	r5,#PCLK_CTL1_Peripheral_Clock_Enable
	LJMP	r5
.LVL5:
	JMP	.L1
	.cfi_endproc
.LFE1:
	.size	ATIM_Reset, .-ATIM_Reset
	.section .text$ATIM_X_Configuration
	.type	.text$ATIM_X_Configuration$scode_local_2, @function
	.text$ATIM_X_Configuration$scode_local_2:
	.align	1
	.export	ATIM_X_Configuration
	.type	ATIM_X_Configuration, @function
ATIM_X_Configuration:
.LFB2:
.LM8:
	.cfi_startproc
.LVL6:
	PUSH	{r6, r7, r8, lr}
	.cfi_def_cfa_offset 16
	MOV	r7,r0
	MOV	r6,r1
.LVL7:
.LM9:
	MOV	r0,#1
.LVL8:
	LD	r5,#1073742592
	CMP	r7,r5
	JZ	.L10
	MOV	r0,#0
.L10:
	LD	r5,#CHECK_RESTRICTION
	MOV	r8,r5
	LJMP	r5
.LVL9:
.LM10:
	MOV	r0,#1
	LD.h	r5,[r6+#3]
	CMP	r5,#15
	JLS	.L11
	MOV	r0,#0
.L11:
	LJMP	r8
.LVL10:
.LM11:
	LD.w	r5,[r6+#2]
	MOV	r0,#1
	CMP	r5,#0
	JZ	.L12
.LM12:
	MOV	r4,#1
	LSL	r4,#15
	CMP	r5,r4
	JZ	.L12
.LM13:
	MOV	r4,#1
	LSL	r4,#13
	CMP	r5,r4
	JZ	.L12
	MOV	r4,#1
	LSL	r4,#14
	CMP	r5,r4
	JZ	.L12
	LD	r4,#24576
	CMP	r5,r4
	JZ	.L12
	MOV	r0,#0
.L12:
.LM14:
	LJMP	r8
.LVL11:
.LM15:
	LD.h	r5,[r6+#6]
	MOV	r0,#1
	CMP	r5,#0
	JZ	.L14
.LM16:
	MOV	r4,#255
	ADD	r4,r4,#1
	CMP	r5,r4
	JZ	.L14
.LM17:
	MOV	r0,#1
	LSL	r0,#9
	XRL	r0,r5,r0
	SUB	r0,r0,#1
	LSR	r0,#31
.L14:
.LM18:
	LJMP	r8
.LVL12:
.LM19:
	MOV	r0,#1
	LD.h	r5,[r6+#7]
	CMP	r5,r0
	JLS	.L15
	MOV	r0,#0
.L15:
	LJMP	r8
.LVL13:
.LM20:
	LD.h	r5,[r6+#8]
	MOV	r0,#1
	CMP	r5,#0
	JZ	.L16
.LM21:
	MOV	r0,#2
	XRL	r0,r5,r0
	SUB	r0,r0,#1
	LSR	r0,#31
.L16:
.LM22:
	LJMP	r8
.LVL14:
.LM23:
	LD.h	r5,[r6]
	ST.w	[r7],r5
.LM24:
	LD.h	r5,[r6+#1]
	ST.w	[r7+#2],r5
.LM25:
	LD.h	r5,[r6+#2]
	ST.w	[r7+#4],r5
.LVL15:
.LM26:
	LD.w	r3,[r7+#9]
.LVL16:
.LM27:
	LD.h	r5,[r6+#8]
.LBB204:
.LBB205:
.LM28:
	LD	r4,#-58236
	ANL	r4,r3,r4
.LBE205:
.LBE204:
.LM29:
	ORL	r4,r5,r4
.LM30:
	LD.w	r5,[r6+#2]
	ORL	r4,r4,r5
.LM31:
	LD.h	r5,[r6+#3]
	LSL	r5,#3
	ORL	r5,r4,r5
.LM32:
	LD.h	r3,[r6+#7]
.LVL17:
	LD.h	r4,[r6+#6]
.LVL18:
	ORL	r4,r3,r4
.LVL19:
	ZXT.h	r4,r4
.LBB207:
.LBB206:
.LM33:
	ORL	r5,r5,r4
.LBE206:
.LBE207:
.LM34:
	ST.w	[r7+#9],r5
.LM35:
	POP	{r6, r7, r8}
	.cfi_def_cfa_offset 4
.LVL20:
	POP	lr
	.cfi_def_cfa_offset 0
	JMP	lr
	.cfi_endproc
.LFE2:
	.size	ATIM_X_Configuration, .-ATIM_X_Configuration
	.section .text$ATIM_Z_Configuration
	.type	.text$ATIM_Z_Configuration$scode_local_3, @function
	.text$ATIM_Z_Configuration$scode_local_3:
	.align	1
	.export	ATIM_Z_Configuration
	.type	ATIM_Z_Configuration, @function
ATIM_Z_Configuration:
.LFB3:
.LM36:
	.cfi_startproc
.LVL21:
	PUSH	{r6, r7, r8, lr}
	.cfi_def_cfa_offset 16
	MOV	r7,r0
	MOV	r6,r1
.LVL22:
.LM37:
	MOV	r0,#1
.LVL23:
	LD	r5,#1073742592
	CMP	r7,r5
	JZ	.L28
	MOV	r0,#0
.L28:
	LD	r5,#CHECK_RESTRICTION
	MOV	r8,r5
	LJMP	r5
.LVL24:
.LM38:
	MOV	r0,#1
	LD.h	r5,[r6+#3]
	CMP	r5,#15
	JLS	.L29
	MOV	r0,#0
.L29:
	LJMP	r8
.LVL25:
.LM39:
	LD.w	r5,[r6+#2]
	MOV	r0,#1
	CMP	r5,#0
	JZ	.L30
.LM40:
	MOV	r4,#1
	LSL	r4,#15
	CMP	r5,r4
	JZ	.L30
.LM41:
	MOV	r4,#1
	LSL	r4,#13
	CMP	r5,r4
	JZ	.L30
	MOV	r4,#1
	LSL	r4,#14
	CMP	r5,r4
	JZ	.L30
	LD	r4,#24576
	CMP	r5,r4
	JZ	.L30
	MOV	r0,#0
.L30:
.LM42:
	LJMP	r8
.LVL26:
.LM43:
	LD.h	r5,[r6+#6]
	MOV	r0,#1
	CMP	r5,#0
	JZ	.L32
.LM44:
	MOV	r4,#255
	ADD	r4,r4,#1
	CMP	r5,r4
	JZ	.L32
.LM45:
	MOV	r0,#1
	LSL	r0,#9
	XRL	r0,r5,r0
	SUB	r0,r0,#1
	LSR	r0,#31
.L32:
.LM46:
	LJMP	r8
.LVL27:
.LM47:
	MOV	r0,#1
	LD.h	r5,[r6+#7]
	CMP	r5,r0
	JLS	.L33
	MOV	r0,#0
.L33:
	LJMP	r8
.LVL28:
.LM48:
	LD.h	r5,[r6+#8]
	MOV	r0,#1
	CMP	r5,#0
	JZ	.L34
.LM49:
	MOV	r0,#2
	XRL	r0,r5,r0
	SUB	r0,r0,#1
	LSR	r0,#31
.L34:
.LM50:
	LJMP	r8
.LVL29:
.LM51:
	LD.h	r5,[r6]
	ST.w	[r7+#1],r5
.LM52:
	LD.h	r5,[r6+#1]
	ST.w	[r7+#3],r5
.LM53:
	LD.h	r5,[r6+#2]
	ST.w	[r7+#5],r5
.LVL30:
.LM54:
	LD.w	r3,[r7+#10]
.LVL31:
.LM55:
	LD.h	r5,[r6+#8]
.LBB208:
.LBB209:
.LM56:
	LD	r4,#-58236
	ANL	r4,r3,r4
.LBE209:
.LBE208:
.LM57:
	ORL	r4,r5,r4
.LM58:
	LD.w	r5,[r6+#2]
	ORL	r4,r4,r5
.LM59:
	LD.h	r5,[r6+#3]
	LSL	r5,#3
	ORL	r5,r4,r5
.LM60:
	LD.h	r3,[r6+#7]
.LVL32:
	LD.h	r4,[r6+#6]
.LVL33:
	ORL	r4,r3,r4
.LVL34:
	ZXT.h	r4,r4
.LBB211:
.LBB210:
.LM61:
	ORL	r5,r5,r4
.LBE210:
.LBE211:
.LM62:
	ST.w	[r7+#10],r5
.LM63:
	POP	{r6, r7, r8}
	.cfi_def_cfa_offset 4
.LVL35:
	POP	lr
	.cfi_def_cfa_offset 0
	JMP	lr
	.cfi_endproc
.LFE3:
	.size	ATIM_Z_Configuration, .-ATIM_Z_Configuration
	.section .text$ATIM_Struct_Init
	.type	.text$ATIM_Struct_Init$scode_local_4, @function
	.text$ATIM_Struct_Init$scode_local_4:
	.align	1
	.export	ATIM_Struct_Init
	.type	ATIM_Struct_Init, @function
ATIM_Struct_Init:
.LFB4:
.LM64:
	.cfi_startproc
.LVL36:
.LM65:
	MOV	r5,#0
	ST.h	[r0],r5
.LM66:
	MOV	r4,#0
	NOT	r4,r4
	ST.h	[r0+#1],r4
.LM67:
	ST.h	[r0+#2],r5
.LM68:
	ST.h	[r0+#3],r5
.LM69:
	MOV	r4,#1
	LSL	r4,#15
	ST.w	[r0+#2],r4
.LM70:
	ST.h	[r0+#6],r5
.LM71:
	ST.h	[r0+#7],r5
.LM72:
	ST.h	[r0+#8],r5
.LM73:
	JMP	lr
	.cfi_endproc
.LFE4:
	.size	ATIM_Struct_Init, .-ATIM_Struct_Init
	.section .text$ATIM_X_Cmd
	.type	.text$ATIM_X_Cmd$scode_local_5, @function
	.text$ATIM_X_Cmd$scode_local_5:
	.align	1
	.export	ATIM_X_Cmd
	.type	ATIM_X_Cmd, @function
ATIM_X_Cmd:
.LFB5:
.LM74:
	.cfi_startproc
.LVL37:
	PUSH	{r6, r7, r8, lr}
	.cfi_def_cfa_offset 16
	MOV	r6,r0
	MOV	r7,r1
.LM75:
	MOV	r0,#1
.LVL38:
	LD	r5,#1073742592
	CMP	r6,r5
	JZ	.L47
	MOV	r0,#0
.L47:
	LD	r5,#CHECK_RESTRICTION
	MOV	r8,r5
	LJMP	r5
.LVL39:
.LM76:
	MOV	r0,#1
	CMP	r7,r0
	JLS	.L48
	MOV	r0,#0
.L48:
	LJMP	r8
.LVL40:
.LM77:
	ADD	r6,#36
.LVL41:
.LM78:
	CMP	r7,#0
	JNZ	.L51
.LM79:
// inline asm begin
	// 232 "../src/kf32a9k1xxx_atim.c" 1
	CLR [r6], #2
	// 0 "" 2
.LM80:
// inline asm end
	POP	{r6, r7, r8}
	.cfi_remember_state
	.cfi_def_cfa_offset 4
.LVL42:
	POP	lr
	.cfi_def_cfa_offset 0
	JMP	lr
.LVL43:
.L51:
	.cfi_restore_state
.LM81:
// inline asm begin
	// 227 "../src/kf32a9k1xxx_atim.c" 1
	SET [r6], #2
	// 0 "" 2
.LM82:
// inline asm end
	POP	{r6, r7, r8}
	.cfi_def_cfa_offset 4
.LVL44:
	POP	lr
	.cfi_def_cfa_offset 0
	JMP	lr
	.cfi_endproc
.LFE5:
	.size	ATIM_X_Cmd, .-ATIM_X_Cmd
	.section .text$ATIM_Z_Cmd
	.type	.text$ATIM_Z_Cmd$scode_local_6, @function
	.text$ATIM_Z_Cmd$scode_local_6:
	.align	1
	.export	ATIM_Z_Cmd
	.type	ATIM_Z_Cmd, @function
ATIM_Z_Cmd:
.LFB6:
.LM83:
	.cfi_startproc
.LVL45:
	PUSH	{r6, r7, r8, lr}
	.cfi_def_cfa_offset 16
	MOV	r6,r0
	MOV	r7,r1
.LM84:
	MOV	r0,#1
.LVL46:
	LD	r5,#1073742592
	CMP	r6,r5
	JZ	.L53
	MOV	r0,#0
.L53:
	LD	r5,#CHECK_RESTRICTION
	MOV	r8,r5
	LJMP	r5
.LVL47:
.LM85:
	MOV	r0,#1
	CMP	r7,r0
	JLS	.L54
	MOV	r0,#0
.L54:
	LJMP	r8
.LVL48:
.LM86:
	ADD	r6,#40
.LVL49:
.LM87:
	CMP	r7,#0
	JNZ	.L57
.LM88:
// inline asm begin
	// 259 "../src/kf32a9k1xxx_atim.c" 1
	CLR [r6], #2
	// 0 "" 2
.LM89:
// inline asm end
	POP	{r6, r7, r8}
	.cfi_remember_state
	.cfi_def_cfa_offset 4
.LVL50:
	POP	lr
	.cfi_def_cfa_offset 0
	JMP	lr
.LVL51:
.L57:
	.cfi_restore_state
.LM90:
// inline asm begin
	// 254 "../src/kf32a9k1xxx_atim.c" 1
	SET [r6], #2
	// 0 "" 2
.LM91:
// inline asm end
	POP	{r6, r7, r8}
	.cfi_def_cfa_offset 4
.LVL52:
	POP	lr
	.cfi_def_cfa_offset 0
	JMP	lr
	.cfi_endproc
.LFE6:
	.size	ATIM_Z_Cmd, .-ATIM_Z_Cmd
	.section .text$ATIM_X_Updata_Configuration
	.type	.text$ATIM_X_Updata_Configuration$scode_local_7, @function
	.text$ATIM_X_Updata_Configuration$scode_local_7:
	.align	1
	.export	ATIM_X_Updata_Configuration
	.type	ATIM_X_Updata_Configuration, @function
ATIM_X_Updata_Configuration:
.LFB7:
.LM92:
	.cfi_startproc
.LVL53:
	PUSH	{r6, r7, r8, r9, r10, lr}
	.cfi_def_cfa_offset 24
	MOV	r6,r0
	MOV	r9,r2
	MOV	r8,r3
	ZXT.b	r10,r1
.LVL54:
.LM93:
	MOV	r0,#1
.LVL55:
	LD	r5,#1073742592
	CMP	r6,r5
	JZ	.L59
	MOV	r0,#0
.L59:
	LD	r7,#CHECK_RESTRICTION
	LJMP	r7
.LVL56:
.LM94:
	MOV	r0,#1
	CMP	r9,r0
	JLS	.L60
	MOV	r0,#0
.L60:
	LJMP	r7
.LVL57:
.LM95:
	MOV	r0,#1
	CMP	r8,r0
	JLS	.L61
	MOV	r0,#0
.L61:
	LJMP	r7
.LVL58:
.LM96:
	MOV	r5,#196
	//++++
	PUSH r6
	ADD r6,r5 
	ST.W [r6],r10
	POP r6
	//replace_ST.x [r6+r5],r10
.LVL59:
.LM97:
	MOV	r5,#148
	LD.w	r4,[r6+r5]
.LVL60:
.LM98:
	LSL	r9,#2
.LVL61:
.LBB212:
.LBB213:
.LM99:
	CLR	r4,#2
	CLR	r4,#3
.LVL62:
.LBE213:
.LBE212:
.LM100:
	ORL	r9,r4
.LM101:
	LSL	r8,#3
.LVL63:
.LBB215:
.LBB214:
.LM102:
	MOV	r4,r9
	ORL	r4,r8
.LBE214:
.LBE215:
.LM103:
	ST.w	[r6+r5],r4
.LM104:
	POP	{r6, r7, r8, r9, r10}
	.cfi_def_cfa_offset 4
.LVL64:
	POP	lr
	.cfi_def_cfa_offset 0
	JMP	lr
	.cfi_endproc
.LFE7:
	.size	ATIM_X_Updata_Configuration, .-ATIM_X_Updata_Configuration
	.section .text$ATIM_Z_Updata_Configuration
	.type	.text$ATIM_Z_Updata_Configuration$scode_local_8, @function
	.text$ATIM_Z_Updata_Configuration$scode_local_8:
	.align	1
	.export	ATIM_Z_Updata_Configuration
	.type	ATIM_Z_Updata_Configuration, @function
ATIM_Z_Updata_Configuration:
.LFB8:
.LM105:
	.cfi_startproc
.LVL65:
	PUSH	{r6, r7, r8, r9, r10, lr}
	.cfi_def_cfa_offset 24
	MOV	r6,r0
	MOV	r9,r2
	MOV	r8,r3
	ZXT.b	r10,r1
.LVL66:
.LM106:
	MOV	r0,#1
.LVL67:
	LD	r5,#1073742592
	CMP	r6,r5
	JZ	.L63
	MOV	r0,#0
.L63:
	LD	r7,#CHECK_RESTRICTION
	LJMP	r7
.LVL68:
.LM107:
	MOV	r0,#1
	CMP	r9,r0
	JLS	.L64
	MOV	r0,#0
.L64:
	LJMP	r7
.LVL69:
.LM108:
	MOV	r0,#1
	CMP	r8,r0
	JLS	.L65
	MOV	r0,#0
.L65:
	LJMP	r7
.LVL70:
.LM109:
	MOV	r5,#200
	//++++
	PUSH r6
	ADD r6,r5 
	ST.W [r6],r10
	POP r6
	//replace_ST.x [r6+r5],r10
.LVL71:
.LM110:
	MOV	r5,#148
	LD.w	r4,[r6+r5]
.LVL72:
.LM111:
	LSL	r9,#4
.LVL73:
.LBB216:
.LBB217:
.LM112:
	CLR	r4,#4
	CLR	r4,#5
.LVL74:
.LBE217:
.LBE216:
.LM113:
	ORL	r9,r4
.LM114:
	LSL	r8,#5
.LVL75:
.LBB219:
.LBB218:
.LM115:
	MOV	r4,r9
	ORL	r4,r8
.LBE218:
.LBE219:
.LM116:
	ST.w	[r6+r5],r4
.LM117:
	POP	{r6, r7, r8, r9, r10}
	.cfi_def_cfa_offset 4
.LVL76:
	POP	lr
	.cfi_def_cfa_offset 0
	JMP	lr
	.cfi_endproc
.LFE8:
	.size	ATIM_Z_Updata_Configuration, .-ATIM_Z_Updata_Configuration
	.section .text$ATIM_X_Updata_Cmd
	.type	.text$ATIM_X_Updata_Cmd$scode_local_9, @function
	.text$ATIM_X_Updata_Cmd$scode_local_9:
	.align	1
	.export	ATIM_X_Updata_Cmd
	.type	ATIM_X_Updata_Cmd, @function
ATIM_X_Updata_Cmd:
.LFB9:
.LM118:
	.cfi_startproc
.LVL77:
	PUSH	{r6, r7, r8, lr}
	.cfi_def_cfa_offset 16
	MOV	r6,r0
	MOV	r7,r1
.LM119:
	MOV	r0,#1
.LVL78:
	LD	r5,#1073742592
	CMP	r6,r5
	JZ	.L67
	MOV	r0,#0
.L67:
	LD	r5,#CHECK_RESTRICTION
	MOV	r8,r5
	LJMP	r5
.LVL79:
.LM120:
	MOV	r0,#1
	CMP	r7,r0
	JLS	.L68
	MOV	r0,#0
.L68:
	LJMP	r8
.LVL80:
.LM121:
	MOV	r5,#148
	ADD	r6,r6,r5
.LVL81:
.LM122:
	CMP	r7,#0
	JNZ	.L71
.LM123:
// inline asm begin
	// 358 "../src/kf32a9k1xxx_atim.c" 1
	CLR [r6], #0
	// 0 "" 2
.LM124:
// inline asm end
	POP	{r6, r7, r8}
	.cfi_remember_state
	.cfi_def_cfa_offset 4
.LVL82:
	POP	lr
	.cfi_def_cfa_offset 0
	JMP	lr
.LVL83:
.L71:
	.cfi_restore_state
.LM125:
// inline asm begin
	// 353 "../src/kf32a9k1xxx_atim.c" 1
	SET [r6], #0
	// 0 "" 2
.LM126:
// inline asm end
	POP	{r6, r7, r8}
	.cfi_def_cfa_offset 4
.LVL84:
	POP	lr
	.cfi_def_cfa_offset 0
	JMP	lr
	.cfi_endproc
.LFE9:
	.size	ATIM_X_Updata_Cmd, .-ATIM_X_Updata_Cmd
	.section .text$ATIM_Z_Updata_Cmd
	.type	.text$ATIM_Z_Updata_Cmd$scode_local_10, @function
	.text$ATIM_Z_Updata_Cmd$scode_local_10:
	.align	1
	.export	ATIM_Z_Updata_Cmd
	.type	ATIM_Z_Updata_Cmd, @function
ATIM_Z_Updata_Cmd:
.LFB10:
.LM127:
	.cfi_startproc
.LVL85:
	PUSH	{r6, r7, r8, lr}
	.cfi_def_cfa_offset 16
	MOV	r6,r0
	MOV	r7,r1
.LM128:
	MOV	r0,#1
.LVL86:
	LD	r5,#1073742592
	CMP	r6,r5
	JZ	.L73
	MOV	r0,#0
.L73:
	LD	r5,#CHECK_RESTRICTION
	MOV	r8,r5
	LJMP	r5
.LVL87:
.LM129:
	MOV	r0,#1
	CMP	r7,r0
	JLS	.L74
	MOV	r0,#0
.L74:
	LJMP	r8
.LVL88:
.LM130:
	MOV	r5,#148
	ADD	r6,r6,r5
.LVL89:
.LM131:
	CMP	r7,#0
	JNZ	.L77
.LM132:
// inline asm begin
	// 385 "../src/kf32a9k1xxx_atim.c" 1
	CLR [r6], #1
	// 0 "" 2
.LM133:
// inline asm end
	POP	{r6, r7, r8}
	.cfi_remember_state
	.cfi_def_cfa_offset 4
.LVL90:
	POP	lr
	.cfi_def_cfa_offset 0
	JMP	lr
.LVL91:
.L77:
	.cfi_restore_state
.LM134:
// inline asm begin
	// 380 "../src/kf32a9k1xxx_atim.c" 1
	SET [r6], #1
	// 0 "" 2
.LM135:
// inline asm end
	POP	{r6, r7, r8}
	.cfi_def_cfa_offset 4
.LVL92:
	POP	lr
	.cfi_def_cfa_offset 0
	JMP	lr
	.cfi_endproc
.LFE10:
	.size	ATIM_Z_Updata_Cmd, .-ATIM_Z_Updata_Cmd
	.section .text$ATIM_X_Set_Counter
	.type	.text$ATIM_X_Set_Counter$scode_local_11, @function
	.text$ATIM_X_Set_Counter$scode_local_11:
	.align	1
	.export	ATIM_X_Set_Counter
	.type	ATIM_X_Set_Counter, @function
ATIM_X_Set_Counter:
.LFB11:
.LM136:
	.cfi_startproc
.LVL93:
	PUSH	{r6, r7, lr}
	.cfi_def_cfa_offset 12
	MOV	r6,r0
	ZXT.h	r7,r1
.LM137:
	MOV	r0,#1
.LVL94:
	LD	r5,#1073742592
	CMP	r6,r5
	JZ	.L79
	MOV	r0,#0
.L79:
	LD	r5,#CHECK_RESTRICTION
	LJMP	r5
.LVL95:
.LM138:
	ST.w	[r6],r7
.LM139:
	POP	{r6, r7}
	.cfi_def_cfa_offset 4
.LVL96:
	POP	lr
	.cfi_def_cfa_offset 0
	JMP	lr
	.cfi_endproc
.LFE11:
	.size	ATIM_X_Set_Counter, .-ATIM_X_Set_Counter
	.section .text$ATIM_Z_Set_Counter
	.type	.text$ATIM_Z_Set_Counter$scode_local_12, @function
	.text$ATIM_Z_Set_Counter$scode_local_12:
	.align	1
	.export	ATIM_Z_Set_Counter
	.type	ATIM_Z_Set_Counter, @function
ATIM_Z_Set_Counter:
.LFB12:
.LM140:
	.cfi_startproc
.LVL97:
	PUSH	{r6, r7, lr}
	.cfi_def_cfa_offset 12
	MOV	r6,r0
	ZXT.h	r7,r1
.LM141:
	MOV	r0,#1
.LVL98:
	LD	r5,#1073742592
	CMP	r6,r5
	JZ	.L81
	MOV	r0,#0
.L81:
	LD	r5,#CHECK_RESTRICTION
	LJMP	r5
.LVL99:
.LM142:
	ST.w	[r6+#1],r7
.LM143:
	POP	{r6, r7}
	.cfi_def_cfa_offset 4
.LVL100:
	POP	lr
	.cfi_def_cfa_offset 0
	JMP	lr
	.cfi_endproc
.LFE12:
	.size	ATIM_Z_Set_Counter, .-ATIM_Z_Set_Counter
	.section .text$ATIM_X_Set_Period
	.type	.text$ATIM_X_Set_Period$scode_local_13, @function
	.text$ATIM_X_Set_Period$scode_local_13:
	.align	1
	.export	ATIM_X_Set_Period
	.type	ATIM_X_Set_Period, @function
ATIM_X_Set_Period:
.LFB13:
.LM144:
	.cfi_startproc
.LVL101:
	PUSH	{r6, r7, lr}
	.cfi_def_cfa_offset 12
	MOV	r6,r0
	ZXT.h	r7,r1
.LM145:
	MOV	r0,#1
.LVL102:
	LD	r5,#1073742592
	CMP	r6,r5
	JZ	.L83
	MOV	r0,#0
.L83:
	LD	r5,#CHECK_RESTRICTION
	LJMP	r5
.LVL103:
.LM146:
	ST.w	[r6+#2],r7
.LM147:
	POP	{r6, r7}
	.cfi_def_cfa_offset 4
.LVL104:
	POP	lr
	.cfi_def_cfa_offset 0
	JMP	lr
	.cfi_endproc
.LFE13:
	.size	ATIM_X_Set_Period, .-ATIM_X_Set_Period
	.section .text$ATIM_Z_Set_Period
	.type	.text$ATIM_Z_Set_Period$scode_local_14, @function
	.text$ATIM_Z_Set_Period$scode_local_14:
	.align	1
	.export	ATIM_Z_Set_Period
	.type	ATIM_Z_Set_Period, @function
ATIM_Z_Set_Period:
.LFB14:
.LM148:
	.cfi_startproc
.LVL105:
	PUSH	{r6, r7, lr}
	.cfi_def_cfa_offset 12
	MOV	r6,r0
	ZXT.h	r7,r1
.LM149:
	MOV	r0,#1
.LVL106:
	LD	r5,#1073742592
	CMP	r6,r5
	JZ	.L85
	MOV	r0,#0
.L85:
	LD	r5,#CHECK_RESTRICTION
	LJMP	r5
.LVL107:
.LM150:
	ST.w	[r6+#3],r7
.LM151:
	POP	{r6, r7}
	.cfi_def_cfa_offset 4
.LVL108:
	POP	lr
	.cfi_def_cfa_offset 0
	JMP	lr
	.cfi_endproc
.LFE14:
	.size	ATIM_Z_Set_Period, .-ATIM_Z_Set_Period
	.section .text$ATIM_X_Set_Prescaler
	.type	.text$ATIM_X_Set_Prescaler$scode_local_15, @function
	.text$ATIM_X_Set_Prescaler$scode_local_15:
	.align	1
	.export	ATIM_X_Set_Prescaler
	.type	ATIM_X_Set_Prescaler, @function
ATIM_X_Set_Prescaler:
.LFB15:
.LM152:
	.cfi_startproc
.LVL109:
	PUSH	{r6, r7, lr}
	.cfi_def_cfa_offset 12
	MOV	r6,r0
	ZXT.h	r7,r1
.LM153:
	MOV	r0,#1
.LVL110:
	LD	r5,#1073742592
	CMP	r6,r5
	JZ	.L87
	MOV	r0,#0
.L87:
	LD	r5,#CHECK_RESTRICTION
	LJMP	r5
.LVL111:
.LM154:
	ST.w	[r6+#4],r7
.LM155:
	POP	{r6, r7}
	.cfi_def_cfa_offset 4
.LVL112:
	POP	lr
	.cfi_def_cfa_offset 0
	JMP	lr
	.cfi_endproc
.LFE15:
	.size	ATIM_X_Set_Prescaler, .-ATIM_X_Set_Prescaler
	.section .text$ATIM_Z_Set_Prescaler
	.type	.text$ATIM_Z_Set_Prescaler$scode_local_16, @function
	.text$ATIM_Z_Set_Prescaler$scode_local_16:
	.align	1
	.export	ATIM_Z_Set_Prescaler
	.type	ATIM_Z_Set_Prescaler, @function
ATIM_Z_Set_Prescaler:
.LFB16:
.LM156:
	.cfi_startproc
.LVL113:
	PUSH	{r6, r7, lr}
	.cfi_def_cfa_offset 12
	MOV	r6,r0
	ZXT.h	r7,r1
.LM157:
	MOV	r0,#1
.LVL114:
	LD	r5,#1073742592
	CMP	r6,r5
	JZ	.L89
	MOV	r0,#0
.L89:
	LD	r5,#CHECK_RESTRICTION
	LJMP	r5
.LVL115:
.LM158:
	ST.w	[r6+#5],r7
.LM159:
	POP	{r6, r7}
	.cfi_def_cfa_offset 4
.LVL116:
	POP	lr
	.cfi_def_cfa_offset 0
	JMP	lr
	.cfi_endproc
.LFE16:
	.size	ATIM_Z_Set_Prescaler, .-ATIM_Z_Set_Prescaler
	.section .text$ATIM_X_Counter_Mode_Config
	.type	.text$ATIM_X_Counter_Mode_Config$scode_local_17, @function
	.text$ATIM_X_Counter_Mode_Config$scode_local_17:
	.align	1
	.export	ATIM_X_Counter_Mode_Config
	.type	ATIM_X_Counter_Mode_Config, @function
ATIM_X_Counter_Mode_Config:
.LFB17:
.LM160:
	.cfi_startproc
.LVL117:
	PUSH	{r6, r7, r8, lr}
	.cfi_def_cfa_offset 16
	MOV	r7,r0
	MOV	r6,r1
.LM161:
	MOV	r0,#1
.LVL118:
	LD	r5,#1073742592
	CMP	r7,r5
	JZ	.L91
	MOV	r0,#0
.L91:
	LD	r5,#CHECK_RESTRICTION
	MOV	r8,r5
	LJMP	r5
.LVL119:
.LM162:
	MOV	r0,#1
	CMP	r6,#0
	JZ	.L92
.LM163:
	MOV	r5,#1
	LSL	r5,#15
	CMP	r6,r5
	JZ	.L92
.LM164:
	MOV	r5,#1
	LSL	r5,#13
	CMP	r6,r5
	JZ	.L92
	MOV	r5,#1
	LSL	r5,#14
	CMP	r6,r5
	JZ	.L92
	LD	r5,#24576
	CMP	r6,r5
	JZ	.L92
	MOV	r0,#0
.L92:
.LM165:
	LJMP	r8
.LVL120:
.LM166:
	LD.w	r4,[r7+#9]
.LVL121:
.LBB220:
.LBB221:
.LM167:
	LD	r5,#-57345
	ANL	r5,r4,r5
	ORL	r6,r6,r5
.LVL122:
.LBE221:
.LBE220:
.LM168:
	ST.w	[r7+#9],r6
.LM169:
	POP	{r6, r7, r8}
	.cfi_def_cfa_offset 4
.LVL123:
	POP	lr
	.cfi_def_cfa_offset 0
	JMP	lr
	.cfi_endproc
.LFE17:
	.size	ATIM_X_Counter_Mode_Config, .-ATIM_X_Counter_Mode_Config
	.section .text$ATIM_Z_Counter_Mode_Config
	.type	.text$ATIM_Z_Counter_Mode_Config$scode_local_18, @function
	.text$ATIM_Z_Counter_Mode_Config$scode_local_18:
	.align	1
	.export	ATIM_Z_Counter_Mode_Config
	.type	ATIM_Z_Counter_Mode_Config, @function
ATIM_Z_Counter_Mode_Config:
.LFB18:
.LM170:
	.cfi_startproc
.LVL124:
	PUSH	{r6, r7, r8, lr}
	.cfi_def_cfa_offset 16
	MOV	r7,r0
	MOV	r6,r1
.LM171:
	MOV	r0,#1
.LVL125:
	LD	r5,#1073742592
	CMP	r7,r5
	JZ	.L100
	MOV	r0,#0
.L100:
	LD	r5,#CHECK_RESTRICTION
	MOV	r8,r5
	LJMP	r5
.LVL126:
.LM172:
	MOV	r0,#1
	CMP	r6,#0
	JZ	.L101
.LM173:
	MOV	r5,#1
	LSL	r5,#15
	CMP	r6,r5
	JZ	.L101
.LM174:
	MOV	r5,#1
	LSL	r5,#13
	CMP	r6,r5
	JZ	.L101
	MOV	r5,#1
	LSL	r5,#14
	CMP	r6,r5
	JZ	.L101
	LD	r5,#24576
	CMP	r6,r5
	JZ	.L101
	MOV	r0,#0
.L101:
.LM175:
	LJMP	r8
.LVL127:
.LM176:
	LD.w	r4,[r7+#10]
.LVL128:
.LBB222:
.LBB223:
.LM177:
	LD	r5,#-57345
	ANL	r5,r4,r5
	ORL	r6,r6,r5
.LVL129:
.LBE223:
.LBE222:
.LM178:
	ST.w	[r7+#10],r6
.LM179:
	POP	{r6, r7, r8}
	.cfi_def_cfa_offset 4
.LVL130:
	POP	lr
	.cfi_def_cfa_offset 0
	JMP	lr
	.cfi_endproc
.LFE18:
	.size	ATIM_Z_Counter_Mode_Config, .-ATIM_Z_Counter_Mode_Config
	.section .text$ATIM_X_Clock_Config
	.type	.text$ATIM_X_Clock_Config$scode_local_19, @function
	.text$ATIM_X_Clock_Config$scode_local_19:
	.align	1
	.export	ATIM_X_Clock_Config
	.type	ATIM_X_Clock_Config, @function
ATIM_X_Clock_Config:
.LFB19:
.LM180:
	.cfi_startproc
.LVL131:
	PUSH	{r6, r7, r8, lr}
	.cfi_def_cfa_offset 16
	MOV	r7,r0
	MOV	r6,r1
.LM181:
	MOV	r0,#1
.LVL132:
	LD	r5,#1073742592
	CMP	r7,r5
	JZ	.L109
	MOV	r0,#0
.L109:
	LD	r5,#CHECK_RESTRICTION
	MOV	r8,r5
	LJMP	r5
.LVL133:
.LM182:
	MOV	r0,#1
	CMP	r6,#0
	JZ	.L110
.LM183:
	MOV	r5,#255
	ADD	r5,r5,#1
	CMP	r6,r5
	JZ	.L110
.LM184:
	MOV	r5,#1
	LSL	r5,#9
	CMP	r6,r5
	JZ	.L110
	MOV	r0,#0
.L110:
.LM185:
	LJMP	r8
.LVL134:
.LM186:
	LD.w	r5,[r7+#9]
.LVL135:
.LBB224:
.LBB225:
.LM187:
	CLR	r5,#8
	CLR	r5,#9
.LVL136:
	ORL	r6,r6,r5
.LVL137:
.LBE225:
.LBE224:
.LM188:
	ST.w	[r7+#9],r6
.LM189:
	POP	{r6, r7, r8}
	.cfi_def_cfa_offset 4
.LVL138:
	POP	lr
	.cfi_def_cfa_offset 0
	JMP	lr
	.cfi_endproc
.LFE19:
	.size	ATIM_X_Clock_Config, .-ATIM_X_Clock_Config
	.section .text$ATIM_Z_Clock_Config
	.type	.text$ATIM_Z_Clock_Config$scode_local_20, @function
	.text$ATIM_Z_Clock_Config$scode_local_20:
	.align	1
	.export	ATIM_Z_Clock_Config
	.type	ATIM_Z_Clock_Config, @function
ATIM_Z_Clock_Config:
.LFB20:
.LM190:
	.cfi_startproc
.LVL139:
	PUSH	{r6, r7, r8, lr}
	.cfi_def_cfa_offset 16
	MOV	r7,r0
	MOV	r6,r1
.LM191:
	MOV	r0,#1
.LVL140:
	LD	r5,#1073742592
	CMP	r7,r5
	JZ	.L116
	MOV	r0,#0
.L116:
	LD	r5,#CHECK_RESTRICTION
	MOV	r8,r5
	LJMP	r5
.LVL141:
.LM192:
	MOV	r0,#1
	CMP	r6,#0
	JZ	.L117
.LM193:
	MOV	r5,#255
	ADD	r5,r5,#1
	CMP	r6,r5
	JZ	.L117
.LM194:
	MOV	r5,#1
	LSL	r5,#9
	CMP	r6,r5
	JZ	.L117
	MOV	r0,#0
.L117:
.LM195:
	LJMP	r8
.LVL142:
.LM196:
	LD.w	r5,[r7+#10]
.LVL143:
.LBB226:
.LBB227:
.LM197:
	CLR	r5,#8
	CLR	r5,#9
.LVL144:
	ORL	r6,r6,r5
.LVL145:
.LBE227:
.LBE226:
.LM198:
	ST.w	[r7+#10],r6
.LM199:
	POP	{r6, r7, r8}
	.cfi_def_cfa_offset 4
.LVL146:
	POP	lr
	.cfi_def_cfa_offset 0
	JMP	lr
	.cfi_endproc
.LFE20:
	.size	ATIM_Z_Clock_Config, .-ATIM_Z_Clock_Config
	.section .text$ATIM_X_Postscaler_Config
	.type	.text$ATIM_X_Postscaler_Config$scode_local_21, @function
	.text$ATIM_X_Postscaler_Config$scode_local_21:
	.align	1
	.export	ATIM_X_Postscaler_Config
	.type	ATIM_X_Postscaler_Config, @function
ATIM_X_Postscaler_Config:
.LFB21:
.LM200:
	.cfi_startproc
.LVL147:
	PUSH	{r6, r7, r8, lr}
	.cfi_def_cfa_offset 16
	MOV	r6,r0
	MOV	r7,r1
.LVL148:
.LM201:
	MOV	r0,#1
.LVL149:
	LD	r5,#1073742592
	CMP	r6,r5
	JZ	.L123
	MOV	r0,#0
.L123:
	LD	r5,#CHECK_RESTRICTION
	MOV	r8,r5
	LJMP	r5
.LVL150:
.LM202:
	MOV	r0,#1
	CMP	r7,#15
	JLS	.L124
	MOV	r0,#0
.L124:
	LJMP	r8
.LVL151:
.LM203:
	LD.w	r4,[r6+#9]
.LVL152:
.LM204:
	LSL	r7,#3
.LVL153:
.LBB228:
.LBB229:
.LM205:
	MOV	r5,#120
	NOT	r5,r5
	ANL	r5,r4,r5
	ORL	r7,r7,r5
.LVL154:
.LBE229:
.LBE228:
.LM206:
	ST.w	[r6+#9],r7
.LM207:
	POP	{r6, r7, r8}
	.cfi_def_cfa_offset 4
	POP	lr
	.cfi_def_cfa_offset 0
	JMP	lr
	.cfi_endproc
.LFE21:
	.size	ATIM_X_Postscaler_Config, .-ATIM_X_Postscaler_Config
	.section .text$ATIM_Z_Postscaler_Config
	.type	.text$ATIM_Z_Postscaler_Config$scode_local_22, @function
	.text$ATIM_Z_Postscaler_Config$scode_local_22:
	.align	1
	.export	ATIM_Z_Postscaler_Config
	.type	ATIM_Z_Postscaler_Config, @function
ATIM_Z_Postscaler_Config:
.LFB22:
.LM208:
	.cfi_startproc
.LVL155:
	PUSH	{r6, r7, r8, lr}
	.cfi_def_cfa_offset 16
	MOV	r6,r0
	MOV	r7,r1
.LVL156:
.LM209:
	MOV	r0,#1
.LVL157:
	LD	r5,#1073742592
	CMP	r6,r5
	JZ	.L126
	MOV	r0,#0
.L126:
	LD	r5,#CHECK_RESTRICTION
	MOV	r8,r5
	LJMP	r5
.LVL158:
.LM210:
	MOV	r0,#1
	CMP	r7,#15
	JLS	.L127
	MOV	r0,#0
.L127:
	LJMP	r8
.LVL159:
.LM211:
	LD.w	r4,[r6+#10]
.LVL160:
.LM212:
	LSL	r7,#3
.LVL161:
.LBB230:
.LBB231:
.LM213:
	MOV	r5,#120
	NOT	r5,r5
	ANL	r5,r4,r5
	ORL	r7,r7,r5
.LVL162:
.LBE231:
.LBE230:
.LM214:
	ST.w	[r6+#10],r7
.LM215:
	POP	{r6, r7, r8}
	.cfi_def_cfa_offset 4
	POP	lr
	.cfi_def_cfa_offset 0
	JMP	lr
	.cfi_endproc
.LFE22:
	.size	ATIM_Z_Postscaler_Config, .-ATIM_Z_Postscaler_Config
	.section .text$ATIM_X_External_Pulse_Sync_Config
	.type	.text$ATIM_X_External_Pulse_Sync_Config$scode_local_23, @function
	.text$ATIM_X_External_Pulse_Sync_Config$scode_local_23:
	.align	1
	.export	ATIM_X_External_Pulse_Sync_Config
	.type	ATIM_X_External_Pulse_Sync_Config, @function
ATIM_X_External_Pulse_Sync_Config:
.LFB23:
.LM216:
	.cfi_startproc
.LVL163:
	PUSH	{r6, r7, r8, lr}
	.cfi_def_cfa_offset 16
	MOV	r6,r0
	MOV	r8,r1
.LM217:
	MOV	r0,#1
.LVL164:
	LD	r5,#1073742592
	CMP	r6,r5
	JZ	.L129
	MOV	r0,#0
.L129:
	LD	r7,#CHECK_RESTRICTION
	LJMP	r7
.LVL165:
.LM218:
	MOV	r0,#1
	CMP	r8,#0
	JZ	.L130
.LM219:
	CMP	r8,#2
	JZ	.L131
	MOV	r0,#0
.L131:
	LJMP	r7
.LVL166:
.LM220:
	ADD	r6,#36
.LVL167:
// inline asm begin
	// 675 "../src/kf32a9k1xxx_atim.c" 1
	SET [r6], #1
	// 0 "" 2
.LM221:
// inline asm end
	POP	{r6, r7, r8}
	.cfi_remember_state
	.cfi_def_cfa_offset 4
.LVL168:
	POP	lr
	.cfi_def_cfa_offset 0
	JMP	lr
.LVL169:
.L130:
	.cfi_restore_state
.LM222:
	LJMP	r7
.LVL170:
.LM223:
	ADD	r6,#36
.LVL171:
// inline asm begin
	// 680 "../src/kf32a9k1xxx_atim.c" 1
	CLR [r6], #1
	// 0 "" 2
.LM224:
// inline asm end
	POP	{r6, r7, r8}
	.cfi_def_cfa_offset 4
.LVL172:
	POP	lr
	.cfi_def_cfa_offset 0
	JMP	lr
	.cfi_endproc
.LFE23:
	.size	ATIM_X_External_Pulse_Sync_Config, .-ATIM_X_External_Pulse_Sync_Config
	.section .text$ATIM_Z_External_Pulse_Sync_Config
	.type	.text$ATIM_Z_External_Pulse_Sync_Config$scode_local_24, @function
	.text$ATIM_Z_External_Pulse_Sync_Config$scode_local_24:
	.align	1
	.export	ATIM_Z_External_Pulse_Sync_Config
	.type	ATIM_Z_External_Pulse_Sync_Config, @function
ATIM_Z_External_Pulse_Sync_Config:
.LFB24:
.LM225:
	.cfi_startproc
.LVL173:
	PUSH	{r6, r7, r8, lr}
	.cfi_def_cfa_offset 16
	MOV	r6,r0
	MOV	r8,r1
.LM226:
	MOV	r0,#1
.LVL174:
	LD	r5,#1073742592
	CMP	r6,r5
	JZ	.L137
	MOV	r0,#0
.L137:
	LD	r7,#CHECK_RESTRICTION
	LJMP	r7
.LVL175:
.LM227:
	MOV	r0,#1
	CMP	r8,#0
	JZ	.L138
.LM228:
	CMP	r8,#2
	JZ	.L139
	MOV	r0,#0
.L139:
	LJMP	r7
.LVL176:
.LM229:
	ADD	r6,#40
.LVL177:
// inline asm begin
	// 704 "../src/kf32a9k1xxx_atim.c" 1
	SET [r6], #1
	// 0 "" 2
.LM230:
// inline asm end
	POP	{r6, r7, r8}
	.cfi_remember_state
	.cfi_def_cfa_offset 4
.LVL178:
	POP	lr
	.cfi_def_cfa_offset 0
	JMP	lr
.LVL179:
.L138:
	.cfi_restore_state
.LM231:
	LJMP	r7
.LVL180:
.LM232:
	ADD	r6,#40
.LVL181:
// inline asm begin
	// 709 "../src/kf32a9k1xxx_atim.c" 1
	CLR [r6], #1
	// 0 "" 2
.LM233:
// inline asm end
	POP	{r6, r7, r8}
	.cfi_def_cfa_offset 4
.LVL182:
	POP	lr
	.cfi_def_cfa_offset 0
	JMP	lr
	.cfi_endproc
.LFE24:
	.size	ATIM_Z_External_Pulse_Sync_Config, .-ATIM_Z_External_Pulse_Sync_Config
	.section .text$ATIM_X_Work_Mode_Config
	.type	.text$ATIM_X_Work_Mode_Config$scode_local_25, @function
	.text$ATIM_X_Work_Mode_Config$scode_local_25:
	.align	1
	.export	ATIM_X_Work_Mode_Config
	.type	ATIM_X_Work_Mode_Config, @function
ATIM_X_Work_Mode_Config:
.LFB25:
.LM234:
	.cfi_startproc
.LVL183:
	PUSH	{r6, r7, r8, lr}
	.cfi_def_cfa_offset 16
	MOV	r6,r0
	MOV	r7,r1
.LM235:
	MOV	r0,#1
.LVL184:
	LD	r5,#1073742592
	CMP	r6,r5
	JZ	.L145
	MOV	r0,#0
.L145:
	LD	r5,#CHECK_RESTRICTION
	MOV	r8,r5
	LJMP	r5
.LVL185:
.LM236:
	MOV	r0,#1
	CMP	r7,r0
	JLS	.L146
	MOV	r0,#0
.L146:
	LJMP	r8
.LVL186:
.LM237:
	ADD	r6,#36
.LVL187:
.LM238:
	CMP	r7,#0
	JNZ	.L149
.LM239:
// inline asm begin
	// 738 "../src/kf32a9k1xxx_atim.c" 1
	CLR [r6], #0
	// 0 "" 2
.LM240:
// inline asm end
	POP	{r6, r7, r8}
	.cfi_remember_state
	.cfi_def_cfa_offset 4
.LVL188:
	POP	lr
	.cfi_def_cfa_offset 0
	JMP	lr
.LVL189:
.L149:
	.cfi_restore_state
.LM241:
// inline asm begin
	// 733 "../src/kf32a9k1xxx_atim.c" 1
	SET [r6], #0
	// 0 "" 2
.LM242:
// inline asm end
	POP	{r6, r7, r8}
	.cfi_def_cfa_offset 4
.LVL190:
	POP	lr
	.cfi_def_cfa_offset 0
	JMP	lr
	.cfi_endproc
.LFE25:
	.size	ATIM_X_Work_Mode_Config, .-ATIM_X_Work_Mode_Config
	.section .text$ATIM_Z_Work_Mode_Config
	.type	.text$ATIM_Z_Work_Mode_Config$scode_local_26, @function
	.text$ATIM_Z_Work_Mode_Config$scode_local_26:
	.align	1
	.export	ATIM_Z_Work_Mode_Config
	.type	ATIM_Z_Work_Mode_Config, @function
ATIM_Z_Work_Mode_Config:
.LFB26:
.LM243:
	.cfi_startproc
.LVL191:
	PUSH	{r6, r7, r8, lr}
	.cfi_def_cfa_offset 16
	MOV	r6,r0
	MOV	r7,r1
.LM244:
	MOV	r0,#1
.LVL192:
	LD	r5,#1073742592
	CMP	r6,r5
	JZ	.L151
	MOV	r0,#0
.L151:
	LD	r5,#CHECK_RESTRICTION
	MOV	r8,r5
	LJMP	r5
.LVL193:
.LM245:
	MOV	r0,#1
	CMP	r7,r0
	JLS	.L152
	MOV	r0,#0
.L152:
	LJMP	r8
.LVL194:
.LM246:
	ADD	r6,#40
.LVL195:
.LM247:
	CMP	r7,#0
	JNZ	.L155
.LM248:
// inline asm begin
	// 767 "../src/kf32a9k1xxx_atim.c" 1
	CLR [r6], #0
	// 0 "" 2
.LM249:
// inline asm end
	POP	{r6, r7, r8}
	.cfi_remember_state
	.cfi_def_cfa_offset 4
.LVL196:
	POP	lr
	.cfi_def_cfa_offset 0
	JMP	lr
.LVL197:
.L155:
	.cfi_restore_state
.LM250:
// inline asm begin
	// 762 "../src/kf32a9k1xxx_atim.c" 1
	SET [r6], #0
	// 0 "" 2
.LM251:
// inline asm end
	POP	{r6, r7, r8}
	.cfi_def_cfa_offset 4
.LVL198:
	POP	lr
	.cfi_def_cfa_offset 0
	JMP	lr
	.cfi_endproc
.LFE26:
	.size	ATIM_Z_Work_Mode_Config, .-ATIM_Z_Work_Mode_Config
	.section .text$ATIM_X_Get_Direction
	.type	.text$ATIM_X_Get_Direction$scode_local_27, @function
	.text$ATIM_X_Get_Direction$scode_local_27:
	.align	1
	.export	ATIM_X_Get_Direction
	.type	ATIM_X_Get_Direction, @function
ATIM_X_Get_Direction:
.LFB27:
.LM252:
	.cfi_startproc
.LVL199:
	PUSH	{r6, lr}
	.cfi_def_cfa_offset 8
	MOV	r6,r0
.LM253:
	MOV	r0,#1
.LVL200:
	LD	r5,#1073742592
	CMP	r6,r5
	JZ	.L157
	MOV	r0,#0
.L157:
	LD	r5,#CHECK_RESTRICTION
	LJMP	r5
.LVL201:
.LM254:
	LD.w	r0,[r6+#9]
	LSR	r0,#7
.LM255:
	MOV	r5,#1
	ANL	r0,r0,r5
	POP	r6
	.cfi_def_cfa_offset 4
.LVL202:
	POP	lr
	.cfi_def_cfa_offset 0
	JMP	lr
	.cfi_endproc
.LFE27:
	.size	ATIM_X_Get_Direction, .-ATIM_X_Get_Direction
	.section .text$ATIM_Z_Get_Direction
	.type	.text$ATIM_Z_Get_Direction$scode_local_28, @function
	.text$ATIM_Z_Get_Direction$scode_local_28:
	.align	1
	.export	ATIM_Z_Get_Direction
	.type	ATIM_Z_Get_Direction, @function
ATIM_Z_Get_Direction:
.LFB28:
.LM256:
	.cfi_startproc
.LVL203:
	PUSH	{r6, lr}
	.cfi_def_cfa_offset 8
	MOV	r6,r0
.LM257:
	MOV	r0,#1
.LVL204:
	LD	r5,#1073742592
	CMP	r6,r5
	JZ	.L159
	MOV	r0,#0
.L159:
	LD	r5,#CHECK_RESTRICTION
	LJMP	r5
.LVL205:
.LM258:
	LD.w	r0,[r6+#10]
	LSR	r0,#7
.LM259:
	MOV	r5,#1
	ANL	r0,r0,r5
	POP	r6
	.cfi_def_cfa_offset 4
.LVL206:
	POP	lr
	.cfi_def_cfa_offset 0
	JMP	lr
	.cfi_endproc
.LFE28:
	.size	ATIM_Z_Get_Direction, .-ATIM_Z_Get_Direction
	.section .text$ATIM_X_Overflow_AD_Enable
	.type	.text$ATIM_X_Overflow_AD_Enable$scode_local_29, @function
	.text$ATIM_X_Overflow_AD_Enable$scode_local_29:
	.align	1
	.export	ATIM_X_Overflow_AD_Enable
	.type	ATIM_X_Overflow_AD_Enable, @function
ATIM_X_Overflow_AD_Enable:
.LFB29:
.LM260:
	.cfi_startproc
.LVL207:
	PUSH	{r6, r7, r8, lr}
	.cfi_def_cfa_offset 16
	MOV	r6,r0
	MOV	r7,r1
.LM261:
	MOV	r0,#1
.LVL208:
	LD	r5,#1073742592
	CMP	r6,r5
	JZ	.L161
	MOV	r0,#0
.L161:
	LD	r5,#CHECK_RESTRICTION
	MOV	r8,r5
	LJMP	r5
.LVL209:
.LM262:
	MOV	r0,#1
	CMP	r7,r0
	JLS	.L162
	MOV	r0,#0
.L162:
	LJMP	r8
.LVL210:
.LM263:
	ADD	r6,#36
.LVL211:
.LM264:
	CMP	r7,#0
	JNZ	.L165
.LM265:
// inline asm begin
	// 842 "../src/kf32a9k1xxx_atim.c" 1
	CLR [r6], #12
	// 0 "" 2
.LM266:
// inline asm end
	POP	{r6, r7, r8}
	.cfi_remember_state
	.cfi_def_cfa_offset 4
.LVL212:
	POP	lr
	.cfi_def_cfa_offset 0
	JMP	lr
.LVL213:
.L165:
	.cfi_restore_state
.LM267:
// inline asm begin
	// 837 "../src/kf32a9k1xxx_atim.c" 1
	SET [r6], #12
	// 0 "" 2
.LM268:
// inline asm end
	POP	{r6, r7, r8}
	.cfi_def_cfa_offset 4
.LVL214:
	POP	lr
	.cfi_def_cfa_offset 0
	JMP	lr
	.cfi_endproc
.LFE29:
	.size	ATIM_X_Overflow_AD_Enable, .-ATIM_X_Overflow_AD_Enable
	.section .text$ATIM_Z_Overflow_AD_Enable
	.type	.text$ATIM_Z_Overflow_AD_Enable$scode_local_30, @function
	.text$ATIM_Z_Overflow_AD_Enable$scode_local_30:
	.align	1
	.export	ATIM_Z_Overflow_AD_Enable
	.type	ATIM_Z_Overflow_AD_Enable, @function
ATIM_Z_Overflow_AD_Enable:
.LFB30:
.LM269:
	.cfi_startproc
.LVL215:
	PUSH	{r6, r7, r8, lr}
	.cfi_def_cfa_offset 16
	MOV	r6,r0
	MOV	r7,r1
.LM270:
	MOV	r0,#1
.LVL216:
	LD	r5,#1073742592
	CMP	r6,r5
	JZ	.L167
	MOV	r0,#0
.L167:
	LD	r5,#CHECK_RESTRICTION
	MOV	r8,r5
	LJMP	r5
.LVL217:
.LM271:
	MOV	r0,#1
	CMP	r7,r0
	JLS	.L168
	MOV	r0,#0
.L168:
	LJMP	r8
.LVL218:
.LM272:
	ADD	r6,#40
.LVL219:
.LM273:
	CMP	r7,#0
	JNZ	.L171
.LM274:
// inline asm begin
	// 869 "../src/kf32a9k1xxx_atim.c" 1
	CLR [r6], #12
	// 0 "" 2
.LM275:
// inline asm end
	POP	{r6, r7, r8}
	.cfi_remember_state
	.cfi_def_cfa_offset 4
.LVL220:
	POP	lr
	.cfi_def_cfa_offset 0
	JMP	lr
.LVL221:
.L171:
	.cfi_restore_state
.LM276:
// inline asm begin
	// 864 "../src/kf32a9k1xxx_atim.c" 1
	SET [r6], #12
	// 0 "" 2
.LM277:
// inline asm end
	POP	{r6, r7, r8}
	.cfi_def_cfa_offset 4
.LVL222:
	POP	lr
	.cfi_def_cfa_offset 0
	JMP	lr
	.cfi_endproc
.LFE30:
	.size	ATIM_Z_Overflow_AD_Enable, .-ATIM_Z_Overflow_AD_Enable
	.section .text$ATIM_X_Underflow_AD_Enable
	.type	.text$ATIM_X_Underflow_AD_Enable$scode_local_31, @function
	.text$ATIM_X_Underflow_AD_Enable$scode_local_31:
	.align	1
	.export	ATIM_X_Underflow_AD_Enable
	.type	ATIM_X_Underflow_AD_Enable, @function
ATIM_X_Underflow_AD_Enable:
.LFB31:
.LM278:
	.cfi_startproc
.LVL223:
	PUSH	{r6, r7, r8, lr}
	.cfi_def_cfa_offset 16
	MOV	r6,r0
	MOV	r7,r1
.LM279:
	MOV	r0,#1
.LVL224:
	LD	r5,#1073742592
	CMP	r6,r5
	JZ	.L173
	MOV	r0,#0
.L173:
	LD	r5,#CHECK_RESTRICTION
	MOV	r8,r5
	LJMP	r5
.LVL225:
.LM280:
	MOV	r0,#1
	CMP	r7,r0
	JLS	.L174
	MOV	r0,#0
.L174:
	LJMP	r8
.LVL226:
.LM281:
	ADD	r6,#36
.LVL227:
.LM282:
	CMP	r7,#0
	JNZ	.L177
.LM283:
// inline asm begin
	// 896 "../src/kf32a9k1xxx_atim.c" 1
	CLR [r6], #11
	// 0 "" 2
.LM284:
// inline asm end
	POP	{r6, r7, r8}
	.cfi_remember_state
	.cfi_def_cfa_offset 4
.LVL228:
	POP	lr
	.cfi_def_cfa_offset 0
	JMP	lr
.LVL229:
.L177:
	.cfi_restore_state
.LM285:
// inline asm begin
	// 891 "../src/kf32a9k1xxx_atim.c" 1
	SET [r6], #11
	// 0 "" 2
.LM286:
// inline asm end
	POP	{r6, r7, r8}
	.cfi_def_cfa_offset 4
.LVL230:
	POP	lr
	.cfi_def_cfa_offset 0
	JMP	lr
	.cfi_endproc
.LFE31:
	.size	ATIM_X_Underflow_AD_Enable, .-ATIM_X_Underflow_AD_Enable
	.section .text$ATIM_Z_Underflow_AD_Enable
	.type	.text$ATIM_Z_Underflow_AD_Enable$scode_local_32, @function
	.text$ATIM_Z_Underflow_AD_Enable$scode_local_32:
	.align	1
	.export	ATIM_Z_Underflow_AD_Enable
	.type	ATIM_Z_Underflow_AD_Enable, @function
ATIM_Z_Underflow_AD_Enable:
.LFB32:
.LM287:
	.cfi_startproc
.LVL231:
	PUSH	{r6, r7, r8, lr}
	.cfi_def_cfa_offset 16
	MOV	r6,r0
	MOV	r7,r1
.LM288:
	MOV	r0,#1
.LVL232:
	LD	r5,#1073742592
	CMP	r6,r5
	JZ	.L179
	MOV	r0,#0
.L179:
	LD	r5,#CHECK_RESTRICTION
	MOV	r8,r5
	LJMP	r5
.LVL233:
.LM289:
	MOV	r0,#1
	CMP	r7,r0
	JLS	.L180
	MOV	r0,#0
.L180:
	LJMP	r8
.LVL234:
.LM290:
	ADD	r6,#40
.LVL235:
.LM291:
	CMP	r7,#0
	JNZ	.L183
.LM292:
// inline asm begin
	// 923 "../src/kf32a9k1xxx_atim.c" 1
	CLR [r6], #11
	// 0 "" 2
.LM293:
// inline asm end
	POP	{r6, r7, r8}
	.cfi_remember_state
	.cfi_def_cfa_offset 4
.LVL236:
	POP	lr
	.cfi_def_cfa_offset 0
	JMP	lr
.LVL237:
.L183:
	.cfi_restore_state
.LM294:
// inline asm begin
	// 918 "../src/kf32a9k1xxx_atim.c" 1
	SET [r6], #11
	// 0 "" 2
.LM295:
// inline asm end
	POP	{r6, r7, r8}
	.cfi_def_cfa_offset 4
.LVL238:
	POP	lr
	.cfi_def_cfa_offset 0
	JMP	lr
	.cfi_endproc
.LFE32:
	.size	ATIM_Z_Underflow_AD_Enable, .-ATIM_Z_Underflow_AD_Enable
	.section .text$ATIM_X_TriggerAD_Config
	.type	.text$ATIM_X_TriggerAD_Config$scode_local_33, @function
	.text$ATIM_X_TriggerAD_Config$scode_local_33:
	.align	1
	.export	ATIM_X_TriggerAD_Config
	.type	ATIM_X_TriggerAD_Config, @function
ATIM_X_TriggerAD_Config:
.LFB33:
.LM296:
	.cfi_startproc
.LVL239:
	PUSH	{r6, r7, r8, lr}
	.cfi_def_cfa_offset 16
	MOV	r6,r0
	MOV	r7,r1
.LM297:
	MOV	r0,#1
.LVL240:
	LD	r5,#1073742592
	CMP	r6,r5
	JZ	.L185
	MOV	r0,#0
.L185:
	LD	r5,#CHECK_RESTRICTION
	MOV	r8,r5
	LJMP	r5
.LVL241:
.LM298:
	MOV	r0,#1
	CMP	r7,r0
	JLS	.L186
	MOV	r0,#0
.L186:
	LJMP	r8
.LVL242:
.LM299:
	ADD	r6,#36
.LVL243:
.LM300:
	CMP	r7,#0
	JNZ	.L189
.LM301:
// inline asm begin
	// 950 "../src/kf32a9k1xxx_atim.c" 1
	CLR [r6], #10
	// 0 "" 2
.LM302:
// inline asm end
	POP	{r6, r7, r8}
	.cfi_remember_state
	.cfi_def_cfa_offset 4
.LVL244:
	POP	lr
	.cfi_def_cfa_offset 0
	JMP	lr
.LVL245:
.L189:
	.cfi_restore_state
.LM303:
// inline asm begin
	// 945 "../src/kf32a9k1xxx_atim.c" 1
	SET [r6], #10
	// 0 "" 2
.LM304:
// inline asm end
	POP	{r6, r7, r8}
	.cfi_def_cfa_offset 4
.LVL246:
	POP	lr
	.cfi_def_cfa_offset 0
	JMP	lr
	.cfi_endproc
.LFE33:
	.size	ATIM_X_TriggerAD_Config, .-ATIM_X_TriggerAD_Config
	.section .text$ATIM_Z_TriggerAD_Config
	.type	.text$ATIM_Z_TriggerAD_Config$scode_local_34, @function
	.text$ATIM_Z_TriggerAD_Config$scode_local_34:
	.align	1
	.export	ATIM_Z_TriggerAD_Config
	.type	ATIM_Z_TriggerAD_Config, @function
ATIM_Z_TriggerAD_Config:
.LFB34:
.LM305:
	.cfi_startproc
.LVL247:
	PUSH	{r6, r7, r8, lr}
	.cfi_def_cfa_offset 16
	MOV	r6,r0
	MOV	r7,r1
.LM306:
	MOV	r0,#1
.LVL248:
	LD	r5,#1073742592
	CMP	r6,r5
	JZ	.L191
	MOV	r0,#0
.L191:
	LD	r5,#CHECK_RESTRICTION
	MOV	r8,r5
	LJMP	r5
.LVL249:
.LM307:
	MOV	r0,#1
	CMP	r7,r0
	JLS	.L192
	MOV	r0,#0
.L192:
	LJMP	r8
.LVL250:
.LM308:
	ADD	r6,#40
.LVL251:
.LM309:
	CMP	r7,#0
	JNZ	.L195
.LM310:
// inline asm begin
	// 977 "../src/kf32a9k1xxx_atim.c" 1
	CLR [r6], #10
	// 0 "" 2
.LM311:
// inline asm end
	POP	{r6, r7, r8}
	.cfi_remember_state
	.cfi_def_cfa_offset 4
.LVL252:
	POP	lr
	.cfi_def_cfa_offset 0
	JMP	lr
.LVL253:
.L195:
	.cfi_restore_state
.LM312:
// inline asm begin
	// 972 "../src/kf32a9k1xxx_atim.c" 1
	SET [r6], #10
	// 0 "" 2
.LM313:
// inline asm end
	POP	{r6, r7, r8}
	.cfi_def_cfa_offset 4
.LVL254:
	POP	lr
	.cfi_def_cfa_offset 0
	JMP	lr
	.cfi_endproc
.LFE34:
	.size	ATIM_Z_TriggerAD_Config, .-ATIM_Z_TriggerAD_Config
	.section .text$ATIM_X_Set_TriggerAD_Signal
	.type	.text$ATIM_X_Set_TriggerAD_Signal$scode_local_35, @function
	.text$ATIM_X_Set_TriggerAD_Signal$scode_local_35:
	.align	1
	.export	ATIM_X_Set_TriggerAD_Signal
	.type	ATIM_X_Set_TriggerAD_Signal, @function
ATIM_X_Set_TriggerAD_Signal:
.LFB35:
.LM314:
	.cfi_startproc
.LVL255:
	PUSH	{r6, r7, r8, lr}
	.cfi_def_cfa_offset 16
	MOV	r6,r0
	ZXT.h	r8,r1
	ZXT.h	r7,r2
.LM315:
	MOV	r0,#1
.LVL256:
	LD	r5,#1073742592
	CMP	r6,r5
	JZ	.L197
	MOV	r0,#0
.L197:
	LD	r5,#CHECK_RESTRICTION
	LJMP	r5
.LVL257:
.LM316:
	MOV	r5,r8
	ST.w	[r6+#6],r5
.LM317:
	ST.w	[r6+#7],r7
.LM318:
	POP	{r6, r7, r8}
	.cfi_def_cfa_offset 4
.LVL258:
	POP	lr
	.cfi_def_cfa_offset 0
	JMP	lr
	.cfi_endproc
.LFE35:
	.size	ATIM_X_Set_TriggerAD_Signal, .-ATIM_X_Set_TriggerAD_Signal
	.section .text$ATIM_Z_Set_TriggerAD_Signal
	.type	.text$ATIM_Z_Set_TriggerAD_Signal$scode_local_36, @function
	.text$ATIM_Z_Set_TriggerAD_Signal$scode_local_36:
	.align	1
	.export	ATIM_Z_Set_TriggerAD_Signal
	.type	ATIM_Z_Set_TriggerAD_Signal, @function
ATIM_Z_Set_TriggerAD_Signal:
.LFB36:
.LM319:
	.cfi_startproc
.LVL259:
	PUSH	{r6, r7, lr}
	.cfi_def_cfa_offset 12
	MOV	r6,r0
	ZXT.h	r7,r1
.LM320:
	MOV	r0,#1
.LVL260:
	LD	r5,#1073742592
	CMP	r6,r5
	JZ	.L199
	MOV	r0,#0
.L199:
	LD	r5,#CHECK_RESTRICTION
	LJMP	r5
.LVL261:
.LM321:
	ST.w	[r6+#8],r7
.LM322:
	POP	{r6, r7}
	.cfi_def_cfa_offset 4
.LVL262:
	POP	lr
	.cfi_def_cfa_offset 0
	JMP	lr
	.cfi_endproc
.LFE36:
	.size	ATIM_Z_Set_TriggerAD_Signal, .-ATIM_Z_Set_TriggerAD_Signal
	.section .text$ATIM_X_Updata_Immediately_Config
	.type	.text$ATIM_X_Updata_Immediately_Config$scode_local_37, @function
	.text$ATIM_X_Updata_Immediately_Config$scode_local_37:
	.align	1
	.export	ATIM_X_Updata_Immediately_Config
	.type	ATIM_X_Updata_Immediately_Config, @function
ATIM_X_Updata_Immediately_Config:
.LFB37:
.LM323:
	.cfi_startproc
.LVL263:
	PUSH	{r6, r7, r8, lr}
	.cfi_def_cfa_offset 16
	MOV	r6,r0
	MOV	r7,r1
.LM324:
	MOV	r0,#1
.LVL264:
	LD	r5,#1073742592
	CMP	r6,r5
	JZ	.L201
	MOV	r0,#0
.L201:
	LD	r5,#CHECK_RESTRICTION
	MOV	r8,r5
	LJMP	r5
.LVL265:
.LM325:
	MOV	r0,#1
	CMP	r7,r0
	JLS	.L202
	MOV	r0,#0
.L202:
	LJMP	r8
.LVL266:
.LM326:
	MOV	r5,#148
	ADD	r6,r6,r5
.LVL267:
.LM327:
	CMP	r7,#0
	JNZ	.L205
.LM328:
// inline asm begin
	// 1041 "../src/kf32a9k1xxx_atim.c" 1
	CLR [r6], #3
	// 0 "" 2
.LM329:
// inline asm end
	POP	{r6, r7, r8}
	.cfi_remember_state
	.cfi_def_cfa_offset 4
.LVL268:
	POP	lr
	.cfi_def_cfa_offset 0
	JMP	lr
.LVL269:
.L205:
	.cfi_restore_state
.LM330:
// inline asm begin
	// 1036 "../src/kf32a9k1xxx_atim.c" 1
	SET [r6], #3
	// 0 "" 2
.LM331:
// inline asm end
	POP	{r6, r7, r8}
	.cfi_def_cfa_offset 4
.LVL270:
	POP	lr
	.cfi_def_cfa_offset 0
	JMP	lr
	.cfi_endproc
.LFE37:
	.size	ATIM_X_Updata_Immediately_Config, .-ATIM_X_Updata_Immediately_Config
	.section .text$ATIM_Z_Updata_Immediately_Config
	.type	.text$ATIM_Z_Updata_Immediately_Config$scode_local_38, @function
	.text$ATIM_Z_Updata_Immediately_Config$scode_local_38:
	.align	1
	.export	ATIM_Z_Updata_Immediately_Config
	.type	ATIM_Z_Updata_Immediately_Config, @function
ATIM_Z_Updata_Immediately_Config:
.LFB38:
.LM332:
	.cfi_startproc
.LVL271:
	PUSH	{r6, r7, r8, lr}
	.cfi_def_cfa_offset 16
	MOV	r6,r0
	MOV	r7,r1
.LM333:
	MOV	r0,#1
.LVL272:
	LD	r5,#1073742592
	CMP	r6,r5
	JZ	.L207
	MOV	r0,#0
.L207:
	LD	r5,#CHECK_RESTRICTION
	MOV	r8,r5
	LJMP	r5
.LVL273:
.LM334:
	MOV	r0,#1
	CMP	r7,r0
	JLS	.L208
	MOV	r0,#0
.L208:
	LJMP	r8
.LVL274:
.LM335:
	MOV	r5,#148
	ADD	r6,r6,r5
.LVL275:
.LM336:
	CMP	r7,#0
	JNZ	.L211
.LM337:
// inline asm begin
	// 1069 "../src/kf32a9k1xxx_atim.c" 1
	CLR [r6], #5
	// 0 "" 2
.LM338:
// inline asm end
	POP	{r6, r7, r8}
	.cfi_remember_state
	.cfi_def_cfa_offset 4
.LVL276:
	POP	lr
	.cfi_def_cfa_offset 0
	JMP	lr
.LVL277:
.L211:
	.cfi_restore_state
.LM339:
// inline asm begin
	// 1064 "../src/kf32a9k1xxx_atim.c" 1
	SET [r6], #5
	// 0 "" 2
.LM340:
// inline asm end
	POP	{r6, r7, r8}
	.cfi_def_cfa_offset 4
.LVL278:
	POP	lr
	.cfi_def_cfa_offset 0
	JMP	lr
	.cfi_endproc
.LFE38:
	.size	ATIM_Z_Updata_Immediately_Config, .-ATIM_Z_Updata_Immediately_Config
	.section .text$ATIM_X_Updata_Output_Ctl
	.type	.text$ATIM_X_Updata_Output_Ctl$scode_local_39, @function
	.text$ATIM_X_Updata_Output_Ctl$scode_local_39:
	.align	1
	.export	ATIM_X_Updata_Output_Ctl
	.type	ATIM_X_Updata_Output_Ctl, @function
ATIM_X_Updata_Output_Ctl:
.LFB39:
.LM341:
	.cfi_startproc
.LVL279:
	PUSH	{r6, r7, r8, lr}
	.cfi_def_cfa_offset 16
	MOV	r6,r0
	MOV	r7,r1
.LM342:
	MOV	r0,#1
.LVL280:
	LD	r5,#1073742592
	CMP	r6,r5
	JZ	.L213
	MOV	r0,#0
.L213:
	LD	r5,#CHECK_RESTRICTION
	MOV	r8,r5
	LJMP	r5
.LVL281:
.LM343:
	MOV	r0,#1
	CMP	r7,r0
	JLS	.L214
	MOV	r0,#0
.L214:
	LJMP	r8
.LVL282:
.LM344:
	MOV	r5,#148
	ADD	r6,r6,r5
.LVL283:
.LM345:
	CMP	r7,#0
	JNZ	.L217
.LM346:
// inline asm begin
	// 1097 "../src/kf32a9k1xxx_atim.c" 1
	CLR [r6], #2
	// 0 "" 2
.LM347:
// inline asm end
	POP	{r6, r7, r8}
	.cfi_remember_state
	.cfi_def_cfa_offset 4
.LVL284:
	POP	lr
	.cfi_def_cfa_offset 0
	JMP	lr
.LVL285:
.L217:
	.cfi_restore_state
.LM348:
// inline asm begin
	// 1092 "../src/kf32a9k1xxx_atim.c" 1
	SET [r6], #2
	// 0 "" 2
.LM349:
// inline asm end
	POP	{r6, r7, r8}
	.cfi_def_cfa_offset 4
.LVL286:
	POP	lr
	.cfi_def_cfa_offset 0
	JMP	lr
	.cfi_endproc
.LFE39:
	.size	ATIM_X_Updata_Output_Ctl, .-ATIM_X_Updata_Output_Ctl
	.section .text$ATIM_Z_Updata_Output_Ctl
	.type	.text$ATIM_Z_Updata_Output_Ctl$scode_local_40, @function
	.text$ATIM_Z_Updata_Output_Ctl$scode_local_40:
	.align	1
	.export	ATIM_Z_Updata_Output_Ctl
	.type	ATIM_Z_Updata_Output_Ctl, @function
ATIM_Z_Updata_Output_Ctl:
.LFB40:
.LM350:
	.cfi_startproc
.LVL287:
	PUSH	{r6, r7, r8, lr}
	.cfi_def_cfa_offset 16
	MOV	r6,r0
	MOV	r7,r1
.LM351:
	MOV	r0,#1
.LVL288:
	LD	r5,#1073742592
	CMP	r6,r5
	JZ	.L219
	MOV	r0,#0
.L219:
	LD	r5,#CHECK_RESTRICTION
	MOV	r8,r5
	LJMP	r5
.LVL289:
.LM352:
	MOV	r0,#1
	CMP	r7,r0
	JLS	.L220
	MOV	r0,#0
.L220:
	LJMP	r8
.LVL290:
.LM353:
	MOV	r5,#148
	ADD	r6,r6,r5
.LVL291:
.LM354:
	CMP	r7,#0
	JNZ	.L223
.LM355:
// inline asm begin
	// 1126 "../src/kf32a9k1xxx_atim.c" 1
	CLR [r6], #4
	// 0 "" 2
.LM356:
// inline asm end
	POP	{r6, r7, r8}
	.cfi_remember_state
	.cfi_def_cfa_offset 4
.LVL292:
	POP	lr
	.cfi_def_cfa_offset 0
	JMP	lr
.LVL293:
.L223:
	.cfi_restore_state
.LM357:
// inline asm begin
	// 1121 "../src/kf32a9k1xxx_atim.c" 1
	SET [r6], #4
	// 0 "" 2
.LM358:
// inline asm end
	POP	{r6, r7, r8}
	.cfi_def_cfa_offset 4
.LVL294:
	POP	lr
	.cfi_def_cfa_offset 0
	JMP	lr
	.cfi_endproc
.LFE40:
	.size	ATIM_Z_Updata_Output_Ctl, .-ATIM_Z_Updata_Output_Ctl
	.section .text$ATIM_X_Updata_Enable
	.type	.text$ATIM_X_Updata_Enable$scode_local_41, @function
	.text$ATIM_X_Updata_Enable$scode_local_41:
	.align	1
	.export	ATIM_X_Updata_Enable
	.type	ATIM_X_Updata_Enable, @function
ATIM_X_Updata_Enable:
.LFB41:
.LM359:
	.cfi_startproc
.LVL295:
	PUSH	{r6, r7, r8, lr}
	.cfi_def_cfa_offset 16
	MOV	r6,r0
	MOV	r7,r1
.LM360:
	MOV	r0,#1
.LVL296:
	LD	r5,#1073742592
	CMP	r6,r5
	JZ	.L225
	MOV	r0,#0
.L225:
	LD	r5,#CHECK_RESTRICTION
	MOV	r8,r5
	LJMP	r5
.LVL297:
.LM361:
	MOV	r0,#1
	CMP	r7,r0
	JLS	.L226
	MOV	r0,#0
.L226:
	LJMP	r8
.LVL298:
.LM362:
	MOV	r5,#148
	ADD	r6,r6,r5
.LVL299:
.LM363:
	CMP	r7,#0
	JNZ	.L229
.LM364:
// inline asm begin
	// 1153 "../src/kf32a9k1xxx_atim.c" 1
	CLR [r6], #0
	// 0 "" 2
.LM365:
// inline asm end
	POP	{r6, r7, r8}
	.cfi_remember_state
	.cfi_def_cfa_offset 4
.LVL300:
	POP	lr
	.cfi_def_cfa_offset 0
	JMP	lr
.LVL301:
.L229:
	.cfi_restore_state
.LM366:
// inline asm begin
	// 1148 "../src/kf32a9k1xxx_atim.c" 1
	SET [r6], #0
	// 0 "" 2
.LM367:
// inline asm end
	POP	{r6, r7, r8}
	.cfi_def_cfa_offset 4
.LVL302:
	POP	lr
	.cfi_def_cfa_offset 0
	JMP	lr
	.cfi_endproc
.LFE41:
	.size	ATIM_X_Updata_Enable, .-ATIM_X_Updata_Enable
	.section .text$ATIM_Z_Updata_Enable
	.type	.text$ATIM_Z_Updata_Enable$scode_local_42, @function
	.text$ATIM_Z_Updata_Enable$scode_local_42:
	.align	1
	.export	ATIM_Z_Updata_Enable
	.type	ATIM_Z_Updata_Enable, @function
ATIM_Z_Updata_Enable:
.LFB42:
.LM368:
	.cfi_startproc
.LVL303:
	PUSH	{r6, r7, r8, lr}
	.cfi_def_cfa_offset 16
	MOV	r6,r0
	MOV	r7,r1
.LM369:
	MOV	r0,#1
.LVL304:
	LD	r5,#1073742592
	CMP	r6,r5
	JZ	.L231
	MOV	r0,#0
.L231:
	LD	r5,#CHECK_RESTRICTION
	MOV	r8,r5
	LJMP	r5
.LVL305:
.LM370:
	MOV	r0,#1
	CMP	r7,r0
	JLS	.L232
	MOV	r0,#0
.L232:
	LJMP	r8
.LVL306:
.LM371:
	MOV	r5,#148
	ADD	r6,r6,r5
.LVL307:
.LM372:
	CMP	r7,#0
	JNZ	.L235
.LM373:
// inline asm begin
	// 1180 "../src/kf32a9k1xxx_atim.c" 1
	CLR [r6], #1
	// 0 "" 2
.LM374:
// inline asm end
	POP	{r6, r7, r8}
	.cfi_remember_state
	.cfi_def_cfa_offset 4
.LVL308:
	POP	lr
	.cfi_def_cfa_offset 0
	JMP	lr
.LVL309:
.L235:
	.cfi_restore_state
.LM375:
// inline asm begin
	// 1175 "../src/kf32a9k1xxx_atim.c" 1
	SET [r6], #1
	// 0 "" 2
.LM376:
// inline asm end
	POP	{r6, r7, r8}
	.cfi_def_cfa_offset 4
.LVL310:
	POP	lr
	.cfi_def_cfa_offset 0
	JMP	lr
	.cfi_endproc
.LFE42:
	.size	ATIM_Z_Updata_Enable, .-ATIM_Z_Updata_Enable
	.section .text$ATIM_X_Set_Updata_Counter
	.type	.text$ATIM_X_Set_Updata_Counter$scode_local_43, @function
	.text$ATIM_X_Set_Updata_Counter$scode_local_43:
	.align	1
	.export	ATIM_X_Set_Updata_Counter
	.type	ATIM_X_Set_Updata_Counter, @function
ATIM_X_Set_Updata_Counter:
.LFB43:
.LM377:
	.cfi_startproc
.LVL311:
	PUSH	{r6, r7, lr}
	.cfi_def_cfa_offset 12
	MOV	r6,r0
	ZXT.b	r7,r1
.LM378:
	MOV	r0,#1
.LVL312:
	LD	r5,#1073742592
	CMP	r6,r5
	JZ	.L237
	MOV	r0,#0
.L237:
	LD	r5,#CHECK_RESTRICTION
	LJMP	r5
.LVL313:
.LM379:
	MOV	r5,#196
	ST.w	[r6+r5],r7
.LM380:
	POP	{r6, r7}
	.cfi_def_cfa_offset 4
.LVL314:
	POP	lr
	.cfi_def_cfa_offset 0
	JMP	lr
	.cfi_endproc
.LFE43:
	.size	ATIM_X_Set_Updata_Counter, .-ATIM_X_Set_Updata_Counter
	.section .text$ATIM_Z_Set_Updata_Counter
	.type	.text$ATIM_Z_Set_Updata_Counter$scode_local_44, @function
	.text$ATIM_Z_Set_Updata_Counter$scode_local_44:
	.align	1
	.export	ATIM_Z_Set_Updata_Counter
	.type	ATIM_Z_Set_Updata_Counter, @function
ATIM_Z_Set_Updata_Counter:
.LFB44:
.LM381:
	.cfi_startproc
.LVL315:
	PUSH	{r6, r7, lr}
	.cfi_def_cfa_offset 12
	MOV	r6,r0
	ZXT.b	r7,r1
.LM382:
	MOV	r0,#1
.LVL316:
	LD	r5,#1073742592
	CMP	r6,r5
	JZ	.L239
	MOV	r0,#0
.L239:
	LD	r5,#CHECK_RESTRICTION
	LJMP	r5
.LVL317:
.LM383:
	MOV	r5,#200
	ST.w	[r6+r5],r7
.LM384:
	POP	{r6, r7}
	.cfi_def_cfa_offset 4
.LVL318:
	POP	lr
	.cfi_def_cfa_offset 0
	JMP	lr
	.cfi_endproc
.LFE44:
	.size	ATIM_Z_Set_Updata_Counter, .-ATIM_Z_Set_Updata_Counter
	.section .text$ATIM_X_Slave_Mode_Config
	.type	.text$ATIM_X_Slave_Mode_Config$scode_local_45, @function
	.text$ATIM_X_Slave_Mode_Config$scode_local_45:
	.align	1
	.export	ATIM_X_Slave_Mode_Config
	.type	ATIM_X_Slave_Mode_Config, @function
ATIM_X_Slave_Mode_Config:
.LFB45:
.LM385:
	.cfi_startproc
.LVL319:
	PUSH	{r6, r7, r8, lr}
	.cfi_def_cfa_offset 16
	MOV	r7,r0
	MOV	r6,r1
.LVL320:
.LM386:
	MOV	r0,#1
.LVL321:
	LD	r5,#1073742592
	CMP	r7,r5
	JZ	.L241
	MOV	r0,#0
.L241:
	LD	r5,#CHECK_RESTRICTION
	MOV	r8,r5
	LJMP	r5
.LVL322:
.LM387:
	MOV	r0,#1
	CMP	r6,#0
	JZ	.L242
.LM388:
	CMP	r6,#4
	JZ	.L242
.LM389:
	CMP	r6,#5
	JZ	.L242
	CMP	r6,#6
	JZ	.L242
	CMP	r6,#7
	JZ	.L242
	MOV	r0,#0
.L242:
.LM390:
	LJMP	r8
.LVL323:
.LM391:
	MOV	r5,#152
	LD.w	r3,[r7+r5]
.LVL324:
.LM392:
	LSL	r6,#3
.LVL325:
.LBB232:
.LBB233:
.LM393:
	MOV	r4,#56
	NOT	r4,r4
	ANL	r4,r3,r4
	ORL	r6,r6,r4
.LVL326:
.LBE233:
.LBE232:
.LM394:
	ST.w	[r7+r5],r6
.LM395:
	POP	{r6, r7, r8}
	.cfi_def_cfa_offset 4
.LVL327:
	POP	lr
	.cfi_def_cfa_offset 0
	JMP	lr
	.cfi_endproc
.LFE45:
	.size	ATIM_X_Slave_Mode_Config, .-ATIM_X_Slave_Mode_Config
	.section .text$ATIM_Z_Slave_Mode_Config
	.type	.text$ATIM_Z_Slave_Mode_Config$scode_local_46, @function
	.text$ATIM_Z_Slave_Mode_Config$scode_local_46:
	.align	1
	.export	ATIM_Z_Slave_Mode_Config
	.type	ATIM_Z_Slave_Mode_Config, @function
ATIM_Z_Slave_Mode_Config:
.LFB46:
.LM396:
	.cfi_startproc
.LVL328:
	PUSH	{r6, r7, r8, lr}
	.cfi_def_cfa_offset 16
	MOV	r7,r0
	MOV	r6,r1
.LVL329:
.LM397:
	MOV	r0,#1
.LVL330:
	LD	r5,#1073742592
	CMP	r7,r5
	JZ	.L256
	MOV	r0,#0
.L256:
	LD	r5,#CHECK_RESTRICTION
	MOV	r8,r5
	LJMP	r5
.LVL331:
.LM398:
	MOV	r0,#1
	CMP	r6,#0
	JZ	.L257
.LM399:
	CMP	r6,#4
	JZ	.L257
.LM400:
	CMP	r6,#5
	JZ	.L257
	CMP	r6,#6
	JZ	.L257
	CMP	r6,#7
	JZ	.L257
	MOV	r0,#0
.L257:
.LM401:
	LJMP	r8
.LVL332:
.LM402:
	MOV	r5,#152
	LD.w	r3,[r7+r5]
.LVL333:
.LM403:
	LSL	r6,#13
.LVL334:
.LBB234:
.LBB235:
.LM404:
	LD	r4,#-57345
	ANL	r4,r3,r4
	ORL	r6,r6,r4
.LVL335:
.LBE235:
.LBE234:
.LM405:
	ST.w	[r7+r5],r6
.LM406:
	POP	{r6, r7, r8}
	.cfi_def_cfa_offset 4
.LVL336:
	POP	lr
	.cfi_def_cfa_offset 0
	JMP	lr
	.cfi_endproc
.LFE46:
	.size	ATIM_Z_Slave_Mode_Config, .-ATIM_Z_Slave_Mode_Config
	.section .text$ATIM_Master_Mode_Config
	.type	.text$ATIM_Master_Mode_Config$scode_local_47, @function
	.text$ATIM_Master_Mode_Config$scode_local_47:
	.align	1
	.export	ATIM_Master_Mode_Config
	.type	ATIM_Master_Mode_Config, @function
ATIM_Master_Mode_Config:
.LFB47:
.LM407:
	.cfi_startproc
.LVL337:
	PUSH	{r6, r7, r8, lr}
	.cfi_def_cfa_offset 16
	MOV	r6,r0
	MOV	r7,r1
.LM408:
	MOV	r0,#1
.LVL338:
	LD	r5,#1073742592
	CMP	r6,r5
	JZ	.L271
	MOV	r0,#0
.L271:
	LD	r5,#CHECK_RESTRICTION
	MOV	r8,r5
	LJMP	r5
.LVL339:
.LM409:
	SUB	r5,r7,#1
	MOV	r0,#1
	CMP	r5,#6
	JLS	.L272
	MOV	r0,#0
.L272:
	LJMP	r8
.LVL340:
.LM410:
	MOV	r5,#152
	LD.w	r3,[r6+r5]
.LVL341:
.LBB236:
.LBB237:
.LM411:
	MOV	r4,#7
	NOT	r4,r4
	ANL	r4,r3,r4
	ORL	r7,r7,r4
.LVL342:
.LBE237:
.LBE236:
.LM412:
	ST.w	[r6+r5],r7
.LM413:
	POP	{r6, r7, r8}
	.cfi_def_cfa_offset 4
	POP	lr
	.cfi_def_cfa_offset 0
	JMP	lr
	.cfi_endproc
.LFE47:
	.size	ATIM_Master_Mode_Config, .-ATIM_Master_Mode_Config
	.section .text$ATIM_Master_Slave_Snyc_Enable
	.type	.text$ATIM_Master_Slave_Snyc_Enable$scode_local_48, @function
	.text$ATIM_Master_Slave_Snyc_Enable$scode_local_48:
	.align	1
	.export	ATIM_Master_Slave_Snyc_Enable
	.type	ATIM_Master_Slave_Snyc_Enable, @function
ATIM_Master_Slave_Snyc_Enable:
.LFB48:
.LM414:
	.cfi_startproc
.LVL343:
	PUSH	{r6, r7, r8, lr}
	.cfi_def_cfa_offset 16
	MOV	r6,r0
	MOV	r7,r1
.LM415:
	MOV	r0,#1
.LVL344:
	LD	r5,#1073742592
	CMP	r6,r5
	JZ	.L274
	MOV	r0,#0
.L274:
	LD	r5,#CHECK_RESTRICTION
	MOV	r8,r5
	LJMP	r5
.LVL345:
.LM416:
	MOV	r0,#1
	CMP	r7,r0
	JLS	.L275
	MOV	r0,#0
.L275:
	LJMP	r8
.LVL346:
.LM417:
	MOV	r5,#152
	ADD	r6,r6,r5
.LVL347:
.LM418:
	CMP	r7,#0
	JNZ	.L278
.LM419:
// inline asm begin
	// 1322 "../src/kf32a9k1xxx_atim.c" 1
	CLR [r6], #9
	// 0 "" 2
.LM420:
// inline asm end
	POP	{r6, r7, r8}
	.cfi_remember_state
	.cfi_def_cfa_offset 4
.LVL348:
	POP	lr
	.cfi_def_cfa_offset 0
	JMP	lr
.LVL349:
.L278:
	.cfi_restore_state
.LM421:
// inline asm begin
	// 1317 "../src/kf32a9k1xxx_atim.c" 1
	SET [r6], #9
	// 0 "" 2
.LM422:
// inline asm end
	POP	{r6, r7, r8}
	.cfi_def_cfa_offset 4
.LVL350:
	POP	lr
	.cfi_def_cfa_offset 0
	JMP	lr
	.cfi_endproc
.LFE48:
	.size	ATIM_Master_Slave_Snyc_Enable, .-ATIM_Master_Slave_Snyc_Enable
	.section .text$ATIM_Trigger_Select_Config
	.type	.text$ATIM_Trigger_Select_Config$scode_local_49, @function
	.text$ATIM_Trigger_Select_Config$scode_local_49:
	.align	1
	.export	ATIM_Trigger_Select_Config
	.type	ATIM_Trigger_Select_Config, @function
ATIM_Trigger_Select_Config:
.LFB49:
.LM423:
	.cfi_startproc
.LVL351:
	PUSH	{r6, r7, r8, lr}
	.cfi_def_cfa_offset 16
	MOV	r6,r0
	MOV	r7,r1
.LM424:
	MOV	r0,#1
.LVL352:
	LD	r5,#1073742592
	CMP	r6,r5
	JZ	.L280
	MOV	r0,#0
.L280:
	LD	r5,#CHECK_RESTRICTION
	MOV	r8,r5
	LJMP	r5
.LVL353:
.LM425:
	LD	r5,#-449
	ANL	r5,r7,r5
	MOV	r0,#1
	CMP	r5,#0
	JZ	.L281
	MOV	r0,#0
.L281:
	LJMP	r8
.LVL354:
.LM426:
	MOV	r5,#152
	LD.w	r3,[r6+r5]
.LVL355:
.LBB238:
.LBB239:
.LM427:
	LD	r4,#-449
	ANL	r4,r3,r4
	ORL	r7,r7,r4
.LVL356:
.LBE239:
.LBE238:
.LM428:
	ST.w	[r6+r5],r7
.LM429:
	POP	{r6, r7, r8}
	.cfi_def_cfa_offset 4
	POP	lr
	.cfi_def_cfa_offset 0
	JMP	lr
	.cfi_endproc
.LFE49:
	.size	ATIM_Trigger_Select_Config, .-ATIM_Trigger_Select_Config
	.section .text$ATIM_Timer_Unite_Enable
	.type	.text$ATIM_Timer_Unite_Enable$scode_local_50, @function
	.text$ATIM_Timer_Unite_Enable$scode_local_50:
	.align	1
	.export	ATIM_Timer_Unite_Enable
	.type	ATIM_Timer_Unite_Enable, @function
ATIM_Timer_Unite_Enable:
.LFB50:
.LM430:
	.cfi_startproc
.LVL357:
	PUSH	{r6, r7, r8, lr}
	.cfi_def_cfa_offset 16
	MOV	r6,r0
	MOV	r7,r1
.LM431:
	MOV	r0,#1
.LVL358:
	LD	r5,#1073742592
	CMP	r6,r5
	JZ	.L286
	MOV	r0,#0
.L286:
	LD	r5,#CHECK_RESTRICTION
	MOV	r8,r5
	LJMP	r5
.LVL359:
.LM432:
	MOV	r0,#1
	CMP	r7,r0
	JLS	.L287
	MOV	r0,#0
.L287:
	LJMP	r8
.LVL360:
.LM433:
	MOV	r5,#236
	ADD	r6,r6,r5
.LVL361:
.LM434:
	CMP	r7,#0
	JNZ	.L290
.LM435:
// inline asm begin
	// 1379 "../src/kf32a9k1xxx_atim.c" 1
	CLR [r6], #1
	// 0 "" 2
.LM436:
// inline asm end
	POP	{r6, r7, r8}
	.cfi_remember_state
	.cfi_def_cfa_offset 4
.LVL362:
	POP	lr
	.cfi_def_cfa_offset 0
	JMP	lr
.LVL363:
.L290:
	.cfi_restore_state
.LM437:
// inline asm begin
	// 1374 "../src/kf32a9k1xxx_atim.c" 1
	SET [r6], #1
	// 0 "" 2
.LM438:
// inline asm end
	POP	{r6, r7, r8}
	.cfi_def_cfa_offset 4
.LVL364:
	POP	lr
	.cfi_def_cfa_offset 0
	JMP	lr
	.cfi_endproc
.LFE50:
	.size	ATIM_Timer_Unite_Enable, .-ATIM_Timer_Unite_Enable
	.section .text$ATIM_X_Get_Counter
	.type	.text$ATIM_X_Get_Counter$scode_local_51, @function
	.text$ATIM_X_Get_Counter$scode_local_51:
	.align	1
	.export	ATIM_X_Get_Counter
	.type	ATIM_X_Get_Counter, @function
ATIM_X_Get_Counter:
.LFB51:
.LM439:
	.cfi_startproc
.LVL365:
	PUSH	{r6, lr}
	.cfi_def_cfa_offset 8
	MOV	r6,r0
.LVL366:
.LM440:
	MOV	r0,#1
.LVL367:
	LD	r5,#1073742592
	CMP	r6,r5
	JZ	.L292
	MOV	r0,#0
.L292:
	LD	r5,#CHECK_RESTRICTION
	LJMP	r5
.LVL368:
.LM441:
	LD.w	r0,[r6]
.LVL369:
.LM442:
	ZXT.h	r0,r0
.LVL370:
	POP	r6
	.cfi_def_cfa_offset 4
.LVL371:
	POP	lr
	.cfi_def_cfa_offset 0
	JMP	lr
	.cfi_endproc
.LFE51:
	.size	ATIM_X_Get_Counter, .-ATIM_X_Get_Counter
	.section .text$ATIM_Z_Get_Counter
	.type	.text$ATIM_Z_Get_Counter$scode_local_52, @function
	.text$ATIM_Z_Get_Counter$scode_local_52:
	.align	1
	.export	ATIM_Z_Get_Counter
	.type	ATIM_Z_Get_Counter, @function
ATIM_Z_Get_Counter:
.LFB52:
.LM443:
	.cfi_startproc
.LVL372:
	PUSH	{r6, lr}
	.cfi_def_cfa_offset 8
	MOV	r6,r0
.LVL373:
.LM444:
	MOV	r0,#1
.LVL374:
	LD	r5,#1073742592
	CMP	r6,r5
	JZ	.L294
	MOV	r0,#0
.L294:
	LD	r5,#CHECK_RESTRICTION
	LJMP	r5
.LVL375:
.LM445:
	LD.w	r0,[r6+#1]
.LVL376:
.LM446:
	ZXT.h	r0,r0
.LVL377:
	POP	r6
	.cfi_def_cfa_offset 4
.LVL378:
	POP	lr
	.cfi_def_cfa_offset 0
	JMP	lr
	.cfi_endproc
.LFE52:
	.size	ATIM_Z_Get_Counter, .-ATIM_Z_Get_Counter
	.section .text$ATIM_X_Get_Period
	.type	.text$ATIM_X_Get_Period$scode_local_53, @function
	.text$ATIM_X_Get_Period$scode_local_53:
	.align	1
	.export	ATIM_X_Get_Period
	.type	ATIM_X_Get_Period, @function
ATIM_X_Get_Period:
.LFB53:
.LM447:
	.cfi_startproc
.LVL379:
	PUSH	{r6, lr}
	.cfi_def_cfa_offset 8
	MOV	r6,r0
.LVL380:
.LM448:
	MOV	r0,#1
.LVL381:
	LD	r5,#1073742592
	CMP	r6,r5
	JZ	.L296
	MOV	r0,#0
.L296:
	LD	r5,#CHECK_RESTRICTION
	LJMP	r5
.LVL382:
.LM449:
	LD.w	r0,[r6+#2]
.LVL383:
.LM450:
	ZXT.h	r0,r0
.LVL384:
	POP	r6
	.cfi_def_cfa_offset 4
.LVL385:
	POP	lr
	.cfi_def_cfa_offset 0
	JMP	lr
	.cfi_endproc
.LFE53:
	.size	ATIM_X_Get_Period, .-ATIM_X_Get_Period
	.section .text$ATIM_Z_Get_Period
	.type	.text$ATIM_Z_Get_Period$scode_local_54, @function
	.text$ATIM_Z_Get_Period$scode_local_54:
	.align	1
	.export	ATIM_Z_Get_Period
	.type	ATIM_Z_Get_Period, @function
ATIM_Z_Get_Period:
.LFB54:
.LM451:
	.cfi_startproc
.LVL386:
	PUSH	{r6, lr}
	.cfi_def_cfa_offset 8
	MOV	r6,r0
.LVL387:
.LM452:
	MOV	r0,#1
.LVL388:
	LD	r5,#1073742592
	CMP	r6,r5
	JZ	.L298
	MOV	r0,#0
.L298:
	LD	r5,#CHECK_RESTRICTION
	LJMP	r5
.LVL389:
.LM453:
	LD.w	r0,[r6+#3]
.LVL390:
.LM454:
	ZXT.h	r0,r0
.LVL391:
	POP	r6
	.cfi_def_cfa_offset 4
.LVL392:
	POP	lr
	.cfi_def_cfa_offset 0
	JMP	lr
	.cfi_endproc
.LFE54:
	.size	ATIM_Z_Get_Period, .-ATIM_Z_Get_Period
	.section .text$ATIM_X_Get_Prescaler
	.type	.text$ATIM_X_Get_Prescaler$scode_local_55, @function
	.text$ATIM_X_Get_Prescaler$scode_local_55:
	.align	1
	.export	ATIM_X_Get_Prescaler
	.type	ATIM_X_Get_Prescaler, @function
ATIM_X_Get_Prescaler:
.LFB55:
.LM455:
	.cfi_startproc
.LVL393:
	PUSH	{r6, lr}
	.cfi_def_cfa_offset 8
	MOV	r6,r0
.LVL394:
.LM456:
	MOV	r0,#1
.LVL395:
	LD	r5,#1073742592
	CMP	r6,r5
	JZ	.L300
	MOV	r0,#0
.L300:
	LD	r5,#CHECK_RESTRICTION
	LJMP	r5
.LVL396:
.LM457:
	LD.w	r0,[r6+#4]
.LVL397:
.LM458:
	ZXT.h	r0,r0
.LVL398:
	POP	r6
	.cfi_def_cfa_offset 4
.LVL399:
	POP	lr
	.cfi_def_cfa_offset 0
	JMP	lr
	.cfi_endproc
.LFE55:
	.size	ATIM_X_Get_Prescaler, .-ATIM_X_Get_Prescaler
	.section .text$ATIM_Z_Get_Prescaler
	.type	.text$ATIM_Z_Get_Prescaler$scode_local_56, @function
	.text$ATIM_Z_Get_Prescaler$scode_local_56:
	.align	1
	.export	ATIM_Z_Get_Prescaler
	.type	ATIM_Z_Get_Prescaler, @function
ATIM_Z_Get_Prescaler:
.LFB56:
.LM459:
	.cfi_startproc
.LVL400:
	PUSH	{r6, lr}
	.cfi_def_cfa_offset 8
	MOV	r6,r0
.LVL401:
.LM460:
	MOV	r0,#1
.LVL402:
	LD	r5,#1073742592
	CMP	r6,r5
	JZ	.L302
	MOV	r0,#0
.L302:
	LD	r5,#CHECK_RESTRICTION
	LJMP	r5
.LVL403:
.LM461:
	LD.w	r0,[r6+#5]
.LVL404:
.LM462:
	ZXT.h	r0,r0
.LVL405:
	POP	r6
	.cfi_def_cfa_offset 4
.LVL406:
	POP	lr
	.cfi_def_cfa_offset 0
	JMP	lr
	.cfi_endproc
.LFE56:
	.size	ATIM_Z_Get_Prescaler, .-ATIM_Z_Get_Prescaler
	.section .text$ATIM_X_Cmp_Clear_Tim_Enable
	.type	.text$ATIM_X_Cmp_Clear_Tim_Enable$scode_local_57, @function
	.text$ATIM_X_Cmp_Clear_Tim_Enable$scode_local_57:
	.align	1
	.export	ATIM_X_Cmp_Clear_Tim_Enable
	.type	ATIM_X_Cmp_Clear_Tim_Enable, @function
ATIM_X_Cmp_Clear_Tim_Enable:
.LFB57:
.LM463:
	.cfi_startproc
.LVL407:
	PUSH	lr
	.cfi_def_cfa_offset 4
.LM464:
	LD	r5,#1073742592
	CMP	r0,r5
	JZ	.L306
.LM465:
	MOV	r0,#0
.LVL408:
	LD	r5,#CHECK_RESTRICTION
	LJMP	r5
.LVL409:
.LM466:
	POP	lr
	.cfi_remember_state
	.cfi_def_cfa_offset 0
	JMP	lr
.LVL410:
.L306:
	.cfi_restore_state
.LM467:
	LD.w	r5,[r0+#13]
.LVL411:
.LBB240:
.LBB241:
.LM468:
	CLR	r5,#0
.LVL412:
	ORL	r1,r1,r5
.LVL413:
.LBE241:
.LBE240:
.LM469:
	ST.w	[r0+#13],r1
.LM470:
	POP	lr
	.cfi_def_cfa_offset 0
	JMP	lr
	.cfi_endproc
.LFE57:
	.size	ATIM_X_Cmp_Clear_Tim_Enable, .-ATIM_X_Cmp_Clear_Tim_Enable
	.section .text$ATIM_Z_Cmp_Clear_Tim_Enable
	.type	.text$ATIM_Z_Cmp_Clear_Tim_Enable$scode_local_58, @function
	.text$ATIM_Z_Cmp_Clear_Tim_Enable$scode_local_58:
	.align	1
	.export	ATIM_Z_Cmp_Clear_Tim_Enable
	.type	ATIM_Z_Cmp_Clear_Tim_Enable, @function
ATIM_Z_Cmp_Clear_Tim_Enable:
.LFB58:
.LM471:
	.cfi_startproc
.LVL414:
	PUSH	lr
	.cfi_def_cfa_offset 4
.LM472:
	LD	r5,#1073742592
	CMP	r0,r5
	JZ	.L310
.LM473:
	MOV	r0,#0
.LVL415:
	LD	r5,#CHECK_RESTRICTION
	LJMP	r5
.LVL416:
.LM474:
	POP	lr
	.cfi_remember_state
	.cfi_def_cfa_offset 0
	JMP	lr
.LVL417:
.L310:
	.cfi_restore_state
.LM475:
	LD.w	r5,[r0+#14]
.LVL418:
.LBB242:
.LBB243:
.LM476:
	CLR	r5,#0
.LVL419:
	ORL	r1,r1,r5
.LVL420:
.LBE243:
.LBE242:
.LM477:
	ST.w	[r0+#14],r1
.LM478:
	POP	lr
	.cfi_def_cfa_offset 0
	JMP	lr
	.cfi_endproc
.LFE58:
	.size	ATIM_Z_Cmp_Clear_Tim_Enable, .-ATIM_Z_Cmp_Clear_Tim_Enable
	.section .text$ATIM_X_Cmp_Clear_Tim_Edge_Choose
	.type	.text$ATIM_X_Cmp_Clear_Tim_Edge_Choose$scode_local_59, @function
	.text$ATIM_X_Cmp_Clear_Tim_Edge_Choose$scode_local_59:
	.align	1
	.export	ATIM_X_Cmp_Clear_Tim_Edge_Choose
	.type	ATIM_X_Cmp_Clear_Tim_Edge_Choose, @function
ATIM_X_Cmp_Clear_Tim_Edge_Choose:
.LFB59:
.LM479:
	.cfi_startproc
.LVL421:
	PUSH	{r6, r7, r8, lr}
	.cfi_def_cfa_offset 16
	MOV	r8,r0
	ZXT.b	r7,r1
.LM480:
	MOV	r0,#1
.LVL422:
	CMP	r7,#0
	JZ	.L312
.LM481:
	MOV	r0,#2
	XRL	r0,r7,r0
	SUB	r0,r0,#1
	LSR	r0,#31
.L312:
.LM482:
	LD	r6,#CHECK_RESTRICTION
	LJMP	r6
.LVL423:
.LM483:
	LD	r5,#1073742592
	CMP	r8,r5
	JZ	.L317
.LM484:
	MOV	r0,#0
	LJMP	r6
.LVL424:
.LM485:
	POP	{r6, r7, r8}
	.cfi_remember_state
	.cfi_def_cfa_offset 4
.LVL425:
	POP	lr
	.cfi_def_cfa_offset 0
	JMP	lr
.LVL426:
.L317:
	.cfi_restore_state
.LM486:
	MOV	r3,r8
	LD.w	r5,[r3+#13]
.LVL427:
.LBB244:
.LBB245:
.LM487:
	CLR	r5,#1
.LVL428:
	ORL	r7,r7,r5
.LVL429:
.LBE245:
.LBE244:
.LM488:
	ST.w	[r3+#13],r7
.LM489:
	POP	{r6, r7, r8}
	.cfi_def_cfa_offset 4
.LVL430:
	POP	lr
	.cfi_def_cfa_offset 0
	JMP	lr
	.cfi_endproc
.LFE59:
	.size	ATIM_X_Cmp_Clear_Tim_Edge_Choose, .-ATIM_X_Cmp_Clear_Tim_Edge_Choose
	.section .text$ATIM_Z_Cmp_Clear_Tim_Edge_Choose
	.type	.text$ATIM_Z_Cmp_Clear_Tim_Edge_Choose$scode_local_60, @function
	.text$ATIM_Z_Cmp_Clear_Tim_Edge_Choose$scode_local_60:
	.align	1
	.export	ATIM_Z_Cmp_Clear_Tim_Edge_Choose
	.type	ATIM_Z_Cmp_Clear_Tim_Edge_Choose, @function
ATIM_Z_Cmp_Clear_Tim_Edge_Choose:
.LFB60:
.LM490:
	.cfi_startproc
.LVL431:
	PUSH	{r6, r7, r8, lr}
	.cfi_def_cfa_offset 16
	MOV	r8,r0
	ZXT.b	r7,r1
.LM491:
	MOV	r0,#1
.LVL432:
	CMP	r7,#0
	JZ	.L319
.LM492:
	MOV	r0,#2
	XRL	r0,r7,r0
	SUB	r0,r0,#1
	LSR	r0,#31
.L319:
.LM493:
	LD	r6,#CHECK_RESTRICTION
	LJMP	r6
.LVL433:
.LM494:
	LD	r5,#1073742592
	CMP	r8,r5
	JZ	.L324
.LM495:
	MOV	r0,#0
	LJMP	r6
.LVL434:
.LM496:
	POP	{r6, r7, r8}
	.cfi_remember_state
	.cfi_def_cfa_offset 4
.LVL435:
	POP	lr
	.cfi_def_cfa_offset 0
	JMP	lr
.LVL436:
.L324:
	.cfi_restore_state
.LM497:
	MOV	r3,r8
	LD.w	r5,[r3+#14]
.LVL437:
.LBB246:
.LBB247:
.LM498:
	CLR	r5,#1
.LVL438:
	ORL	r7,r7,r5
.LVL439:
.LBE247:
.LBE246:
.LM499:
	ST.w	[r3+#14],r7
.LM500:
	POP	{r6, r7, r8}
	.cfi_def_cfa_offset 4
.LVL440:
	POP	lr
	.cfi_def_cfa_offset 0
	JMP	lr
	.cfi_endproc
.LFE60:
	.size	ATIM_Z_Cmp_Clear_Tim_Edge_Choose, .-ATIM_Z_Cmp_Clear_Tim_Edge_Choose
	.section .text$ATIM_X_Cmp_Clear_Tim_Choose
	.type	.text$ATIM_X_Cmp_Clear_Tim_Choose$scode_local_61, @function
	.text$ATIM_X_Cmp_Clear_Tim_Choose$scode_local_61:
	.align	1
	.export	ATIM_X_Cmp_Clear_Tim_Choose
	.type	ATIM_X_Cmp_Clear_Tim_Choose, @function
ATIM_X_Cmp_Clear_Tim_Choose:
.LFB61:
.LM501:
	.cfi_startproc
.LVL441:
	PUSH	{r6, r7, r8, lr}
	.cfi_def_cfa_offset 16
	MOV	r8,r0
	ZXT.b	r6,r1
.LM502:
	MOV	r0,#1
.LVL442:
	CMP	r6,#0
	JZ	.L326
.LM503:
	CMP	r6,#4
	JZ	.L326
.LM504:
	CMP	r6,#8
	JZ	.L326
	MOV	r0,#12
	XRL	r0,r6,r0
	SUB	r0,r0,#1
	LSR	r0,#31
.L326:
.LM505:
	LD	r7,#CHECK_RESTRICTION
	LJMP	r7
.LVL443:
.LM506:
	LD	r5,#1073742592
	CMP	r8,r5
	JZ	.L335
.LM507:
	MOV	r0,#0
	LJMP	r7
.LVL444:
.LM508:
	POP	{r6, r7, r8}
	.cfi_remember_state
	.cfi_def_cfa_offset 4
.LVL445:
	POP	lr
	.cfi_def_cfa_offset 0
	JMP	lr
.LVL446:
.L335:
	.cfi_restore_state
.LM509:
	MOV	r3,r8
	LD.w	r5,[r3+#13]
.LVL447:
.LBB248:
.LBB249:
.LM510:
	CLR	r5,#2
	CLR	r5,#3
.LVL448:
	ORL	r6,r6,r5
.LVL449:
.LBE249:
.LBE248:
.LM511:
	ST.w	[r3+#13],r6
.LM512:
	POP	{r6, r7, r8}
	.cfi_def_cfa_offset 4
.LVL450:
	POP	lr
	.cfi_def_cfa_offset 0
	JMP	lr
	.cfi_endproc
.LFE61:
	.size	ATIM_X_Cmp_Clear_Tim_Choose, .-ATIM_X_Cmp_Clear_Tim_Choose
	.section .text$ATIM_Z_Cmp_Clear_Tim_Choose
	.type	.text$ATIM_Z_Cmp_Clear_Tim_Choose$scode_local_62, @function
	.text$ATIM_Z_Cmp_Clear_Tim_Choose$scode_local_62:
	.align	1
	.export	ATIM_Z_Cmp_Clear_Tim_Choose
	.type	ATIM_Z_Cmp_Clear_Tim_Choose, @function
ATIM_Z_Cmp_Clear_Tim_Choose:
.LFB62:
.LM513:
	.cfi_startproc
.LVL451:
	PUSH	{r6, r7, r8, lr}
	.cfi_def_cfa_offset 16
	MOV	r8,r0
	ZXT.b	r6,r1
.LM514:
	MOV	r0,#1
.LVL452:
	CMP	r6,#0
	JZ	.L337
.LM515:
	CMP	r6,#4
	JZ	.L337
.LM516:
	CMP	r6,#8
	JZ	.L337
	MOV	r0,#12
	XRL	r0,r6,r0
	SUB	r0,r0,#1
	LSR	r0,#31
.L337:
.LM517:
	LD	r7,#CHECK_RESTRICTION
	LJMP	r7
.LVL453:
.LM518:
	LD	r5,#1073742592
	CMP	r8,r5
	JZ	.L346
.LM519:
	MOV	r0,#0
	LJMP	r7
.LVL454:
.LM520:
	POP	{r6, r7, r8}
	.cfi_remember_state
	.cfi_def_cfa_offset 4
.LVL455:
	POP	lr
	.cfi_def_cfa_offset 0
	JMP	lr
.LVL456:
.L346:
	.cfi_restore_state
.LM521:
	MOV	r3,r8
	LD.w	r5,[r3+#14]
.LVL457:
.LBB250:
.LBB251:
.LM522:
	CLR	r5,#2
	CLR	r5,#3
.LVL458:
	ORL	r6,r6,r5
.LVL459:
.LBE251:
.LBE250:
.LM523:
	ST.w	[r3+#14],r6
.LM524:
	POP	{r6, r7, r8}
	.cfi_def_cfa_offset 4
.LVL460:
	POP	lr
	.cfi_def_cfa_offset 0
	JMP	lr
	.cfi_endproc
.LFE62:
	.size	ATIM_Z_Cmp_Clear_Tim_Choose, .-ATIM_Z_Cmp_Clear_Tim_Choose
	.section .text$ATIM_X_Updata_INT_Enable
	.type	.text$ATIM_X_Updata_INT_Enable$scode_local_63, @function
	.text$ATIM_X_Updata_INT_Enable$scode_local_63:
	.align	1
	.export	ATIM_X_Updata_INT_Enable
	.type	ATIM_X_Updata_INT_Enable, @function
ATIM_X_Updata_INT_Enable:
.LFB63:
.LM525:
	.cfi_startproc
.LVL461:
	PUSH	{r6, r7, r8, lr}
	.cfi_def_cfa_offset 16
	MOV	r6,r0
	MOV	r7,r1
.LM526:
	MOV	r0,#1
.LVL462:
	LD	r5,#1073742592
	CMP	r6,r5
	JZ	.L348
	MOV	r0,#0
.L348:
	LD	r5,#CHECK_RESTRICTION
	MOV	r8,r5
	LJMP	r5
.LVL463:
.LM527:
	MOV	r0,#1
	CMP	r7,r0
	JLS	.L349
	MOV	r0,#0
.L349:
	LJMP	r8
.LVL464:
.LM528:
	MOV	r5,#188
	ADD	r6,r6,r5
.LVL465:
.LM529:
	CMP	r7,#0
	JNZ	.L352
.LM530:
// inline asm begin
	// 1666 "../src/kf32a9k1xxx_atim.c" 1
	CLR [r6], #8
	// 0 "" 2
.LM531:
// inline asm end
	POP	{r6, r7, r8}
	.cfi_remember_state
	.cfi_def_cfa_offset 4
.LVL466:
	POP	lr
	.cfi_def_cfa_offset 0
	JMP	lr
.LVL467:
.L352:
	.cfi_restore_state
.LM532:
// inline asm begin
	// 1661 "../src/kf32a9k1xxx_atim.c" 1
	SET [r6], #8
	// 0 "" 2
.LM533:
// inline asm end
	POP	{r6, r7, r8}
	.cfi_def_cfa_offset 4
.LVL468:
	POP	lr
	.cfi_def_cfa_offset 0
	JMP	lr
	.cfi_endproc
.LFE63:
	.size	ATIM_X_Updata_INT_Enable, .-ATIM_X_Updata_INT_Enable
	.section .text$ATIM_Z_Updata_INT_Enable
	.type	.text$ATIM_Z_Updata_INT_Enable$scode_local_64, @function
	.text$ATIM_Z_Updata_INT_Enable$scode_local_64:
	.align	1
	.export	ATIM_Z_Updata_INT_Enable
	.type	ATIM_Z_Updata_INT_Enable, @function
ATIM_Z_Updata_INT_Enable:
.LFB64:
.LM534:
	.cfi_startproc
.LVL469:
	PUSH	{r6, r7, r8, lr}
	.cfi_def_cfa_offset 16
	MOV	r6,r0
	MOV	r7,r1
.LM535:
	MOV	r0,#1
.LVL470:
	LD	r5,#1073742592
	CMP	r6,r5
	JZ	.L354
	MOV	r0,#0
.L354:
	LD	r5,#CHECK_RESTRICTION
	MOV	r8,r5
	LJMP	r5
.LVL471:
.LM536:
	MOV	r0,#1
	CMP	r7,r0
	JLS	.L355
	MOV	r0,#0
.L355:
	LJMP	r8
.LVL472:
.LM537:
	MOV	r5,#188
	ADD	r6,r6,r5
.LVL473:
.LM538:
	CMP	r7,#0
	JNZ	.L358
.LM539:
// inline asm begin
	// 1695 "../src/kf32a9k1xxx_atim.c" 1
	CLR [r6], #7
	// 0 "" 2
.LM540:
// inline asm end
	POP	{r6, r7, r8}
	.cfi_remember_state
	.cfi_def_cfa_offset 4
.LVL474:
	POP	lr
	.cfi_def_cfa_offset 0
	JMP	lr
.LVL475:
.L358:
	.cfi_restore_state
.LM541:
// inline asm begin
	// 1690 "../src/kf32a9k1xxx_atim.c" 1
	SET [r6], #7
	// 0 "" 2
.LM542:
// inline asm end
	POP	{r6, r7, r8}
	.cfi_def_cfa_offset 4
.LVL476:
	POP	lr
	.cfi_def_cfa_offset 0
	JMP	lr
	.cfi_endproc
.LFE64:
	.size	ATIM_Z_Updata_INT_Enable, .-ATIM_Z_Updata_INT_Enable
	.section .text$ATIM_X_Overflow_INT_Enable
	.type	.text$ATIM_X_Overflow_INT_Enable$scode_local_65, @function
	.text$ATIM_X_Overflow_INT_Enable$scode_local_65:
	.align	1
	.export	ATIM_X_Overflow_INT_Enable
	.type	ATIM_X_Overflow_INT_Enable, @function
ATIM_X_Overflow_INT_Enable:
.LFB65:
.LM543:
	.cfi_startproc
.LVL477:
	PUSH	{r6, r7, r8, lr}
	.cfi_def_cfa_offset 16
	MOV	r6,r0
	MOV	r7,r1
.LM544:
	MOV	r0,#1
.LVL478:
	LD	r5,#1073742592
	CMP	r6,r5
	JZ	.L360
	MOV	r0,#0
.L360:
	LD	r5,#CHECK_RESTRICTION
	MOV	r8,r5
	LJMP	r5
.LVL479:
.LM545:
	MOV	r0,#1
	CMP	r7,r0
	JLS	.L361
	MOV	r0,#0
.L361:
	LJMP	r8
.LVL480:
.LM546:
	MOV	r5,#188
	ADD	r6,r6,r5
.LVL481:
.LM547:
	CMP	r7,#0
	JNZ	.L364
.LM548:
// inline asm begin
	// 1723 "../src/kf32a9k1xxx_atim.c" 1
	CLR [r6], #6
	// 0 "" 2
.LM549:
// inline asm end
	POP	{r6, r7, r8}
	.cfi_remember_state
	.cfi_def_cfa_offset 4
.LVL482:
	POP	lr
	.cfi_def_cfa_offset 0
	JMP	lr
.LVL483:
.L364:
	.cfi_restore_state
.LM550:
// inline asm begin
	// 1718 "../src/kf32a9k1xxx_atim.c" 1
	SET [r6], #6
	// 0 "" 2
.LM551:
// inline asm end
	POP	{r6, r7, r8}
	.cfi_def_cfa_offset 4
.LVL484:
	POP	lr
	.cfi_def_cfa_offset 0
	JMP	lr
	.cfi_endproc
.LFE65:
	.size	ATIM_X_Overflow_INT_Enable, .-ATIM_X_Overflow_INT_Enable
	.section .text$ATIM_Z_Overflow_INT_Enable
	.type	.text$ATIM_Z_Overflow_INT_Enable$scode_local_66, @function
	.text$ATIM_Z_Overflow_INT_Enable$scode_local_66:
	.align	1
	.export	ATIM_Z_Overflow_INT_Enable
	.type	ATIM_Z_Overflow_INT_Enable, @function
ATIM_Z_Overflow_INT_Enable:
.LFB66:
.LM552:
	.cfi_startproc
.LVL485:
	PUSH	{r6, r7, r8, lr}
	.cfi_def_cfa_offset 16
	MOV	r6,r0
	MOV	r7,r1
.LM553:
	MOV	r0,#1
.LVL486:
	LD	r5,#1073742592
	CMP	r6,r5
	JZ	.L366
	MOV	r0,#0
.L366:
	LD	r5,#CHECK_RESTRICTION
	MOV	r8,r5
	LJMP	r5
.LVL487:
.LM554:
	MOV	r0,#1
	CMP	r7,r0
	JLS	.L367
	MOV	r0,#0
.L367:
	LJMP	r8
.LVL488:
.LM555:
	MOV	r5,#188
	ADD	r6,r6,r5
.LVL489:
.LM556:
	CMP	r7,#0
	JNZ	.L370
.LM557:
// inline asm begin
	// 1751 "../src/kf32a9k1xxx_atim.c" 1
	CLR [r6], #5
	// 0 "" 2
.LM558:
// inline asm end
	POP	{r6, r7, r8}
	.cfi_remember_state
	.cfi_def_cfa_offset 4
.LVL490:
	POP	lr
	.cfi_def_cfa_offset 0
	JMP	lr
.LVL491:
.L370:
	.cfi_restore_state
.LM559:
// inline asm begin
	// 1746 "../src/kf32a9k1xxx_atim.c" 1
	SET [r6], #5
	// 0 "" 2
.LM560:
// inline asm end
	POP	{r6, r7, r8}
	.cfi_def_cfa_offset 4
.LVL492:
	POP	lr
	.cfi_def_cfa_offset 0
	JMP	lr
	.cfi_endproc
.LFE66:
	.size	ATIM_Z_Overflow_INT_Enable, .-ATIM_Z_Overflow_INT_Enable
	.section .text$ATIM_X_Trigger_INT_Enable
	.type	.text$ATIM_X_Trigger_INT_Enable$scode_local_67, @function
	.text$ATIM_X_Trigger_INT_Enable$scode_local_67:
	.align	1
	.export	ATIM_X_Trigger_INT_Enable
	.type	ATIM_X_Trigger_INT_Enable, @function
ATIM_X_Trigger_INT_Enable:
.LFB67:
.LM561:
	.cfi_startproc
.LVL493:
	PUSH	{r6, r7, r8, lr}
	.cfi_def_cfa_offset 16
	MOV	r6,r0
	MOV	r7,r1
.LM562:
	MOV	r0,#1
.LVL494:
	LD	r5,#1073742592
	CMP	r6,r5
	JZ	.L372
	MOV	r0,#0
.L372:
	LD	r5,#CHECK_RESTRICTION
	MOV	r8,r5
	LJMP	r5
.LVL495:
.LM563:
	MOV	r0,#1
	CMP	r7,r0
	JLS	.L373
	MOV	r0,#0
.L373:
	LJMP	r8
.LVL496:
.LM564:
	MOV	r5,#188
	ADD	r6,r6,r5
.LVL497:
.LM565:
	CMP	r7,#0
	JNZ	.L376
.LM566:
// inline asm begin
	// 1779 "../src/kf32a9k1xxx_atim.c" 1
	CLR [r6], #4
	// 0 "" 2
.LM567:
// inline asm end
	POP	{r6, r7, r8}
	.cfi_remember_state
	.cfi_def_cfa_offset 4
.LVL498:
	POP	lr
	.cfi_def_cfa_offset 0
	JMP	lr
.LVL499:
.L376:
	.cfi_restore_state
.LM568:
// inline asm begin
	// 1774 "../src/kf32a9k1xxx_atim.c" 1
	SET [r6], #4
	// 0 "" 2
.LM569:
// inline asm end
	POP	{r6, r7, r8}
	.cfi_def_cfa_offset 4
.LVL500:
	POP	lr
	.cfi_def_cfa_offset 0
	JMP	lr
	.cfi_endproc
.LFE67:
	.size	ATIM_X_Trigger_INT_Enable, .-ATIM_X_Trigger_INT_Enable
	.section .text$ATIM_X_Updata_DMA_Enable
	.type	.text$ATIM_X_Updata_DMA_Enable$scode_local_68, @function
	.text$ATIM_X_Updata_DMA_Enable$scode_local_68:
	.align	1
	.export	ATIM_X_Updata_DMA_Enable
	.type	ATIM_X_Updata_DMA_Enable, @function
ATIM_X_Updata_DMA_Enable:
.LFB68:
.LM570:
	.cfi_startproc
.LVL501:
	PUSH	{r6, r7, r8, lr}
	.cfi_def_cfa_offset 16
	MOV	r6,r0
	MOV	r7,r1
.LM571:
	MOV	r0,#1
.LVL502:
	LD	r5,#1073742592
	CMP	r6,r5
	JZ	.L378
	MOV	r0,#0
.L378:
	LD	r5,#CHECK_RESTRICTION
	MOV	r8,r5
	LJMP	r5
.LVL503:
.LM572:
	MOV	r0,#1
	CMP	r7,r0
	JLS	.L379
	MOV	r0,#0
.L379:
	LJMP	r8
.LVL504:
.LM573:
	MOV	r5,#228
	ADD	r6,r6,r5
.LVL505:
.LM574:
	CMP	r7,#0
	JNZ	.L382
.LM575:
// inline asm begin
	// 1807 "../src/kf32a9k1xxx_atim.c" 1
	CLR [r6], #7
	// 0 "" 2
.LM576:
// inline asm end
	POP	{r6, r7, r8}
	.cfi_remember_state
	.cfi_def_cfa_offset 4
.LVL506:
	POP	lr
	.cfi_def_cfa_offset 0
	JMP	lr
.LVL507:
.L382:
	.cfi_restore_state
.LM577:
// inline asm begin
	// 1802 "../src/kf32a9k1xxx_atim.c" 1
	SET [r6], #7
	// 0 "" 2
.LM578:
// inline asm end
	POP	{r6, r7, r8}
	.cfi_def_cfa_offset 4
.LVL508:
	POP	lr
	.cfi_def_cfa_offset 0
	JMP	lr
	.cfi_endproc
.LFE68:
	.size	ATIM_X_Updata_DMA_Enable, .-ATIM_X_Updata_DMA_Enable
	.section .text$ATIM_Z_Updata_DMA_Enable
	.type	.text$ATIM_Z_Updata_DMA_Enable$scode_local_69, @function
	.text$ATIM_Z_Updata_DMA_Enable$scode_local_69:
	.align	1
	.export	ATIM_Z_Updata_DMA_Enable
	.type	ATIM_Z_Updata_DMA_Enable, @function
ATIM_Z_Updata_DMA_Enable:
.LFB69:
.LM579:
	.cfi_startproc
.LVL509:
	PUSH	{r6, r7, r8, lr}
	.cfi_def_cfa_offset 16
	MOV	r6,r0
	MOV	r7,r1
.LM580:
	MOV	r0,#1
.LVL510:
	LD	r5,#1073742592
	CMP	r6,r5
	JZ	.L384
	MOV	r0,#0
.L384:
	LD	r5,#CHECK_RESTRICTION
	MOV	r8,r5
	LJMP	r5
.LVL511:
.LM581:
	MOV	r0,#1
	CMP	r7,r0
	JLS	.L385
	MOV	r0,#0
.L385:
	LJMP	r8
.LVL512:
.LM582:
	MOV	r5,#228
	ADD	r6,r6,r5
.LVL513:
.LM583:
	CMP	r7,#0
	JNZ	.L388
.LM584:
// inline asm begin
	// 1835 "../src/kf32a9k1xxx_atim.c" 1
	CLR [r6], #6
	// 0 "" 2
.LM585:
// inline asm end
	POP	{r6, r7, r8}
	.cfi_remember_state
	.cfi_def_cfa_offset 4
.LVL514:
	POP	lr
	.cfi_def_cfa_offset 0
	JMP	lr
.LVL515:
.L388:
	.cfi_restore_state
.LM586:
// inline asm begin
	// 1830 "../src/kf32a9k1xxx_atim.c" 1
	SET [r6], #6
	// 0 "" 2
.LM587:
// inline asm end
	POP	{r6, r7, r8}
	.cfi_def_cfa_offset 4
.LVL516:
	POP	lr
	.cfi_def_cfa_offset 0
	JMP	lr
	.cfi_endproc
.LFE69:
	.size	ATIM_Z_Updata_DMA_Enable, .-ATIM_Z_Updata_DMA_Enable
	.section .text$ATIM_X_Trigger_DMA_Enable
	.type	.text$ATIM_X_Trigger_DMA_Enable$scode_local_70, @function
	.text$ATIM_X_Trigger_DMA_Enable$scode_local_70:
	.align	1
	.export	ATIM_X_Trigger_DMA_Enable
	.type	ATIM_X_Trigger_DMA_Enable, @function
ATIM_X_Trigger_DMA_Enable:
.LFB70:
.LM588:
	.cfi_startproc
.LVL517:
	PUSH	{r6, r7, r8, lr}
	.cfi_def_cfa_offset 16
	MOV	r6,r0
	MOV	r7,r1
.LM589:
	MOV	r0,#1
.LVL518:
	LD	r5,#1073742592
	CMP	r6,r5
	JZ	.L390
	MOV	r0,#0
.L390:
	LD	r5,#CHECK_RESTRICTION
	MOV	r8,r5
	LJMP	r5
.LVL519:
.LM590:
	MOV	r0,#1
	CMP	r7,r0
	JLS	.L391
	MOV	r0,#0
.L391:
	LJMP	r8
.LVL520:
.LM591:
	MOV	r5,#228
	ADD	r6,r6,r5
.LVL521:
.LM592:
	CMP	r7,#0
	JNZ	.L394
.LM593:
// inline asm begin
	// 1863 "../src/kf32a9k1xxx_atim.c" 1
	CLR [r6], #5
	// 0 "" 2
.LM594:
// inline asm end
	POP	{r6, r7, r8}
	.cfi_remember_state
	.cfi_def_cfa_offset 4
.LVL522:
	POP	lr
	.cfi_def_cfa_offset 0
	JMP	lr
.LVL523:
.L394:
	.cfi_restore_state
.LM595:
// inline asm begin
	// 1858 "../src/kf32a9k1xxx_atim.c" 1
	SET [r6], #5
	// 0 "" 2
.LM596:
// inline asm end
	POP	{r6, r7, r8}
	.cfi_def_cfa_offset 4
.LVL524:
	POP	lr
	.cfi_def_cfa_offset 0
	JMP	lr
	.cfi_endproc
.LFE70:
	.size	ATIM_X_Trigger_DMA_Enable, .-ATIM_X_Trigger_DMA_Enable
	.section .text$ATIM_X_Get_Updata_INT_Flag
	.type	.text$ATIM_X_Get_Updata_INT_Flag$scode_local_71, @function
	.text$ATIM_X_Get_Updata_INT_Flag$scode_local_71:
	.align	1
	.export	ATIM_X_Get_Updata_INT_Flag
	.type	ATIM_X_Get_Updata_INT_Flag, @function
ATIM_X_Get_Updata_INT_Flag:
.LFB71:
.LM597:
	.cfi_startproc
.LVL525:
	PUSH	{r6, lr}
	.cfi_def_cfa_offset 8
	MOV	r6,r0
.LM598:
	MOV	r0,#1
.LVL526:
	LD	r5,#1073742592
	CMP	r6,r5
	JZ	.L396
	MOV	r0,#0
.L396:
	LD	r5,#CHECK_RESTRICTION
	LJMP	r5
.LVL527:
.LM599:
	MOV	r5,#192
	LD.w	r0,[r6+r5]
	LSR	r0,#14
.LM600:
	MOV	r5,#1
	ANL	r0,r0,r5
	POP	r6
	.cfi_def_cfa_offset 4
.LVL528:
	POP	lr
	.cfi_def_cfa_offset 0
	JMP	lr
	.cfi_endproc
.LFE71:
	.size	ATIM_X_Get_Updata_INT_Flag, .-ATIM_X_Get_Updata_INT_Flag
	.section .text$ATIM_Z_Get_Updata_INT_Flag
	.type	.text$ATIM_Z_Get_Updata_INT_Flag$scode_local_72, @function
	.text$ATIM_Z_Get_Updata_INT_Flag$scode_local_72:
	.align	1
	.export	ATIM_Z_Get_Updata_INT_Flag
	.type	ATIM_Z_Get_Updata_INT_Flag, @function
ATIM_Z_Get_Updata_INT_Flag:
.LFB72:
.LM601:
	.cfi_startproc
.LVL529:
	PUSH	{r6, lr}
	.cfi_def_cfa_offset 8
	MOV	r6,r0
.LM602:
	MOV	r0,#1
.LVL530:
	LD	r5,#1073742592
	CMP	r6,r5
	JZ	.L398
	MOV	r0,#0
.L398:
	LD	r5,#CHECK_RESTRICTION
	LJMP	r5
.LVL531:
.LM603:
	MOV	r5,#192
	LD.w	r0,[r6+r5]
	LSR	r0,#13
.LM604:
	MOV	r5,#1
	ANL	r0,r0,r5
	POP	r6
	.cfi_def_cfa_offset 4
.LVL532:
	POP	lr
	.cfi_def_cfa_offset 0
	JMP	lr
	.cfi_endproc
.LFE72:
	.size	ATIM_Z_Get_Updata_INT_Flag, .-ATIM_Z_Get_Updata_INT_Flag
	.section .text$ATIM_X_Get_Overflow_INT_Flag
	.type	.text$ATIM_X_Get_Overflow_INT_Flag$scode_local_73, @function
	.text$ATIM_X_Get_Overflow_INT_Flag$scode_local_73:
	.align	1
	.export	ATIM_X_Get_Overflow_INT_Flag
	.type	ATIM_X_Get_Overflow_INT_Flag, @function
ATIM_X_Get_Overflow_INT_Flag:
.LFB73:
.LM605:
	.cfi_startproc
.LVL533:
	PUSH	{r6, lr}
	.cfi_def_cfa_offset 8
	MOV	r6,r0
.LM606:
	MOV	r0,#1
.LVL534:
	LD	r5,#1073742592
	CMP	r6,r5
	JZ	.L400
	MOV	r0,#0
.L400:
	LD	r5,#CHECK_RESTRICTION
	LJMP	r5
.LVL535:
.LM607:
	MOV	r5,#192
	LD.w	r0,[r6+r5]
	LSR	r0,#12
.LM608:
	MOV	r5,#1
	ANL	r0,r0,r5
	POP	r6
	.cfi_def_cfa_offset 4
.LVL536:
	POP	lr
	.cfi_def_cfa_offset 0
	JMP	lr
	.cfi_endproc
.LFE73:
	.size	ATIM_X_Get_Overflow_INT_Flag, .-ATIM_X_Get_Overflow_INT_Flag
	.section .text$ATIM_Z_Get_Overflow_INT_Flag
	.type	.text$ATIM_Z_Get_Overflow_INT_Flag$scode_local_74, @function
	.text$ATIM_Z_Get_Overflow_INT_Flag$scode_local_74:
	.align	1
	.export	ATIM_Z_Get_Overflow_INT_Flag
	.type	ATIM_Z_Get_Overflow_INT_Flag, @function
ATIM_Z_Get_Overflow_INT_Flag:
.LFB74:
.LM609:
	.cfi_startproc
.LVL537:
	PUSH	{r6, lr}
	.cfi_def_cfa_offset 8
	MOV	r6,r0
.LM610:
	MOV	r0,#1
.LVL538:
	LD	r5,#1073742592
	CMP	r6,r5
	JZ	.L402
	MOV	r0,#0
.L402:
	LD	r5,#CHECK_RESTRICTION
	LJMP	r5
.LVL539:
.LM611:
	MOV	r5,#192
	LD.w	r0,[r6+r5]
	LSR	r0,#11
.LM612:
	MOV	r5,#1
	ANL	r0,r0,r5
	POP	r6
	.cfi_def_cfa_offset 4
.LVL540:
	POP	lr
	.cfi_def_cfa_offset 0
	JMP	lr
	.cfi_endproc
.LFE74:
	.size	ATIM_Z_Get_Overflow_INT_Flag, .-ATIM_Z_Get_Overflow_INT_Flag
	.section .text$ATIM_X_Get_Trigger_INT_Flag
	.type	.text$ATIM_X_Get_Trigger_INT_Flag$scode_local_75, @function
	.text$ATIM_X_Get_Trigger_INT_Flag$scode_local_75:
	.align	1
	.export	ATIM_X_Get_Trigger_INT_Flag
	.type	ATIM_X_Get_Trigger_INT_Flag, @function
ATIM_X_Get_Trigger_INT_Flag:
.LFB75:
.LM613:
	.cfi_startproc
.LVL541:
	PUSH	{r6, lr}
	.cfi_def_cfa_offset 8
	MOV	r6,r0
.LM614:
	MOV	r0,#1
.LVL542:
	LD	r5,#1073742592
	CMP	r6,r5
	JZ	.L404
	MOV	r0,#0
.L404:
	LD	r5,#CHECK_RESTRICTION
	LJMP	r5
.LVL543:
.LM615:
	MOV	r5,#192
	LD.w	r0,[r6+r5]
	LSR	r0,#10
.LM616:
	MOV	r5,#1
	ANL	r0,r0,r5
	POP	r6
	.cfi_def_cfa_offset 4
.LVL544:
	POP	lr
	.cfi_def_cfa_offset 0
	JMP	lr
	.cfi_endproc
.LFE75:
	.size	ATIM_X_Get_Trigger_INT_Flag, .-ATIM_X_Get_Trigger_INT_Flag
	.section .text$ATIM_X_Generate_Trigger_Config
	.type	.text$ATIM_X_Generate_Trigger_Config$scode_local_76, @function
	.text$ATIM_X_Generate_Trigger_Config$scode_local_76:
	.align	1
	.export	ATIM_X_Generate_Trigger_Config
	.type	ATIM_X_Generate_Trigger_Config, @function
ATIM_X_Generate_Trigger_Config:
.LFB76:
.LM617:
	.cfi_startproc
.LVL545:
	PUSH	{r6, r7, r8, lr}
	.cfi_def_cfa_offset 16
	MOV	r6,r0
	MOV	r7,r1
.LM618:
	MOV	r0,#1
.LVL546:
	LD	r5,#1073742592
	CMP	r6,r5
	JZ	.L406
	MOV	r0,#0
.L406:
	LD	r5,#CHECK_RESTRICTION
	MOV	r8,r5
	LJMP	r5
.LVL547:
.LM619:
	MOV	r0,#1
	CMP	r7,r0
	JLS	.L407
	MOV	r0,#0
.L407:
	LJMP	r8
.LVL548:
.LM620:
	MOV	r5,#192
	ADD	r6,r6,r5
.LVL549:
.LM621:
	CMP	r7,#0
	JNZ	.L410
.LM622:
// inline asm begin
	// 2015 "../src/kf32a9k1xxx_atim.c" 1
	CLR [r6], #5
	// 0 "" 2
.LM623:
// inline asm end
	POP	{r6, r7, r8}
	.cfi_remember_state
	.cfi_def_cfa_offset 4
.LVL550:
	POP	lr
	.cfi_def_cfa_offset 0
	JMP	lr
.LVL551:
.L410:
	.cfi_restore_state
.LM624:
// inline asm begin
	// 2010 "../src/kf32a9k1xxx_atim.c" 1
	SET [r6], #5
	// 0 "" 2
.LM625:
// inline asm end
	POP	{r6, r7, r8}
	.cfi_def_cfa_offset 4
.LVL552:
	POP	lr
	.cfi_def_cfa_offset 0
	JMP	lr
	.cfi_endproc
.LFE76:
	.size	ATIM_X_Generate_Trigger_Config, .-ATIM_X_Generate_Trigger_Config
	.section .text$ATIM_X_Get_Updata_DMA_INT_Flag
	.type	.text$ATIM_X_Get_Updata_DMA_INT_Flag$scode_local_77, @function
	.text$ATIM_X_Get_Updata_DMA_INT_Flag$scode_local_77:
	.align	1
	.export	ATIM_X_Get_Updata_DMA_INT_Flag
	.type	ATIM_X_Get_Updata_DMA_INT_Flag, @function
ATIM_X_Get_Updata_DMA_INT_Flag:
.LFB77:
.LM626:
	.cfi_startproc
.LVL553:
	PUSH	{r6, lr}
	.cfi_def_cfa_offset 8
	MOV	r6,r0
.LM627:
	MOV	r0,#1
.LVL554:
	LD	r5,#1073742592
	CMP	r6,r5
	JZ	.L412
	MOV	r0,#0
.L412:
	LD	r5,#CHECK_RESTRICTION
	LJMP	r5
.LVL555:
.LM628:
	MOV	r5,#204
	LD.w	r0,[r6+r5]
	LSR	r0,#7
.LM629:
	MOV	r5,#1
	ANL	r0,r0,r5
	POP	r6
	.cfi_def_cfa_offset 4
.LVL556:
	POP	lr
	.cfi_def_cfa_offset 0
	JMP	lr
	.cfi_endproc
.LFE77:
	.size	ATIM_X_Get_Updata_DMA_INT_Flag, .-ATIM_X_Get_Updata_DMA_INT_Flag
	.section .text$ATIM_Z_Get_Updata_DMA_INT_Flag
	.type	.text$ATIM_Z_Get_Updata_DMA_INT_Flag$scode_local_78, @function
	.text$ATIM_Z_Get_Updata_DMA_INT_Flag$scode_local_78:
	.align	1
	.export	ATIM_Z_Get_Updata_DMA_INT_Flag
	.type	ATIM_Z_Get_Updata_DMA_INT_Flag, @function
ATIM_Z_Get_Updata_DMA_INT_Flag:
.LFB78:
.LM630:
	.cfi_startproc
.LVL557:
	PUSH	{r6, lr}
	.cfi_def_cfa_offset 8
	MOV	r6,r0
.LM631:
	MOV	r0,#1
.LVL558:
	LD	r5,#1073742592
	CMP	r6,r5
	JZ	.L414
	MOV	r0,#0
.L414:
	LD	r5,#CHECK_RESTRICTION
	LJMP	r5
.LVL559:
.LM632:
	MOV	r5,#204
	LD.w	r0,[r6+r5]
	LSR	r0,#6
.LM633:
	MOV	r5,#1
	ANL	r0,r0,r5
	POP	r6
	.cfi_def_cfa_offset 4
.LVL560:
	POP	lr
	.cfi_def_cfa_offset 0
	JMP	lr
	.cfi_endproc
.LFE78:
	.size	ATIM_Z_Get_Updata_DMA_INT_Flag, .-ATIM_Z_Get_Updata_DMA_INT_Flag
	.section .text$ATIM_X_Get_Trigger_DMA_INT_Flag
	.type	.text$ATIM_X_Get_Trigger_DMA_INT_Flag$scode_local_79, @function
	.text$ATIM_X_Get_Trigger_DMA_INT_Flag$scode_local_79:
	.align	1
	.export	ATIM_X_Get_Trigger_DMA_INT_Flag
	.type	ATIM_X_Get_Trigger_DMA_INT_Flag, @function
ATIM_X_Get_Trigger_DMA_INT_Flag:
.LFB79:
.LM634:
	.cfi_startproc
.LVL561:
	PUSH	{r6, lr}
	.cfi_def_cfa_offset 8
	MOV	r6,r0
.LM635:
	MOV	r0,#1
.LVL562:
	LD	r5,#1073742592
	CMP	r6,r5
	JZ	.L416
	MOV	r0,#0
.L416:
	LD	r5,#CHECK_RESTRICTION
	LJMP	r5
.LVL563:
.LM636:
	MOV	r5,#204
	LD.w	r0,[r6+r5]
	LSR	r0,#5
.LM637:
	MOV	r5,#1
	ANL	r0,r0,r5
	POP	r6
	.cfi_def_cfa_offset 4
.LVL564:
	POP	lr
	.cfi_def_cfa_offset 0
	JMP	lr
	.cfi_endproc
.LFE79:
	.size	ATIM_X_Get_Trigger_DMA_INT_Flag, .-ATIM_X_Get_Trigger_DMA_INT_Flag
	.section .text$ATIM_X_Clear_Updata_INT_Flag
	.type	.text$ATIM_X_Clear_Updata_INT_Flag$scode_local_80, @function
	.text$ATIM_X_Clear_Updata_INT_Flag$scode_local_80:
	.align	1
	.export	ATIM_X_Clear_Updata_INT_Flag
	.type	ATIM_X_Clear_Updata_INT_Flag, @function
ATIM_X_Clear_Updata_INT_Flag:
.LFB80:
.LM638:
	.cfi_startproc
.LVL565:
	PUSH	{r6, lr}
	.cfi_def_cfa_offset 8
	MOV	r6,r0
.LM639:
	MOV	r0,#1
.LVL566:
	LD	r5,#1073742592
	CMP	r6,r5
	JZ	.L418
	MOV	r0,#0
.L418:
	LD	r5,#CHECK_RESTRICTION
	LJMP	r5
.LVL567:
.LM640:
	MOV	r5,#232
	ADD	r5,r6,r5
// inline asm begin
	// 2108 "../src/kf32a9k1xxx_atim.c" 1
	SET [r5], #8
	// 0 "" 2
.LM641:
// inline asm end
	MOV	r3,#192
	MOV	r4,#1
	LSL	r4,#14
.L419:
.LM642:
	LD.w	r5,[r6+r3]
	ANL	r5,r5,r4
	JNZ	.L419
.LM643:
	MOV	r5,#232
	ADD	r6,r6,r5
.LVL568:
// inline asm begin
	// 2110 "../src/kf32a9k1xxx_atim.c" 1
	CLR [r6], #8
	// 0 "" 2
.LM644:
// inline asm end
	POP	r6
	.cfi_def_cfa_offset 4
	POP	lr
	.cfi_def_cfa_offset 0
	JMP	lr
	.cfi_endproc
.LFE80:
	.size	ATIM_X_Clear_Updata_INT_Flag, .-ATIM_X_Clear_Updata_INT_Flag
	.section .text$ATIM_Z_Clear_Updata_INT_Flag
	.type	.text$ATIM_Z_Clear_Updata_INT_Flag$scode_local_81, @function
	.text$ATIM_Z_Clear_Updata_INT_Flag$scode_local_81:
	.align	1
	.export	ATIM_Z_Clear_Updata_INT_Flag
	.type	ATIM_Z_Clear_Updata_INT_Flag, @function
ATIM_Z_Clear_Updata_INT_Flag:
.LFB81:
.LM645:
	.cfi_startproc
.LVL569:
	PUSH	{r6, lr}
	.cfi_def_cfa_offset 8
	MOV	r6,r0
.LM646:
	MOV	r0,#1
.LVL570:
	LD	r5,#1073742592
	CMP	r6,r5
	JZ	.L422
	MOV	r0,#0
.L422:
	LD	r5,#CHECK_RESTRICTION
	LJMP	r5
.LVL571:
.LM647:
	MOV	r5,#232
	ADD	r5,r6,r5
// inline asm begin
	// 2127 "../src/kf32a9k1xxx_atim.c" 1
	SET [r5], #7
	// 0 "" 2
.LM648:
// inline asm end
	MOV	r3,#192
	MOV	r4,#1
	LSL	r4,#13
.L423:
.LM649:
	LD.w	r5,[r6+r3]
	ANL	r5,r5,r4
	JNZ	.L423
.LM650:
	MOV	r5,#232
	ADD	r6,r6,r5
.LVL572:
// inline asm begin
	// 2129 "../src/kf32a9k1xxx_atim.c" 1
	CLR [r6], #7
	// 0 "" 2
.LM651:
// inline asm end
	POP	r6
	.cfi_def_cfa_offset 4
	POP	lr
	.cfi_def_cfa_offset 0
	JMP	lr
	.cfi_endproc
.LFE81:
	.size	ATIM_Z_Clear_Updata_INT_Flag, .-ATIM_Z_Clear_Updata_INT_Flag
	.section .text$ATIM_X_Clear_Overflow_INT_Flag
	.type	.text$ATIM_X_Clear_Overflow_INT_Flag$scode_local_82, @function
	.text$ATIM_X_Clear_Overflow_INT_Flag$scode_local_82:
	.align	1
	.export	ATIM_X_Clear_Overflow_INT_Flag
	.type	ATIM_X_Clear_Overflow_INT_Flag, @function
ATIM_X_Clear_Overflow_INT_Flag:
.LFB82:
.LM652:
	.cfi_startproc
.LVL573:
	PUSH	{r6, lr}
	.cfi_def_cfa_offset 8
	MOV	r6,r0
.LM653:
	MOV	r0,#1
.LVL574:
	LD	r5,#1073742592
	CMP	r6,r5
	JZ	.L426
	MOV	r0,#0
.L426:
	LD	r5,#CHECK_RESTRICTION
	LJMP	r5
.LVL575:
.LM654:
	MOV	r5,#232
	ADD	r5,r6,r5
// inline asm begin
	// 2145 "../src/kf32a9k1xxx_atim.c" 1
	SET [r5], #6
	// 0 "" 2
.LM655:
// inline asm end
	MOV	r3,#192
	MOV	r4,#1
	LSL	r4,#12
.L427:
.LM656:
	LD.w	r5,[r6+r3]
	ANL	r5,r5,r4
	JNZ	.L427
.LM657:
	MOV	r5,#232
	ADD	r6,r6,r5
.LVL576:
// inline asm begin
	// 2147 "../src/kf32a9k1xxx_atim.c" 1
	CLR [r6], #6
	// 0 "" 2
.LM658:
// inline asm end
	POP	r6
	.cfi_def_cfa_offset 4
	POP	lr
	.cfi_def_cfa_offset 0
	JMP	lr
	.cfi_endproc
.LFE82:
	.size	ATIM_X_Clear_Overflow_INT_Flag, .-ATIM_X_Clear_Overflow_INT_Flag
	.section .text$ATIM_Z_Clear_Overflow_INT_Flag
	.type	.text$ATIM_Z_Clear_Overflow_INT_Flag$scode_local_83, @function
	.text$ATIM_Z_Clear_Overflow_INT_Flag$scode_local_83:
	.align	1
	.export	ATIM_Z_Clear_Overflow_INT_Flag
	.type	ATIM_Z_Clear_Overflow_INT_Flag, @function
ATIM_Z_Clear_Overflow_INT_Flag:
.LFB83:
.LM659:
	.cfi_startproc
.LVL577:
	PUSH	{r6, lr}
	.cfi_def_cfa_offset 8
	MOV	r6,r0
.LM660:
	MOV	r0,#1
.LVL578:
	LD	r5,#1073742592
	CMP	r6,r5
	JZ	.L430
	MOV	r0,#0
.L430:
	LD	r5,#CHECK_RESTRICTION
	LJMP	r5
.LVL579:
.LM661:
	MOV	r5,#232
	ADD	r5,r6,r5
// inline asm begin
	// 2163 "../src/kf32a9k1xxx_atim.c" 1
	SET [r5], #5
	// 0 "" 2
.LM662:
// inline asm end
	MOV	r3,#192
	MOV	r4,#1
	LSL	r4,#11
.L431:
.LM663:
	LD.w	r5,[r6+r3]
	ANL	r5,r5,r4
	JNZ	.L431
.LM664:
	MOV	r5,#232
	ADD	r6,r6,r5
.LVL580:
// inline asm begin
	// 2165 "../src/kf32a9k1xxx_atim.c" 1
	CLR [r6], #5
	// 0 "" 2
.LM665:
// inline asm end
	POP	r6
	.cfi_def_cfa_offset 4
	POP	lr
	.cfi_def_cfa_offset 0
	JMP	lr
	.cfi_endproc
.LFE83:
	.size	ATIM_Z_Clear_Overflow_INT_Flag, .-ATIM_Z_Clear_Overflow_INT_Flag
	.section .text$ATIM_X_Clear_Trigger_INT_Flag
	.type	.text$ATIM_X_Clear_Trigger_INT_Flag$scode_local_84, @function
	.text$ATIM_X_Clear_Trigger_INT_Flag$scode_local_84:
	.align	1
	.export	ATIM_X_Clear_Trigger_INT_Flag
	.type	ATIM_X_Clear_Trigger_INT_Flag, @function
ATIM_X_Clear_Trigger_INT_Flag:
.LFB84:
.LM666:
	.cfi_startproc
.LVL581:
	PUSH	{r6, lr}
	.cfi_def_cfa_offset 8
	MOV	r6,r0
.LM667:
	MOV	r0,#1
.LVL582:
	LD	r5,#1073742592
	CMP	r6,r5
	JZ	.L434
	MOV	r0,#0
.L434:
	LD	r5,#CHECK_RESTRICTION
	LJMP	r5
.LVL583:
.LM668:
	MOV	r5,#232
	ADD	r5,r6,r5
// inline asm begin
	// 2181 "../src/kf32a9k1xxx_atim.c" 1
	SET [r5], #4
	// 0 "" 2
.LM669:
// inline asm end
	MOV	r3,#192
	MOV	r4,#1
	LSL	r4,#10
.L435:
.LM670:
	LD.w	r5,[r6+r3]
	ANL	r5,r5,r4
	JNZ	.L435
.LM671:
	MOV	r5,#232
	ADD	r6,r6,r5
.LVL584:
// inline asm begin
	// 2183 "../src/kf32a9k1xxx_atim.c" 1
	CLR [r6], #4
	// 0 "" 2
.LM672:
// inline asm end
	POP	r6
	.cfi_def_cfa_offset 4
	POP	lr
	.cfi_def_cfa_offset 0
	JMP	lr
	.cfi_endproc
.LFE84:
	.size	ATIM_X_Clear_Trigger_INT_Flag, .-ATIM_X_Clear_Trigger_INT_Flag
	.section .text$ECCP_Compare_Configuration
	.type	.text$ECCP_Compare_Configuration$scode_local_85, @function
	.text$ECCP_Compare_Configuration$scode_local_85:
	.align	1
	.export	ECCP_Compare_Configuration
	.type	ECCP_Compare_Configuration, @function
ECCP_Compare_Configuration:
.LFB85:
.LM673:
	.cfi_startproc
.LVL585:
	PUSH	{r6, r7, r8, r9, r10, lr}
	.cfi_def_cfa_offset 24
	MOV	r7,r0
	MOV	r9,r1
	MOV	r6,r2
	ZXT.h	r10,r3
.LVL586:
.LM674:
	MOV	r0,#1
.LVL587:
	LD	r5,#1073742592
	CMP	r7,r5
	JZ	.L438
	MOV	r0,#0
.L438:
	LD	r5,#CHECK_RESTRICTION
	MOV	r8,r5
	LJMP	r5
.LVL588:
.LM675:
	MOV	r5,r9
	LSR	r5,#2
	MOV	r0,#1
	CMP	r5,#0
	JZ	.L439
	MOV	r0,#0
.L439:
	LJMP	r8
.LVL589:
.LM676:
	MOV	r0,#1
	CMP	r6,#0
	JZ	.L440
.LM677:
	CMP	r6,#2
	JZ	.L440
.LM678:
	CMP	r6,#8
	JZ	.L440
	CMP	r6,#9
	JZ	.L440
	CMP	r6,#10
	JZ	.L440
	CMP	r6,#11
	JZ	.L440
	MOV	r0,#0
.L440:
.LM679:
	LJMP	r8
.LVL590:
.LM680:
	MOV	r1,r9
	LSL	r1,#2
.LVL591:
.LM681:
	MOV	r5,#128
	LD.w	r3,[r7+r5]
.LVL592:
.LM682:
	MOV	r4,#15
	LSL	r4,r4,r1
.LM683:
	NOT	r4,r4
.LVL593:
.LBB252:
.LBB253:
.LM684:
	ANL	r4,r4,r3
.LVL594:
.LBE253:
.LBE252:
.LM685:
	LSL	r6,r6,r1
.LVL595:
.LBB255:
.LBB254:
.LM686:
	ORL	r6,r4,r6
.LVL596:
.LBE254:
.LBE255:
.LM687:
	ST.w	[r7+r5],r6
.LVL597:
.LM688:
	MOV	r5,#132
	ADD	r7,r7,r5
.LVL598:
.LM689:
	//++++
	PUSH r7
	ADD r7,r1 
	ST.W [r7],r10
	POP r7
	//replace_ST.x [r7+r1],r10
.LM690:
	POP	{r6, r7, r8, r9, r10}
	.cfi_def_cfa_offset 4
.LVL599:
	POP	lr
	.cfi_def_cfa_offset 0
	JMP	lr
	.cfi_endproc
.LFE85:
	.size	ECCP_Compare_Configuration, .-ECCP_Compare_Configuration
	.section .text$ECCP_Capture_Configuration
	.type	.text$ECCP_Capture_Configuration$scode_local_86, @function
	.text$ECCP_Capture_Configuration$scode_local_86:
	.align	1
	.export	ECCP_Capture_Configuration
	.type	ECCP_Capture_Configuration, @function
ECCP_Capture_Configuration:
.LFB86:
.LM691:
	.cfi_startproc
.LVL600:
	PUSH	{r6, r7, r8, lr}
	.cfi_def_cfa_offset 16
	MOV	r7,r0
	MOV	r6,r1
.LVL601:
.LM692:
	MOV	r0,#1
.LVL602:
	LD	r5,#1073742592
	CMP	r7,r5
	JZ	.L459
	MOV	r0,#0
.L459:
	LD	r1,#CHECK_RESTRICTION
.LVL603:
	MOV	r8,r1
	LJMP	r1
.LVL604:
.LM693:
	LD.w	r5,[r6]
	LSR	r5,#2
	MOV	r0,#1
	CMP	r5,#0
	JZ	.L460
	MOV	r0,#0
.L460:
	LJMP	r8
.LVL605:
.LM694:
	LD.w	r5,[r6+#1]
	MOV	r0,#1
	CMP	r5,#0
	JZ	.L461
.LM695:
	CMP	r5,#5
	JZ	.L461
.LM696:
	CMP	r5,#4
	JZ	.L461
	CMP	r5,#6
	JZ	.L461
	CMP	r5,#7
	JZ	.L461
	MOV	r0,#0
.L461:
.LM697:
	LJMP	r8
.LVL606:
.LM698:
	MOV	r0,#1
	LD.w	r5,[r6+#2]
	CMP	r5,r0
	JLS	.L463
	MOV	r0,#0
.L463:
	LJMP	r8
.LVL607:
.LM699:
	MOV	r0,#1
	LD.w	r5,[r6+#3]
	CMP	r5,r0
	JLS	.L464
	MOV	r0,#0
.L464:
	LJMP	r8
.LVL608:
.LM700:
	MOV	r5,#128
	LD.w	r2,[r7+r5]
.LM701:
	LDP.w	r4,[r6]	<<	#2
.LVL609:
.LM702:
	MOV	r3,#15
	LSL	r3,r3,r4
.LM703:
	NOT	r3,r3
.LVL610:
.LBB256:
.LBB257:
.LM704:
	ANL	r3,r3,r2
.LVL611:
.LBE257:
.LBE256:
.LM705:
	LD.w	r2,[r6+#1]
.LVL612:
	LSL	r4,r2,r4
.LVL613:
.LBB259:
.LBB258:
.LM706:
	ORL	r4,r3,r4
.LVL614:
.LBE258:
.LBE259:
.LM707:
	ST.w	[r7+r5],r4
.LM708:
	LD.w	r4,[r6+#2]
.LVL615:
.LM709:
	MOV	r5,#152
	LD.w	r3,[r7+r5]
.LVL616:
.LM710:
	MOV	r1,#11
	LSL	r2,r4,r1
.LM711:
	LSL	r4,#12
.LVL617:
	ORL	r4,r2,r4
.LVL618:
.LBB260:
.LBB261:
.LM712:
	CLR	r3,#11
	CLR	r3,#12
.LVL619:
	ORL	r4,r4,r3
.LVL620:
.LBE261:
.LBE260:
.LM713:
	ST.w	[r7+r5],r4
.LM714:
	POP	{r6, r7, r8}
	.cfi_def_cfa_offset 4
.LVL621:
	POP	lr
	.cfi_def_cfa_offset 0
	JMP	lr
	.cfi_endproc
.LFE86:
	.size	ECCP_Capture_Configuration, .-ECCP_Capture_Configuration
	.section .text$ECCP_Capture_Struct_Init
	.type	.text$ECCP_Capture_Struct_Init$scode_local_87, @function
	.text$ECCP_Capture_Struct_Init$scode_local_87:
	.align	1
	.export	ECCP_Capture_Struct_Init
	.type	ECCP_Capture_Struct_Init, @function
ECCP_Capture_Struct_Init:
.LFB87:
.LM715:
	.cfi_startproc
.LVL622:
.LM716:
	MOV	r5,#0
	ST.w	[r0],r5
.LM717:
	ST.w	[r0+#1],r5
.LM718:
	ST.w	[r0+#2],r5
.LM719:
	ST.w	[r0+#3],r5
.LM720:
	JMP	lr
	.cfi_endproc
.LFE87:
	.size	ECCP_Capture_Struct_Init, .-ECCP_Capture_Struct_Init
	.section .text$ECCP_PWM_Configuration
	.type	.text$ECCP_PWM_Configuration$scode_local_88, @function
	.text$ECCP_PWM_Configuration$scode_local_88:
	.align	1
	.export	ECCP_PWM_Configuration
	.type	ECCP_PWM_Configuration, @function
ECCP_PWM_Configuration:
.LFB88:
.LM721:
	.cfi_startproc
.LVL623:
	PUSH	{r6, r7, r8, lr}
	.cfi_def_cfa_offset 16
	MOV	r7,r0
	MOV	r6,r1
.LVL624:
.LM722:
	MOV	r0,#1
.LVL625:
	LD	r5,#1073742592
	CMP	r7,r5
	JZ	.L481
	MOV	r0,#0
.L481:
	LD	r1,#CHECK_RESTRICTION
.LVL626:
	MOV	r8,r1
	LJMP	r1
.LVL627:
.LM723:
	LD.w	r5,[r6]
	LSR	r5,#2
	MOV	r0,#1
	CMP	r5,#0
	JZ	.L482
	MOV	r0,#0
.L482:
	LJMP	r8
.LVL628:
.LM724:
	LD.w	r5,[r6+#1]
	MOV	r0,#1
	CMP	r5,#0
	JZ	.L483
.LM725:
	CMP	r5,#12
	JZ	.L483
.LM726:
	CMP	r5,#13
	JZ	.L483
	CMP	r5,#14
	JZ	.L483
	MOV	r0,#0
.L483:
.LM727:
	LJMP	r8
.LVL629:
.LM728:
	MOV	r0,#1
	LD.b	r5,[r6+#11]
	CMP	r5,r0
	JLS	.L485
	MOV	r0,#0
.L485:
	LJMP	r8
.LVL630:
.LM729:
	LD.h	r0,[r6+#6]
	LSR	r0,#2
	SUB	r0,r0,#1
	LSR	r0,#31
	LJMP	r8
.LVL631:
.LM730:
	LD.h	r0,[r6+#7]
	LSR	r0,#2
	SUB	r0,r0,#1
	LSR	r0,#31
	LJMP	r8
.LVL632:
.LM731:
	MOV	r0,#1
	LD.w	r5,[r6+#4]
	CMP	r5,r0
	JLS	.L486
	MOV	r0,#0
.L486:
	LJMP	r8
.LVL633:
.LM732:
	MOV	r0,#1
	LD.w	r5,[r6+#5]
	CMP	r5,r0
	JLS	.L487
	MOV	r0,#0
.L487:
	LJMP	r8
.LVL634:
.LM733:
	MOV	r0,#1
	LD.w	r5,[r6+#6]
	CMP	r5,r0
	JLS	.L488
	MOV	r0,#0
.L488:
	LJMP	r8
.LVL635:
.LM734:
	LDP.w	r5,[r6]	<<	#2
.LVL636:
.LM735:
	MOV	r4,#128
	LD.w	r2,[r7+r4]
.LVL637:
.LM736:
	MOV	r3,#15
	LSL	r3,r3,r5
.LM737:
	NOT	r3,r3
.LVL638:
.LBB262:
.LBB263:
.LM738:
	ANL	r3,r3,r2
.LVL639:
.LBE263:
.LBE262:
.LM739:
	LD.w	r1,[r6+#1]
	LSL	r2,r1,r5
.LVL640:
.LBB265:
.LBB264:
.LM740:
	ORL	r3,r3,r2
.LBE264:
.LBE265:
.LM741:
	ST.w	[r7+r4],r3
.LVL641:
.LM742:
	MOV	r4,#132
	ADD	r5,r5,r4
.LVL642:
.LM743:
	LD.h	r4,[r6+#4]
	ST.w	[r5+r7],r4
.LM744:
	MOV	r5,#148
.LVL643:
	LD.w	r4,[r7+r5]
.LVL644:
.LBB266:
.LBB267:
.LM745:
	CLR	r4,#6
.LVL645:
	LD.w	r2,[r6+#4]
.LVL646:
	ORL	r4,r4,r2
.LBE267:
.LBE266:
.LM746:
	ST.w	[r7+r5],r4
.LM747:
	LD.w	r5,[r6]
.LM748:
	MOV	r4,#156
.LM749:
	CMP	r5,#3
	JZ	.L503
.LVL647:
.LM750:
	LD.w	r2,[r7+r4]
.LVL648:
.LBB268:
.LBB269:
.LM751:
	MOV	r3,#255
	NOT	r3,r3
	ANL	r3,r2,r3
.LBE269:
.LBE268:
.LM752:
	LD.b	r2,[r6+#10]
.LVL649:
.LBB271:
.LBB270:
.LM753:
	ORL	r3,r3,r2
.LBE270:
.LBE271:
.LM754:
	ST.w	[r7+r4],r3
.LVL650:
.L490:
.LM755:
	MOV	r4,#164
	LD.w	r2,[r7+r4]
.LVL651:
.LM756:
	MOV	r3,#255
	ADD	r3,r3,#1
	LSL	r3,r3,r5
.LM757:
	NOT	r3,r3
.LBB272:
.LBB273:
.LM758:
	ANL	r3,r3,r2
.LBE273:
.LBE272:
.LM759:
	LD.b	r2,[r6+#11]
.LVL652:
.LM760:
	LSL	r2,r2,r5
.LVL653:
.LBB275:
.LBB274:
.LM761:
	ORL	r3,r3,r2
.LBE274:
.LBE275:
.LM762:
	ST.w	[r7+r4],r3
.LVL654:
.LM763:
	MOV	r4,#160
	LD.w	r2,[r7+r4]
.LVL655:
.LM764:
	LSL	r5,#2
.LVL656:
.LM765:
	MOV	r3,#15
	LSL	r3,r3,r5
.LM766:
	NOT	r3,r3
.LVL657:
.LBB276:
.LBB277:
.LM767:
	ANL	r3,r3,r2
.LVL658:
.LBE277:
.LBE276:
.LM768:
	LD.h	r2,[r6+#6]
.LVL659:
	LSL	r2,#2
.LM769:
	LD.h	r1,[r6+#7]
.LM770:
	ORL	r2,r2,r1
.LVL660:
.LM771:
	LSL	r5,r2,r5
.LVL661:
.LBB279:
.LBB278:
.LM772:
	ORL	r5,r3,r5
.LVL662:
.LBE278:
.LBE279:
.LM773:
	ST.w	[r7+r4],r5
.LVL663:
.LM774:
	MOV	r5,#152
	LD.w	r4,[r7+r5]
.LVL664:
.LBB280:
.LBB281:
.LM775:
	CLR	r4,#10
.LVL665:
.LBE281:
.LBE280:
.LM776:
	LD.w	r3,[r6+#5]
	LSL	r3,#10
.LVL666:
.LBB283:
.LBB282:
.LM777:
	ORL	r4,r4,r3
.LBE282:
.LBE283:
.LM778:
	ST.w	[r7+r5],r4
.LVL667:
.LM779:
	MOV	r5,#236
	LD.w	r4,[r7+r5]
.LVL668:
.LBB284:
.LBB285:
.LM780:
	CLR	r4,#0
.LVL669:
	LD.w	r3,[r6+#6]
.LVL670:
	ORL	r4,r4,r3
.LBE285:
.LBE284:
.LM781:
	ST.w	[r7+r5],r4
.LM782:
	POP	{r6, r7, r8}
	.cfi_remember_state
	.cfi_def_cfa_offset 4
.LVL671:
	POP	lr
	.cfi_def_cfa_offset 0
	JMP	lr
.LVL672:
.L503:
	.cfi_restore_state
.LM783:
	LD.w	r1,[r7+r4]
.LVL673:
.LM784:
	LD.b	r2,[r6+#10]
.LVL674:
	LSL	r2,#8
.LVL675:
.LBB286:
.LBB287:
.LM785:
	LD	r3,#-65281
	ANL	r3,r1,r3
	ORL	r3,r2,r3
.LBE287:
.LBE286:
.LM786:
	ST.w	[r7+r4],r3
	JMP	.L490
	.cfi_endproc
.LFE88:
	.size	ECCP_PWM_Configuration, .-ECCP_PWM_Configuration
	.section .text$ECCP_PWM_Struct_Init
	.type	.text$ECCP_PWM_Struct_Init$scode_local_89, @function
	.text$ECCP_PWM_Struct_Init$scode_local_89:
	.align	1
	.export	ECCP_PWM_Struct_Init
	.type	ECCP_PWM_Struct_Init, @function
ECCP_PWM_Struct_Init:
.LFB89:
.LM787:
	.cfi_startproc
.LVL676:
.LM788:
	MOV	r5,#0
	ST.w	[r0],r5
.LM789:
	ST.w	[r0+#1],r5
.LM790:
	ST.h	[r0+#4],r5
.LM791:
	ST.b	[r0+#10],r5
.LM792:
	ST.b	[r0+#11],r5
.LM793:
	ST.h	[r0+#6],r5
.LM794:
	ST.h	[r0+#7],r5
.LM795:
	ST.w	[r0+#4],r5
.LM796:
	ST.w	[r0+#5],r5
.LM797:
	ST.w	[r0+#6],r5
.LM798:
	JMP	lr
	.cfi_endproc
.LFE89:
	.size	ECCP_PWM_Struct_Init, .-ECCP_PWM_Struct_Init
	.section .text$ECCP_Capture_Mode_Config
	.type	.text$ECCP_Capture_Mode_Config$scode_local_90, @function
	.text$ECCP_Capture_Mode_Config$scode_local_90:
	.align	1
	.export	ECCP_Capture_Mode_Config
	.type	ECCP_Capture_Mode_Config, @function
ECCP_Capture_Mode_Config:
.LFB90:
.LM799:
	.cfi_startproc
.LVL677:
	PUSH	{r6, r7, r8, r9, lr}
	.cfi_def_cfa_offset 20
	MOV	r7,r0
	MOV	r9,r1
	MOV	r6,r2
.LVL678:
.LM800:
	MOV	r0,#1
.LVL679:
	LD	r5,#1073742592
	CMP	r7,r5
	JZ	.L506
	MOV	r0,#0
.L506:
	LD	r5,#CHECK_RESTRICTION
	MOV	r8,r5
	LJMP	r5
.LVL680:
.LM801:
	MOV	r5,r9
	LSR	r5,#2
	MOV	r0,#1
	CMP	r5,#0
	JZ	.L507
	MOV	r0,#0
.L507:
	LJMP	r8
.LVL681:
.LM802:
	MOV	r0,#1
	CMP	r6,#0
	JZ	.L508
.LM803:
	CMP	r6,#5
	JZ	.L508
.LM804:
	CMP	r6,#4
	JZ	.L508
	CMP	r6,#6
	JZ	.L508
	CMP	r6,#7
	JZ	.L508
	MOV	r0,#0
.L508:
.LM805:
	LJMP	r8
.LVL682:
.LM806:
	LSL	r9,#2
.LVL683:
.LM807:
	MOV	r5,#128
	LD.w	r3,[r7+r5]
.LVL684:
.LM808:
	MOV	r4,#15
	LSL	r4,r9
.LM809:
	NOT	r4,r4
.LVL685:
.LBB288:
.LBB289:
.LM810:
	ANL	r4,r4,r3
.LVL686:
.LBE289:
.LBE288:
.LM811:
	LSL	r6,r9
.LVL687:
.LBB291:
.LBB290:
.LM812:
	ORL	r4,r4,r6
.LBE290:
.LBE291:
.LM813:
	ST.w	[r7+r5],r4
.LM814:
	POP	{r6, r7, r8, r9}
	.cfi_def_cfa_offset 4
.LVL688:
	POP	lr
	.cfi_def_cfa_offset 0
	JMP	lr
	.cfi_endproc
.LFE90:
	.size	ECCP_Capture_Mode_Config, .-ECCP_Capture_Mode_Config
	.section .text$ECCP_Compare_Mode_Config
	.type	.text$ECCP_Compare_Mode_Config$scode_local_91, @function
	.text$ECCP_Compare_Mode_Config$scode_local_91:
	.align	1
	.export	ECCP_Compare_Mode_Config
	.type	ECCP_Compare_Mode_Config, @function
ECCP_Compare_Mode_Config:
.LFB91:
.LM815:
	.cfi_startproc
.LVL689:
	PUSH	{r6, r7, r8, r9, lr}
	.cfi_def_cfa_offset 20
	MOV	r7,r0
	MOV	r9,r1
	MOV	r6,r2
.LVL690:
.LM816:
	MOV	r0,#1
.LVL691:
	LD	r5,#1073742592
	CMP	r7,r5
	JZ	.L525
	MOV	r0,#0
.L525:
	LD	r5,#CHECK_RESTRICTION
	MOV	r8,r5
	LJMP	r5
.LVL692:
.LM817:
	MOV	r5,r9
	LSR	r5,#2
	MOV	r0,#1
	CMP	r5,#0
	JZ	.L526
	MOV	r0,#0
.L526:
	LJMP	r8
.LVL693:
.LM818:
	MOV	r0,#1
	CMP	r6,#0
	JZ	.L527
.LM819:
	CMP	r6,#2
	JZ	.L527
.LM820:
	CMP	r6,#8
	JZ	.L527
	CMP	r6,#9
	JZ	.L527
	CMP	r6,#10
	JZ	.L527
	CMP	r6,#11
	JZ	.L527
	MOV	r0,#0
.L527:
.LM821:
	LJMP	r8
.LVL694:
.LM822:
	LSL	r9,#2
.LVL695:
.LM823:
	MOV	r5,#128
	LD.w	r3,[r7+r5]
.LVL696:
.LM824:
	MOV	r4,#15
	LSL	r4,r9
.LM825:
	NOT	r4,r4
.LVL697:
.LBB292:
.LBB293:
.LM826:
	ANL	r4,r4,r3
.LVL698:
.LBE293:
.LBE292:
.LM827:
	LSL	r6,r9
.LVL699:
.LBB295:
.LBB294:
.LM828:
	ORL	r4,r4,r6
.LBE294:
.LBE295:
.LM829:
	ST.w	[r7+r5],r4
.LM830:
	POP	{r6, r7, r8, r9}
	.cfi_def_cfa_offset 4
.LVL700:
	POP	lr
	.cfi_def_cfa_offset 0
	JMP	lr
	.cfi_endproc
.LFE91:
	.size	ECCP_Compare_Mode_Config, .-ECCP_Compare_Mode_Config
	.section .text$ECCP_PWM_Mode_Config
	.type	.text$ECCP_PWM_Mode_Config$scode_local_92, @function
	.text$ECCP_PWM_Mode_Config$scode_local_92:
	.align	1
	.export	ECCP_PWM_Mode_Config
	.type	ECCP_PWM_Mode_Config, @function
ECCP_PWM_Mode_Config:
.LFB92:
.LM831:
	.cfi_startproc
.LVL701:
	PUSH	{r6, r7, r8, lr}
	.cfi_def_cfa_offset 16
	MOV	r7,r0
	MOV	r6,r1
.LVL702:
.LM832:
	MOV	r0,#1
.LVL703:
	LD	r5,#1073742592
	CMP	r7,r5
	JZ	.L546
	MOV	r0,#0
.L546:
	LD	r5,#CHECK_RESTRICTION
	MOV	r8,r5
	LJMP	r5
.LVL704:
.LM833:
	MOV	r0,#1
	CMP	r6,#0
	JZ	.L547
.LM834:
	CMP	r6,#12
	JZ	.L547
.LM835:
	CMP	r6,#13
	JZ	.L547
	CMP	r6,#14
	JZ	.L547
	MOV	r0,#0
.L547:
.LM836:
	LJMP	r8
.LVL705:
.LM837:
	MOV	r5,#128
	LD.w	r3,[r7+r5]
.LVL706:
.LBB296:
.LBB297:
.LM838:
	MOV	r4,#15
	NOT	r4,r4
	ANL	r4,r3,r4
	ORL	r6,r6,r4
.LVL707:
.LBE297:
.LBE296:
.LM839:
	ST.w	[r7+r5],r6
.LM840:
	POP	{r6, r7, r8}
	.cfi_def_cfa_offset 4
.LVL708:
	POP	lr
	.cfi_def_cfa_offset 0
	JMP	lr
	.cfi_endproc
.LFE92:
	.size	ECCP_PWM_Mode_Config, .-ECCP_PWM_Mode_Config
	.section .text$ECCP_Get_Capture_Result
	.type	.text$ECCP_Get_Capture_Result$scode_local_93, @function
	.text$ECCP_Get_Capture_Result$scode_local_93:
	.align	1
	.export	ECCP_Get_Capture_Result
	.type	ECCP_Get_Capture_Result, @function
ECCP_Get_Capture_Result:
.LFB93:
.LM841:
	.cfi_startproc
.LVL709:
	PUSH	{r6, r7, r8, lr}
	.cfi_def_cfa_offset 16
	MOV	r7,r0
	MOV	r6,r1
.LVL710:
.LM842:
	MOV	r0,#1
.LVL711:
	LD	r5,#1073742592
	CMP	r7,r5
	JZ	.L559
	MOV	r0,#0
.L559:
	LD	r4,#CHECK_RESTRICTION
	MOV	r8,r4
	LJMP	r4
.LVL712:
.LM843:
	MOV	r4,#2
	LSR	r5,r6,r4
	MOV	r0,#1
	CMP	r5,#0
	JZ	.L560
	MOV	r0,#0
.L560:
	LJMP	r8
.LVL713:
.LM844:
	MOV	r5,#208
	ADD	r7,r7,r5
.LVL714:
	LSL	r6,#2
.LVL715:
.LM845:
	LD.h	r0,[r7+r6]
.LM846:
	ZXT.h	r0,r0
	POP	{r6, r7, r8}
	.cfi_def_cfa_offset 4
.LVL716:
	POP	lr
	.cfi_def_cfa_offset 0
	JMP	lr
	.cfi_endproc
.LFE93:
	.size	ECCP_Get_Capture_Result, .-ECCP_Get_Capture_Result
	.section .text$ECCP_Get_Compare_Result
	.type	.text$ECCP_Get_Compare_Result$scode_local_94, @function
	.text$ECCP_Get_Compare_Result$scode_local_94:
	.align	1
	.export	ECCP_Get_Compare_Result
	.type	ECCP_Get_Compare_Result, @function
ECCP_Get_Compare_Result:
.LFB94:
.LM847:
	.cfi_startproc
.LVL717:
	PUSH	{r6, r7, r8, lr}
	.cfi_def_cfa_offset 16
	MOV	r7,r0
	MOV	r6,r1
.LVL718:
.LM848:
	MOV	r0,#1
.LVL719:
	LD	r5,#1073742592
	CMP	r7,r5
	JZ	.L565
	MOV	r0,#0
.L565:
	LD	r4,#CHECK_RESTRICTION
	MOV	r8,r4
	LJMP	r4
.LVL720:
.LM849:
	MOV	r4,#2
	LSR	r5,r6,r4
	MOV	r0,#1
	CMP	r5,#0
	JZ	.L566
	MOV	r0,#0
.L566:
	LJMP	r8
.LVL721:
.LM850:
	MOV	r5,#132
	ADD	r7,r7,r5
.LVL722:
	LSL	r6,#2
.LVL723:
.LM851:
	LD.h	r0,[r7+r6]
.LM852:
	ZXT.h	r0,r0
	POP	{r6, r7, r8}
	.cfi_def_cfa_offset 4
.LVL724:
	POP	lr
	.cfi_def_cfa_offset 0
	JMP	lr
	.cfi_endproc
.LFE94:
	.size	ECCP_Get_Compare_Result, .-ECCP_Get_Compare_Result
	.section .text$ECCP_Set_Compare_Result
	.type	.text$ECCP_Set_Compare_Result$scode_local_95, @function
	.text$ECCP_Set_Compare_Result$scode_local_95:
	.align	1
	.export	ECCP_Set_Compare_Result
	.type	ECCP_Set_Compare_Result, @function
ECCP_Set_Compare_Result:
.LFB95:
.LM853:
	.cfi_startproc
.LVL725:
	PUSH	{r6, r7, r8, r9, lr}
	.cfi_def_cfa_offset 20
	MOV	r7,r0
	MOV	r6,r1
	ZXT.h	r9,r2
.LVL726:
.LM854:
	MOV	r0,#1
.LVL727:
	LD	r5,#1073742592
	CMP	r7,r5
	JZ	.L571
	MOV	r0,#0
.L571:
	LD	r4,#CHECK_RESTRICTION
	MOV	r8,r4
	LJMP	r4
.LVL728:
.LM855:
	MOV	r4,#2
	LSR	r5,r6,r4
	MOV	r0,#1
	CMP	r5,#0
	JZ	.L572
	MOV	r0,#0
.L572:
	LJMP	r8
.LVL729:
.LM856:
	MOV	r5,#132
	ADD	r7,r7,r5
.LVL730:
	LSL	r6,#2
.LVL731:
.LM857:
	//++++
	PUSH r7
	ADD r7,r6 
	ST.W [r7],r9
	POP r7
	//replace_ST.x [r7+r6],r9
.LM858:
	POP	{r6, r7, r8, r9}
	.cfi_def_cfa_offset 4
.LVL732:
	POP	lr
	.cfi_def_cfa_offset 0
	JMP	lr
	.cfi_endproc
.LFE95:
	.size	ECCP_Set_Compare_Result, .-ECCP_Set_Compare_Result
	.section .text$ECCP_Generate_Trigger_Config
	.type	.text$ECCP_Generate_Trigger_Config$scode_local_96, @function
	.text$ECCP_Generate_Trigger_Config$scode_local_96:
	.align	1
	.export	ECCP_Generate_Trigger_Config
	.type	ECCP_Generate_Trigger_Config, @function
ECCP_Generate_Trigger_Config:
.LFB96:
.LM859:
	.cfi_startproc
.LVL733:
	PUSH	{r6, r7, r8, r9, lr}
	.cfi_def_cfa_offset 20
	MOV	r6,r0
	MOV	r8,r1
	MOV	r9,r2
.LM860:
	MOV	r0,#1
.LVL734:
	LD	r5,#1073742592
	CMP	r6,r5
	JZ	.L577
	MOV	r0,#0
.L577:
	LD	r7,#CHECK_RESTRICTION
	LJMP	r7
.LVL735:
.LM861:
	MOV	r5,r8
	LSR	r5,#2
	MOV	r0,#1
	CMP	r5,#0
	JZ	.L578
	MOV	r0,#0
.L578:
	LJMP	r7
.LVL736:
.LM862:
	MOV	r0,#1
	CMP	r9,r0
	JLS	.L579
	MOV	r0,#0
.L579:
	LJMP	r7
.LVL737:
.LM863:
	MOV	r5,#192
	LD.w	r4,[r6+r5]
	MOV	r3,#2
	LSL	r3,r8
	MOV	r8,r3
.LVL738:
.LM864:
	CMP	r9,#0
	JNZ	.L585
.LM865:
	NOT	r8,r3
	ANL	r8,r4
	//++++
	PUSH r6
	ADD r6,r5 
	ST.W [r6],r8
	POP r6
	//replace_ST.x [r6+r5],r8
.LM866:
	POP	{r6, r7, r8, r9}
	.cfi_remember_state
	.cfi_def_cfa_offset 4
.LVL739:
	POP	lr
	.cfi_def_cfa_offset 0
	JMP	lr
.LVL740:
.L585:
	.cfi_restore_state
.LM867:
	ORL	r8,r4
	//++++
	PUSH r6
	ADD r6,r5 
	ST.W [r6],r8
	POP r6
	//replace_ST.x [r6+r5],r8
.LM868:
	POP	{r6, r7, r8, r9}
	.cfi_def_cfa_offset 4
.LVL741:
	POP	lr
	.cfi_def_cfa_offset 0
	JMP	lr
	.cfi_endproc
.LFE96:
	.size	ECCP_Generate_Trigger_Config, .-ECCP_Generate_Trigger_Config
	.section .text$ECCP_PWM_Input_Enable
	.type	.text$ECCP_PWM_Input_Enable$scode_local_97, @function
	.text$ECCP_PWM_Input_Enable$scode_local_97:
	.align	1
	.export	ECCP_PWM_Input_Enable
	.type	ECCP_PWM_Input_Enable, @function
ECCP_PWM_Input_Enable:
.LFB97:
.LM869:
	.cfi_startproc
.LVL742:
	PUSH	{r6, r7, r8, lr}
	.cfi_def_cfa_offset 16
	MOV	r6,r0
	MOV	r7,r1
.LM870:
	MOV	r0,#1
.LVL743:
	LD	r5,#1073742592
	CMP	r6,r5
	JZ	.L587
	MOV	r0,#0
.L587:
	LD	r5,#CHECK_RESTRICTION
	MOV	r8,r5
	LJMP	r5
.LVL744:
.LM871:
	MOV	r0,#1
	CMP	r7,r0
	JLS	.L588
	MOV	r0,#0
.L588:
	LJMP	r8
.LVL745:
.LM872:
	MOV	r5,#152
	ADD	r6,r6,r5
.LVL746:
.LM873:
	CMP	r7,#0
	JNZ	.L591
.LM874:
// inline asm begin
	// 2664 "../src/kf32a9k1xxx_atim.c" 1
	CLR [r6], #12
	// 0 "" 2
.LM875:
// inline asm end
	POP	{r6, r7, r8}
	.cfi_remember_state
	.cfi_def_cfa_offset 4
.LVL747:
	POP	lr
	.cfi_def_cfa_offset 0
	JMP	lr
.LVL748:
.L591:
	.cfi_restore_state
.LM876:
// inline asm begin
	// 2659 "../src/kf32a9k1xxx_atim.c" 1
	SET [r6], #12
	// 0 "" 2
.LM877:
// inline asm end
	POP	{r6, r7, r8}
	.cfi_def_cfa_offset 4
.LVL749:
	POP	lr
	.cfi_def_cfa_offset 0
	JMP	lr
	.cfi_endproc
.LFE97:
	.size	ECCP_PWM_Input_Enable, .-ECCP_PWM_Input_Enable
	.section .text$ECCP_Input_XOR_Enable
	.type	.text$ECCP_Input_XOR_Enable$scode_local_98, @function
	.text$ECCP_Input_XOR_Enable$scode_local_98:
	.align	1
	.export	ECCP_Input_XOR_Enable
	.type	ECCP_Input_XOR_Enable, @function
ECCP_Input_XOR_Enable:
.LFB98:
.LM878:
	.cfi_startproc
.LVL750:
	PUSH	{r6, r7, r8, lr}
	.cfi_def_cfa_offset 16
	MOV	r6,r0
	MOV	r7,r1
.LM879:
	MOV	r0,#1
.LVL751:
	LD	r5,#1073742592
	CMP	r6,r5
	JZ	.L593
	MOV	r0,#0
.L593:
	LD	r5,#CHECK_RESTRICTION
	MOV	r8,r5
	LJMP	r5
.LVL752:
.LM880:
	MOV	r0,#1
	CMP	r7,r0
	JLS	.L594
	MOV	r0,#0
.L594:
	LJMP	r8
.LVL753:
.LM881:
	MOV	r5,#152
	ADD	r6,r6,r5
.LVL754:
.LM882:
	CMP	r7,#0
	JNZ	.L597
.LM883:
// inline asm begin
	// 2692 "../src/kf32a9k1xxx_atim.c" 1
	CLR [r6], #11
	// 0 "" 2
.LM884:
// inline asm end
	POP	{r6, r7, r8}
	.cfi_remember_state
	.cfi_def_cfa_offset 4
.LVL755:
	POP	lr
	.cfi_def_cfa_offset 0
	JMP	lr
.LVL756:
.L597:
	.cfi_restore_state
.LM885:
// inline asm begin
	// 2687 "../src/kf32a9k1xxx_atim.c" 1
	SET [r6], #11
	// 0 "" 2
.LM886:
// inline asm end
	POP	{r6, r7, r8}
	.cfi_def_cfa_offset 4
.LVL757:
	POP	lr
	.cfi_def_cfa_offset 0
	JMP	lr
	.cfi_endproc
.LFE98:
	.size	ECCP_Input_XOR_Enable, .-ECCP_Input_XOR_Enable
	.section .text$ECCP_Single_Pulse_Enable
	.type	.text$ECCP_Single_Pulse_Enable$scode_local_99, @function
	.text$ECCP_Single_Pulse_Enable$scode_local_99:
	.align	1
	.export	ECCP_Single_Pulse_Enable
	.type	ECCP_Single_Pulse_Enable, @function
ECCP_Single_Pulse_Enable:
.LFB99:
.LM887:
	.cfi_startproc
.LVL758:
	PUSH	{r6, r7, r8, lr}
	.cfi_def_cfa_offset 16
	MOV	r6,r0
	MOV	r7,r1
.LM888:
	MOV	r0,#1
.LVL759:
	LD	r5,#1073742592
	CMP	r6,r5
	JZ	.L599
	MOV	r0,#0
.L599:
	LD	r5,#CHECK_RESTRICTION
	MOV	r8,r5
	LJMP	r5
.LVL760:
.LM889:
	MOV	r0,#1
	CMP	r7,r0
	JLS	.L600
	MOV	r0,#0
.L600:
	LJMP	r8
.LVL761:
.LM890:
	MOV	r5,#152
	ADD	r6,r6,r5
.LVL762:
.LM891:
	CMP	r7,#0
	JNZ	.L603
.LM892:
// inline asm begin
	// 2720 "../src/kf32a9k1xxx_atim.c" 1
	CLR [r6], #10
	// 0 "" 2
.LM893:
// inline asm end
	POP	{r6, r7, r8}
	.cfi_remember_state
	.cfi_def_cfa_offset 4
.LVL763:
	POP	lr
	.cfi_def_cfa_offset 0
	JMP	lr
.LVL764:
.L603:
	.cfi_restore_state
.LM894:
// inline asm begin
	// 2715 "../src/kf32a9k1xxx_atim.c" 1
	SET [r6], #10
	// 0 "" 2
.LM895:
// inline asm end
	POP	{r6, r7, r8}
	.cfi_def_cfa_offset 4
.LVL765:
	POP	lr
	.cfi_def_cfa_offset 0
	JMP	lr
	.cfi_endproc
.LFE99:
	.size	ECCP_Single_Pulse_Enable, .-ECCP_Single_Pulse_Enable
	.section .text$ECCP_Single_Pulse_Shut_Enable
	.type	.text$ECCP_Single_Pulse_Shut_Enable$scode_local_100, @function
	.text$ECCP_Single_Pulse_Shut_Enable$scode_local_100:
	.align	1
	.export	ECCP_Single_Pulse_Shut_Enable
	.type	ECCP_Single_Pulse_Shut_Enable, @function
ECCP_Single_Pulse_Shut_Enable:
.LFB100:
.LM896:
	.cfi_startproc
.LVL766:
	PUSH	{r6, r7, r8, lr}
	.cfi_def_cfa_offset 16
	MOV	r6,r0
	MOV	r7,r1
.LM897:
	MOV	r0,#1
.LVL767:
	LD	r5,#1073742592
	CMP	r6,r5
	JZ	.L605
	MOV	r0,#0
.L605:
	LD	r5,#CHECK_RESTRICTION
	MOV	r8,r5
	LJMP	r5
.LVL768:
.LM898:
	MOV	r0,#1
	CMP	r7,r0
	JLS	.L606
	MOV	r0,#0
.L606:
	LJMP	r8
.LVL769:
.LM899:
	MOV	r5,#236
	ADD	r6,r6,r5
.LVL770:
.LM900:
	CMP	r7,#0
	JNZ	.L609
.LM901:
// inline asm begin
	// 2748 "../src/kf32a9k1xxx_atim.c" 1
	CLR [r6], #0
	// 0 "" 2
.LM902:
// inline asm end
	POP	{r6, r7, r8}
	.cfi_remember_state
	.cfi_def_cfa_offset 4
.LVL771:
	POP	lr
	.cfi_def_cfa_offset 0
	JMP	lr
.LVL772:
.L609:
	.cfi_restore_state
.LM903:
// inline asm begin
	// 2743 "../src/kf32a9k1xxx_atim.c" 1
	SET [r6], #0
	// 0 "" 2
.LM904:
// inline asm end
	POP	{r6, r7, r8}
	.cfi_def_cfa_offset 4
.LVL773:
	POP	lr
	.cfi_def_cfa_offset 0
	JMP	lr
	.cfi_endproc
.LFE100:
	.size	ECCP_Single_Pulse_Shut_Enable, .-ECCP_Single_Pulse_Shut_Enable
	.section .text$ECCP_PWM_Restart_Enable
	.type	.text$ECCP_PWM_Restart_Enable$scode_local_101, @function
	.text$ECCP_PWM_Restart_Enable$scode_local_101:
	.align	1
	.export	ECCP_PWM_Restart_Enable
	.type	ECCP_PWM_Restart_Enable, @function
ECCP_PWM_Restart_Enable:
.LFB101:
.LM905:
	.cfi_startproc
.LVL774:
	PUSH	{r6, r7, r8, lr}
	.cfi_def_cfa_offset 16
	MOV	r6,r0
	MOV	r7,r1
.LM906:
	MOV	r0,#1
.LVL775:
	LD	r5,#1073742592
	CMP	r6,r5
	JZ	.L611
	MOV	r0,#0
.L611:
	LD	r5,#CHECK_RESTRICTION
	MOV	r8,r5
	LJMP	r5
.LVL776:
.LM907:
	MOV	r0,#1
	CMP	r7,r0
	JLS	.L612
	MOV	r0,#0
.L612:
	LJMP	r8
.LVL777:
.LM908:
	MOV	r5,#236
	ADD	r6,r6,r5
.LVL778:
.LM909:
	CMP	r7,#0
	JNZ	.L615
.LM910:
// inline asm begin
	// 2776 "../src/kf32a9k1xxx_atim.c" 1
	CLR [r6], #2
	// 0 "" 2
.LM911:
// inline asm end
	POP	{r6, r7, r8}
	.cfi_remember_state
	.cfi_def_cfa_offset 4
.LVL779:
	POP	lr
	.cfi_def_cfa_offset 0
	JMP	lr
.LVL780:
.L615:
	.cfi_restore_state
.LM912:
// inline asm begin
	// 2771 "../src/kf32a9k1xxx_atim.c" 1
	SET [r6], #2
	// 0 "" 2
.LM913:
// inline asm end
	POP	{r6, r7, r8}
	.cfi_def_cfa_offset 4
.LVL781:
	POP	lr
	.cfi_def_cfa_offset 0
	JMP	lr
	.cfi_endproc
.LFE101:
	.size	ECCP_PWM_Restart_Enable, .-ECCP_PWM_Restart_Enable
	.section .text$ECCP_Dead_Time_Config
	.type	.text$ECCP_Dead_Time_Config$scode_local_102, @function
	.text$ECCP_Dead_Time_Config$scode_local_102:
	.align	1
	.export	ECCP_Dead_Time_Config
	.type	ECCP_Dead_Time_Config, @function
ECCP_Dead_Time_Config:
.LFB102:
.LM914:
	.cfi_startproc
.LVL782:
	PUSH	{r6, r7, r8, r9, lr}
	.cfi_def_cfa_offset 20
	MOV	r6,r0
	MOV	r7,r1
	ZXT.b	r9,r2
.LVL783:
.LM915:
	MOV	r0,#1
.LVL784:
	LD	r5,#1073742592
	CMP	r6,r5
	JZ	.L617
	MOV	r0,#0
.L617:
	LD	r4,#CHECK_RESTRICTION
	MOV	r8,r4
	LJMP	r4
.LVL785:
.LM916:
	MOV	r4,#2
	LSR	r5,r7,r4
	MOV	r0,#1
	CMP	r5,#0
	JZ	.L618
	MOV	r0,#0
.L618:
	LJMP	r8
.LVL786:
.LM917:
	MOV	r5,#156
	LD.w	r3,[r6+r5]
.LM918:
	CMP	r7,#3
	JZ	.L624
.LVL787:
.LBB298:
.LBB299:
.LM919:
	MOV	r4,#255
	NOT	r4,r4
	ANL	r4,r3,r4
	ORL	r9,r4
.LVL788:
.LBE299:
.LBE298:
.LM920:
	//++++
	PUSH r6
	ADD r6,r5 
	ST.W [r6],r9
	POP r6
	//replace_ST.x [r6+r5],r9
.LM921:
	POP	{r6, r7, r8, r9}
	.cfi_remember_state
	.cfi_def_cfa_offset 4
.LVL789:
	POP	lr
	.cfi_def_cfa_offset 0
	JMP	lr
.LVL790:
.L624:
	.cfi_restore_state
.LM922:
	LSL	r9,#8
.LVL791:
.LBB300:
.LBB301:
.LM923:
	LD	r4,#-65281
	ANL	r4,r3,r4
	ORL	r9,r4
.LBE301:
.LBE300:
.LM924:
	//++++
	PUSH r6
	ADD r6,r5 
	ST.W [r6],r9
	POP r6
	//replace_ST.x [r6+r5],r9
.LM925:
	POP	{r6, r7, r8, r9}
	.cfi_def_cfa_offset 4
.LVL792:
	POP	lr
	.cfi_def_cfa_offset 0
	JMP	lr
	.cfi_endproc
.LFE102:
	.size	ECCP_Dead_Time_Config, .-ECCP_Dead_Time_Config
	.section .text$ECCP_Channel_Output_Control
	.type	.text$ECCP_Channel_Output_Control$scode_local_103, @function
	.text$ECCP_Channel_Output_Control$scode_local_103:
	.align	1
	.export	ECCP_Channel_Output_Control
	.type	ECCP_Channel_Output_Control, @function
ECCP_Channel_Output_Control:
.LFB103:
.LM926:
	.cfi_startproc
.LVL793:
	PUSH	{r6, r7, r8, r9, r10, lr}
	.cfi_def_cfa_offset 24
	MOV	r7,r0
	MOV	r10,r1
	MOV	r8,r2
	MOV	r9,r3
.LVL794:
.LM927:
	MOV	r0,#1
.LVL795:
	LD	r5,#1073742592
	CMP	r7,r5
	JZ	.L626
	MOV	r0,#0
.L626:
	LD	r6,#CHECK_RESTRICTION
	LJMP	r6
.LVL796:
.LM928:
	MOV	r5,r10
	LSR	r5,#2
	MOV	r0,#1
	CMP	r5,#0
	JZ	.L627
	MOV	r0,#0
.L627:
	LJMP	r6
.LVL797:
.LM929:
	MOV	r0,#1
	CMP	r8,#0
	JZ	.L628
.LM930:
	CMP	r8,#2
	JZ	.L628
	MOV	r0,#0
.L628:
.LM931:
	LJMP	r6
.LVL798:
.LM932:
	MOV	r5,r9
	LSR	r5,#2
	MOV	r0,#1
	CMP	r5,#0
	JZ	.L630
	MOV	r0,#0
.L630:
	LJMP	r6
.LVL799:
.LM933:
	LSL	r10,#2
.LVL800:
	ADD	r8,r10
.LVL801:
.LM934:
	MOV	r5,#160
	LD.w	r4,[r7+r5]
.LVL802:
.LM935:
	MOV	r10,#3
	LSL	r10,r8
.LM936:
	NOT	r10,r10
.LVL803:
.LBB302:
.LBB303:
.LM937:
	ANL	r10,r4
.LVL804:
.LBE303:
.LBE302:
.LM938:
	MOV	r4,r9
.LVL805:
	LSL	r4,r8
.LVL806:
	MOV	r8,r4
.LVL807:
.LBB305:
.LBB304:
.LM939:
	MOV	r4,r10
.LVL808:
	ORL	r4,r8
.LBE304:
.LBE305:
.LM940:
	ST.w	[r7+r5],r4
.LM941:
	POP	{r6, r7, r8, r9, r10}
	.cfi_def_cfa_offset 4
.LVL809:
	POP	lr
	.cfi_def_cfa_offset 0
	JMP	lr
	.cfi_endproc
.LFE103:
	.size	ECCP_Channel_Output_Control, .-ECCP_Channel_Output_Control
	.section .text$ECCP_Channel_Output_Mode
	.type	.text$ECCP_Channel_Output_Mode$scode_local_104, @function
	.text$ECCP_Channel_Output_Mode$scode_local_104:
	.align	1
	.export	ECCP_Channel_Output_Mode
	.type	ECCP_Channel_Output_Mode, @function
ECCP_Channel_Output_Mode:
.LFB104:
.LM942:
	.cfi_startproc
.LVL810:
	PUSH	{r6, r7, r8, r9, lr}
	.cfi_def_cfa_offset 20
	MOV	r6,r0
	MOV	r7,r1
	MOV	r9,r2
.LVL811:
.LM943:
	MOV	r0,#1
.LVL812:
	LD	r5,#1073742592
	CMP	r6,r5
	JZ	.L643
	MOV	r0,#0
.L643:
	LD	r4,#CHECK_RESTRICTION
	MOV	r8,r4
	LJMP	r4
.LVL813:
.LM944:
	MOV	r4,#2
	LSR	r5,r7,r4
	MOV	r0,#1
	CMP	r5,#0
	JZ	.L644
	MOV	r0,#0
.L644:
	LJMP	r8
.LVL814:
.LM945:
	MOV	r0,#1
	CMP	r9,r0
	JLS	.L645
	MOV	r0,#0
.L645:
	LJMP	r8
.LVL815:
.LM946:
	MOV	r5,#164
	LD.w	r3,[r6+r5]
.LVL816:
.LM947:
	MOV	r4,#255
	ADD	r4,r4,#1
	LSL	r4,r4,r7
.LM948:
	NOT	r4,r4
.LBB306:
.LBB307:
.LM949:
	ANL	r4,r4,r3
.LBE307:
.LBE306:
.LM950:
	ADD	r7,#8
.LVL817:
	LSL	r9,r7
.LVL818:
.LBB309:
.LBB308:
.LM951:
	ORL	r4,r9
.LBE308:
.LBE309:
.LM952:
	ST.w	[r6+r5],r4
.LM953:
	POP	{r6, r7, r8, r9}
	.cfi_def_cfa_offset 4
.LVL819:
	POP	lr
	.cfi_def_cfa_offset 0
	JMP	lr
	.cfi_endproc
.LFE104:
	.size	ECCP_Channel_Output_Mode, .-ECCP_Channel_Output_Mode
	.section .text$ECCP_Channel_Work_State_Config
	.type	.text$ECCP_Channel_Work_State_Config$scode_local_105, @function
	.text$ECCP_Channel_Work_State_Config$scode_local_105:
	.align	1
	.export	ECCP_Channel_Work_State_Config
	.type	ECCP_Channel_Work_State_Config, @function
ECCP_Channel_Work_State_Config:
.LFB105:
.LM954:
	.cfi_startproc
.LVL820:
	PUSH	{r6, r7, r8, r9, lr}
	.cfi_def_cfa_offset 20
	MOV	r6,r0
	MOV	r7,r1
	MOV	r9,r2
.LVL821:
.LM955:
	MOV	r0,#1
.LVL822:
	LD	r5,#1073742592
	CMP	r6,r5
	JZ	.L650
	MOV	r0,#0
.L650:
	LD	r4,#CHECK_RESTRICTION
	MOV	r8,r4
	LJMP	r4
.LVL823:
.LM956:
	MOV	r4,#2
	LSR	r5,r7,r4
	MOV	r0,#1
	CMP	r5,#0
	JZ	.L651
	MOV	r0,#0
.L651:
	LJMP	r8
.LVL824:
.LM957:
	MOV	r0,#1
	CMP	r9,r0
	JLS	.L652
	MOV	r0,#0
.L652:
	LJMP	r8
.LVL825:
.LM958:
	MOV	r5,#168
	LD.w	r3,[r6+r5]
.LVL826:
.LM959:
	MOV	r4,#255
	ADD	r4,r4,#1
	LSL	r4,r4,r7
.LM960:
	NOT	r4,r4
.LBB310:
.LBB311:
.LM961:
	ANL	r4,r4,r3
.LBE311:
.LBE310:
.LM962:
	ADD	r7,#8
.LVL827:
	LSL	r9,r7
.LVL828:
.LBB313:
.LBB312:
.LM963:
	ORL	r4,r9
.LBE312:
.LBE313:
.LM964:
	ST.w	[r6+r5],r4
.LM965:
	POP	{r6, r7, r8, r9}
	.cfi_def_cfa_offset 4
.LVL829:
	POP	lr
	.cfi_def_cfa_offset 0
	JMP	lr
	.cfi_endproc
.LFE105:
	.size	ECCP_Channel_Work_State_Config, .-ECCP_Channel_Work_State_Config
	.section .text$ECCP_Get_Channel_Work_State
	.type	.text$ECCP_Get_Channel_Work_State$scode_local_106, @function
	.text$ECCP_Get_Channel_Work_State$scode_local_106:
	.align	1
	.export	ECCP_Get_Channel_Work_State
	.type	ECCP_Get_Channel_Work_State, @function
ECCP_Get_Channel_Work_State:
.LFB106:
.LM966:
	.cfi_startproc
.LVL830:
	PUSH	{r6, r7, r8, lr}
	.cfi_def_cfa_offset 16
	MOV	r7,r0
	MOV	r6,r1
.LVL831:
.LM967:
	MOV	r0,#1
.LVL832:
	LD	r5,#1073742592
	CMP	r7,r5
	JZ	.L657
	MOV	r0,#0
.L657:
	LD	r4,#CHECK_RESTRICTION
	MOV	r8,r4
	LJMP	r4
.LVL833:
.LM968:
	MOV	r4,#2
	LSR	r5,r6,r4
	MOV	r0,#1
	CMP	r5,#0
	JZ	.L658
	MOV	r0,#0
.L658:
	LJMP	r8
.LVL834:
.LM969:
	MOV	r5,#168
	LD.w	r5,[r7+r5]
.LM970:
	MOV	r4,#255
	ADD	r4,r4,#1
	LSL	r6,r4,r6
.LVL835:
.LM971:
	ANL	r6,r6,r5
	MOV	r5,#0
	SUB	r5,r5,r6
	ORL	r0,r5,r6
.LM972:
	LSR	r0,#31
	POP	{r6, r7, r8}
	.cfi_def_cfa_offset 4
.LVL836:
	POP	lr
	.cfi_def_cfa_offset 0
	JMP	lr
	.cfi_endproc
.LFE106:
	.size	ECCP_Get_Channel_Work_State, .-ECCP_Get_Channel_Work_State
	.section .text$ECCP_TZ_Showdown_SEL
	.type	.text$ECCP_TZ_Showdown_SEL$scode_local_107, @function
	.text$ECCP_TZ_Showdown_SEL$scode_local_107:
	.align	1
	.export	ECCP_TZ_Showdown_SEL
	.type	ECCP_TZ_Showdown_SEL, @function
ECCP_TZ_Showdown_SEL:
.LFB107:
.LM973:
	.cfi_startproc
.LVL837:
	PUSH	{r6, r7, r8, lr}
	.cfi_def_cfa_offset 16
	MOV	r6,r0
	MOV	r7,r1
.LVL838:
.LM974:
	MOV	r0,#1
.LVL839:
	LD	r5,#1073742592
	CMP	r6,r5
	JZ	.L663
	MOV	r0,#0
.L663:
	LD	r4,#CHECK_RESTRICTION
	MOV	r8,r4
	LJMP	r4
.LVL840:
.LM975:
	MOV	r4,#1
	LSR	r5,r7,r4
	MOV	r0,r4
	CMP	r5,#0
	JZ	.L664
	MOV	r0,#0
.L664:
	LJMP	r8
.LVL841:
.LM976:
	ADD	r6,#48
.LVL842:
.LM977:
	CMP	r7,#0
	JNZ	.L670
.LM978:
// inline asm begin
	// 2981 "../src/kf32a9k1xxx_atim.c" 1
	CLR [r6], #5
	// 0 "" 2
.LM979:
// inline asm end
	POP	{r6, r7, r8}
	.cfi_remember_state
	.cfi_def_cfa_offset 4
.LVL843:
	POP	lr
	.cfi_def_cfa_offset 0
	JMP	lr
.LVL844:
.L670:
	.cfi_restore_state
.LM980:
// inline asm begin
	// 2977 "../src/kf32a9k1xxx_atim.c" 1
	SET [r6], #5
	// 0 "" 2
.LM981:
// inline asm end
	POP	{r6, r7, r8}
	.cfi_def_cfa_offset 4
.LVL845:
	POP	lr
	.cfi_def_cfa_offset 0
	JMP	lr
	.cfi_endproc
.LFE107:
	.size	ECCP_TZ_Showdown_SEL, .-ECCP_TZ_Showdown_SEL
	.section .text$ECCP_TX_Showdown_SEL
	.type	.text$ECCP_TX_Showdown_SEL$scode_local_108, @function
	.text$ECCP_TX_Showdown_SEL$scode_local_108:
	.align	1
	.export	ECCP_TX_Showdown_SEL
	.type	ECCP_TX_Showdown_SEL, @function
ECCP_TX_Showdown_SEL:
.LFB108:
.LM982:
	.cfi_startproc
.LVL846:
	PUSH	{r6, r7, r8, lr}
	.cfi_def_cfa_offset 16
	MOV	r6,r0
	MOV	r7,r1
.LVL847:
.LM983:
	MOV	r0,#1
.LVL848:
	LD	r5,#1073742592
	CMP	r6,r5
	JZ	.L672
	MOV	r0,#0
.L672:
	LD	r4,#CHECK_RESTRICTION
	MOV	r8,r4
	LJMP	r4
.LVL849:
.LM984:
	MOV	r4,#1
	LSR	r5,r7,r4
	MOV	r0,r4
	CMP	r5,#0
	JZ	.L673
	MOV	r0,#0
.L673:
	LJMP	r8
.LVL850:
.LM985:
	ADD	r6,#48
.LVL851:
.LM986:
	CMP	r7,#0
	JNZ	.L679
.LM987:
// inline asm begin
	// 3010 "../src/kf32a9k1xxx_atim.c" 1
	CLR [r6], #4
	// 0 "" 2
.LM988:
// inline asm end
	POP	{r6, r7, r8}
	.cfi_remember_state
	.cfi_def_cfa_offset 4
.LVL852:
	POP	lr
	.cfi_def_cfa_offset 0
	JMP	lr
.LVL853:
.L679:
	.cfi_restore_state
.LM989:
// inline asm begin
	// 3006 "../src/kf32a9k1xxx_atim.c" 1
	SET [r6], #4
	// 0 "" 2
.LM990:
// inline asm end
	POP	{r6, r7, r8}
	.cfi_def_cfa_offset 4
.LVL854:
	POP	lr
	.cfi_def_cfa_offset 0
	JMP	lr
	.cfi_endproc
.LFE108:
	.size	ECCP_TX_Showdown_SEL, .-ECCP_TX_Showdown_SEL
	.section .text$ECCP_CHANNEL4_Shutdown_SEL
	.type	.text$ECCP_CHANNEL4_Shutdown_SEL$scode_local_109, @function
	.text$ECCP_CHANNEL4_Shutdown_SEL$scode_local_109:
	.align	1
	.export	ECCP_CHANNEL4_Shutdown_SEL
	.type	ECCP_CHANNEL4_Shutdown_SEL, @function
ECCP_CHANNEL4_Shutdown_SEL:
.LFB109:
.LM991:
	.cfi_startproc
.LVL855:
	PUSH	{r6, r7, r8, lr}
	.cfi_def_cfa_offset 16
	MOV	r6,r0
	MOV	r7,r1
.LVL856:
.LM992:
	MOV	r0,#1
.LVL857:
	LD	r5,#1073742592
	CMP	r6,r5
	JZ	.L681
	MOV	r0,#0
.L681:
	LD	r4,#CHECK_RESTRICTION
	MOV	r8,r4
	LJMP	r4
.LVL858:
.LM993:
	MOV	r4,#2
	LSR	r5,r7,r4
	MOV	r0,#1
	CMP	r5,#0
	JZ	.L682
	MOV	r0,#0
.L682:
	LJMP	r8
.LVL859:
.LM994:
	LD.w	r5,[r6+#12]
.LVL860:
.LM995:
	LSL	r7,#2
.LVL861:
.LBB314:
.LBB315:
.LM996:
	CLR	r5,#2
	CLR	r5,#3
.LVL862:
	ORL	r7,r7,r5
.LVL863:
.LBE315:
.LBE314:
.LM997:
	ST.w	[r6+#12],r7
.LM998:
	POP	{r6, r7, r8}
	.cfi_def_cfa_offset 4
	POP	lr
	.cfi_def_cfa_offset 0
	JMP	lr
	.cfi_endproc
.LFE109:
	.size	ECCP_CHANNEL4_Shutdown_SEL, .-ECCP_CHANNEL4_Shutdown_SEL
	.section .text$ECCP_CHANNEL123_Shutdown_SEL
	.type	.text$ECCP_CHANNEL123_Shutdown_SEL$scode_local_110, @function
	.text$ECCP_CHANNEL123_Shutdown_SEL$scode_local_110:
	.align	1
	.export	ECCP_CHANNEL123_Shutdown_SEL
	.type	ECCP_CHANNEL123_Shutdown_SEL, @function
ECCP_CHANNEL123_Shutdown_SEL:
.LFB110:
.LM999:
	.cfi_startproc
.LVL864:
	PUSH	{r6, r7, r8, lr}
	.cfi_def_cfa_offset 16
	MOV	r6,r0
	MOV	r7,r1
.LVL865:
.LM1000:
	MOV	r0,#1
.LVL866:
	LD	r5,#1073742592
	CMP	r6,r5
	JZ	.L687
	MOV	r0,#0
.L687:
	LD	r4,#CHECK_RESTRICTION
	MOV	r8,r4
	LJMP	r4
.LVL867:
.LM1001:
	MOV	r4,#2
	LSR	r5,r7,r4
	MOV	r0,#1
	CMP	r5,#0
	JZ	.L688
	MOV	r0,#0
.L688:
	LJMP	r8
.LVL868:
.LM1002:
	LD.w	r5,[r6+#12]
.LVL869:
.LBB316:
.LBB317:
.LM1003:
	CLR	r5,#0
	CLR	r5,#1
.LVL870:
	ORL	r7,r7,r5
.LVL871:
.LBE317:
.LBE316:
.LM1004:
	ST.w	[r6+#12],r7
.LM1005:
	POP	{r6, r7, r8}
	.cfi_def_cfa_offset 4
	POP	lr
	.cfi_def_cfa_offset 0
	JMP	lr
	.cfi_endproc
.LFE110:
	.size	ECCP_CHANNEL123_Shutdown_SEL, .-ECCP_CHANNEL123_Shutdown_SEL
	.section .text$ECCP_Channel_Shutdown_Signal
	.type	.text$ECCP_Channel_Shutdown_Signal$scode_local_111, @function
	.text$ECCP_Channel_Shutdown_Signal$scode_local_111:
	.align	1
	.export	ECCP_Channel_Shutdown_Signal
	.type	ECCP_Channel_Shutdown_Signal, @function
ECCP_Channel_Shutdown_Signal:
.LFB111:
.LM1006:
	.cfi_startproc
.LVL872:
	PUSH	{r6, r7, r8, r9, lr}
	.cfi_def_cfa_offset 20
	MOV	r6,r0
	MOV	r7,r1
	MOV	r9,r2
.LVL873:
.LM1007:
	MOV	r0,#1
.LVL874:
	LD	r5,#1073742592
	CMP	r6,r5
	JZ	.L693
	MOV	r0,#0
.L693:
	LD	r3,#CHECK_RESTRICTION
	MOV	r8,r3
	LJMP	r3
.LVL875:
.LM1008:
	MOV	r4,#2
	LSR	r5,r7,r4
	MOV	r0,#1
	CMP	r5,#0
	JZ	.L694
	MOV	r0,#0
.L694:
	LJMP	r8
.LVL876:
.LM1009:
	MOV	r0,#1
	CMP	r9,#2
	JLS	.L695
	MOV	r0,#0
.L695:
	LJMP	r8
.LVL877:
.LM1010:
	ADD	r7,r7,r7
.LVL878:
.LM1011:
	MOV	r5,#168
	LD.w	r3,[r6+r5]
.LVL879:
.LM1012:
	MOV	r4,#3
	LSL	r4,r4,r7
.LM1013:
	NOT	r4,r4
.LVL880:
.LBB318:
.LBB319:
.LM1014:
	ANL	r4,r4,r3
.LVL881:
.LBE319:
.LBE318:
.LM1015:
	MOV	r3,r9
.LVL882:
	LSL	r7,r3,r7
.LVL883:
.LBB321:
.LBB320:
.LM1016:
	ORL	r7,r4,r7
.LVL884:
.LBE320:
.LBE321:
.LM1017:
	ST.w	[r6+r5],r7
.LM1018:
	POP	{r6, r7, r8, r9}
	.cfi_def_cfa_offset 4
.LVL885:
	POP	lr
	.cfi_def_cfa_offset 0
	JMP	lr
	.cfi_endproc
.LFE111:
	.size	ECCP_Channel_Shutdown_Signal, .-ECCP_Channel_Shutdown_Signal
	.section .text$ECCP_Channel_Pin_Ctl
	.type	.text$ECCP_Channel_Pin_Ctl$scode_local_112, @function
	.text$ECCP_Channel_Pin_Ctl$scode_local_112:
	.align	1
	.export	ECCP_Channel_Pin_Ctl
	.type	ECCP_Channel_Pin_Ctl, @function
ECCP_Channel_Pin_Ctl:
.LFB112:
.LM1019:
	.cfi_startproc
.LVL886:
	PUSH	{r6, r7, r8, r9, r10, lr}
	.cfi_def_cfa_offset 24
	MOV	r9,r0
	MOV	r6,r1
	MOV	r8,r2
	MOV	r10,r3
.LVL887:
.LM1020:
	MOV	r0,#1
.LVL888:
	LD	r5,#1073742592
	CMP	r9,r5
	JZ	.L700
	MOV	r0,#0
.L700:
	LD	r7,#CHECK_RESTRICTION
	LJMP	r7
.LVL889:
.LM1021:
	MOV	r4,#2
	LSR	r5,r6,r4
	MOV	r0,#1
	CMP	r5,#0
	JZ	.L701
	MOV	r0,#0
.L701:
	LJMP	r7
.LVL890:
.LM1022:
	MOV	r0,#1
	CMP	r8,#0
	JZ	.L702
.LM1023:
	CMP	r8,#2
	JZ	.L702
	MOV	r0,#0
.L702:
.LM1024:
	LJMP	r7
.LVL891:
.LM1025:
	MOV	r0,#1
	CMP	r10,#2
	JLS	.L704
	MOV	r0,#0
.L704:
	LJMP	r7
.LVL892:
.LM1026:
	MOV	r5,#172
	MOV	r4,r9
	LD.w	r3,[r4+r5]
.LVL893:
.LM1027:
	ADD	r4,r6,r6
	ADD	r4,r8
	MOV	r2,#3
	LSL	r4,r2,r4
.LM1028:
	NOT	r4,r4
.LBB322:
.LBB323:
.LM1029:
	ANL	r4,r4,r3
.LBE323:
.LBE322:
.LM1030:
	LSL	r6,#2
.LVL894:
	ADD	r8,r6
.LVL895:
	LSL	r10,r8
.LVL896:
.LBB325:
.LBB324:
.LM1031:
	ORL	r4,r10
	MOV	r10,r4
.LVL897:
.LBE324:
.LBE325:
.LM1032:
	MOV	r4,r9
	//++++
	PUSH r4
	ADD r4,r5 
	ST.W [r4],r10
	POP r4
	//replace_ST.x [r4+r5],r10
.LM1033:
	POP	{r6, r7, r8, r9, r10}
	.cfi_def_cfa_offset 4
.LVL898:
	POP	lr
	.cfi_def_cfa_offset 0
	JMP	lr
	.cfi_endproc
.LFE112:
	.size	ECCP_Channel_Pin_Ctl, .-ECCP_Channel_Pin_Ctl
	.section .text$ECCP_Zero_Clock_Config
	.type	.text$ECCP_Zero_Clock_Config$scode_local_113, @function
	.text$ECCP_Zero_Clock_Config$scode_local_113:
	.align	1
	.export	ECCP_Zero_Clock_Config
	.type	ECCP_Zero_Clock_Config, @function
ECCP_Zero_Clock_Config:
.LFB113:
.LM1034:
	.cfi_startproc
.LVL899:
	PUSH	{r6, r7, r8, lr}
	.cfi_def_cfa_offset 16
	MOV	r7,r0
	MOV	r6,r1
.LM1035:
	MOV	r0,#1
.LVL900:
	LD	r5,#1073742592
	CMP	r7,r5
	JZ	.L714
	MOV	r0,#0
.L714:
	LD	r5,#CHECK_RESTRICTION
	MOV	r8,r5
	LJMP	r5
.LVL901:
.LM1036:
	MOV	r0,#1
	CMP	r6,#0
	JZ	.L715
.LM1037:
	MOV	r5,#255
	ADD	r5,r5,#1
	CMP	r6,r5
	JZ	.L715
.LM1038:
	MOV	r5,#1
	LSL	r5,#9
	CMP	r6,r5
	JZ	.L715
	LD	r5,#768
	CMP	r6,r5
	JZ	.L715
	MOV	r5,#1
	LSL	r5,#10
	CMP	r6,r5
	JZ	.L715
	LD	r5,#1280
	CMP	r6,r5
	JZ	.L715
	LD	r5,#1536
	CMP	r6,r5
	JZ	.L715
	LD	r5,#1792
	CMP	r6,r5
	JZ	.L715
	MOV	r5,#1
	LSL	r5,#11
	CMP	r6,r5
	JZ	.L715
	LD	r5,#2304
	CMP	r6,r5
	JZ	.L715
	MOV	r0,#0
.L715:
.LM1039:
	LJMP	r8
.LVL902:
.LM1040:
	MOV	r5,#176
	LD.w	r3,[r7+r5]
.LVL903:
.LBB326:
.LBB327:
.LM1041:
	LD	r4,#-3841
	ANL	r4,r3,r4
	ORL	r6,r6,r4
.LVL904:
.LBE327:
.LBE326:
.LM1042:
	ST.w	[r7+r5],r6
.LM1043:
	POP	{r6, r7, r8}
	.cfi_def_cfa_offset 4
.LVL905:
	POP	lr
	.cfi_def_cfa_offset 0
	JMP	lr
	.cfi_endproc
.LFE113:
	.size	ECCP_Zero_Clock_Config, .-ECCP_Zero_Clock_Config
	.section .text$ECCP_Channel_Pin_Tristate_Enable
	.type	.text$ECCP_Channel_Pin_Tristate_Enable$scode_local_114, @function
	.text$ECCP_Channel_Pin_Tristate_Enable$scode_local_114:
	.align	1
	.export	ECCP_Channel_Pin_Tristate_Enable
	.type	ECCP_Channel_Pin_Tristate_Enable, @function
ECCP_Channel_Pin_Tristate_Enable:
.LFB114:
.LM1044:
	.cfi_startproc
.LVL906:
	PUSH	{r6, r7, r8, r9, r10, lr}
	.cfi_def_cfa_offset 24
	MOV	r7,r0
	MOV	r8,r1
	MOV	r9,r2
	MOV	r10,r3
.LVL907:
.LM1045:
	MOV	r0,#1
.LVL908:
	LD	r5,#1073742592
	CMP	r7,r5
	JZ	.L728
	MOV	r0,#0
.L728:
	LD	r6,#CHECK_RESTRICTION
	LJMP	r6
.LVL909:
.LM1046:
	MOV	r5,r8
	LSR	r5,#2
	MOV	r0,#1
	CMP	r5,#0
	JZ	.L729
	MOV	r0,#0
.L729:
	LJMP	r6
.LVL910:
.LM1047:
	MOV	r0,#1
	CMP	r9,#0
	JZ	.L730
.LM1048:
	CMP	r9,#2
	JZ	.L730
	MOV	r0,#0
.L730:
.LM1049:
	LJMP	r6
.LVL911:
.LM1050:
	MOV	r0,#1
	CMP	r10,#2
	JLS	.L732
	MOV	r0,#0
.L732:
	LJMP	r6
.LVL912:
.LM1051:
	LSR	r9,#1
.LVL913:
	ADD	r8,r8
.LVL914:
	ADD	r8,r9
.LVL915:
.LM1052:
	MOV	r5,#184
	LD.w	r4,[r7+r5]
.LVL916:
.LM1053:
	MOV	r9,#255
	LSL	r9,r8
.LM1054:
	NOT	r9,r9
.LVL917:
.LBB328:
.LBB329:
.LM1055:
	ANL	r9,r4
.LVL918:
.LBE329:
.LBE328:
.LM1056:
	LSL	r10,r8
.LVL919:
.LBB331:
.LBB330:
.LM1057:
	MOV	r4,r9
.LVL920:
	ORL	r4,r10
.LBE330:
.LBE331:
.LM1058:
	ST.w	[r7+r5],r4
.LM1059:
	POP	{r6, r7, r8, r9, r10}
	.cfi_def_cfa_offset 4
.LVL921:
	POP	lr
	.cfi_def_cfa_offset 0
	JMP	lr
	.cfi_endproc
.LFE114:
	.size	ECCP_Channel_Pin_Tristate_Enable, .-ECCP_Channel_Pin_Tristate_Enable
	.section .text$ECCP_FlexMUX_CHANNEL_SEL
	.type	.text$ECCP_FlexMUX_CHANNEL_SEL$scode_local_115, @function
	.text$ECCP_FlexMUX_CHANNEL_SEL$scode_local_115:
	.align	1
	.export	ECCP_FlexMUX_CHANNEL_SEL
	.type	ECCP_FlexMUX_CHANNEL_SEL, @function
ECCP_FlexMUX_CHANNEL_SEL:
.LFB115:
.LM1060:
	.cfi_startproc
.LVL922:
	PUSH	{r6, r7, r8, lr}
	.cfi_def_cfa_offset 16
	MOV	r6,r0
	MOV	r7,r1
.LVL923:
.LM1061:
	MOV	r0,#1
.LVL924:
	LD	r5,#1073742592
	CMP	r6,r5
	JZ	.L742
	MOV	r0,#0
.L742:
	LD	r4,#CHECK_RESTRICTION
	MOV	r8,r4
	LJMP	r4
.LVL925:
.LM1062:
	MOV	r4,#2
	LSR	r5,r7,r4
	MOV	r0,#1
	CMP	r5,#0
	JZ	.L743
	MOV	r0,#0
.L743:
	LJMP	r8
.LVL926:
.LM1063:
	MOV	r5,#236
	LD.w	r4,[r6+r5]
.LVL927:
.LM1064:
	LSL	r7,#13
.LVL928:
.LBB332:
.LBB333:
.LM1065:
	CLR	r4,#13
	CLR	r4,#14
.LVL929:
	ORL	r7,r7,r4
.LVL930:
.LBE333:
.LBE332:
.LM1066:
	ST.w	[r6+r5],r7
.LM1067:
	POP	{r6, r7, r8}
	.cfi_def_cfa_offset 4
	POP	lr
	.cfi_def_cfa_offset 0
	JMP	lr
	.cfi_endproc
.LFE115:
	.size	ECCP_FlexMUX_CHANNEL_SEL, .-ECCP_FlexMUX_CHANNEL_SEL
	.section .text$ECCP_Channel_Modulation_SEL
	.type	.text$ECCP_Channel_Modulation_SEL$scode_local_116, @function
	.text$ECCP_Channel_Modulation_SEL$scode_local_116:
	.align	1
	.export	ECCP_Channel_Modulation_SEL
	.type	ECCP_Channel_Modulation_SEL, @function
ECCP_Channel_Modulation_SEL:
.LFB116:
.LM1068:
	.cfi_startproc
.LVL931:
	PUSH	{r6, r7, r8, r9, lr}
	.cfi_def_cfa_offset 20
	MOV	r6,r0
	MOV	r9,r1
	MOV	r8,r2
.LVL932:
.LM1069:
	MOV	r0,#1
.LVL933:
	LD	r5,#1073742592
	CMP	r6,r5
	JZ	.L748
	MOV	r0,#0
.L748:
	LD	r7,#CHECK_RESTRICTION
	LJMP	r7
.LVL934:
.LM1070:
	MOV	r5,r9
	LSR	r5,#2
	MOV	r0,#1
	CMP	r5,#0
	JZ	.L749
	MOV	r0,#0
.L749:
	LJMP	r7
.LVL935:
.LM1071:
	MOV	r5,r8
	LSR	r5,#2
	MOV	r0,#1
	CMP	r5,#0
	JZ	.L750
	MOV	r0,#0
.L750:
	LJMP	r7
.LVL936:
.LM1072:
	ADD	r9,#9
.LVL937:
.LM1073:
	MOV	r5,#236
	LD.w	r3,[r6+r5]
.LVL938:
.LM1074:
	MOV	r4,#1
	LSL	r4,r9
.LVL939:
.LM1075:
	NOT	r4,r4
.LVL940:
.LBB334:
.LBB335:
.LM1076:
	ANL	r4,r4,r3
.LVL941:
.LBE335:
.LBE334:
.LM1077:
	MOV	r3,r8
.LVL942:
	LSL	r3,r9
.LVL943:
.LBB337:
.LBB336:
.LM1078:
	ORL	r4,r4,r3
.LBE336:
.LBE337:
.LM1079:
	ST.w	[r6+r5],r4
.LM1080:
	POP	{r6, r7, r8, r9}
	.cfi_def_cfa_offset 4
.LVL944:
	POP	lr
	.cfi_def_cfa_offset 0
	JMP	lr
	.cfi_endproc
.LFE116:
	.size	ECCP_Channel_Modulation_SEL, .-ECCP_Channel_Modulation_SEL
	.section .text$ECCP_GTB_OUTPUT_Config
	.type	.text$ECCP_GTB_OUTPUT_Config$scode_local_117, @function
	.text$ECCP_GTB_OUTPUT_Config$scode_local_117:
	.align	1
	.export	ECCP_GTB_OUTPUT_Config
	.type	ECCP_GTB_OUTPUT_Config, @function
ECCP_GTB_OUTPUT_Config:
.LFB117:
.LM1081:
	.cfi_startproc
.LVL945:
	PUSH	{r6, r7, r8, lr}
	.cfi_def_cfa_offset 16
	MOV	r6,r0
	MOV	r7,r1
.LVL946:
.LM1082:
	MOV	r0,#1
.LVL947:
	LD	r5,#1073742592
	CMP	r6,r5
	JZ	.L758
	MOV	r0,#0
.L758:
	LD	r5,#CHECK_RESTRICTION
	MOV	r8,r5
	LJMP	r5
.LVL948:
.LM1083:
	MOV	r0,#1
	CMP	r7,r0
	JLS	.L759
	MOV	r0,#0
.L759:
	LJMP	r8
.LVL949:
.LM1084:
	MOV	r5,#236
	LD.w	r4,[r6+r5]
.LVL950:
.LM1085:
	LSL	r7,#8
.LVL951:
.LBB338:
.LBB339:
.LM1086:
	CLR	r4,#8
.LVL952:
	ORL	r7,r7,r4
.LVL953:
.LBE339:
.LBE338:
.LM1087:
	ST.w	[r6+r5],r7
.LM1088:
	POP	{r6, r7, r8}
	.cfi_def_cfa_offset 4
	POP	lr
	.cfi_def_cfa_offset 0
	JMP	lr
	.cfi_endproc
.LFE117:
	.size	ECCP_GTB_OUTPUT_Config, .-ECCP_GTB_OUTPUT_Config
	.section .text$ECCP_GTB_MODE_Enable
	.type	.text$ECCP_GTB_MODE_Enable$scode_local_118, @function
	.text$ECCP_GTB_MODE_Enable$scode_local_118:
	.align	1
	.export	ECCP_GTB_MODE_Enable
	.type	ECCP_GTB_MODE_Enable, @function
ECCP_GTB_MODE_Enable:
.LFB118:
.LM1089:
	.cfi_startproc
.LVL954:
	PUSH	{r6, r7, r8, lr}
	.cfi_def_cfa_offset 16
	MOV	r6,r0
	MOV	r7,r1
.LVL955:
.LM1090:
	MOV	r0,#1
.LVL956:
	LD	r5,#1073742592
	CMP	r6,r5
	JZ	.L761
	MOV	r0,#0
.L761:
	LD	r5,#CHECK_RESTRICTION
	MOV	r8,r5
	LJMP	r5
.LVL957:
.LM1091:
	MOV	r0,#1
	CMP	r7,r0
	JLS	.L762
	MOV	r0,#0
.L762:
	LJMP	r8
.LVL958:
.LM1092:
	MOV	r5,#236
	LD.w	r4,[r6+r5]
.LVL959:
.LM1093:
	LSL	r7,#7
.LVL960:
.LBB340:
.LBB341:
.LM1094:
	CLR	r4,#7
.LVL961:
	ORL	r7,r7,r4
.LVL962:
.LBE341:
.LBE340:
.LM1095:
	ST.w	[r6+r5],r7
.LM1096:
	POP	{r6, r7, r8}
	.cfi_def_cfa_offset 4
	POP	lr
	.cfi_def_cfa_offset 0
	JMP	lr
	.cfi_endproc
.LFE118:
	.size	ECCP_GTB_MODE_Enable, .-ECCP_GTB_MODE_Enable
	.section .text$ECCP_CAPTEST_MODE_Config
	.type	.text$ECCP_CAPTEST_MODE_Config$scode_local_119, @function
	.text$ECCP_CAPTEST_MODE_Config$scode_local_119:
	.align	1
	.export	ECCP_CAPTEST_MODE_Config
	.type	ECCP_CAPTEST_MODE_Config, @function
ECCP_CAPTEST_MODE_Config:
.LFB119:
.LM1097:
	.cfi_startproc
.LVL963:
	PUSH	{r6, r7, r8, lr}
	.cfi_def_cfa_offset 16
	MOV	r6,r0
	MOV	r7,r1
.LVL964:
.LM1098:
	MOV	r0,#1
.LVL965:
	LD	r5,#1073742592
	CMP	r6,r5
	JZ	.L764
	MOV	r0,#0
.L764:
	LD	r4,#CHECK_RESTRICTION
	MOV	r8,r4
	LJMP	r4
.LVL966:
.LM1099:
	MOV	r4,#1
	LSR	r5,r7,r4
	MOV	r0,r4
	CMP	r5,#0
	JZ	.L765
	MOV	r0,#0
.L765:
	LJMP	r8
.LVL967:
.LM1100:
	MOV	r5,#236
	LD.w	r4,[r6+r5]
.LVL968:
.LM1101:
	LSL	r7,#6
.LVL969:
.LBB342:
.LBB343:
.LM1102:
	CLR	r4,#6
.LVL970:
	ORL	r7,r7,r4
.LVL971:
.LBE343:
.LBE342:
.LM1103:
	ST.w	[r6+r5],r7
.LM1104:
	POP	{r6, r7, r8}
	.cfi_def_cfa_offset 4
	POP	lr
	.cfi_def_cfa_offset 0
	JMP	lr
	.cfi_endproc
.LFE119:
	.size	ECCP_CAPTEST_MODE_Config, .-ECCP_CAPTEST_MODE_Config
	.section .text$ECCP_UNION_SINGEL_EFFECTIVE_Config
	.type	.text$ECCP_UNION_SINGEL_EFFECTIVE_Config$scode_local_120, @function
	.text$ECCP_UNION_SINGEL_EFFECTIVE_Config$scode_local_120:
	.align	1
	.export	ECCP_UNION_SINGEL_EFFECTIVE_Config
	.type	ECCP_UNION_SINGEL_EFFECTIVE_Config, @function
ECCP_UNION_SINGEL_EFFECTIVE_Config:
.LFB120:
.LM1105:
	.cfi_startproc
.LVL972:
	PUSH	{r6, r7, r8, lr}
	.cfi_def_cfa_offset 16
	MOV	r6,r0
	MOV	r7,r1
.LVL973:
.LM1106:
	MOV	r0,#1
.LVL974:
	LD	r5,#1073742592
	CMP	r6,r5
	JZ	.L770
	MOV	r0,#0
.L770:
	LD	r4,#CHECK_RESTRICTION
	MOV	r8,r4
	LJMP	r4
.LVL975:
.LM1107:
	MOV	r4,#2
	LSR	r5,r7,r4
	MOV	r0,#1
	CMP	r5,#0
	JZ	.L771
	MOV	r0,#0
.L771:
	LJMP	r8
.LVL976:
.LM1108:
	MOV	r5,#236
	LD.w	r4,[r6+r5]
.LVL977:
.LM1109:
	LSL	r7,#4
.LVL978:
.LBB344:
.LBB345:
.LM1110:
	CLR	r4,#4
	CLR	r4,#5
.LVL979:
	ORL	r7,r7,r4
.LVL980:
.LBE345:
.LBE344:
.LM1111:
	ST.w	[r6+r5],r7
.LM1112:
	POP	{r6, r7, r8}
	.cfi_def_cfa_offset 4
	POP	lr
	.cfi_def_cfa_offset 0
	JMP	lr
	.cfi_endproc
.LFE120:
	.size	ECCP_UNION_SINGEL_EFFECTIVE_Config, .-ECCP_UNION_SINGEL_EFFECTIVE_Config
	.section .text$ECCP_UNION_SINGEL_OUTPUT_Enable
	.type	.text$ECCP_UNION_SINGEL_OUTPUT_Enable$scode_local_121, @function
	.text$ECCP_UNION_SINGEL_OUTPUT_Enable$scode_local_121:
	.align	1
	.export	ECCP_UNION_SINGEL_OUTPUT_Enable
	.type	ECCP_UNION_SINGEL_OUTPUT_Enable, @function
ECCP_UNION_SINGEL_OUTPUT_Enable:
.LFB121:
.LM1113:
	.cfi_startproc
.LVL981:
	PUSH	{r6, r7, r8, lr}
	.cfi_def_cfa_offset 16
	MOV	r6,r0
	MOV	r7,r1
.LVL982:
.LM1114:
	MOV	r0,#1
.LVL983:
	LD	r5,#1073742592
	CMP	r6,r5
	JZ	.L776
	MOV	r0,#0
.L776:
	LD	r5,#CHECK_RESTRICTION
	MOV	r8,r5
	LJMP	r5
.LVL984:
.LM1115:
	MOV	r0,#1
	CMP	r7,r0
	JLS	.L777
	MOV	r0,#0
.L777:
	LJMP	r8
.LVL985:
.LM1116:
	MOV	r5,#236
	LD.w	r4,[r6+r5]
.LVL986:
.LM1117:
	LSL	r7,#3
.LVL987:
.LBB346:
.LBB347:
.LM1118:
	CLR	r4,#3
.LVL988:
	ORL	r7,r7,r4
.LVL989:
.LBE347:
.LBE346:
.LM1119:
	ST.w	[r6+r5],r7
.LM1120:
	POP	{r6, r7, r8}
	.cfi_def_cfa_offset 4
	POP	lr
	.cfi_def_cfa_offset 0
	JMP	lr
	.cfi_endproc
.LFE121:
	.size	ECCP_UNION_SINGEL_OUTPUT_Enable, .-ECCP_UNION_SINGEL_OUTPUT_Enable
	.section .text$ECCP_COMH_Value_Config
	.type	.text$ECCP_COMH_Value_Config$scode_local_122, @function
	.text$ECCP_COMH_Value_Config$scode_local_122:
	.align	1
	.export	ECCP_COMH_Value_Config
	.type	ECCP_COMH_Value_Config, @function
ECCP_COMH_Value_Config:
.LFB122:
.LM1121:
	.cfi_startproc
.LVL990:
	PUSH	{r6, r7, r8, r9, lr}
	.cfi_def_cfa_offset 20
	MOV	r8,r0
	MOV	r6,r1
	ZXT.h	r9,r2
.LM1122:
	MOV	r0,#1
.LVL991:
	LD	r5,#1073742592
	CMP	r8,r5
	JZ	.L779
	MOV	r0,#0
.L779:
	LD	r7,#CHECK_RESTRICTION
	LJMP	r7
.LVL992:
.LM1123:
	MOV	r2,#2
	LSR	r5,r6,r2
	MOV	r0,#1
	CMP	r5,#0
	JZ	.L780
	MOV	r0,#0
.L780:
	LJMP	r7
.LVL993:
.LM1124:
	MOV	r0,#1
	LJMP	r7
.LVL994:
.LM1125:
	CMP	r6,#1
	JZ	.L783
	CMP	r6,#0
	JNZ	.L789
.LM1126:
	MOV	r3,r8
	LD.w	r4,[r3+#16]
.LVL995:
.LBB348:
.LBB349:
.LM1127:
	LD	r5,#-65536
	ANL	r5,r4,r5
	MOV	r4,r9
.LVL996:
	ORL	r5,r4,r5
.LBE349:
.LBE348:
.LM1128:
	ST.w	[r3+#16],r5
.LVL997:
.L778:
.LM1129:
	POP	{r6, r7, r8, r9}
	.cfi_remember_state
	.cfi_def_cfa_offset 4
.LVL998:
	POP	lr
	.cfi_def_cfa_offset 0
	JMP	lr
.LVL999:
.L789:
	.cfi_restore_state
.LM1130:
	CMP	r6,#2
	JZ	.L784
	CMP	r6,#3
	JNZ	.L778
.LM1131:
	MOV	r5,r8
	LD.w	r4,[r5+#28]
.LVL1000:
.LBB350:
.LBB351:
.LM1132:
	LD	r5,#-65536
	ANL	r5,r4,r5
	MOV	r2,r9
	ORL	r5,r2,r5
.LBE351:
.LBE350:
.LM1133:
	MOV	r3,r8
	ST.w	[r3+#28],r5
.LM1134:
	POP	{r6, r7, r8, r9}
	.cfi_remember_state
	.cfi_def_cfa_offset 4
.LVL1001:
	POP	lr
	.cfi_def_cfa_offset 0
	JMP	lr
.LVL1002:
.L783:
	.cfi_restore_state
.LM1135:
	MOV	r5,r8
	LD.w	r4,[r5+#20]
.LVL1003:
.LBB352:
.LBB353:
.LM1136:
	LD	r5,#-65536
	ANL	r5,r4,r5
	MOV	r2,r9
	ORL	r5,r2,r5
.LBE353:
.LBE352:
.LM1137:
	MOV	r3,r8
	ST.w	[r3+#20],r5
.LM1138:
	POP	{r6, r7, r8, r9}
	.cfi_remember_state
	.cfi_def_cfa_offset 4
.LVL1004:
	POP	lr
	.cfi_def_cfa_offset 0
	JMP	lr
.LVL1005:
.L784:
	.cfi_restore_state
.LM1139:
	MOV	r3,r8
	LD.w	r4,[r3+#24]
.LVL1006:
.LBB354:
.LBB355:
.LM1140:
	LD	r5,#-65536
	ANL	r5,r4,r5
	MOV	r4,r9
.LVL1007:
	ORL	r5,r4,r5
.LBE355:
.LBE354:
.LM1141:
	ST.w	[r3+#24],r5
.LM1142:
	POP	{r6, r7, r8, r9}
	.cfi_def_cfa_offset 4
.LVL1008:
	POP	lr
	.cfi_def_cfa_offset 0
	JMP	lr
	.cfi_endproc
.LFE122:
	.size	ECCP_COMH_Value_Config, .-ECCP_COMH_Value_Config
	.section .text$ECCP_COML_Value_Config
	.type	.text$ECCP_COML_Value_Config$scode_local_123, @function
	.text$ECCP_COML_Value_Config$scode_local_123:
	.align	1
	.export	ECCP_COML_Value_Config
	.type	ECCP_COML_Value_Config, @function
ECCP_COML_Value_Config:
.LFB123:
.LM1143:
	.cfi_startproc
.LVL1009:
	PUSH	{r6, r7, r8, r9, lr}
	.cfi_def_cfa_offset 20
	MOV	r8,r0
	MOV	r6,r1
	ZXT.h	r9,r2
.LM1144:
	MOV	r0,#1
.LVL1010:
	LD	r5,#1073742592
	CMP	r8,r5
	JZ	.L791
	MOV	r0,#0
.L791:
	LD	r7,#CHECK_RESTRICTION
	LJMP	r7
.LVL1011:
.LM1145:
	MOV	r2,#2
	LSR	r5,r6,r2
	MOV	r0,#1
	CMP	r5,#0
	JZ	.L792
	MOV	r0,#0
.L792:
	LJMP	r7
.LVL1012:
.LM1146:
	MOV	r0,#1
	LJMP	r7
.LVL1013:
.LM1147:
	CMP	r6,#1
	JZ	.L795
	CMP	r6,#0
	JNZ	.L801
.LM1148:
	MOV	r3,r8
	LD.w	r4,[r3+#16]
.LVL1014:
.LBB356:
.LBB357:
.LM1149:
	LD	r5,#-65536
	ANL	r5,r4,r5
	MOV	r4,r9
.LVL1015:
	ORL	r5,r4,r5
.LBE357:
.LBE356:
.LM1150:
	ST.w	[r3+#17],r5
.LVL1016:
.L790:
.LM1151:
	POP	{r6, r7, r8, r9}
	.cfi_remember_state
	.cfi_def_cfa_offset 4
.LVL1017:
	POP	lr
	.cfi_def_cfa_offset 0
	JMP	lr
.LVL1018:
.L801:
	.cfi_restore_state
.LM1152:
	CMP	r6,#2
	JZ	.L796
	CMP	r6,#3
	JNZ	.L790
.LM1153:
	MOV	r5,r8
	LD.w	r4,[r5+#29]
.LVL1019:
.LBB358:
.LBB359:
.LM1154:
	LD	r5,#-65536
	ANL	r5,r4,r5
	MOV	r2,r9
	ORL	r5,r2,r5
.LBE359:
.LBE358:
.LM1155:
	MOV	r3,r8
	ST.w	[r3+#29],r5
.LM1156:
	POP	{r6, r7, r8, r9}
	.cfi_remember_state
	.cfi_def_cfa_offset 4
.LVL1020:
	POP	lr
	.cfi_def_cfa_offset 0
	JMP	lr
.LVL1021:
.L795:
	.cfi_restore_state
.LM1157:
	MOV	r5,r8
	LD.w	r4,[r5+#21]
.LVL1022:
.LBB360:
.LBB361:
.LM1158:
	LD	r5,#-65536
	ANL	r5,r4,r5
	MOV	r2,r9
	ORL	r5,r2,r5
.LBE361:
.LBE360:
.LM1159:
	MOV	r3,r8
	ST.w	[r3+#21],r5
.LM1160:
	POP	{r6, r7, r8, r9}
	.cfi_remember_state
	.cfi_def_cfa_offset 4
.LVL1023:
	POP	lr
	.cfi_def_cfa_offset 0
	JMP	lr
.LVL1024:
.L796:
	.cfi_restore_state
.LM1161:
	MOV	r3,r8
	LD.w	r4,[r3+#25]
.LVL1025:
.LBB362:
.LBB363:
.LM1162:
	LD	r5,#-65536
	ANL	r5,r4,r5
	MOV	r4,r9
.LVL1026:
	ORL	r5,r4,r5
.LBE363:
.LBE362:
.LM1163:
	ST.w	[r3+#25],r5
.LM1164:
	POP	{r6, r7, r8, r9}
	.cfi_def_cfa_offset 4
.LVL1027:
	POP	lr
	.cfi_def_cfa_offset 0
	JMP	lr
	.cfi_endproc
.LFE123:
	.size	ECCP_COML_Value_Config, .-ECCP_COML_Value_Config
	.section .text$ECCP_Fault_Contral_Enable
	.type	.text$ECCP_Fault_Contral_Enable$scode_local_124, @function
	.text$ECCP_Fault_Contral_Enable$scode_local_124:
	.align	1
	.export	ECCP_Fault_Contral_Enable
	.type	ECCP_Fault_Contral_Enable, @function
ECCP_Fault_Contral_Enable:
.LFB124:
.LM1165:
	.cfi_startproc
.LVL1028:
	PUSH	{r6, r7, r8, r9, lr}
	.cfi_def_cfa_offset 20
	MOV	r8,r0
	MOV	r6,r1
	MOV	r9,r2
.LVL1029:
.LM1166:
	MOV	r0,#1
.LVL1030:
	LD	r5,#1073742592
	CMP	r8,r5
	JZ	.L803
	MOV	r0,#0
.L803:
	LD	r7,#CHECK_RESTRICTION
	LJMP	r7
.LVL1031:
.LM1167:
	MOV	r2,#2
	LSR	r5,r6,r2
	MOV	r0,#1
	CMP	r5,#0
	JZ	.L804
	MOV	r0,#0
.L804:
	LJMP	r7
.LVL1032:
.LM1168:
	MOV	r0,#1
	CMP	r9,r0
	JLS	.L805
	MOV	r0,#0
.L805:
	LJMP	r7
.LVL1033:
.LM1169:
	LSL	r9,#14
.LVL1034:
.LM1170:
	CMP	r6,#1
	JZ	.L808
	CMP	r6,#0
	JNZ	.L814
.LM1171:
	MOV	r3,r8
	LD.w	r5,[r3+#18]
.LVL1035:
.LBB364:
.LBB365:
.LM1172:
	CLR	r5,#14
.LVL1036:
	MOV	r4,r9
	ORL	r5,r4,r5
.LBE365:
.LBE364:
.LM1173:
	ST.w	[r3+#18],r5
.LVL1037:
.L802:
.LM1174:
	POP	{r6, r7, r8, r9}
	.cfi_remember_state
	.cfi_def_cfa_offset 4
.LVL1038:
	POP	lr
	.cfi_def_cfa_offset 0
	JMP	lr
.LVL1039:
.L814:
	.cfi_restore_state
.LM1175:
	CMP	r6,#2
	JZ	.L809
	CMP	r6,#3
	JNZ	.L802
.LM1176:
	MOV	r3,r8
	LD.w	r5,[r3+#30]
.LVL1040:
.LBB366:
.LBB367:
.LM1177:
	CLR	r5,#14
.LVL1041:
	MOV	r4,r9
	ORL	r5,r4,r5
.LBE367:
.LBE366:
.LM1178:
	ST.w	[r3+#30],r5
.LM1179:
	POP	{r6, r7, r8, r9}
	.cfi_remember_state
	.cfi_def_cfa_offset 4
.LVL1042:
	POP	lr
	.cfi_def_cfa_offset 0
	JMP	lr
.LVL1043:
.L808:
	.cfi_restore_state
.LM1180:
	MOV	r2,r8
	LD.w	r5,[r2+#22]
.LVL1044:
.LBB368:
.LBB369:
.LM1181:
	CLR	r5,#14
.LVL1045:
	MOV	r3,r9
	ORL	r5,r3,r5
.LBE369:
.LBE368:
.LM1182:
	ST.w	[r2+#22],r5
.LM1183:
	POP	{r6, r7, r8, r9}
	.cfi_remember_state
	.cfi_def_cfa_offset 4
.LVL1046:
	POP	lr
	.cfi_def_cfa_offset 0
	JMP	lr
.LVL1047:
.L809:
	.cfi_restore_state
.LM1184:
	MOV	r4,r8
	LD.w	r5,[r4+#26]
.LVL1048:
.LBB370:
.LBB371:
.LM1185:
	CLR	r5,#14
.LVL1049:
	MOV	r2,r9
	ORL	r5,r2,r5
.LBE371:
.LBE370:
.LM1186:
	ST.w	[r4+#26],r5
.LM1187:
	POP	{r6, r7, r8, r9}
	.cfi_def_cfa_offset 4
.LVL1050:
	POP	lr
	.cfi_def_cfa_offset 0
	JMP	lr
	.cfi_endproc
.LFE124:
	.size	ECCP_Fault_Contral_Enable, .-ECCP_Fault_Contral_Enable
	.section .text$ECCP_Fault_Output_Polarity_Select
	.type	.text$ECCP_Fault_Output_Polarity_Select$scode_local_125, @function
	.text$ECCP_Fault_Output_Polarity_Select$scode_local_125:
	.align	1
	.export	ECCP_Fault_Output_Polarity_Select
	.type	ECCP_Fault_Output_Polarity_Select, @function
ECCP_Fault_Output_Polarity_Select:
.LFB125:
.LM1188:
	.cfi_startproc
.LVL1051:
	PUSH	{r6, r7, r8, r9, lr}
	.cfi_def_cfa_offset 20
	MOV	r8,r0
	MOV	r6,r1
	MOV	r9,r2
.LVL1052:
.LM1189:
	MOV	r0,#1
.LVL1053:
	LD	r5,#1073742592
	CMP	r8,r5
	JZ	.L816
	MOV	r0,#0
.L816:
	LD	r7,#CHECK_RESTRICTION
	LJMP	r7
.LVL1054:
.LM1190:
	MOV	r2,#2
	LSR	r5,r6,r2
	MOV	r0,#1
	CMP	r5,#0
	JZ	.L817
	MOV	r0,#0
.L817:
	LJMP	r7
.LVL1055:
.LM1191:
	MOV	r0,#1
	CMP	r9,#3
	JLS	.L818
	MOV	r0,#0
.L818:
	LJMP	r7
.LVL1056:
.LM1192:
	LSL	r9,#12
.LVL1057:
.LM1193:
	CMP	r6,#1
	JZ	.L821
	CMP	r6,#0
	JNZ	.L827
.LM1194:
	MOV	r3,r8
	LD.w	r5,[r3+#18]
.LVL1058:
.LBB372:
.LBB373:
.LM1195:
	CLR	r5,#12
	CLR	r5,#13
.LVL1059:
	MOV	r4,r9
	ORL	r5,r4,r5
.LBE373:
.LBE372:
.LM1196:
	ST.w	[r3+#18],r5
.LVL1060:
.L815:
.LM1197:
	POP	{r6, r7, r8, r9}
	.cfi_remember_state
	.cfi_def_cfa_offset 4
.LVL1061:
	POP	lr
	.cfi_def_cfa_offset 0
	JMP	lr
.LVL1062:
.L827:
	.cfi_restore_state
.LM1198:
	CMP	r6,#2
	JZ	.L822
	CMP	r6,#3
	JNZ	.L815
.LM1199:
	MOV	r3,r8
	LD.w	r5,[r3+#30]
.LVL1063:
.LBB374:
.LBB375:
.LM1200:
	CLR	r5,#12
	CLR	r5,#13
.LVL1064:
	MOV	r4,r9
	ORL	r5,r4,r5
.LBE375:
.LBE374:
.LM1201:
	ST.w	[r3+#30],r5
.LM1202:
	POP	{r6, r7, r8, r9}
	.cfi_remember_state
	.cfi_def_cfa_offset 4
.LVL1065:
	POP	lr
	.cfi_def_cfa_offset 0
	JMP	lr
.LVL1066:
.L821:
	.cfi_restore_state
.LM1203:
	MOV	r2,r8
	LD.w	r5,[r2+#22]
.LVL1067:
.LBB376:
.LBB377:
.LM1204:
	CLR	r5,#12
	CLR	r5,#13
.LVL1068:
	MOV	r3,r9
	ORL	r5,r3,r5
.LBE377:
.LBE376:
.LM1205:
	ST.w	[r2+#22],r5
.LM1206:
	POP	{r6, r7, r8, r9}
	.cfi_remember_state
	.cfi_def_cfa_offset 4
.LVL1069:
	POP	lr
	.cfi_def_cfa_offset 0
	JMP	lr
.LVL1070:
.L822:
	.cfi_restore_state
.LM1207:
	MOV	r4,r8
	LD.w	r5,[r4+#26]
.LVL1071:
.LBB378:
.LBB379:
.LM1208:
	CLR	r5,#12
	CLR	r5,#13
.LVL1072:
	MOV	r2,r9
	ORL	r5,r2,r5
.LBE379:
.LBE378:
.LM1209:
	ST.w	[r4+#26],r5
.LM1210:
	POP	{r6, r7, r8, r9}
	.cfi_def_cfa_offset 4
.LVL1073:
	POP	lr
	.cfi_def_cfa_offset 0
	JMP	lr
	.cfi_endproc
.LFE125:
	.size	ECCP_Fault_Output_Polarity_Select, .-ECCP_Fault_Output_Polarity_Select
	.section .text$ECCP_Filter_PulseWidth_Config
	.type	.text$ECCP_Filter_PulseWidth_Config$scode_local_126, @function
	.text$ECCP_Filter_PulseWidth_Config$scode_local_126:
	.align	1
	.export	ECCP_Filter_PulseWidth_Config
	.type	ECCP_Filter_PulseWidth_Config, @function
ECCP_Filter_PulseWidth_Config:
.LFB126:
.LM1211:
	.cfi_startproc
.LVL1074:
	PUSH	{r6, r7, r8, r9, lr}
	.cfi_def_cfa_offset 20
	MOV	r8,r0
	MOV	r6,r1
	MOV	r9,r2
.LVL1075:
.LM1212:
	MOV	r0,#1
.LVL1076:
	LD	r5,#1073742592
	CMP	r8,r5
	JZ	.L829
	MOV	r0,#0
.L829:
	LD	r7,#CHECK_RESTRICTION
	LJMP	r7
.LVL1077:
.LM1213:
	MOV	r2,#2
	LSR	r5,r6,r2
	MOV	r0,#1
	CMP	r5,#0
	JZ	.L830
	MOV	r0,#0
.L830:
	LJMP	r7
.LVL1078:
.LM1214:
	MOV	r0,#1
	CMP	r9,#7
	JLS	.L831
	MOV	r0,#0
.L831:
	LJMP	r7
.LVL1079:
.LM1215:
	LSL	r9,#9
.LVL1080:
.LM1216:
	CMP	r6,#1
	JZ	.L834
	CMP	r6,#0
	JNZ	.L840
.LM1217:
	MOV	r3,r8
	LD.w	r4,[r3+#18]
.LVL1081:
.LBB380:
.LBB381:
.LM1218:
	LD	r5,#-3585
	ANL	r5,r4,r5
	MOV	r4,r9
.LVL1082:
	ORL	r5,r4,r5
.LBE381:
.LBE380:
.LM1219:
	ST.w	[r3+#18],r5
.LVL1083:
.L828:
.LM1220:
	POP	{r6, r7, r8, r9}
	.cfi_remember_state
	.cfi_def_cfa_offset 4
.LVL1084:
	POP	lr
	.cfi_def_cfa_offset 0
	JMP	lr
.LVL1085:
.L840:
	.cfi_restore_state
.LM1221:
	CMP	r6,#2
	JZ	.L835
	CMP	r6,#3
	JNZ	.L828
.LM1222:
	MOV	r5,r8
	LD.w	r4,[r5+#30]
.LVL1086:
.LBB382:
.LBB383:
.LM1223:
	LD	r5,#-3585
	ANL	r5,r4,r5
	MOV	r2,r9
	ORL	r5,r2,r5
.LBE383:
.LBE382:
.LM1224:
	MOV	r3,r8
	ST.w	[r3+#30],r5
.LM1225:
	POP	{r6, r7, r8, r9}
	.cfi_remember_state
	.cfi_def_cfa_offset 4
.LVL1087:
	POP	lr
	.cfi_def_cfa_offset 0
	JMP	lr
.LVL1088:
.L834:
	.cfi_restore_state
.LM1226:
	MOV	r5,r8
	LD.w	r4,[r5+#22]
.LVL1089:
.LBB384:
.LBB385:
.LM1227:
	LD	r5,#-3585
	ANL	r5,r4,r5
	MOV	r2,r9
	ORL	r5,r2,r5
.LBE385:
.LBE384:
.LM1228:
	MOV	r3,r8
	ST.w	[r3+#22],r5
.LM1229:
	POP	{r6, r7, r8, r9}
	.cfi_remember_state
	.cfi_def_cfa_offset 4
.LVL1090:
	POP	lr
	.cfi_def_cfa_offset 0
	JMP	lr
.LVL1091:
.L835:
	.cfi_restore_state
.LM1230:
	MOV	r3,r8
	LD.w	r4,[r3+#26]
.LVL1092:
.LBB386:
.LBB387:
.LM1231:
	LD	r5,#-3585
	ANL	r5,r4,r5
	MOV	r4,r9
.LVL1093:
	ORL	r5,r4,r5
.LBE387:
.LBE386:
.LM1232:
	ST.w	[r3+#26],r5
.LM1233:
	POP	{r6, r7, r8, r9}
	.cfi_def_cfa_offset 4
.LVL1094:
	POP	lr
	.cfi_def_cfa_offset 0
	JMP	lr
	.cfi_endproc
.LFE126:
	.size	ECCP_Filter_PulseWidth_Config, .-ECCP_Filter_PulseWidth_Config
	.section .text$ECCP_Filter_Function_Enable
	.type	.text$ECCP_Filter_Function_Enable$scode_local_127, @function
	.text$ECCP_Filter_Function_Enable$scode_local_127:
	.align	1
	.export	ECCP_Filter_Function_Enable
	.type	ECCP_Filter_Function_Enable, @function
ECCP_Filter_Function_Enable:
.LFB127:
.LM1234:
	.cfi_startproc
.LVL1095:
	PUSH	{r6, r7, r8, r9, lr}
	.cfi_def_cfa_offset 20
	MOV	r8,r0
	MOV	r6,r1
	MOV	r9,r2
.LVL1096:
.LM1235:
	MOV	r0,#1
.LVL1097:
	LD	r5,#1073742592
	CMP	r8,r5
	JZ	.L842
	MOV	r0,#0
.L842:
	LD	r7,#CHECK_RESTRICTION
	LJMP	r7
.LVL1098:
.LM1236:
	MOV	r2,#2
	LSR	r5,r6,r2
	MOV	r0,#1
	CMP	r5,#0
	JZ	.L843
	MOV	r0,#0
.L843:
	LJMP	r7
.LVL1099:
.LM1237:
	MOV	r0,#1
	CMP	r9,r0
	JLS	.L844
	MOV	r0,#0
.L844:
	LJMP	r7
.LVL1100:
.LM1238:
	LSL	r9,#5
.LVL1101:
.LM1239:
	CMP	r6,#1
	JZ	.L847
	CMP	r6,#0
	JNZ	.L853
.LM1240:
	MOV	r3,r8
	LD.w	r5,[r3+#18]
.LVL1102:
.LBB388:
.LBB389:
.LM1241:
	CLR	r5,#5
.LVL1103:
	MOV	r4,r9
	ORL	r5,r4,r5
.LBE389:
.LBE388:
.LM1242:
	ST.w	[r3+#18],r5
.LVL1104:
.L841:
.LM1243:
	POP	{r6, r7, r8, r9}
	.cfi_remember_state
	.cfi_def_cfa_offset 4
.LVL1105:
	POP	lr
	.cfi_def_cfa_offset 0
	JMP	lr
.LVL1106:
.L853:
	.cfi_restore_state
.LM1244:
	CMP	r6,#2
	JZ	.L848
	CMP	r6,#3
	JNZ	.L841
.LM1245:
	MOV	r3,r8
	LD.w	r5,[r3+#30]
.LVL1107:
.LBB390:
.LBB391:
.LM1246:
	CLR	r5,#5
.LVL1108:
	MOV	r4,r9
	ORL	r5,r4,r5
.LBE391:
.LBE390:
.LM1247:
	ST.w	[r3+#30],r5
.LM1248:
	POP	{r6, r7, r8, r9}
	.cfi_remember_state
	.cfi_def_cfa_offset 4
.LVL1109:
	POP	lr
	.cfi_def_cfa_offset 0
	JMP	lr
.LVL1110:
.L847:
	.cfi_restore_state
.LM1249:
	MOV	r2,r8
	LD.w	r5,[r2+#22]
.LVL1111:
.LBB392:
.LBB393:
.LM1250:
	CLR	r5,#5
.LVL1112:
	MOV	r3,r9
	ORL	r5,r3,r5
.LBE393:
.LBE392:
.LM1251:
	ST.w	[r2+#22],r5
.LM1252:
	POP	{r6, r7, r8, r9}
	.cfi_remember_state
	.cfi_def_cfa_offset 4
.LVL1113:
	POP	lr
	.cfi_def_cfa_offset 0
	JMP	lr
.LVL1114:
.L848:
	.cfi_restore_state
.LM1253:
	MOV	r4,r8
	LD.w	r5,[r4+#26]
.LVL1115:
.LBB394:
.LBB395:
.LM1254:
	CLR	r5,#5
.LVL1116:
	MOV	r2,r9
	ORL	r5,r2,r5
.LBE395:
.LBE394:
.LM1255:
	ST.w	[r4+#26],r5
.LM1256:
	POP	{r6, r7, r8, r9}
	.cfi_def_cfa_offset 4
.LVL1117:
	POP	lr
	.cfi_def_cfa_offset 0
	JMP	lr
	.cfi_endproc
.LFE127:
	.size	ECCP_Filter_Function_Enable, .-ECCP_Filter_Function_Enable
	.section .text$ECCP_Filter_CLKDIV_Config
	.type	.text$ECCP_Filter_CLKDIV_Config$scode_local_128, @function
	.text$ECCP_Filter_CLKDIV_Config$scode_local_128:
	.align	1
	.export	ECCP_Filter_CLKDIV_Config
	.type	ECCP_Filter_CLKDIV_Config, @function
ECCP_Filter_CLKDIV_Config:
.LFB128:
.LM1257:
	.cfi_startproc
.LVL1118:
	PUSH	{r6, r7, r8, r9, lr}
	.cfi_def_cfa_offset 20
	MOV	r8,r0
	MOV	r6,r1
	MOV	r9,r2
.LVL1119:
.LM1258:
	MOV	r0,#1
.LVL1120:
	LD	r5,#1073742592
	CMP	r8,r5
	JZ	.L855
	MOV	r0,#0
.L855:
	LD	r7,#CHECK_RESTRICTION
	LJMP	r7
.LVL1121:
.LM1259:
	MOV	r2,#2
	LSR	r5,r6,r2
	MOV	r0,#1
	CMP	r5,#0
	JZ	.L856
	MOV	r0,#0
.L856:
	LJMP	r7
.LVL1122:
.LM1260:
	MOV	r0,#1
	CMP	r9,#15
	JLS	.L857
	MOV	r0,#0
.L857:
	LJMP	r7
.LVL1123:
.LM1261:
	LSL	r9,#2
.LVL1124:
.LM1262:
	CMP	r6,#1
	JZ	.L860
	CMP	r6,#0
	JNZ	.L866
.LM1263:
	MOV	r3,r8
	LD.w	r4,[r3+#18]
.LVL1125:
.LBB396:
.LBB397:
.LM1264:
	MOV	r5,#30
	NOT	r5,r5
	ANL	r5,r4,r5
	MOV	r4,r9
.LVL1126:
	ORL	r5,r4,r5
.LBE397:
.LBE396:
.LM1265:
	ST.w	[r3+#18],r5
.LVL1127:
.L854:
.LM1266:
	POP	{r6, r7, r8, r9}
	.cfi_remember_state
	.cfi_def_cfa_offset 4
.LVL1128:
	POP	lr
	.cfi_def_cfa_offset 0
	JMP	lr
.LVL1129:
.L866:
	.cfi_restore_state
.LM1267:
	CMP	r6,#2
	JZ	.L861
	CMP	r6,#3
	JNZ	.L854
.LM1268:
	MOV	r5,r8
	LD.w	r4,[r5+#30]
.LVL1130:
.LBB398:
.LBB399:
.LM1269:
	MOV	r5,#30
	NOT	r5,r5
	ANL	r5,r4,r5
	MOV	r2,r9
	ORL	r5,r2,r5
.LBE399:
.LBE398:
.LM1270:
	MOV	r3,r8
	ST.w	[r3+#30],r5
.LM1271:
	POP	{r6, r7, r8, r9}
	.cfi_remember_state
	.cfi_def_cfa_offset 4
.LVL1131:
	POP	lr
	.cfi_def_cfa_offset 0
	JMP	lr
.LVL1132:
.L860:
	.cfi_restore_state
.LM1272:
	MOV	r5,r8
	LD.w	r4,[r5+#22]
.LVL1133:
.LBB400:
.LBB401:
.LM1273:
	MOV	r5,#30
	NOT	r5,r5
	ANL	r5,r4,r5
	MOV	r2,r9
	ORL	r5,r2,r5
.LBE401:
.LBE400:
.LM1274:
	MOV	r3,r8
	ST.w	[r3+#22],r5
.LM1275:
	POP	{r6, r7, r8, r9}
	.cfi_remember_state
	.cfi_def_cfa_offset 4
.LVL1134:
	POP	lr
	.cfi_def_cfa_offset 0
	JMP	lr
.LVL1135:
.L861:
	.cfi_restore_state
.LM1276:
	MOV	r3,r8
	LD.w	r4,[r3+#26]
.LVL1136:
.LBB402:
.LBB403:
.LM1277:
	MOV	r5,#30
	NOT	r5,r5
	ANL	r5,r4,r5
	MOV	r4,r9
.LVL1137:
	ORL	r5,r4,r5
.LBE403:
.LBE402:
.LM1278:
	ST.w	[r3+#26],r5
.LM1279:
	POP	{r6, r7, r8, r9}
	.cfi_def_cfa_offset 4
.LVL1138:
	POP	lr
	.cfi_def_cfa_offset 0
	JMP	lr
	.cfi_endproc
.LFE128:
	.size	ECCP_Filter_CLKDIV_Config, .-ECCP_Filter_CLKDIV_Config
	.section .text$ECCP_Fault_Function_Enable
	.type	.text$ECCP_Fault_Function_Enable$scode_local_129, @function
	.text$ECCP_Fault_Function_Enable$scode_local_129:
	.align	1
	.export	ECCP_Fault_Function_Enable
	.type	ECCP_Fault_Function_Enable, @function
ECCP_Fault_Function_Enable:
.LFB129:
.LM1280:
	.cfi_startproc
.LVL1139:
	PUSH	{r6, r7, r8, r9, lr}
	.cfi_def_cfa_offset 20
	MOV	r8,r0
	MOV	r6,r1
	MOV	r9,r2
.LVL1140:
.LM1281:
	MOV	r0,#1
.LVL1141:
	LD	r5,#1073742592
	CMP	r8,r5
	JZ	.L868
	MOV	r0,#0
.L868:
	LD	r7,#CHECK_RESTRICTION
	LJMP	r7
.LVL1142:
.LM1282:
	MOV	r2,#2
	LSR	r5,r6,r2
	MOV	r0,#1
	CMP	r5,#0
	JZ	.L869
	MOV	r0,#0
.L869:
	LJMP	r7
.LVL1143:
.LM1283:
	MOV	r0,#1
	CMP	r9,r0
	JLS	.L870
	MOV	r0,#0
.L870:
	LJMP	r7
.LVL1144:
.LM1284:
	CMP	r6,#1
	JZ	.L873
	CMP	r6,#0
	JNZ	.L879
.LM1285:
	MOV	r3,r8
	LD.w	r5,[r3+#18]
.LVL1145:
.LBB404:
.LBB405:
.LM1286:
	CLR	r5,#0
.LVL1146:
	MOV	r4,r9
	ORL	r5,r4,r5
.LBE405:
.LBE404:
.LM1287:
	ST.w	[r3+#18],r5
.LVL1147:
.L867:
.LM1288:
	POP	{r6, r7, r8, r9}
	.cfi_remember_state
	.cfi_def_cfa_offset 4
.LVL1148:
	POP	lr
	.cfi_def_cfa_offset 0
	JMP	lr
.LVL1149:
.L879:
	.cfi_restore_state
.LM1289:
	CMP	r6,#2
	JZ	.L874
	CMP	r6,#3
	JNZ	.L867
.LM1290:
	MOV	r3,r8
	LD.w	r5,[r3+#30]
.LVL1150:
.LBB406:
.LBB407:
.LM1291:
	CLR	r5,#0
.LVL1151:
	MOV	r4,r9
	ORL	r5,r4,r5
.LBE407:
.LBE406:
.LM1292:
	ST.w	[r3+#30],r5
.LM1293:
	POP	{r6, r7, r8, r9}
	.cfi_remember_state
	.cfi_def_cfa_offset 4
.LVL1152:
	POP	lr
	.cfi_def_cfa_offset 0
	JMP	lr
.LVL1153:
.L873:
	.cfi_restore_state
.LM1294:
	MOV	r2,r8
	LD.w	r5,[r2+#22]
.LVL1154:
.LBB408:
.LBB409:
.LM1295:
	CLR	r5,#0
.LVL1155:
	MOV	r3,r9
	ORL	r5,r3,r5
.LBE409:
.LBE408:
.LM1296:
	ST.w	[r2+#22],r5
.LM1297:
	POP	{r6, r7, r8, r9}
	.cfi_remember_state
	.cfi_def_cfa_offset 4
.LVL1156:
	POP	lr
	.cfi_def_cfa_offset 0
	JMP	lr
.LVL1157:
.L874:
	.cfi_restore_state
.LM1298:
	MOV	r4,r8
	LD.w	r5,[r4+#26]
.LVL1158:
.LBB410:
.LBB411:
.LM1299:
	CLR	r5,#0
.LVL1159:
	MOV	r2,r9
	ORL	r5,r2,r5
.LBE411:
.LBE410:
.LM1300:
	ST.w	[r4+#26],r5
.LM1301:
	POP	{r6, r7, r8, r9}
	.cfi_def_cfa_offset 4
.LVL1160:
	POP	lr
	.cfi_def_cfa_offset 0
	JMP	lr
	.cfi_endproc
.LFE129:
	.size	ECCP_Fault_Function_Enable, .-ECCP_Fault_Function_Enable
	.section .text$ECCP_Get_Fault_INT_Flag
	.type	.text$ECCP_Get_Fault_INT_Flag$scode_local_130, @function
	.text$ECCP_Get_Fault_INT_Flag$scode_local_130:
	.align	1
	.export	ECCP_Get_Fault_INT_Flag
	.type	ECCP_Get_Fault_INT_Flag, @function
ECCP_Get_Fault_INT_Flag:
.LFB130:
.LM1302:
	.cfi_startproc
.LVL1161:
	PUSH	{r6, r7, r8, lr}
	.cfi_def_cfa_offset 16
	MOV	r8,r0
	MOV	r6,r1
.LM1303:
	MOV	r0,#1
.LVL1162:
	LD	r4,#1073742592
	CMP	r8,r4
	JZ	.L881
	MOV	r0,#0
.L881:
	LD	r7,#CHECK_RESTRICTION
	LJMP	r7
.LVL1163:
.LM1304:
	MOV	r4,#2
	LSR	r5,r6,r4
	MOV	r0,#1
	CMP	r5,#0
	JZ	.L882
	MOV	r0,#0
.L882:
	LJMP	r7
.LVL1164:
.LM1305:
	CMP	r6,#1
	JZ	.L885
	CMP	r6,#0
	JNZ	.L893
.LM1306:
	MOV	r5,r8
	LD.w	r0,[r5+#18]
	MOV	r5,#255
	ADD	r5,r5,#1
	ANL	r0,r0,r5
	LSR	r0,#8
.LM1307:
	POP	{r6, r7, r8}
	.cfi_remember_state
	.cfi_def_cfa_offset 4
.LVL1165:
	POP	lr
	.cfi_def_cfa_offset 0
	JMP	lr
.LVL1166:
.L893:
	.cfi_restore_state
.LM1308:
	CMP	r6,#2
	JZ	.L886
	CMP	r6,#3
	JZ	.L894
.LM1309:
	POP	{r6, r7, r8}
	.cfi_remember_state
	.cfi_def_cfa_offset 4
.LVL1167:
	POP	lr
	.cfi_def_cfa_offset 0
	JMP	lr
.LVL1168:
.L894:
	.cfi_restore_state
.LM1310:
	MOV	r4,r8
	LD.w	r0,[r4+#30]
	MOV	r5,#255
	ADD	r5,r5,#1
	ANL	r0,r0,r5
	LSR	r0,#8
.LM1311:
	POP	{r6, r7, r8}
	.cfi_remember_state
	.cfi_def_cfa_offset 4
.LVL1169:
	POP	lr
	.cfi_def_cfa_offset 0
	JMP	lr
.LVL1170:
.L885:
	.cfi_restore_state
.LM1312:
	MOV	r4,r8
	LD.w	r0,[r4+#22]
	MOV	r5,#255
	ADD	r5,r5,#1
	ANL	r0,r0,r5
	LSR	r0,#8
.LM1313:
	POP	{r6, r7, r8}
	.cfi_remember_state
	.cfi_def_cfa_offset 4
.LVL1171:
	POP	lr
	.cfi_def_cfa_offset 0
	JMP	lr
.LVL1172:
.L886:
	.cfi_restore_state
.LM1314:
	MOV	r5,r8
	LD.w	r0,[r5+#26]
	MOV	r5,#255
	ADD	r5,r5,#1
	ANL	r0,r0,r5
	LSR	r0,#8
.LM1315:
	POP	{r6, r7, r8}
	.cfi_def_cfa_offset 4
.LVL1173:
	POP	lr
	.cfi_def_cfa_offset 0
	JMP	lr
	.cfi_endproc
.LFE130:
	.size	ECCP_Get_Fault_INT_Flag, .-ECCP_Get_Fault_INT_Flag
	.section .text$ECCP_Clear_Fault_INT_Flag
	.type	.text$ECCP_Clear_Fault_INT_Flag$scode_local_131, @function
	.text$ECCP_Clear_Fault_INT_Flag$scode_local_131:
	.align	1
	.export	ECCP_Clear_Fault_INT_Flag
	.type	ECCP_Clear_Fault_INT_Flag, @function
ECCP_Clear_Fault_INT_Flag:
.LFB131:
.LM1316:
	.cfi_startproc
.LVL1174:
	PUSH	{r6, r7, r8, lr}
	.cfi_def_cfa_offset 16
	MOV	r6,r0
	MOV	r7,r1
.LM1317:
	MOV	r0,#1
.LVL1175:
	LD	r5,#1073742592
	CMP	r6,r5
	JZ	.L896
	MOV	r0,#0
.L896:
	LD	r4,#CHECK_RESTRICTION
	MOV	r8,r4
	LJMP	r4
.LVL1176:
.LM1318:
	MOV	r4,#2
	LSR	r5,r7,r4
	MOV	r0,#1
	CMP	r5,#0
	JZ	.L897
	MOV	r0,#0
.L897:
	LJMP	r8
.LVL1177:
.LM1319:
	CMP	r7,#1
	JZ	.L900
	CMP	r7,#0
	JNZ	.L915
.LM1320:
	MOV	r5,#72
	ADD	r3,r6,r5
// inline asm begin
	// 3792 "../src/kf32a9k1xxx_atim.c" 1
	SET [r3], #7
	// 0 "" 2
.LM1321:
// inline asm end
	MOV	r4,#255
	ADD	r4,r4,#1
.L903:
.LM1322:
	LD.w	r5,[r6+#18]
	ANL	r5,r5,r4
	JNZ	.L903
.L914:
.LM1323:
// inline asm begin
	// 3809 "../src/kf32a9k1xxx_atim.c" 1
	CLR [r3], #7
	// 0 "" 2
// inline asm end
.L895:
.LM1324:
	POP	{r6, r7, r8}
	.cfi_remember_state
	.cfi_def_cfa_offset 4
.LVL1178:
	POP	lr
	.cfi_def_cfa_offset 0
	JMP	lr
.LVL1179:
.L915:
	.cfi_restore_state
.LM1325:
	CMP	r7,#2
	JZ	.L901
	CMP	r7,#3
	JNZ	.L895
.LM1326:
	MOV	r4,#120
	ADD	r3,r6,r4
// inline asm begin
	// 3807 "../src/kf32a9k1xxx_atim.c" 1
	SET [r3], #7
	// 0 "" 2
.LM1327:
// inline asm end
	MOV	r4,#255
	ADD	r4,r4,#1
.L906:
.LM1328:
	LD.w	r5,[r6+#30]
	ANL	r5,r5,r4
	JNZ	.L906
	JMP	.L914
.L900:
.LM1329:
	MOV	r4,#88
	ADD	r3,r6,r4
// inline asm begin
	// 3797 "../src/kf32a9k1xxx_atim.c" 1
	SET [r3], #7
	// 0 "" 2
.LM1330:
// inline asm end
	MOV	r4,#255
	ADD	r4,r4,#1
.L904:
.LM1331:
	LD.w	r5,[r6+#22]
	ANL	r5,r5,r4
	JNZ	.L904
	JMP	.L914
.L901:
.LM1332:
	MOV	r5,#104
	ADD	r3,r6,r5
// inline asm begin
	// 3802 "../src/kf32a9k1xxx_atim.c" 1
	SET [r3], #7
	// 0 "" 2
.LM1333:
// inline asm end
	MOV	r4,#255
	ADD	r4,r4,#1
.L905:
.LM1334:
	LD.w	r5,[r6+#26]
	ANL	r5,r5,r4
	JNZ	.L905
	JMP	.L914
	.cfi_endproc
.LFE131:
	.size	ECCP_Clear_Fault_INT_Flag, .-ECCP_Clear_Fault_INT_Flag
	.section .text$ECCP_Fault_INT_Enable
	.type	.text$ECCP_Fault_INT_Enable$scode_local_132, @function
	.text$ECCP_Fault_INT_Enable$scode_local_132:
	.align	1
	.export	ECCP_Fault_INT_Enable
	.type	ECCP_Fault_INT_Enable, @function
ECCP_Fault_INT_Enable:
.LFB132:
.LM1335:
	.cfi_startproc
.LVL1180:
	PUSH	{r6, r7, r8, r9, lr}
	.cfi_def_cfa_offset 20
	MOV	r8,r0
	MOV	r6,r1
	MOV	r9,r2
.LVL1181:
.LM1336:
	MOV	r0,#1
.LVL1182:
	LD	r5,#1073742592
	CMP	r8,r5
	JZ	.L917
	MOV	r0,#0
.L917:
	LD	r7,#CHECK_RESTRICTION
	LJMP	r7
.LVL1183:
.LM1337:
	MOV	r2,#2
	LSR	r5,r6,r2
	MOV	r0,#1
	CMP	r5,#0
	JZ	.L918
	MOV	r0,#0
.L918:
	LJMP	r7
.LVL1184:
.LM1338:
	MOV	r0,#1
	CMP	r9,r0
	JLS	.L919
	MOV	r0,#0
.L919:
	LJMP	r7
.LVL1185:
.LM1339:
	LSL	r9,#6
.LVL1186:
.LM1340:
	CMP	r6,#1
	JZ	.L922
	CMP	r6,#0
	JNZ	.L928
.LM1341:
	MOV	r3,r8
	LD.w	r5,[r3+#18]
.LVL1187:
.LBB412:
.LBB413:
.LM1342:
	CLR	r5,#6
.LVL1188:
	MOV	r4,r9
	ORL	r5,r4,r5
.LBE413:
.LBE412:
.LM1343:
	ST.w	[r3+#18],r5
.LVL1189:
.L916:
.LM1344:
	POP	{r6, r7, r8, r9}
	.cfi_remember_state
	.cfi_def_cfa_offset 4
.LVL1190:
	POP	lr
	.cfi_def_cfa_offset 0
	JMP	lr
.LVL1191:
.L928:
	.cfi_restore_state
.LM1345:
	CMP	r6,#2
	JZ	.L923
	CMP	r6,#3
	JNZ	.L916
.LM1346:
	MOV	r3,r8
	LD.w	r5,[r3+#30]
.LVL1192:
.LBB414:
.LBB415:
.LM1347:
	CLR	r5,#6
.LVL1193:
	MOV	r4,r9
	ORL	r5,r4,r5
.LBE415:
.LBE414:
.LM1348:
	ST.w	[r3+#30],r5
.LM1349:
	POP	{r6, r7, r8, r9}
	.cfi_remember_state
	.cfi_def_cfa_offset 4
.LVL1194:
	POP	lr
	.cfi_def_cfa_offset 0
	JMP	lr
.LVL1195:
.L922:
	.cfi_restore_state
.LM1350:
	MOV	r2,r8
	LD.w	r5,[r2+#22]
.LVL1196:
.LBB416:
.LBB417:
.LM1351:
	CLR	r5,#6
.LVL1197:
	MOV	r3,r9
	ORL	r5,r3,r5
.LBE417:
.LBE416:
.LM1352:
	ST.w	[r2+#22],r5
.LM1353:
	POP	{r6, r7, r8, r9}
	.cfi_remember_state
	.cfi_def_cfa_offset 4
.LVL1198:
	POP	lr
	.cfi_def_cfa_offset 0
	JMP	lr
.LVL1199:
.L923:
	.cfi_restore_state
.LM1354:
	MOV	r4,r8
	LD.w	r5,[r4+#26]
.LVL1200:
.LBB418:
.LBB419:
.LM1355:
	CLR	r5,#6
.LVL1201:
	MOV	r2,r9
	ORL	r5,r2,r5
.LBE419:
.LBE418:
.LM1356:
	ST.w	[r4+#26],r5
.LM1357:
	POP	{r6, r7, r8, r9}
	.cfi_def_cfa_offset 4
.LVL1202:
	POP	lr
	.cfi_def_cfa_offset 0
	JMP	lr
	.cfi_endproc
.LFE132:
	.size	ECCP_Fault_INT_Enable, .-ECCP_Fault_INT_Enable
	.section .text$ECCP_UNION_jitter_Enable
	.type	.text$ECCP_UNION_jitter_Enable$scode_local_133, @function
	.text$ECCP_UNION_jitter_Enable$scode_local_133:
	.align	1
	.export	ECCP_UNION_jitter_Enable
	.type	ECCP_UNION_jitter_Enable, @function
ECCP_UNION_jitter_Enable:
.LFB133:
.LM1358:
	.cfi_startproc
.LVL1203:
	PUSH	{r6, r7, r8, lr}
	.cfi_def_cfa_offset 16
	MOV	r6,r0
	MOV	r7,r1
.LVL1204:
.LM1359:
	MOV	r0,#1
.LVL1205:
	LD	r5,#1073742592
	CMP	r6,r5
	JZ	.L930
	MOV	r0,#0
.L930:
	LD	r5,#CHECK_RESTRICTION
	MOV	r8,r5
	LJMP	r5
.LVL1206:
.LM1360:
	MOV	r0,#1
	CMP	r7,r0
	JLS	.L931
	MOV	r0,#0
.L931:
	LJMP	r8
.LVL1207:
.LM1361:
	LD.w	r5,[r6+#19]
.LVL1208:
.LM1362:
	LSL	r7,#7
.LVL1209:
.LBB420:
.LBB421:
.LM1363:
	CLR	r5,#7
.LVL1210:
	ORL	r7,r7,r5
.LVL1211:
.LBE421:
.LBE420:
.LM1364:
	ST.w	[r6+#19],r7
.LM1365:
	POP	{r6, r7, r8}
	.cfi_def_cfa_offset 4
	POP	lr
	.cfi_def_cfa_offset 0
	JMP	lr
	.cfi_endproc
.LFE133:
	.size	ECCP_UNION_jitter_Enable, .-ECCP_UNION_jitter_Enable
	.section .text$ECCP_CYCLE_jitter_Enable
	.type	.text$ECCP_CYCLE_jitter_Enable$scode_local_134, @function
	.text$ECCP_CYCLE_jitter_Enable$scode_local_134:
	.align	1
	.export	ECCP_CYCLE_jitter_Enable
	.type	ECCP_CYCLE_jitter_Enable, @function
ECCP_CYCLE_jitter_Enable:
.LFB134:
.LM1366:
	.cfi_startproc
.LVL1212:
	PUSH	{r6, r7, r8, lr}
	.cfi_def_cfa_offset 16
	MOV	r6,r0
	MOV	r7,r1
.LVL1213:
.LM1367:
	MOV	r0,#1
.LVL1214:
	LD	r5,#1073742592
	CMP	r6,r5
	JZ	.L933
	MOV	r0,#0
.L933:
	LD	r5,#CHECK_RESTRICTION
	MOV	r8,r5
	LJMP	r5
.LVL1215:
.LM1368:
	MOV	r0,#1
	CMP	r7,r0
	JLS	.L934
	MOV	r0,#0
.L934:
	LJMP	r8
.LVL1216:
.LM1369:
	LD.w	r5,[r6+#19]
.LVL1217:
.LM1370:
	LSL	r7,#6
.LVL1218:
.LBB422:
.LBB423:
.LM1371:
	CLR	r5,#6
.LVL1219:
	ORL	r7,r7,r5
.LVL1220:
.LBE423:
.LBE422:
.LM1372:
	ST.w	[r6+#19],r7
.LM1373:
	POP	{r6, r7, r8}
	.cfi_def_cfa_offset 4
	POP	lr
	.cfi_def_cfa_offset 0
	JMP	lr
	.cfi_endproc
.LFE134:
	.size	ECCP_CYCLE_jitter_Enable, .-ECCP_CYCLE_jitter_Enable
	.section .text$ECCP_EDGE_jitter_Enable
	.type	.text$ECCP_EDGE_jitter_Enable$scode_local_135, @function
	.text$ECCP_EDGE_jitter_Enable$scode_local_135:
	.align	1
	.export	ECCP_EDGE_jitter_Enable
	.type	ECCP_EDGE_jitter_Enable, @function
ECCP_EDGE_jitter_Enable:
.LFB135:
.LM1374:
	.cfi_startproc
.LVL1221:
	PUSH	{r6, r7, r8, lr}
	.cfi_def_cfa_offset 16
	MOV	r6,r0
	MOV	r7,r1
.LVL1222:
.LM1375:
	MOV	r0,#1
.LVL1223:
	LD	r5,#1073742592
	CMP	r6,r5
	JZ	.L936
	MOV	r0,#0
.L936:
	LD	r5,#CHECK_RESTRICTION
	MOV	r8,r5
	LJMP	r5
.LVL1224:
.LM1376:
	MOV	r0,#1
	CMP	r7,r0
	JLS	.L937
	MOV	r0,#0
.L937:
	LJMP	r8
.LVL1225:
.LM1377:
	LD.w	r5,[r6+#19]
.LVL1226:
.LM1378:
	LSL	r7,#5
.LVL1227:
.LBB424:
.LBB425:
.LM1379:
	CLR	r5,#5
.LVL1228:
	ORL	r7,r7,r5
.LVL1229:
.LBE425:
.LBE424:
.LM1380:
	ST.w	[r6+#19],r7
.LM1381:
	POP	{r6, r7, r8}
	.cfi_def_cfa_offset 4
	POP	lr
	.cfi_def_cfa_offset 0
	JMP	lr
	.cfi_endproc
.LFE135:
	.size	ECCP_EDGE_jitter_Enable, .-ECCP_EDGE_jitter_Enable
	.section .text$ECCP_FRCVAL_Value_Config
	.type	.text$ECCP_FRCVAL_Value_Config$scode_local_136, @function
	.text$ECCP_FRCVAL_Value_Config$scode_local_136:
	.align	1
	.export	ECCP_FRCVAL_Value_Config
	.type	ECCP_FRCVAL_Value_Config, @function
ECCP_FRCVAL_Value_Config:
.LFB136:
.LM1382:
	.cfi_startproc
.LVL1230:
	PUSH	{r6, r7, r8, lr}
	.cfi_def_cfa_offset 16
	MOV	r6,r0
	ZXT.b	r7,r1
.LM1383:
	MOV	r0,#1
.LVL1231:
	LD	r5,#1073742592
	CMP	r6,r5
	JZ	.L939
	MOV	r0,#0
.L939:
	LD	r5,#CHECK_RESTRICTION
	MOV	r8,r5
	LJMP	r5
.LVL1232:
.LM1384:
	MOV	r0,#1
	CMP	r7,#31
	JLS	.L940
	MOV	r0,#0
.L940:
	LJMP	r8
.LVL1233:
.LM1385:
	LD.w	r4,[r6+#19]
.LVL1234:
.LBB426:
.LBB427:
.LM1386:
	MOV	r5,#31
	NOT	r5,r5
	ANL	r5,r4,r5
	ORL	r7,r7,r5
.LVL1235:
.LBE427:
.LBE426:
.LM1387:
	ST.w	[r6+#19],r7
.LM1388:
	POP	{r6, r7, r8}
	.cfi_def_cfa_offset 4
	POP	lr
	.cfi_def_cfa_offset 0
	JMP	lr
	.cfi_endproc
.LFE136:
	.size	ECCP_FRCVAL_Value_Config, .-ECCP_FRCVAL_Value_Config
	.section .text$ECCP_Tz_Triggle_AD_Driction_SEL
	.type	.text$ECCP_Tz_Triggle_AD_Driction_SEL$scode_local_137, @function
	.text$ECCP_Tz_Triggle_AD_Driction_SEL$scode_local_137:
	.align	1
	.export	ECCP_Tz_Triggle_AD_Driction_SEL
	.type	ECCP_Tz_Triggle_AD_Driction_SEL, @function
ECCP_Tz_Triggle_AD_Driction_SEL:
.LFB137:
.LM1389:
	.cfi_startproc
.LVL1236:
	PUSH	{r6, r7, r8, lr}
	.cfi_def_cfa_offset 16
	MOV	r6,r0
	MOV	r7,r1
.LVL1237:
.LM1390:
	MOV	r0,#1
.LVL1238:
	LD	r5,#1073742592
	CMP	r6,r5
	JZ	.L942
	MOV	r0,#0
.L942:
	LD	r5,#CHECK_RESTRICTION
	MOV	r8,r5
	LJMP	r5
.LVL1239:
.LM1391:
	MOV	r0,#1
	CMP	r7,r0
	JLS	.L943
	MOV	r0,#0
.L943:
	LJMP	r8
.LVL1240:
.LM1392:
	LD.w	r5,[r6+#23]
.LVL1241:
.LM1393:
	LSL	r7,#5
.LVL1242:
.LBB428:
.LBB429:
.LM1394:
	CLR	r5,#5
.LVL1243:
	ORL	r7,r7,r5
.LVL1244:
.LBE429:
.LBE428:
.LM1395:
	ST.w	[r6+#23],r7
.LM1396:
	POP	{r6, r7, r8}
	.cfi_def_cfa_offset 4
	POP	lr
	.cfi_def_cfa_offset 0
	JMP	lr
	.cfi_endproc
.LFE137:
	.size	ECCP_Tz_Triggle_AD_Driction_SEL, .-ECCP_Tz_Triggle_AD_Driction_SEL
	.section .text$ECCP_Tx_Triggle_AD_Driction_SEL
	.type	.text$ECCP_Tx_Triggle_AD_Driction_SEL$scode_local_138, @function
	.text$ECCP_Tx_Triggle_AD_Driction_SEL$scode_local_138:
	.align	1
	.export	ECCP_Tx_Triggle_AD_Driction_SEL
	.type	ECCP_Tx_Triggle_AD_Driction_SEL, @function
ECCP_Tx_Triggle_AD_Driction_SEL:
.LFB138:
.LM1397:
	.cfi_startproc
.LVL1245:
	PUSH	{r6, r7, r8, r9, lr}
	.cfi_def_cfa_offset 20
	MOV	r6,r0
	MOV	r8,r2
	ZXT.b	r9,r1
.LVL1246:
.LM1398:
	MOV	r0,#1
.LVL1247:
	LD	r5,#1073742592
	CMP	r6,r5
	JZ	.L945
	MOV	r0,#0
.L945:
	LD	r7,#CHECK_RESTRICTION
	LJMP	r7
.LVL1248:
.LM1399:
	MOV	r0,#1
	CMP	r9,r0
	JLS	.L946
	MOV	r0,#0
.L946:
	LJMP	r7
.LVL1249:
.LM1400:
	MOV	r0,#1
	CMP	r8,r0
	JLS	.L947
	MOV	r0,#0
.L947:
	LJMP	r7
.LVL1250:
.LM1401:
	LD.w	r5,[r6+#23]
.LM1402:
	CMP	r9,#0
	JZ	.L950
.LVL1251:
.LM1403:
	LSL	r8,#4
.LVL1252:
.LBB430:
.LBB431:
.LM1404:
	CLR	r5,#4
.LVL1253:
	MOV	r4,r8
	ORL	r5,r4,r5
.LBE431:
.LBE430:
.LM1405:
	ST.w	[r6+#23],r5
.LM1406:
	POP	{r6, r7, r8, r9}
	.cfi_remember_state
	.cfi_def_cfa_offset 4
.LVL1254:
	POP	lr
	.cfi_def_cfa_offset 0
	JMP	lr
.LVL1255:
.L950:
	.cfi_restore_state
.LM1407:
	LSL	r8,#3
.LVL1256:
.LBB432:
.LBB433:
.LM1408:
	CLR	r5,#3
.LVL1257:
	MOV	r4,r8
	ORL	r5,r4,r5
.LBE433:
.LBE432:
.LM1409:
	ST.w	[r6+#23],r5
.LM1410:
	POP	{r6, r7, r8, r9}
	.cfi_def_cfa_offset 4
.LVL1258:
	POP	lr
	.cfi_def_cfa_offset 0
	JMP	lr
	.cfi_endproc
.LFE138:
	.size	ECCP_Tx_Triggle_AD_Driction_SEL, .-ECCP_Tx_Triggle_AD_Driction_SEL
	.section .text$ECCP_Tz_Triggle_AD_Driction_Enable
	.type	.text$ECCP_Tz_Triggle_AD_Driction_Enable$scode_local_139, @function
	.text$ECCP_Tz_Triggle_AD_Driction_Enable$scode_local_139:
	.align	1
	.export	ECCP_Tz_Triggle_AD_Driction_Enable
	.type	ECCP_Tz_Triggle_AD_Driction_Enable, @function
ECCP_Tz_Triggle_AD_Driction_Enable:
.LFB139:
.LM1411:
	.cfi_startproc
.LVL1259:
	PUSH	{r6, r7, r8, lr}
	.cfi_def_cfa_offset 16
	MOV	r6,r0
	MOV	r7,r1
.LVL1260:
.LM1412:
	MOV	r0,#1
.LVL1261:
	LD	r5,#1073742592
	CMP	r6,r5
	JZ	.L952
	MOV	r0,#0
.L952:
	LD	r5,#CHECK_RESTRICTION
	MOV	r8,r5
	LJMP	r5
.LVL1262:
.LM1413:
	MOV	r0,#1
	CMP	r7,r0
	JLS	.L953
	MOV	r0,#0
.L953:
	LJMP	r8
.LVL1263:
.LM1414:
	LD.w	r5,[r6+#23]
.LVL1264:
.LM1415:
	LSL	r7,#2
.LVL1265:
.LBB434:
.LBB435:
.LM1416:
	CLR	r5,#2
.LVL1266:
	ORL	r7,r7,r5
.LVL1267:
.LBE435:
.LBE434:
.LM1417:
	ST.w	[r6+#23],r7
.LM1418:
	POP	{r6, r7, r8}
	.cfi_def_cfa_offset 4
	POP	lr
	.cfi_def_cfa_offset 0
	JMP	lr
	.cfi_endproc
.LFE139:
	.size	ECCP_Tz_Triggle_AD_Driction_Enable, .-ECCP_Tz_Triggle_AD_Driction_Enable
	.section .text$ECCP_Tx_Triggle_AD_Driction_Enable
	.type	.text$ECCP_Tx_Triggle_AD_Driction_Enable$scode_local_140, @function
	.text$ECCP_Tx_Triggle_AD_Driction_Enable$scode_local_140:
	.align	1
	.export	ECCP_Tx_Triggle_AD_Driction_Enable
	.type	ECCP_Tx_Triggle_AD_Driction_Enable, @function
ECCP_Tx_Triggle_AD_Driction_Enable:
.LFB140:
.LM1419:
	.cfi_startproc
.LVL1268:
	PUSH	{r6, r7, r8, r9, lr}
	.cfi_def_cfa_offset 20
	MOV	r6,r0
	MOV	r8,r2
	ZXT.b	r9,r1
.LVL1269:
.LM1420:
	MOV	r0,#1
.LVL1270:
	LD	r5,#1073742592
	CMP	r6,r5
	JZ	.L955
	MOV	r0,#0
.L955:
	LD	r7,#CHECK_RESTRICTION
	LJMP	r7
.LVL1271:
.LM1421:
	MOV	r0,#1
	CMP	r9,r0
	JLS	.L956
	MOV	r0,#0
.L956:
	LJMP	r7
.LVL1272:
.LM1422:
	MOV	r0,#1
	CMP	r8,r0
	JLS	.L957
	MOV	r0,#0
.L957:
	LJMP	r7
.LVL1273:
.LM1423:
	LD.w	r5,[r6+#23]
.LM1424:
	CMP	r9,#0
	JZ	.L960
.LVL1274:
.LM1425:
	ADD	r8,r8
.LVL1275:
.LBB436:
.LBB437:
.LM1426:
	CLR	r5,#1
.LVL1276:
	MOV	r4,r8
	ORL	r5,r4,r5
.LBE437:
.LBE436:
.LM1427:
	ST.w	[r6+#23],r5
.LM1428:
	POP	{r6, r7, r8, r9}
	.cfi_remember_state
	.cfi_def_cfa_offset 4
.LVL1277:
	POP	lr
	.cfi_def_cfa_offset 0
	JMP	lr
.LVL1278:
.L960:
	.cfi_restore_state
.LBB438:
.LBB439:
.LM1429:
	CLR	r5,#0
.LVL1279:
	MOV	r4,r8
	ORL	r5,r4,r5
.LBE439:
.LBE438:
.LM1430:
	ST.w	[r6+#23],r5
.LM1431:
	POP	{r6, r7, r8, r9}
	.cfi_def_cfa_offset 4
.LVL1280:
	POP	lr
	.cfi_def_cfa_offset 0
	JMP	lr
	.cfi_endproc
.LFE140:
	.size	ECCP_Tx_Triggle_AD_Driction_Enable, .-ECCP_Tx_Triggle_AD_Driction_Enable
	.section .text$ECCP_Channel_INT_Enable
	.type	.text$ECCP_Channel_INT_Enable$scode_local_141, @function
	.text$ECCP_Channel_INT_Enable$scode_local_141:
	.align	1
	.export	ECCP_Channel_INT_Enable
	.type	ECCP_Channel_INT_Enable, @function
ECCP_Channel_INT_Enable:
.LFB141:
.LM1432:
	.cfi_startproc
.LVL1281:
	PUSH	{r6, r7, r8, r9, lr}
	.cfi_def_cfa_offset 20
	MOV	r6,r0
	MOV	r8,r1
	MOV	r9,r2
.LM1433:
	MOV	r0,#1
.LVL1282:
	LD	r5,#1073742592
	CMP	r6,r5
	JZ	.L962
	MOV	r0,#0
.L962:
	LD	r7,#CHECK_RESTRICTION
	LJMP	r7
.LVL1283:
.LM1434:
	MOV	r5,r8
	LSR	r5,#2
	MOV	r0,#1
	CMP	r5,#0
	JZ	.L963
	MOV	r0,#0
.L963:
	LJMP	r7
.LVL1284:
.LM1435:
	MOV	r0,#1
	CMP	r9,r0
	JLS	.L964
	MOV	r0,#0
.L964:
	LJMP	r7
.LVL1285:
.LM1436:
	MOV	r5,#188
	LD.w	r4,[r6+r5]
	MOV	r3,#1
	LSL	r3,r8
	MOV	r8,r3
.LVL1286:
.LM1437:
	CMP	r9,#0
	JNZ	.L970
.LM1438:
	NOT	r8,r3
	ANL	r8,r4
	//++++
	PUSH r6
	ADD r6,r5 
	ST.W [r6],r8
	POP r6
	//replace_ST.x [r6+r5],r8
.LM1439:
	POP	{r6, r7, r8, r9}
	.cfi_remember_state
	.cfi_def_cfa_offset 4
.LVL1287:
	POP	lr
	.cfi_def_cfa_offset 0
	JMP	lr
.LVL1288:
.L970:
	.cfi_restore_state
.LM1440:
	ORL	r8,r4
	//++++
	PUSH r6
	ADD r6,r5 
	ST.W [r6],r8
	POP r6
	//replace_ST.x [r6+r5],r8
.LM1441:
	POP	{r6, r7, r8, r9}
	.cfi_def_cfa_offset 4
.LVL1289:
	POP	lr
	.cfi_def_cfa_offset 0
	JMP	lr
	.cfi_endproc
.LFE141:
	.size	ECCP_Channel_INT_Enable, .-ECCP_Channel_INT_Enable
	.section .text$ECCP_X_Turn_off_DMA_Enable
	.type	.text$ECCP_X_Turn_off_DMA_Enable$scode_local_142, @function
	.text$ECCP_X_Turn_off_DMA_Enable$scode_local_142:
	.align	1
	.export	ECCP_X_Turn_off_DMA_Enable
	.type	ECCP_X_Turn_off_DMA_Enable, @function
ECCP_X_Turn_off_DMA_Enable:
.LFB142:
.LM1442:
	.cfi_startproc
.LVL1290:
	PUSH	{r6, r7, r8, lr}
	.cfi_def_cfa_offset 16
	MOV	r6,r0
	MOV	r7,r1
.LM1443:
	MOV	r0,#1
.LVL1291:
	LD	r5,#1073742592
	CMP	r6,r5
	JZ	.L972
	MOV	r0,#0
.L972:
	LD	r5,#CHECK_RESTRICTION
	MOV	r8,r5
	LJMP	r5
.LVL1292:
.LM1444:
	MOV	r0,#1
	CMP	r7,r0
	JLS	.L973
	MOV	r0,#0
.L973:
	LJMP	r8
.LVL1293:
.LM1445:
	MOV	r5,#228
	ADD	r6,r6,r5
.LVL1294:
.LM1446:
	CMP	r7,#0
	JNZ	.L976
.LM1447:
// inline asm begin
	// 4129 "../src/kf32a9k1xxx_atim.c" 1
	CLR [r6], #4
	// 0 "" 2
.LM1448:
// inline asm end
	POP	{r6, r7, r8}
	.cfi_remember_state
	.cfi_def_cfa_offset 4
.LVL1295:
	POP	lr
	.cfi_def_cfa_offset 0
	JMP	lr
.LVL1296:
.L976:
	.cfi_restore_state
.LM1449:
// inline asm begin
	// 4124 "../src/kf32a9k1xxx_atim.c" 1
	SET [r6], #4
	// 0 "" 2
.LM1450:
// inline asm end
	POP	{r6, r7, r8}
	.cfi_def_cfa_offset 4
.LVL1297:
	POP	lr
	.cfi_def_cfa_offset 0
	JMP	lr
	.cfi_endproc
.LFE142:
	.size	ECCP_X_Turn_off_DMA_Enable, .-ECCP_X_Turn_off_DMA_Enable
	.section .text$ECCP_Channel_DMA_Enable
	.type	.text$ECCP_Channel_DMA_Enable$scode_local_143, @function
	.text$ECCP_Channel_DMA_Enable$scode_local_143:
	.align	1
	.export	ECCP_Channel_DMA_Enable
	.type	ECCP_Channel_DMA_Enable, @function
ECCP_Channel_DMA_Enable:
.LFB143:
.LM1451:
	.cfi_startproc
.LVL1298:
	PUSH	{r6, r7, r8, r9, lr}
	.cfi_def_cfa_offset 20
	MOV	r6,r0
	MOV	r8,r1
	MOV	r9,r2
.LM1452:
	MOV	r0,#1
.LVL1299:
	LD	r5,#1073742592
	CMP	r6,r5
	JZ	.L978
	MOV	r0,#0
.L978:
	LD	r7,#CHECK_RESTRICTION
	LJMP	r7
.LVL1300:
.LM1453:
	MOV	r5,r8
	LSR	r5,#2
	MOV	r0,#1
	CMP	r5,#0
	JZ	.L979
	MOV	r0,#0
.L979:
	LJMP	r7
.LVL1301:
.LM1454:
	MOV	r0,#1
	CMP	r9,r0
	JLS	.L980
	MOV	r0,#0
.L980:
	LJMP	r7
.LVL1302:
.LM1455:
	MOV	r5,#228
	LD.w	r4,[r6+r5]
	MOV	r3,#1
	LSL	r3,r8
	MOV	r8,r3
.LVL1303:
.LM1456:
	CMP	r9,#0
	JNZ	.L986
.LM1457:
	NOT	r8,r3
	ANL	r8,r4
	//++++
	PUSH r6
	ADD r6,r5 
	ST.W [r6],r8
	POP r6
	//replace_ST.x [r6+r5],r8
.LM1458:
	POP	{r6, r7, r8, r9}
	.cfi_remember_state
	.cfi_def_cfa_offset 4
.LVL1304:
	POP	lr
	.cfi_def_cfa_offset 0
	JMP	lr
.LVL1305:
.L986:
	.cfi_restore_state
.LM1459:
	ORL	r8,r4
	//++++
	PUSH r6
	ADD r6,r5 
	ST.W [r6],r8
	POP r6
	//replace_ST.x [r6+r5],r8
.LM1460:
	POP	{r6, r7, r8, r9}
	.cfi_def_cfa_offset 4
.LVL1306:
	POP	lr
	.cfi_def_cfa_offset 0
	JMP	lr
	.cfi_endproc
.LFE143:
	.size	ECCP_Channel_DMA_Enable, .-ECCP_Channel_DMA_Enable
	.section .text$ECCP_Get_Channel_Trigger_INT_Flag
	.type	.text$ECCP_Get_Channel_Trigger_INT_Flag$scode_local_144, @function
	.text$ECCP_Get_Channel_Trigger_INT_Flag$scode_local_144:
	.align	1
	.export	ECCP_Get_Channel_Trigger_INT_Flag
	.type	ECCP_Get_Channel_Trigger_INT_Flag, @function
ECCP_Get_Channel_Trigger_INT_Flag:
.LFB144:
.LM1461:
	.cfi_startproc
.LVL1307:
	PUSH	{r6, r7, lr}
	.cfi_def_cfa_offset 12
	MOV	r6,r0
	MOV	r7,r1
.LVL1308:
.LM1462:
	MOV	r0,#1
.LVL1309:
	LD	r5,#1073742592
	CMP	r6,r5
	JZ	.L988
	MOV	r0,#0
.L988:
	LD	r5,#CHECK_RESTRICTION
	LJMP	r5
.LVL1310:
.LM1463:
	MOV	r5,#192
	LD.w	r5,[r6+r5]
.LM1464:
	MOV	r1,#64
	LSL	r1,r1,r7
.LVL1311:
.LM1465:
	ANL	r1,r1,r5
.LVL1312:
	MOV	r5,#0
	SUB	r5,r5,r1
	ORL	r0,r5,r1
.LM1466:
	LSR	r0,#31
	POP	{r6, r7}
	.cfi_def_cfa_offset 4
.LVL1313:
	POP	lr
	.cfi_def_cfa_offset 0
	JMP	lr
	.cfi_endproc
.LFE144:
	.size	ECCP_Get_Channel_Trigger_INT_Flag, .-ECCP_Get_Channel_Trigger_INT_Flag
	.section .text$ECCP_X_Get_Turn_off_DMA_Flag
	.type	.text$ECCP_X_Get_Turn_off_DMA_Flag$scode_local_145, @function
	.text$ECCP_X_Get_Turn_off_DMA_Flag$scode_local_145:
	.align	1
	.export	ECCP_X_Get_Turn_off_DMA_Flag
	.type	ECCP_X_Get_Turn_off_DMA_Flag, @function
ECCP_X_Get_Turn_off_DMA_Flag:
.LFB145:
.LM1467:
	.cfi_startproc
.LVL1314:
	PUSH	{r6, lr}
	.cfi_def_cfa_offset 8
	MOV	r6,r0
.LM1468:
	MOV	r0,#1
.LVL1315:
	LD	r5,#1073742592
	CMP	r6,r5
	JZ	.L990
	MOV	r0,#0
.L990:
	LD	r5,#CHECK_RESTRICTION
	LJMP	r5
.LVL1316:
.LM1469:
	MOV	r5,#204
	LD.w	r0,[r6+r5]
	LSR	r0,#4
.LM1470:
	MOV	r5,#1
	ANL	r0,r0,r5
	POP	r6
	.cfi_def_cfa_offset 4
.LVL1317:
	POP	lr
	.cfi_def_cfa_offset 0
	JMP	lr
	.cfi_endproc
.LFE145:
	.size	ECCP_X_Get_Turn_off_DMA_Flag, .-ECCP_X_Get_Turn_off_DMA_Flag
	.section .text$ECCP_Get_Trigger_DMA_INT_Flag
	.type	.text$ECCP_Get_Trigger_DMA_INT_Flag$scode_local_146, @function
	.text$ECCP_Get_Trigger_DMA_INT_Flag$scode_local_146:
	.align	1
	.export	ECCP_Get_Trigger_DMA_INT_Flag
	.type	ECCP_Get_Trigger_DMA_INT_Flag, @function
ECCP_Get_Trigger_DMA_INT_Flag:
.LFB146:
.LM1471:
	.cfi_startproc
.LVL1318:
	PUSH	{r6, r7, lr}
	.cfi_def_cfa_offset 12
	MOV	r6,r0
	MOV	r7,r1
.LVL1319:
.LM1472:
	MOV	r0,#1
.LVL1320:
	LD	r5,#1073742592
	CMP	r6,r5
	JZ	.L992
	MOV	r0,#0
.L992:
	LD	r5,#CHECK_RESTRICTION
	LJMP	r5
.LVL1321:
.LM1473:
	MOV	r5,#204
	LD.w	r5,[r6+r5]
.LM1474:
	MOV	r1,#1
	LSL	r1,r1,r7
.LVL1322:
.LM1475:
	ANL	r1,r1,r5
.LVL1323:
	MOV	r5,#0
	SUB	r5,r5,r1
	ORL	r0,r5,r1
.LM1476:
	LSR	r0,#31
	POP	{r6, r7}
	.cfi_def_cfa_offset 4
.LVL1324:
	POP	lr
	.cfi_def_cfa_offset 0
	JMP	lr
	.cfi_endproc
.LFE146:
	.size	ECCP_Get_Trigger_DMA_INT_Flag, .-ECCP_Get_Trigger_DMA_INT_Flag
	.section .text$ECCP_Clear_Channel_INT_Flag
	.type	.text$ECCP_Clear_Channel_INT_Flag$scode_local_147, @function
	.text$ECCP_Clear_Channel_INT_Flag$scode_local_147:
	.align	1
	.export	ECCP_Clear_Channel_INT_Flag
	.type	ECCP_Clear_Channel_INT_Flag, @function
ECCP_Clear_Channel_INT_Flag:
.LFB147:
.LM1477:
	.cfi_startproc
.LVL1325:
	PUSH	{r6, r7, r8, lr}
	.cfi_def_cfa_offset 16
	MOV	r6,r0
	MOV	r7,r1
.LVL1326:
.LM1478:
	MOV	r0,#1
.LVL1327:
	LD	r5,#1073742592
	CMP	r6,r5
	JZ	.L994
	MOV	r0,#0
.L994:
	LD	r4,#CHECK_RESTRICTION
	MOV	r8,r4
	LJMP	r4
.LVL1328:
.LM1479:
	MOV	r4,#2
	LSR	r5,r7,r4
	MOV	r0,#1
	CMP	r5,#0
	JZ	.L995
	MOV	r0,#0
.L995:
	LJMP	r8
.LVL1329:
.LM1480:
	MOV	r2,#1
	LSL	r2,r2,r7
.LVL1330:
.LM1481:
	MOV	r3,#64
	LSL	r3,r3,r7
.LVL1331:
.LM1482:
	MOV	r5,#232
	LD.w	r4,[r6+r5]
	ORL	r4,r2,r4
	ST.w	[r6+r5],r4
	ADD	r1,r7,#6
.LM1483:
	MOV	r4,#192
.L996:
.LM1484:
	LD.w	r5,[r6+r4]
	ANL	r5,r3,r5
	LSR	r5,r5,r1
	CMP	r5,#0
	JNZ	.L996
.LM1485:
	MOV	r5,#232
	LD.w	r4,[r6+r5]
	NOT	r2,r2
.LVL1332:
	ANL	r2,r2,r4
.LVL1333:
	ST.w	[r6+r5],r2
.LM1486:
	POP	{r6, r7, r8}
	.cfi_def_cfa_offset 4
.LVL1334:
	POP	lr
	.cfi_def_cfa_offset 0
	JMP	lr
	.cfi_endproc
.LFE147:
	.size	ECCP_Clear_Channel_INT_Flag, .-ECCP_Clear_Channel_INT_Flag
	.section .text$ECCP_PWM_Move_Phase_Enable
	.type	.text$ECCP_PWM_Move_Phase_Enable$scode_local_148, @function
	.text$ECCP_PWM_Move_Phase_Enable$scode_local_148:
	.align	1
	.export	ECCP_PWM_Move_Phase_Enable
	.type	ECCP_PWM_Move_Phase_Enable, @function
ECCP_PWM_Move_Phase_Enable:
.LFB148:
.LM1487:
	.cfi_startproc
.LVL1335:
	PUSH	{r6, r7, r8, lr}
	.cfi_def_cfa_offset 16
	MOV	r6,r0
	MOV	r7,r1
.LM1488:
	MOV	r0,#1
.LVL1336:
	LD	r5,#1073742592
	CMP	r6,r5
	JZ	.L1002
	MOV	r0,#0
.L1002:
	LD	r5,#CHECK_RESTRICTION
	MOV	r8,r5
	LJMP	r5
.LVL1337:
.LM1489:
	MOV	r0,#1
	CMP	r7,r0
	JLS	.L1003
	MOV	r0,#0
.L1003:
	LJMP	r8
.LVL1338:
.LM1490:
	MOV	r5,#148
	ADD	r6,r6,r5
.LVL1339:
.LM1491:
	CMP	r7,#0
	JNZ	.L1006
.LM1492:
// inline asm begin
	// 4314 "../src/kf32a9k1xxx_atim.c" 1
	CLR [r6], #6
	// 0 "" 2
.LM1493:
// inline asm end
	POP	{r6, r7, r8}
	.cfi_remember_state
	.cfi_def_cfa_offset 4
.LVL1340:
	POP	lr
	.cfi_def_cfa_offset 0
	JMP	lr
.LVL1341:
.L1006:
	.cfi_restore_state
.LM1494:
// inline asm begin
	// 4309 "../src/kf32a9k1xxx_atim.c" 1
	SET [r6], #6
	// 0 "" 2
.LM1495:
// inline asm end
	POP	{r6, r7, r8}
	.cfi_def_cfa_offset 4
.LVL1342:
	POP	lr
	.cfi_def_cfa_offset 0
	JMP	lr
	.cfi_endproc
.LFE148:
	.size	ECCP_PWM_Move_Phase_Enable, .-ECCP_PWM_Move_Phase_Enable
	.section .text$ECCP_Channel_Zero_Detect_Sequential_Ctl
	.type	.text$ECCP_Channel_Zero_Detect_Sequential_Ctl$scode_local_149, @function
	.text$ECCP_Channel_Zero_Detect_Sequential_Ctl$scode_local_149:
	.align	1
	.export	ECCP_Channel_Zero_Detect_Sequential_Ctl
	.type	ECCP_Channel_Zero_Detect_Sequential_Ctl, @function
ECCP_Channel_Zero_Detect_Sequential_Ctl:
.LFB149:
.LM1496:
	.cfi_startproc
.LVL1343:
	PUSH	{r6, r7, r8, r9, lr}
	.cfi_def_cfa_offset 20
	MOV	r6,r0
	MOV	r7,r1
	MOV	r9,r2
.LVL1344:
.LM1497:
	MOV	r0,#1
.LVL1345:
	LD	r5,#1073742592
	CMP	r6,r5
	JZ	.L1008
	MOV	r0,#0
.L1008:
	LD	r4,#CHECK_RESTRICTION
	MOV	r8,r4
	LJMP	r4
.LVL1346:
.LM1498:
	MOV	r4,#2
	LSR	r5,r7,r4
	MOV	r0,#1
	CMP	r5,#0
	JZ	.L1009
	MOV	r0,#0
.L1009:
	LJMP	r8
.LVL1347:
.LM1499:
	MOV	r0,#1
	CMP	r9,r0
	JLS	.L1010
	MOV	r0,#0
.L1010:
	LJMP	r8
.LVL1348:
.LM1500:
	MOV	r5,#176
	LD.w	r3,[r6+r5]
.LVL1349:
.LM1501:
	MOV	r4,#16
	LSL	r4,r4,r7
.LM1502:
	NOT	r4,r4
.LVL1350:
.LBB440:
.LBB441:
.LM1503:
	ANL	r4,r4,r3
.LVL1351:
.LBE441:
.LBE440:
.LM1504:
	ADD	r7,r7,#4
.LVL1352:
	LSL	r9,r7
.LVL1353:
.LBB443:
.LBB442:
.LM1505:
	ORL	r4,r9
.LBE442:
.LBE443:
.LM1506:
	ST.w	[r6+r5],r4
.LM1507:
	POP	{r6, r7, r8, r9}
	.cfi_def_cfa_offset 4
.LVL1354:
	POP	lr
	.cfi_def_cfa_offset 0
	JMP	lr
	.cfi_endproc
.LFE149:
	.size	ECCP_Channel_Zero_Detect_Sequential_Ctl, .-ECCP_Channel_Zero_Detect_Sequential_Ctl
	.section .text$ECCP_Get_Channel_Zero_Detection_State
	.type	.text$ECCP_Get_Channel_Zero_Detection_State$scode_local_150, @function
	.text$ECCP_Get_Channel_Zero_Detection_State$scode_local_150:
	.align	1
	.export	ECCP_Get_Channel_Zero_Detection_State
	.type	ECCP_Get_Channel_Zero_Detection_State, @function
ECCP_Get_Channel_Zero_Detection_State:
.LFB150:
.LM1508:
	.cfi_startproc
.LVL1355:
	PUSH	{r6, r7, r8, lr}
	.cfi_def_cfa_offset 16
	MOV	r7,r0
	MOV	r6,r1
.LVL1356:
.LM1509:
	MOV	r0,#1
.LVL1357:
	LD	r5,#1073742592
	CMP	r7,r5
	JZ	.L1015
	MOV	r0,#0
.L1015:
	LD	r4,#CHECK_RESTRICTION
	MOV	r8,r4
	LJMP	r4
.LVL1358:
.LM1510:
	MOV	r4,#2
	LSR	r5,r6,r4
	MOV	r0,#1
	CMP	r5,#0
	JZ	.L1016
	MOV	r0,#0
.L1016:
	LJMP	r8
.LVL1359:
.LM1511:
	MOV	r5,#176
	LD.w	r5,[r7+r5]
.LM1512:
	MOV	r4,#1
	LSL	r6,r4,r6
.LVL1360:
.LM1513:
	ANL	r6,r6,r5
.LVL1361:
	MOV	r5,#0
	SUB	r5,r5,r6
	ORL	r0,r5,r6
.LM1514:
	LSR	r0,#31
	POP	{r6, r7, r8}
	.cfi_def_cfa_offset 4
.LVL1362:
	POP	lr
	.cfi_def_cfa_offset 0
	JMP	lr
	.cfi_endproc
.LFE150:
	.size	ECCP_Get_Channel_Zero_Detection_State, .-ECCP_Get_Channel_Zero_Detection_State
	.section .text$ECCP_Clear_Channel_Zero_Detection_State
	.type	.text$ECCP_Clear_Channel_Zero_Detection_State$scode_local_151, @function
	.text$ECCP_Clear_Channel_Zero_Detection_State$scode_local_151:
	.align	1
	.export	ECCP_Clear_Channel_Zero_Detection_State
	.type	ECCP_Clear_Channel_Zero_Detection_State, @function
ECCP_Clear_Channel_Zero_Detection_State:
.LFB151:
.LM1515:
	.cfi_startproc
.LVL1363:
	PUSH	{r6, r7, r8, lr}
	.cfi_def_cfa_offset 16
	MOV	r6,r0
	MOV	r7,r1
.LVL1364:
.LM1516:
	MOV	r0,#1
.LVL1365:
	LD	r5,#1073742592
	CMP	r6,r5
	JZ	.L1021
	MOV	r0,#0
.L1021:
	LD	r4,#CHECK_RESTRICTION
	MOV	r8,r4
	LJMP	r4
.LVL1366:
.LM1517:
	MOV	r4,#2
	LSR	r5,r7,r4
	MOV	r0,#1
	CMP	r5,#0
	JZ	.L1022
	MOV	r0,#0
.L1022:
	LJMP	r8
.LVL1367:
.LM1518:
	MOV	r5,#176
	LD.w	r4,[r6+r5]
.LM1519:
	MOV	r3,#1
	LSL	r7,r3,r7
.LVL1368:
.LM1520:
	NOT	r7,r7
.LVL1369:
	ANL	r7,r7,r4
.LVL1370:
	ST.w	[r6+r5],r7
.LM1521:
	POP	{r6, r7, r8}
	.cfi_def_cfa_offset 4
	POP	lr
	.cfi_def_cfa_offset 0
	JMP	lr
	.cfi_endproc
.LFE151:
	.size	ECCP_Clear_Channel_Zero_Detection_State, .-ECCP_Clear_Channel_Zero_Detection_State
	.section .text$ECCP_Channel_Zero_Detect_Enable
	.type	.text$ECCP_Channel_Zero_Detect_Enable$scode_local_152, @function
	.text$ECCP_Channel_Zero_Detect_Enable$scode_local_152:
	.align	1
	.export	ECCP_Channel_Zero_Detect_Enable
	.type	ECCP_Channel_Zero_Detect_Enable, @function
ECCP_Channel_Zero_Detect_Enable:
.LFB152:
.LM1522:
	.cfi_startproc
.LVL1371:
	PUSH	{r6, r7, r8, r9, lr}
	.cfi_def_cfa_offset 20
	MOV	r6,r0
	MOV	r7,r1
	MOV	r9,r2
.LVL1372:
.LM1523:
	MOV	r0,#1
.LVL1373:
	LD	r5,#1073742592
	CMP	r6,r5
	JZ	.L1027
	MOV	r0,#0
.L1027:
	LD	r4,#CHECK_RESTRICTION
	MOV	r8,r4
	LJMP	r4
.LVL1374:
.LM1524:
	MOV	r4,#2
	LSR	r5,r7,r4
	MOV	r0,#1
	CMP	r5,#0
	JZ	.L1028
	MOV	r0,#0
.L1028:
	LJMP	r8
.LVL1375:
.LM1525:
	MOV	r0,#1
	CMP	r9,r0
	JLS	.L1029
	MOV	r0,#0
.L1029:
	LJMP	r8
.LVL1376:
.LM1526:
	MOV	r5,#180
	LD.w	r3,[r6+r5]
.LVL1377:
.LM1527:
	MOV	r4,#1
	LSL	r4,#12
	LSL	r4,r4,r7
.LM1528:
	NOT	r4,r4
.LBB444:
.LBB445:
.LM1529:
	ANL	r4,r4,r3
.LBE445:
.LBE444:
.LM1530:
	ADD	r7,#12
.LVL1378:
	LSL	r9,r7
.LVL1379:
.LBB447:
.LBB446:
.LM1531:
	ORL	r4,r9
.LBE446:
.LBE447:
.LM1532:
	ST.w	[r6+r5],r4
.LM1533:
	POP	{r6, r7, r8, r9}
	.cfi_def_cfa_offset 4
.LVL1380:
	POP	lr
	.cfi_def_cfa_offset 0
	JMP	lr
	.cfi_endproc
.LFE152:
	.size	ECCP_Channel_Zero_Detect_Enable, .-ECCP_Channel_Zero_Detect_Enable
	.section .text$ECCP_Channel_Zero_Voltage_Config
	.type	.text$ECCP_Channel_Zero_Voltage_Config$scode_local_153, @function
	.text$ECCP_Channel_Zero_Voltage_Config$scode_local_153:
	.align	1
	.export	ECCP_Channel_Zero_Voltage_Config
	.type	ECCP_Channel_Zero_Voltage_Config, @function
ECCP_Channel_Zero_Voltage_Config:
.LFB153:
.LM1534:
	.cfi_startproc
.LVL1381:
	PUSH	{r6, r7, r8, r9, lr}
	.cfi_def_cfa_offset 20
	MOV	r6,r0
	MOV	r9,r1
	MOV	r8,r2
.LVL1382:
.LM1535:
	MOV	r0,#1
.LVL1383:
	LD	r5,#1073742592
	CMP	r6,r5
	JZ	.L1034
	MOV	r0,#0
.L1034:
	LD	r7,#CHECK_RESTRICTION
	LJMP	r7
.LVL1384:
.LM1536:
	MOV	r5,r9
	LSR	r5,#2
	MOV	r0,#1
	CMP	r5,#0
	JZ	.L1035
	MOV	r0,#0
.L1035:
	LJMP	r7
.LVL1385:
.LM1537:
	MOV	r0,#1
	CMP	r8,#4
	JLS	.L1036
	MOV	r0,#0
.L1036:
	LJMP	r7
.LVL1386:
.LM1538:
	MOV	r4,#3
	MOV	r5,r9
	MULS	r4,r5,r4 ;
	NOP
.LVL1387:
.LM1539:
	MOV	r5,#180
	LD.w	r3,[r6+r5]
.LVL1388:
.LM1540:
	MOV	r9,#7
.LVL1389:
	LSL	r9,r4
.LM1541:
	NOT	r9,r9
.LVL1390:
.LBB448:
.LBB449:
.LM1542:
	ANL	r9,r3
.LVL1391:
.LBE449:
.LBE448:
.LM1543:
	LSL	r8,r4
.LVL1392:
.LBB451:
.LBB450:
.LM1544:
	MOV	r4,r9
.LVL1393:
	ORL	r4,r8
.LBE450:
.LBE451:
.LM1545:
	ST.w	[r6+r5],r4
.LM1546:
	POP	{r6, r7, r8, r9}
	.cfi_def_cfa_offset 4
.LVL1394:
	POP	lr
	.cfi_def_cfa_offset 0
	JMP	lr
	.cfi_endproc
.LFE153:
	.size	ECCP_Channel_Zero_Voltage_Config, .-ECCP_Channel_Zero_Voltage_Config
	.text	
.Letext0: