	.file	"kf32a9k1xxx_aes.c"
	.text	
.Ltext0:
	.cfi_sections	.debug_frame
	.section .text$AES_Reset
	.type	.text$AES_Reset$scode_local_1, @function
	.text$AES_Reset$scode_local_1:
	.align	1
	.export	AES_Reset
	.type	AES_Reset, @function
AES_Reset:
.LFB1:
.LM1:
	.cfi_startproc
	PUSH	{r6, r7, lr}
	.cfi_def_cfa_offset 12
.LM2:
	MOV	r6,#1
	LSL	r6,#14
	MOV	r0,r6
	MOV	r1,#1
	LD	r7,#RST_CTL3_Peripheral_Reset_Enable
	LJMP	r7
.LVL0:
.LM3:
	MOV	r0,r6
	MOV	r1,#0
	LJMP	r7
.LVL1:
.LM4:
	MOV	r0,r6
	MOV	r1,#1
	LD	r5,#PCLK_CTL3_Peripheral_Clock_Enable
	LJMP	r5
.LVL2:
.LM5:
	POP	{r6, r7}
	.cfi_def_cfa_offset 4
	POP	lr
	.cfi_def_cfa_offset 0
	JMP	lr
	.cfi_endproc
.LFE1:
	.size	AES_Reset, .-AES_Reset
	.section .text$AES_Run_Enable
	.type	.text$AES_Run_Enable$scode_local_2, @function
	.text$AES_Run_Enable$scode_local_2:
	.align	1
	.export	AES_Run_Enable
	.type	AES_Run_Enable, @function
AES_Run_Enable:
.LFB2:
.LM6:
	.cfi_startproc
.LVL3:
	PUSH	{r6, lr}
	.cfi_def_cfa_offset 8
	MOV	r6,r0
.LM7:
	MOV	r0,#1
.LVL4:
	CMP	r6,r0
	JLS	.L3
	MOV	r0,#0
.L3:
	LD	r5,#CHECK_RESTRICTION
	LJMP	r5
.LVL5:
.LM8:
	LD	r5,#1073751808
	LD.w	r4,[r5]
.LVL6:
	LSL	r6,#31
.LVL7:
.LBB26:
.LBB27:
.LM9:
	CLR	r4,#31
.LVL8:
	ORL	r6,r6,r4
.LVL9:
.LBE27:
.LBE26:
.LM10:
	ST.w	[r5],r6
.LM11:
	POP	r6
	.cfi_def_cfa_offset 4
	POP	lr
	.cfi_def_cfa_offset 0
	JMP	lr
	.cfi_endproc
.LFE2:
	.size	AES_Run_Enable, .-AES_Run_Enable
	.section .text$AES_High_Speed_Enable
	.type	.text$AES_High_Speed_Enable$scode_local_3, @function
	.text$AES_High_Speed_Enable$scode_local_3:
	.align	1
	.export	AES_High_Speed_Enable
	.type	AES_High_Speed_Enable, @function
AES_High_Speed_Enable:
.LFB3:
.LM12:
	.cfi_startproc
.LVL10:
	PUSH	{r6, lr}
	.cfi_def_cfa_offset 8
	MOV	r6,r0
.LM13:
	MOV	r0,#1
.LVL11:
	CMP	r6,r0
	JLS	.L6
	MOV	r0,#0
.L6:
	LD	r5,#CHECK_RESTRICTION
	LJMP	r5
.LVL12:
.LM14:
	LD	r5,#1073751808
	LD.w	r4,[r5]
.LVL13:
	LSL	r6,#30
.LVL14:
.LBB28:
.LBB29:
.LM15:
	CLR	r4,#30
.LVL15:
	ORL	r6,r6,r4
.LVL16:
.LBE29:
.LBE28:
.LM16:
	ST.w	[r5],r6
.LM17:
	POP	r6
	.cfi_def_cfa_offset 4
	POP	lr
	.cfi_def_cfa_offset 0
	JMP	lr
	.cfi_endproc
.LFE3:
	.size	AES_High_Speed_Enable, .-AES_High_Speed_Enable
	.section .text$AES_CBC_Mode_Select
	.type	.text$AES_CBC_Mode_Select$scode_local_4, @function
	.text$AES_CBC_Mode_Select$scode_local_4:
	.align	1
	.export	AES_CBC_Mode_Select
	.type	AES_CBC_Mode_Select, @function
AES_CBC_Mode_Select:
.LFB4:
.LM18:
	.cfi_startproc
.LVL17:
	PUSH	{r6, lr}
	.cfi_def_cfa_offset 8
	MOV	r6,r0
.LM19:
	MOV	r0,#1
.LVL18:
	CMP	r6,r0
	JLS	.L8
	MOV	r0,#0
.L8:
	LD	r5,#CHECK_RESTRICTION
	LJMP	r5
.LVL19:
.LM20:
	LD	r5,#1073751808
	LD.w	r4,[r5]
.LVL20:
	LSL	r6,#20
.LVL21:
.LBB30:
.LBB31:
.LM21:
	CLR	r4,#20
.LVL22:
	ORL	r6,r6,r4
.LVL23:
.LBE31:
.LBE30:
.LM22:
	ST.w	[r5],r6
.LM23:
	POP	r6
	.cfi_def_cfa_offset 4
	POP	lr
	.cfi_def_cfa_offset 0
	JMP	lr
	.cfi_endproc
.LFE4:
	.size	AES_CBC_Mode_Select, .-AES_CBC_Mode_Select
	.section .text$AES_TRNG_SCK_Select
	.type	.text$AES_TRNG_SCK_Select$scode_local_5, @function
	.text$AES_TRNG_SCK_Select$scode_local_5:
	.align	1
	.export	AES_TRNG_SCK_Select
	.type	AES_TRNG_SCK_Select, @function
AES_TRNG_SCK_Select:
.LFB5:
.LM24:
	.cfi_startproc
.LVL24:
	PUSH	{r6, lr}
	.cfi_def_cfa_offset 8
	MOV	r6,r0
.LM25:
	MOV	r0,#1
.LVL25:
	CMP	r6,#3
	JLS	.L10
	MOV	r0,#0
.L10:
	LD	r5,#CHECK_RESTRICTION
	LJMP	r5
.LVL26:
.LM26:
	LD	r5,#1073751808
	LD.w	r4,[r5]
.LVL27:
	LSL	r6,#16
.LVL28:
.LBB32:
.LBB33:
.LM27:
	CLR	r4,#16
	CLR	r4,#17
.LVL29:
	ORL	r6,r6,r4
.LVL30:
.LBE33:
.LBE32:
.LM28:
	ST.w	[r5],r6
.LM29:
	POP	r6
	.cfi_def_cfa_offset 4
	POP	lr
	.cfi_def_cfa_offset 0
	JMP	lr
	.cfi_endproc
.LFE5:
	.size	AES_TRNG_SCK_Select, .-AES_TRNG_SCK_Select
	.section .text$AES_SCK_DIV_Select
	.type	.text$AES_SCK_DIV_Select$scode_local_6, @function
	.text$AES_SCK_DIV_Select$scode_local_6:
	.align	1
	.export	AES_SCK_DIV_Select
	.type	AES_SCK_DIV_Select, @function
AES_SCK_DIV_Select:
.LFB6:
.LM30:
	.cfi_startproc
.LVL31:
	PUSH	{r6, lr}
	.cfi_def_cfa_offset 8
	MOV	r6,r0
.LM31:
	MOV	r0,#1
.LVL32:
	CMP	r6,#7
	JLS	.L12
	MOV	r0,#0
.L12:
	LD	r5,#CHECK_RESTRICTION
	LJMP	r5
.LVL33:
.LM32:
	LD	r5,#1073751808
	LD.w	r3,[r5]
.LVL34:
	LSL	r6,#13
.LVL35:
.LBB34:
.LBB35:
.LM33:
	LD	r4,#-57345
	ANL	r4,r3,r4
	ORL	r6,r6,r4
.LVL36:
.LBE35:
.LBE34:
.LM34:
	ST.w	[r5],r6
.LM35:
	POP	r6
	.cfi_def_cfa_offset 4
	POP	lr
	.cfi_def_cfa_offset 0
	JMP	lr
	.cfi_endproc
.LFE6:
	.size	AES_SCK_DIV_Select, .-AES_SCK_DIV_Select
	.section .text$AES_RND_NUM_Config
	.type	.text$AES_RND_NUM_Config$scode_local_7, @function
	.text$AES_RND_NUM_Config$scode_local_7:
	.align	1
	.export	AES_RND_NUM_Config
	.type	AES_RND_NUM_Config, @function
AES_RND_NUM_Config:
.LFB7:
.LM36:
	.cfi_startproc
.LVL37:
	PUSH	{r6, lr}
	.cfi_def_cfa_offset 8
	MOV	r6,r0
.LM37:
	MOV	r0,#1
.LVL38:
	CMP	r6,#31
	JLS	.L14
	MOV	r0,#0
.L14:
	LD	r5,#CHECK_RESTRICTION
	LJMP	r5
.LVL39:
.LM38:
	LD	r5,#1073751808
	LD.w	r3,[r5]
.LVL40:
	LSL	r6,#8
.LVL41:
.LBB36:
.LBB37:
.LM39:
	LD	r4,#-7937
	ANL	r4,r3,r4
	ORL	r6,r6,r4
.LVL42:
.LBE37:
.LBE36:
.LM40:
	ST.w	[r5],r6
.LM41:
	POP	r6
	.cfi_def_cfa_offset 4
	POP	lr
	.cfi_def_cfa_offset 0
	JMP	lr
	.cfi_endproc
.LFE7:
	.size	AES_RND_NUM_Config, .-AES_RND_NUM_Config
	.section .text$AES_KEY_LEN_Config
	.type	.text$AES_KEY_LEN_Config$scode_local_8, @function
	.text$AES_KEY_LEN_Config$scode_local_8:
	.align	1
	.export	AES_KEY_LEN_Config
	.type	AES_KEY_LEN_Config, @function
AES_KEY_LEN_Config:
.LFB8:
.LM42:
	.cfi_startproc
.LVL43:
	PUSH	{r6, lr}
	.cfi_def_cfa_offset 8
	MOV	r6,r0
.LM43:
	MOV	r0,#1
.LVL44:
	CMP	r6,#7
	JLS	.L16
	MOV	r0,#0
.L16:
	LD	r5,#CHECK_RESTRICTION
	LJMP	r5
.LVL45:
.LM44:
	LD	r5,#1073751808
	LD.w	r3,[r5]
.LVL46:
	LSL	r6,#4
.LVL47:
.LBB38:
.LBB39:
.LM45:
	MOV	r4,#112
	NOT	r4,r4
	ANL	r4,r3,r4
	ORL	r6,r6,r4
.LVL48:
.LBE39:
.LBE38:
.LM46:
	ST.w	[r5],r6
.LM47:
	POP	r6
	.cfi_def_cfa_offset 4
	POP	lr
	.cfi_def_cfa_offset 0
	JMP	lr
	.cfi_endproc
.LFE8:
	.size	AES_KEY_LEN_Config, .-AES_KEY_LEN_Config
	.section .text$AES_SBOX_INV_Enable
	.type	.text$AES_SBOX_INV_Enable$scode_local_9, @function
	.text$AES_SBOX_INV_Enable$scode_local_9:
	.align	1
	.export	AES_SBOX_INV_Enable
	.type	AES_SBOX_INV_Enable, @function
AES_SBOX_INV_Enable:
.LFB9:
.LM48:
	.cfi_startproc
.LVL49:
	PUSH	{r6, lr}
	.cfi_def_cfa_offset 8
	MOV	r6,r0
.LM49:
	MOV	r0,#1
.LVL50:
	CMP	r6,r0
	JLS	.L18
	MOV	r0,#0
.L18:
	LD	r5,#CHECK_RESTRICTION
	LJMP	r5
.LVL51:
.LM50:
	LD	r5,#1073751808
	LD.w	r4,[r5]
.LVL52:
	LSL	r6,#3
.LVL53:
.LBB40:
.LBB41:
.LM51:
	CLR	r4,#3
.LVL54:
	ORL	r6,r6,r4
.LVL55:
.LBE41:
.LBE40:
.LM52:
	ST.w	[r5],r6
.LM53:
	POP	r6
	.cfi_def_cfa_offset 4
	POP	lr
	.cfi_def_cfa_offset 0
	JMP	lr
	.cfi_endproc
.LFE9:
	.size	AES_SBOX_INV_Enable, .-AES_SBOX_INV_Enable
	.section .text$AES_ENCRYPT_Function_Enable
	.type	.text$AES_ENCRYPT_Function_Enable$scode_local_10, @function
	.text$AES_ENCRYPT_Function_Enable$scode_local_10:
	.align	1
	.export	AES_ENCRYPT_Function_Enable
	.type	AES_ENCRYPT_Function_Enable, @function
AES_ENCRYPT_Function_Enable:
.LFB10:
.LM54:
	.cfi_startproc
.LVL56:
	PUSH	{r6, lr}
	.cfi_def_cfa_offset 8
	MOV	r6,r0
.LM55:
	MOV	r0,#1
.LVL57:
	CMP	r6,r0
	JLS	.L20
	MOV	r0,#0
.L20:
	LD	r5,#CHECK_RESTRICTION
	LJMP	r5
.LVL58:
.LM56:
	LD	r5,#1073751808
	LD.w	r4,[r5]
.LVL59:
	LSL	r6,#2
.LVL60:
.LBB42:
.LBB43:
.LM57:
	CLR	r4,#2
.LVL61:
	ORL	r6,r6,r4
.LVL62:
.LBE43:
.LBE42:
.LM58:
	ST.w	[r5],r6
.LM59:
	POP	r6
	.cfi_def_cfa_offset 4
	POP	lr
	.cfi_def_cfa_offset 0
	JMP	lr
	.cfi_endproc
.LFE10:
	.size	AES_ENCRYPT_Function_Enable, .-AES_ENCRYPT_Function_Enable
	.section .text$AES_CUSTOMIZE_ALGORITHM_Enable
	.type	.text$AES_CUSTOMIZE_ALGORITHM_Enable$scode_local_11, @function
	.text$AES_CUSTOMIZE_ALGORITHM_Enable$scode_local_11:
	.align	1
	.export	AES_CUSTOMIZE_ALGORITHM_Enable
	.type	AES_CUSTOMIZE_ALGORITHM_Enable, @function
AES_CUSTOMIZE_ALGORITHM_Enable:
.LFB11:
.LM60:
	.cfi_startproc
.LVL63:
	PUSH	{r6, lr}
	.cfi_def_cfa_offset 8
	MOV	r6,r0
.LM61:
	MOV	r0,#1
.LVL64:
	CMP	r6,r0
	JLS	.L22
	MOV	r0,#0
.L22:
	LD	r5,#CHECK_RESTRICTION
	LJMP	r5
.LVL65:
.LM62:
	LD	r5,#1073751808
	LD.w	r4,[r5]
.LVL66:
	ADD	r6,r6,r6
.LVL67:
.LBB44:
.LBB45:
.LM63:
	CLR	r4,#1
.LVL68:
	ORL	r6,r6,r4
.LBE45:
.LBE44:
.LM64:
	ST.w	[r5],r6
.LM65:
	POP	r6
	.cfi_def_cfa_offset 4
	POP	lr
	.cfi_def_cfa_offset 0
	JMP	lr
	.cfi_endproc
.LFE11:
	.size	AES_CUSTOMIZE_ALGORITHM_Enable, .-AES_CUSTOMIZE_ALGORITHM_Enable
	.section .text$AES_Enable
	.type	.text$AES_Enable$scode_local_12, @function
	.text$AES_Enable$scode_local_12:
	.align	1
	.export	AES_Enable
	.type	AES_Enable, @function
AES_Enable:
.LFB12:
.LM66:
	.cfi_startproc
.LVL69:
	PUSH	{r6, lr}
	.cfi_def_cfa_offset 8
	MOV	r6,r0
.LM67:
	MOV	r0,#1
.LVL70:
	CMP	r6,r0
	JLS	.L24
	MOV	r0,#0
.L24:
	LD	r5,#CHECK_RESTRICTION
	LJMP	r5
.LVL71:
.LM68:
	LD	r5,#1073751808
	LD.w	r4,[r5]
.LVL72:
.LBB46:
.LBB47:
.LM69:
	CLR	r4,#0
.LVL73:
	ORL	r6,r6,r4
.LVL74:
.LBE47:
.LBE46:
.LM70:
	ST.w	[r5],r6
.LM71:
	POP	r6
	.cfi_def_cfa_offset 4
	POP	lr
	.cfi_def_cfa_offset 0
	JMP	lr
	.cfi_endproc
.LFE12:
	.size	AES_Enable, .-AES_Enable
	.section .text$AES_Get_INT_Flag
	.type	.text$AES_Get_INT_Flag$scode_local_13, @function
	.text$AES_Get_INT_Flag$scode_local_13:
	.align	1
	.export	AES_Get_INT_Flag
	.type	AES_Get_INT_Flag, @function
AES_Get_INT_Flag:
.LFB13:
.LM72:
	.cfi_startproc
.LM73:
	LD	r5,#1073751808
	LD.w	r0,[r5+#1]
	LSR	r0,#2
.LM74:
	MOV	r5,#1
	ANL	r0,r0,r5
	JMP	lr
	.cfi_endproc
.LFE13:
	.size	AES_Get_INT_Flag, .-AES_Get_INT_Flag
	.section .text$AES_Clear_INT_Flag
	.type	.text$AES_Clear_INT_Flag$scode_local_14, @function
	.text$AES_Clear_INT_Flag$scode_local_14:
	.align	1
	.export	AES_Clear_INT_Flag
	.type	AES_Clear_INT_Flag, @function
AES_Clear_INT_Flag:
.LFB14:
.LM75:
	.cfi_startproc
.LM76:
	LD	r5,#1073751812
// inline asm begin
	// 240 "../src/kf32a9k1xxx_aes.c" 1
	SET [r5], #1
	// 0 "" 2
.LM77:
// inline asm end
	LD	r3,#1073751808
	MOV	r4,#4
.L27:
.LM78:
	LD.w	r5,[r3+#1]
	ANL	r5,r5,r4
	JNZ	.L27
.LM79:
	LD	r5,#1073751812
// inline asm begin
	// 242 "../src/kf32a9k1xxx_aes.c" 1
	CLR [r5], #1
	// 0 "" 2
.LM80:
// inline asm end
	JMP	lr
	.cfi_endproc
.LFE14:
	.size	AES_Clear_INT_Flag, .-AES_Clear_INT_Flag
	.section .text$AES_INT_Enable
	.type	.text$AES_INT_Enable$scode_local_15, @function
	.text$AES_INT_Enable$scode_local_15:
	.align	1
	.export	AES_INT_Enable
	.type	AES_INT_Enable, @function
AES_INT_Enable:
.LFB15:
.LM81:
	.cfi_startproc
.LVL75:
	PUSH	{r6, lr}
	.cfi_def_cfa_offset 8
	MOV	r6,r0
.LM82:
	MOV	r0,#1
.LVL76:
	CMP	r6,r0
	JLS	.L30
	MOV	r0,#0
.L30:
	LD	r5,#CHECK_RESTRICTION
	LJMP	r5
.LVL77:
.LM83:
	LD	r5,#1073751808
	LD.w	r4,[r5+#1]
.LVL78:
.LBB48:
.LBB49:
.LM84:
	CLR	r4,#0
.LVL79:
	ORL	r6,r6,r4
.LVL80:
.LBE49:
.LBE48:
.LM85:
	ST.w	[r5+#1],r6
.LM86:
	POP	r6
	.cfi_def_cfa_offset 4
	POP	lr
	.cfi_def_cfa_offset 0
	JMP	lr
	.cfi_endproc
.LFE15:
	.size	AES_INT_Enable, .-AES_INT_Enable
	.section .text$AES_INPUT0_DATA
	.type	.text$AES_INPUT0_DATA$scode_local_16, @function
	.text$AES_INPUT0_DATA$scode_local_16:
	.align	1
	.export	AES_INPUT0_DATA
	.type	AES_INPUT0_DATA, @function
AES_INPUT0_DATA:
.LFB16:
.LM87:
	.cfi_startproc
.LVL81:
.LM88:
	LD	r5,#1073751808
	ST.w	[r5+#4],r0
.LM89:
	JMP	lr
	.cfi_endproc
.LFE16:
	.size	AES_INPUT0_DATA, .-AES_INPUT0_DATA
	.section .text$AES_INPUT1_DATA
	.type	.text$AES_INPUT1_DATA$scode_local_17, @function
	.text$AES_INPUT1_DATA$scode_local_17:
	.align	1
	.export	AES_INPUT1_DATA
	.type	AES_INPUT1_DATA, @function
AES_INPUT1_DATA:
.LFB17:
.LM90:
	.cfi_startproc
.LVL82:
.LM91:
	LD	r5,#1073751808
	ST.w	[r5+#5],r0
.LM92:
	JMP	lr
	.cfi_endproc
.LFE17:
	.size	AES_INPUT1_DATA, .-AES_INPUT1_DATA
	.section .text$AES_INPUT2_DATA
	.type	.text$AES_INPUT2_DATA$scode_local_18, @function
	.text$AES_INPUT2_DATA$scode_local_18:
	.align	1
	.export	AES_INPUT2_DATA
	.type	AES_INPUT2_DATA, @function
AES_INPUT2_DATA:
.LFB18:
.LM93:
	.cfi_startproc
.LVL83:
.LM94:
	LD	r5,#1073751808
	ST.w	[r5+#6],r0
.LM95:
	JMP	lr
	.cfi_endproc
.LFE18:
	.size	AES_INPUT2_DATA, .-AES_INPUT2_DATA
	.section .text$AES_INPUT3_DATA
	.type	.text$AES_INPUT3_DATA$scode_local_19, @function
	.text$AES_INPUT3_DATA$scode_local_19:
	.align	1
	.export	AES_INPUT3_DATA
	.type	AES_INPUT3_DATA, @function
AES_INPUT3_DATA:
.LFB19:
.LM96:
	.cfi_startproc
.LVL84:
.LM97:
	LD	r5,#1073751808
	ST.w	[r5+#7],r0
.LM98:
	JMP	lr
	.cfi_endproc
.LFE19:
	.size	AES_INPUT3_DATA, .-AES_INPUT3_DATA
	.section .text$GET_AES_OUTPUT0_DATA
	.type	.text$GET_AES_OUTPUT0_DATA$scode_local_20, @function
	.text$GET_AES_OUTPUT0_DATA$scode_local_20:
	.align	1
	.export	GET_AES_OUTPUT0_DATA
	.type	GET_AES_OUTPUT0_DATA, @function
GET_AES_OUTPUT0_DATA:
.LFB20:
.LM99:
	.cfi_startproc
.LM100:
	LD	r5,#1073751808
	LD.w	r0,[r5+#8]
.LVL85:
.LM101:
	JMP	lr
	.cfi_endproc
.LFE20:
	.size	GET_AES_OUTPUT0_DATA, .-GET_AES_OUTPUT0_DATA
	.section .text$GET_AES_OUTPUT1_DATA
	.type	.text$GET_AES_OUTPUT1_DATA$scode_local_21, @function
	.text$GET_AES_OUTPUT1_DATA$scode_local_21:
	.align	1
	.export	GET_AES_OUTPUT1_DATA
	.type	GET_AES_OUTPUT1_DATA, @function
GET_AES_OUTPUT1_DATA:
.LFB21:
.LM102:
	.cfi_startproc
.LM103:
	LD	r5,#1073751808
	LD.w	r0,[r5+#9]
.LVL86:
.LM104:
	JMP	lr
	.cfi_endproc
.LFE21:
	.size	GET_AES_OUTPUT1_DATA, .-GET_AES_OUTPUT1_DATA
	.section .text$GET_AES_OUTPUT2_DATA
	.type	.text$GET_AES_OUTPUT2_DATA$scode_local_22, @function
	.text$GET_AES_OUTPUT2_DATA$scode_local_22:
	.align	1
	.export	GET_AES_OUTPUT2_DATA
	.type	GET_AES_OUTPUT2_DATA, @function
GET_AES_OUTPUT2_DATA:
.LFB22:
.LM105:
	.cfi_startproc
.LM106:
	LD	r5,#1073751808
	LD.w	r0,[r5+#10]
.LVL87:
.LM107:
	JMP	lr
	.cfi_endproc
.LFE22:
	.size	GET_AES_OUTPUT2_DATA, .-GET_AES_OUTPUT2_DATA
	.section .text$GET_AES_OUTPUT3_DATA
	.type	.text$GET_AES_OUTPUT3_DATA$scode_local_23, @function
	.text$GET_AES_OUTPUT3_DATA$scode_local_23:
	.align	1
	.export	GET_AES_OUTPUT3_DATA
	.type	GET_AES_OUTPUT3_DATA, @function
GET_AES_OUTPUT3_DATA:
.LFB23:
.LM108:
	.cfi_startproc
.LM109:
	LD	r5,#1073751808
	LD.w	r0,[r5+#11]
.LVL88:
.LM110:
	JMP	lr
	.cfi_endproc
.LFE23:
	.size	GET_AES_OUTPUT3_DATA, .-GET_AES_OUTPUT3_DATA
	.text	
.Letext0: