	.file	"kf32a9k1xxx_gpio.c"
	.text	
.Ltext0:
	.cfi_sections	.debug_frame
	.section .text$GPIO_Reset
	.type	.text$GPIO_Reset$scode_local_1, @function
	.text$GPIO_Reset$scode_local_1:
	.align	1
	.export	GPIO_Reset
	.type	GPIO_Reset, @function
GPIO_Reset:
.LFB1:
.LM1:
	.cfi_startproc
.LVL0:
	PUSH	{r6, lr}
	.cfi_def_cfa_offset 8
.LM2:
	LD	r5,#1342177280
	CMP	r0,r5
	JZ	.L2
.LM3:
	MOV	r5,#1
	LD	r4,#1342177344
	CMP	r0,r4
	JZ	.L3
.LM4:
	LD	r4,#1342177408
	CMP	r0,r4
	JZ	.L3
	LD	r4,#1342177472
	CMP	r0,r4
	JZ	.L3
	LD	r4,#1342177536
	CMP	r0,r4
	JZ	.L3
	LD	r4,#1342177600
	CMP	r0,r4
	JZ	.L3
	LD	r4,#1342177664
	CMP	r0,r4
	JZ	.L3
	LD	r4,#1342177728
	CMP	r0,r4
	JZ	.L3
	MOV	r5,#0
.L3:
.LM5:
	MOV	r0,r5
.LVL1:
	LD	r5,#CHECK_RESTRICTION
	LJMP	r5
.LVL2:
.LM6:
	POP	r6
	.cfi_remember_state
	.cfi_def_cfa_offset 4
	POP	lr
	.cfi_def_cfa_offset 0
	JMP	lr
.LVL3:
.L2:
	.cfi_restore_state
.LM7:
	MOV	r0,#1
.LVL4:
	LD	r5,#CHECK_RESTRICTION
	LJMP	r5
.LVL5:
.LM8:
	MOV	r0,#1
	MOV	r1,r0
	LD	r6,#RST_CTL0_Peripheral_Reset_Enable
	LJMP	r6
.LVL6:
.LM9:
	MOV	r0,#1
	MOV	r1,#0
	LJMP	r6
.LVL7:
.LM10:
	MOV	r0,#1
	MOV	r1,r0
	LD	r5,#PCLK_CTL0_Peripheral_Clock_Enable
	LJMP	r5
.LVL8:
.LM11:
	POP	r6
	.cfi_def_cfa_offset 4
	POP	lr
	.cfi_def_cfa_offset 0
	JMP	lr
	.cfi_endproc
.LFE1:
	.size	GPIO_Reset, .-GPIO_Reset
	.section .text$GPIO_Configuration
	.type	.text$GPIO_Configuration$scode_local_2, @function
	.text$GPIO_Configuration$scode_local_2:
	.align	1
	.export	GPIO_Configuration
	.type	GPIO_Configuration, @function
GPIO_Configuration:
.LFB2:
.LM12:
	.cfi_startproc
.LVL9:
	PUSH	{r6, r7, r8, r9, r10, r11, r12, lr}
	.cfi_def_cfa_offset 32
	MOV	r7,r0
	MOV	r8,r1
.LVL10:
.LM13:
	MOV	r0,#1
.LVL11:
	LD	r5,#1342177280
	CMP	r7,r5
	JZ	.L14
.LM14:
	LD	r5,#1342177344
	CMP	r7,r5
	JZ	.L14
.LM15:
	LD	r5,#1342177408
	CMP	r7,r5
	JZ	.L14
	LD	r5,#1342177472
	CMP	r7,r5
	JZ	.L14
	LD	r5,#1342177536
	CMP	r7,r5
	JZ	.L14
	LD	r5,#1342177600
	CMP	r7,r5
	JZ	.L14
	LD	r5,#1342177664
	CMP	r7,r5
	JZ	.L14
	LD	r5,#1342177728
	CMP	r7,r5
	JZ	.L14
	MOV	r0,#0
.L14:
.LM16:
	LD	r1,#CHECK_RESTRICTION
.LVL12:
	MOV	r12,r1
	LJMP	r1
.LVL13:
.LM17:
	MOV	r2,r8
	LD.h	r2,[r2+#1]
	ZXT.h	r5,r2
	MOV	r0,#1
	CMP	r5,#0
	JZ	.L16
	MOV	r0,#0
.L16:
	LJMP	r12
.LVL14:
.LM18:
	MOV	r0,#1
	MOV	r3,r8
	LD.w	r5,[r3+#1]
	CMP	r5,#3
	JLS	.L17
.LVL15:
	MOV	r0,#0
.L17:
	LJMP	r12
.LVL16:
.LM19:
	MOV	r0,#1
	MOV	r4,r8
	LD.w	r5,[r4+#2]
	CMP	r5,r0
	JLS	.L18
.LVL17:
	MOV	r0,#0
.L18:
	LJMP	r12
.LVL18:
.LM20:
	MOV	r0,#1
	MOV	r1,r8
	LD.w	r5,[r1+#4]
	CMP	r5,r0
	JLS	.L19
.LVL19:
	MOV	r0,#0
.L19:
	LJMP	r12
.LVL20:
.LM21:
	MOV	r0,#1
	MOV	r2,r8
	LD.w	r5,[r2+#5]
	CMP	r5,r0
	JLS	.L20
.LVL21:
	MOV	r0,#0
.L20:
	LJMP	r12
.LVL22:
.LM22:
	MOV	r6,#0
.LM23:
	MOV	r11,#1
	JMP	.L25
.LVL23:
.L21:
.LM24:
	ADD	r6,r6,#1
.LVL24:
	CMP	r6,#16
	JZ	.L37
.LVL25:
.L25:
.LM25:
	MOV	r3,r11
	LSL	r5,r3,r6
.LVL26:
.LM26:
	LD.w	r4,[r8]
	ANL	r4,r5,r4
	MOV	r9,r4
.LVL27:
.LM27:
	CMP	r4,r5
	JNZ	.L21
.LM28:
	MOV	r1,r8
	LD.w	r5,[r1+#1]
.LVL28:
.LM29:
	ADD	r2,r6,r6
	MOV	r10,r2
.LVL29:
.LM30:
	LD.w	r3,[r7+#5]
.LVL30:
.LM31:
	MOV	r4,#3
.LVL31:
	LSL	r4,r4,r2
.LM32:
	NOT	r4,r4
.LVL32:
.LBB38:
.LBB39:
.LM33:
	ANL	r4,r4,r3
.LVL33:
.LBE39:
.LBE38:
.LM34:
	LSL	r3,r5,r2
.LVL34:
.LBB41:
.LBB40:
.LM35:
	ORL	r4,r4,r3
.LBE40:
.LBE41:
.LM36:
	ST.w	[r7+#5],r4
.LM37:
	SUB	r5,r5,#1
.LM38:
	CMP	r5,#1
	JLS	.L22
.LVL35:
	NOT	r5,r9
.LVL36:
.L23:
.LM39:
	LD.w	r4,[r7+#6]
.LVL37:
	MOV	r3,#1
	NOT	r3,r3
	LSL	r3,r10
.LBB42:
.LBB43:
.LM40:
	ANL	r4,r3,r4
.LVL38:
.LBE43:
.LBE42:
.LM41:
	MOV	r2,r8
	LD.w	r3,[r2+#2]
	LSL	r3,r10
.LVL39:
.LBB45:
.LBB44:
.LM42:
	ORL	r4,r4,r3
.LBE44:
.LBE45:
.LM43:
	ST.w	[r7+#6],r4
.LVL40:
.LM44:
	LD.w	r4,[r7+#2]
.LVL41:
.LBB46:
.LBB47:
.LM45:
	ANL	r4,r5,r4
.LVL42:
.LBE47:
.LBE46:
.LM46:
	LD.w	r1,[r2+#4]
	LSL	r3,r1,r6
.LVL43:
.LBB49:
.LBB48:
.LM47:
	ORL	r4,r4,r3
.LBE48:
.LBE49:
.LM48:
	ST.w	[r7+#2],r4
.LVL44:
.LM49:
	LD.w	r4,[r7+#3]
.LVL45:
.LBB50:
.LBB51:
.LM50:
	ANL	r5,r5,r4
.LVL46:
.LBE51:
.LBE50:
.LM51:
	LD.w	r2,[r2+#5]
	LSL	r4,r2,r6
.LVL47:
.LBB53:
.LBB52:
.LM52:
	ORL	r5,r5,r4
.LBE52:
.LBE53:
.LM53:
	ST.w	[r7+#3],r5
.LM54:
	ADD	r6,r6,#1
.LVL48:
	CMP	r6,#16
	JNZ	.L25
.LVL49:
.L37:
.LM55:
	POP	{r6, r7, r8, r9, r10, r11, r12}
	.cfi_remember_state
	.cfi_def_cfa_offset 4
.LVL50:
	POP	lr
	.cfi_def_cfa_offset 0
	JMP	lr
.LVL51:
.L22:
	.cfi_restore_state
.LM56:
	MOV	r0,#1
	LD.w	r5,[r1+#3]
	CMP	r5,r0
	JHI	.L38
.L24:
	LJMP	r12
.LVL52:
.LM57:
	LD.w	r4,[r7+#4]
	NOT	r5,r9
.LVL53:
.LBB54:
.LBB55:
.LM58:
	ANL	r4,r5,r4
.LVL54:
.LBE55:
.LBE54:
.LM59:
	MOV	r1,r8
	LD.w	r1,[r1+#3]
	LSL	r3,r1,r6
.LVL55:
.LBB57:
.LBB56:
.LM60:
	ORL	r4,r4,r3
.LBE56:
.LBE57:
.LM61:
	ST.w	[r7+#4],r4
	JMP	.L23
.LVL56:
.L38:
.LM62:
	MOV	r0,#0
.LVL57:
	JMP	.L24
	.cfi_endproc
.LFE2:
	.size	GPIO_Configuration, .-GPIO_Configuration
	.section .text$GPIO_Struct_Init
	.type	.text$GPIO_Struct_Init$scode_local_3, @function
	.text$GPIO_Struct_Init$scode_local_3:
	.align	1
	.export	GPIO_Struct_Init
	.type	GPIO_Struct_Init, @function
GPIO_Struct_Init:
.LFB3:
.LM63:
	.cfi_startproc
.LVL58:
.LM64:
	LD	r5,#65535
	ST.w	[r0],r5
.LM65:
	MOV	r5,#3
	ST.w	[r0+#1],r5
.LM66:
	MOV	r5,#0
	ST.w	[r0+#2],r5
.LM67:
	ST.w	[r0+#3],r5
.LM68:
	ST.w	[r0+#4],r5
.LM69:
	ST.w	[r0+#5],r5
.LM70:
	JMP	lr
	.cfi_endproc
.LFE3:
	.size	GPIO_Struct_Init, .-GPIO_Struct_Init
	.section .text$GPIO_Pin_Lock_Config
	.type	.text$GPIO_Pin_Lock_Config$scode_local_4, @function
	.text$GPIO_Pin_Lock_Config$scode_local_4:
	.align	1
	.export	GPIO_Pin_Lock_Config
	.type	GPIO_Pin_Lock_Config, @function
GPIO_Pin_Lock_Config:
.LFB4:
.LM71:
	.cfi_startproc
.LVL59:
	PUSH	{r6, r7, r8, r9, lr}
	.cfi_def_cfa_offset 20
	MOV	r6,r0
	MOV	r8,r2
	ZXT.h	r9,r1
.LVL60:
.LM72:
	MOV	r0,#1
.LVL61:
	LD	r5,#1342177280
	CMP	r6,r5
	JZ	.L41
.LM73:
	LD	r5,#1342177344
	CMP	r6,r5
	JZ	.L41
.LM74:
	LD	r5,#1342177408
	CMP	r6,r5
	JZ	.L41
	LD	r5,#1342177472
	CMP	r6,r5
	JZ	.L41
	LD	r5,#1342177536
	CMP	r6,r5
	JZ	.L41
	LD	r5,#1342177600
	CMP	r6,r5
	JZ	.L41
	LD	r5,#1342177664
	CMP	r6,r5
	JZ	.L41
	LD	r5,#1342177728
	CMP	r6,r5
	JZ	.L41
	MOV	r0,#0
.L41:
.LM75:
	LD	r7,#CHECK_RESTRICTION
	LJMP	r7
.LVL62:
.LM76:
	MOV	r0,#1
	LJMP	r7
.LVL63:
.LM77:
	MOV	r0,#1
	CMP	r8,r0
	JLS	.L43
	MOV	r0,#0
.L43:
	LJMP	r7
.LVL64:
.LM78:
	LD.w	r4,[r6+#7]
	LD	r5,#1549402112
	ORL	r5,r4,r5
.LVL65:
.LM79:
	CMP	r8,#0
	JNZ	.L53
.LM80:
	NOT	r9,r9
.LVL66:
	MOV	r4,r9
	ANL	r5,r4,r5
.LVL67:
.LM81:
	ST.w	[r6+#7],r5
.LM82:
	POP	{r6, r7, r8, r9}
	.cfi_remember_state
	.cfi_def_cfa_offset 4
.LVL68:
	POP	lr
	.cfi_def_cfa_offset 0
	JMP	lr
.LVL69:
.L53:
	.cfi_restore_state
.LM83:
	MOV	r4,r9
	ORL	r5,r4,r5
.LVL70:
.LM84:
	ST.w	[r6+#7],r5
.LM85:
	POP	{r6, r7, r8, r9}
	.cfi_def_cfa_offset 4
.LVL71:
	POP	lr
	.cfi_def_cfa_offset 0
	JMP	lr
	.cfi_endproc
.LFE4:
	.size	GPIO_Pin_Lock_Config, .-GPIO_Pin_Lock_Config
	.section .text$GPIO_Pull_Up_Enable
	.type	.text$GPIO_Pull_Up_Enable$scode_local_5, @function
	.text$GPIO_Pull_Up_Enable$scode_local_5:
	.align	1
	.export	GPIO_Pull_Up_Enable
	.type	GPIO_Pull_Up_Enable, @function
GPIO_Pull_Up_Enable:
.LFB5:
.LM86:
	.cfi_startproc
.LVL72:
	PUSH	{r6, r7, r8, r9, lr}
	.cfi_def_cfa_offset 20
	MOV	r6,r0
	MOV	r8,r2
	ZXT.h	r9,r1
.LM87:
	MOV	r0,#1
.LVL73:
	LD	r5,#1342177280
	CMP	r6,r5
	JZ	.L55
.LM88:
	LD	r5,#1342177344
	CMP	r6,r5
	JZ	.L55
.LM89:
	LD	r5,#1342177408
	CMP	r6,r5
	JZ	.L55
	LD	r5,#1342177472
	CMP	r6,r5
	JZ	.L55
	LD	r5,#1342177536
	CMP	r6,r5
	JZ	.L55
	LD	r5,#1342177600
	CMP	r6,r5
	JZ	.L55
	LD	r5,#1342177664
	CMP	r6,r5
	JZ	.L55
	LD	r5,#1342177728
	CMP	r6,r5
	JZ	.L55
	MOV	r0,#0
.L55:
.LM90:
	LD	r7,#CHECK_RESTRICTION
	LJMP	r7
.LVL74:
.LM91:
	MOV	r0,#1
	LJMP	r7
.LVL75:
.LM92:
	MOV	r0,#1
	CMP	r8,r0
	JLS	.L57
	MOV	r0,#0
.L57:
	LJMP	r7
.LVL76:
.LM93:
	LD.w	r5,[r6+#2]
.LM94:
	CMP	r8,#0
	JNZ	.L67
.LM95:
	NOT	r9,r9
.LVL77:
	MOV	r4,r9
	ANL	r5,r4,r5
	ST.w	[r6+#2],r5
.LM96:
	POP	{r6, r7, r8, r9}
	.cfi_remember_state
	.cfi_def_cfa_offset 4
.LVL78:
	POP	lr
	.cfi_def_cfa_offset 0
	JMP	lr
.LVL79:
.L67:
	.cfi_restore_state
.LM97:
	MOV	r4,r9
	ORL	r5,r4,r5
	ST.w	[r6+#2],r5
.LM98:
	POP	{r6, r7, r8, r9}
	.cfi_def_cfa_offset 4
.LVL80:
	POP	lr
	.cfi_def_cfa_offset 0
	JMP	lr
	.cfi_endproc
.LFE5:
	.size	GPIO_Pull_Up_Enable, .-GPIO_Pull_Up_Enable
	.section .text$GPIO_Toggle_Pull_Up_Config
	.type	.text$GPIO_Toggle_Pull_Up_Config$scode_local_6, @function
	.text$GPIO_Toggle_Pull_Up_Config$scode_local_6:
	.align	1
	.export	GPIO_Toggle_Pull_Up_Config
	.type	GPIO_Toggle_Pull_Up_Config, @function
GPIO_Toggle_Pull_Up_Config:
.LFB6:
.LM99:
	.cfi_startproc
.LVL81:
	PUSH	{r6, r7, r8, lr}
	.cfi_def_cfa_offset 16
	MOV	r6,r0
	ZXT.h	r8,r1
.LM100:
	LD	r5,#1342177280
	CMP	r0,r5
	JZ	.L76
.LM101:
	LD	r5,#1342177344
	CMP	r0,r5
	JZ	.L76
.LM102:
	LD	r5,#1342177408
	CMP	r0,r5
	JZ	.L76
	LD	r5,#1342177472
	CMP	r0,r5
	JZ	.L76
	LD	r5,#1342177536
	CMP	r0,r5
	JZ	.L76
	LD	r5,#1342177600
	CMP	r0,r5
	JZ	.L76
	LD	r5,#1342177664
	MOV	r0,#1
.LVL82:
	CMP	r6,r5
	JZ	.L69
	LD	r5,#1342177728
	CMP	r6,r5
	JZ	.L69
	MOV	r0,#0
.L69:
.LM103:
	LD	r7,#CHECK_RESTRICTION
	LJMP	r7
.LVL83:
.LM104:
	MOV	r0,#1
	LJMP	r7
.LVL84:
.LM105:
	LD.w	r5,[r6+#2]
	XRL	r5,r8
	ST.w	[r6+#2],r5
.LM106:
	POP	{r6, r7, r8}
	.cfi_remember_state
	.cfi_def_cfa_offset 4
.LVL85:
	POP	lr
	.cfi_def_cfa_offset 0
	JMP	lr
.LVL86:
.L76:
	.cfi_restore_state
.LM107:
	MOV	r0,#1
.LVL87:
	JMP	.L69
	.cfi_endproc
.LFE6:
	.size	GPIO_Toggle_Pull_Up_Config, .-GPIO_Toggle_Pull_Up_Config
	.section .text$GPIO_Pull_Down_Enable
	.type	.text$GPIO_Pull_Down_Enable$scode_local_7, @function
	.text$GPIO_Pull_Down_Enable$scode_local_7:
	.align	1
	.export	GPIO_Pull_Down_Enable
	.type	GPIO_Pull_Down_Enable, @function
GPIO_Pull_Down_Enable:
.LFB7:
.LM108:
	.cfi_startproc
.LVL88:
	PUSH	{r6, r7, r8, r9, lr}
	.cfi_def_cfa_offset 20
	MOV	r6,r0
	MOV	r8,r2
	ZXT.h	r9,r1
.LM109:
	MOV	r0,#1
.LVL89:
	LD	r5,#1342177280
	CMP	r6,r5
	JZ	.L79
.LM110:
	LD	r5,#1342177344
	CMP	r6,r5
	JZ	.L79
.LM111:
	LD	r5,#1342177408
	CMP	r6,r5
	JZ	.L79
	LD	r5,#1342177472
	CMP	r6,r5
	JZ	.L79
	LD	r5,#1342177536
	CMP	r6,r5
	JZ	.L79
	LD	r5,#1342177600
	CMP	r6,r5
	JZ	.L79
	LD	r5,#1342177664
	CMP	r6,r5
	JZ	.L79
	LD	r5,#1342177728
	CMP	r6,r5
	JZ	.L79
	MOV	r0,#0
.L79:
.LM112:
	LD	r7,#CHECK_RESTRICTION
	LJMP	r7
.LVL90:
.LM113:
	MOV	r0,#1
	LJMP	r7
.LVL91:
.LM114:
	MOV	r0,#1
	CMP	r8,r0
	JLS	.L81
	MOV	r0,#0
.L81:
	LJMP	r7
.LVL92:
.LM115:
	LD.w	r5,[r6+#3]
.LM116:
	CMP	r8,#0
	JNZ	.L91
.LM117:
	NOT	r9,r9
.LVL93:
	MOV	r4,r9
	ANL	r5,r4,r5
	ST.w	[r6+#3],r5
.LM118:
	POP	{r6, r7, r8, r9}
	.cfi_remember_state
	.cfi_def_cfa_offset 4
.LVL94:
	POP	lr
	.cfi_def_cfa_offset 0
	JMP	lr
.LVL95:
.L91:
	.cfi_restore_state
.LM119:
	MOV	r4,r9
	ORL	r5,r4,r5
	ST.w	[r6+#3],r5
.LM120:
	POP	{r6, r7, r8, r9}
	.cfi_def_cfa_offset 4
.LVL96:
	POP	lr
	.cfi_def_cfa_offset 0
	JMP	lr
	.cfi_endproc
.LFE7:
	.size	GPIO_Pull_Down_Enable, .-GPIO_Pull_Down_Enable
	.section .text$GPIO_Toggle_Pull_Down_Config
	.type	.text$GPIO_Toggle_Pull_Down_Config$scode_local_8, @function
	.text$GPIO_Toggle_Pull_Down_Config$scode_local_8:
	.align	1
	.export	GPIO_Toggle_Pull_Down_Config
	.type	GPIO_Toggle_Pull_Down_Config, @function
GPIO_Toggle_Pull_Down_Config:
.LFB8:
.LM121:
	.cfi_startproc
.LVL97:
	PUSH	{r6, r7, r8, lr}
	.cfi_def_cfa_offset 16
	MOV	r6,r0
	ZXT.h	r8,r1
.LM122:
	LD	r5,#1342177280
	CMP	r0,r5
	JZ	.L100
.LM123:
	LD	r5,#1342177344
	CMP	r0,r5
	JZ	.L100
.LM124:
	LD	r5,#1342177408
	CMP	r0,r5
	JZ	.L100
	LD	r5,#1342177472
	CMP	r0,r5
	JZ	.L100
	LD	r5,#1342177536
	CMP	r0,r5
	JZ	.L100
	LD	r5,#1342177600
	CMP	r0,r5
	JZ	.L100
	LD	r5,#1342177664
	MOV	r0,#1
.LVL98:
	CMP	r6,r5
	JZ	.L93
	LD	r5,#1342177728
	CMP	r6,r5
	JZ	.L93
	MOV	r0,#0
.L93:
.LM125:
	LD	r7,#CHECK_RESTRICTION
	LJMP	r7
.LVL99:
.LM126:
	MOV	r0,#1
	LJMP	r7
.LVL100:
.LM127:
	LD.w	r5,[r6+#3]
	XRL	r5,r8
	ST.w	[r6+#3],r5
.LM128:
	POP	{r6, r7, r8}
	.cfi_remember_state
	.cfi_def_cfa_offset 4
.LVL101:
	POP	lr
	.cfi_def_cfa_offset 0
	JMP	lr
.LVL102:
.L100:
	.cfi_restore_state
.LM129:
	MOV	r0,#1
.LVL103:
	JMP	.L93
	.cfi_endproc
.LFE8:
	.size	GPIO_Toggle_Pull_Down_Config, .-GPIO_Toggle_Pull_Down_Config
	.section .text$GPIO_Open_Drain_Enable
	.type	.text$GPIO_Open_Drain_Enable$scode_local_9, @function
	.text$GPIO_Open_Drain_Enable$scode_local_9:
	.align	1
	.export	GPIO_Open_Drain_Enable
	.type	GPIO_Open_Drain_Enable, @function
GPIO_Open_Drain_Enable:
.LFB9:
.LM130:
	.cfi_startproc
.LVL104:
	PUSH	{r6, r7, r8, r9, lr}
	.cfi_def_cfa_offset 20
	MOV	r6,r0
	MOV	r8,r2
	ZXT.h	r9,r1
.LM131:
	MOV	r0,#1
.LVL105:
	LD	r5,#1342177280
	CMP	r6,r5
	JZ	.L103
.LM132:
	LD	r5,#1342177344
	CMP	r6,r5
	JZ	.L103
.LM133:
	LD	r5,#1342177408
	CMP	r6,r5
	JZ	.L103
	LD	r5,#1342177472
	CMP	r6,r5
	JZ	.L103
	LD	r5,#1342177536
	CMP	r6,r5
	JZ	.L103
	LD	r5,#1342177600
	CMP	r6,r5
	JZ	.L103
	LD	r5,#1342177664
	CMP	r6,r5
	JZ	.L103
	LD	r5,#1342177728
	CMP	r6,r5
	JZ	.L103
	MOV	r0,#0
.L103:
.LM134:
	LD	r7,#CHECK_RESTRICTION
	LJMP	r7
.LVL106:
.LM135:
	MOV	r0,#1
	LJMP	r7
.LVL107:
.LM136:
	MOV	r0,#1
	CMP	r8,r0
	JLS	.L105
	MOV	r0,#0
.L105:
	LJMP	r7
.LVL108:
.LM137:
	LD.w	r5,[r6+#4]
.LM138:
	CMP	r8,#0
	JNZ	.L115
.LM139:
	NOT	r9,r9
.LVL109:
	MOV	r4,r9
	ANL	r5,r4,r5
	ST.w	[r6+#4],r5
.LM140:
	POP	{r6, r7, r8, r9}
	.cfi_remember_state
	.cfi_def_cfa_offset 4
.LVL110:
	POP	lr
	.cfi_def_cfa_offset 0
	JMP	lr
.LVL111:
.L115:
	.cfi_restore_state
.LM141:
	MOV	r4,r9
	ORL	r5,r4,r5
	ST.w	[r6+#4],r5
.LM142:
	POP	{r6, r7, r8, r9}
	.cfi_def_cfa_offset 4
.LVL112:
	POP	lr
	.cfi_def_cfa_offset 0
	JMP	lr
	.cfi_endproc
.LFE9:
	.size	GPIO_Open_Drain_Enable, .-GPIO_Open_Drain_Enable
	.section .text$GPIO_Toggle_Open_Drain_Config
	.type	.text$GPIO_Toggle_Open_Drain_Config$scode_local_10, @function
	.text$GPIO_Toggle_Open_Drain_Config$scode_local_10:
	.align	1
	.export	GPIO_Toggle_Open_Drain_Config
	.type	GPIO_Toggle_Open_Drain_Config, @function
GPIO_Toggle_Open_Drain_Config:
.LFB10:
.LM143:
	.cfi_startproc
.LVL113:
	PUSH	{r6, r7, r8, lr}
	.cfi_def_cfa_offset 16
	MOV	r6,r0
	ZXT.h	r8,r1
.LM144:
	LD	r5,#1342177280
	CMP	r0,r5
	JZ	.L124
.LM145:
	LD	r5,#1342177344
	CMP	r0,r5
	JZ	.L124
.LM146:
	LD	r5,#1342177408
	CMP	r0,r5
	JZ	.L124
	LD	r5,#1342177472
	CMP	r0,r5
	JZ	.L124
	LD	r5,#1342177536
	CMP	r0,r5
	JZ	.L124
	LD	r5,#1342177600
	CMP	r0,r5
	JZ	.L124
	LD	r5,#1342177664
	MOV	r0,#1
.LVL114:
	CMP	r6,r5
	JZ	.L117
	LD	r5,#1342177728
	CMP	r6,r5
	JZ	.L117
	MOV	r0,#0
.L117:
.LM147:
	LD	r7,#CHECK_RESTRICTION
	LJMP	r7
.LVL115:
.LM148:
	MOV	r0,#1
	LJMP	r7
.LVL116:
.LM149:
	LD.w	r5,[r6+#4]
	XRL	r5,r8
	ST.w	[r6+#4],r5
.LM150:
	POP	{r6, r7, r8}
	.cfi_remember_state
	.cfi_def_cfa_offset 4
.LVL117:
	POP	lr
	.cfi_def_cfa_offset 0
	JMP	lr
.LVL118:
.L124:
	.cfi_restore_state
.LM151:
	MOV	r0,#1
.LVL119:
	JMP	.L117
	.cfi_endproc
.LFE10:
	.size	GPIO_Toggle_Open_Drain_Config, .-GPIO_Toggle_Open_Drain_Config
	.section .text$GPIO_Write_Mode_Bits
	.type	.text$GPIO_Write_Mode_Bits$scode_local_11, @function
	.text$GPIO_Write_Mode_Bits$scode_local_11:
	.align	1
	.export	GPIO_Write_Mode_Bits
	.type	GPIO_Write_Mode_Bits, @function
GPIO_Write_Mode_Bits:
.LFB11:
.LM152:
	.cfi_startproc
.LVL120:
	PUSH	{r6, r7, r8, r9, lr}
	.cfi_def_cfa_offset 20
	MOV	r7,r0
	MOV	r8,r2
	ZXT.h	r6,r1
.LVL121:
.LM153:
	MOV	r0,#1
.LVL122:
	LD	r5,#1342177280
	CMP	r7,r5
	JZ	.L127
.LM154:
	LD	r5,#1342177344
	CMP	r7,r5
	JZ	.L127
.LM155:
	LD	r5,#1342177408
	CMP	r7,r5
	JZ	.L127
	LD	r5,#1342177472
	CMP	r7,r5
	JZ	.L127
	LD	r5,#1342177536
	CMP	r7,r5
	JZ	.L127
	LD	r5,#1342177600
	CMP	r7,r5
	JZ	.L127
	LD	r5,#1342177664
	CMP	r7,r5
	JZ	.L127
	LD	r5,#1342177728
	CMP	r7,r5
	JZ	.L127
	MOV	r0,#0
.L127:
.LM156:
	LD	r5,#CHECK_RESTRICTION
	MOV	r9,r5
	LJMP	r5
.LVL123:
.LM157:
	MOV	r0,#1
	LJMP	r9
.LVL124:
.LM158:
	MOV	r0,#1
	CMP	r8,#3
	JLS	.L129
	MOV	r0,#0
.L129:
	LJMP	r9
.LVL125:
.LM159:
	LD.w	r3,[r7+#5]
.LVL126:
.LM160:
	CMP	r6,#0
	JZ	.L130
.LM161:
	MOV	r5,#0
.LM162:
	MOV	r1,#1
.LM163:
	MOV	r2,#3
.LVL127:
.L132:
.LM164:
	ANL	r4,r6,r1
	JZ	.L131
.LM165:
	LSL	r4,r2,r5
	NOT	r4,r4
	ANL	r3,r4,r3
.LVL128:
.LM166:
	MOV	r0,r8
	LSL	r4,r0,r5
	ORL	r3,r3,r4
.LVL129:
.L131:
.LM167:
	LSR	r6,#1
.LVL130:
.LM168:
	ADD	r5,r5,#2
.LVL131:
.LM169:
	CMP	r6,#0
	JNZ	.L132
.LVL132:
.L130:
.LM170:
	ST.w	[r7+#5],r3
.LM171:
	POP	{r6, r7, r8, r9}
	.cfi_def_cfa_offset 4
.LVL133:
	POP	lr
	.cfi_def_cfa_offset 0
	JMP	lr
	.cfi_endproc
.LFE11:
	.size	GPIO_Write_Mode_Bits, .-GPIO_Write_Mode_Bits
	.section .text$GPIO_Speed_Config
	.type	.text$GPIO_Speed_Config$scode_local_12, @function
	.text$GPIO_Speed_Config$scode_local_12:
	.align	1
	.export	GPIO_Speed_Config
	.type	GPIO_Speed_Config, @function
GPIO_Speed_Config:
.LFB12:
.LM172:
	.cfi_startproc
.LVL134:
	PUSH	{r6, r7, r8, r9, lr}
	.cfi_def_cfa_offset 20
	MOV	r7,r0
	MOV	r8,r2
	ZXT.h	r6,r1
.LVL135:
.LM173:
	MOV	r0,#1
.LVL136:
	LD	r5,#1342177280
	CMP	r7,r5
	JZ	.L148
.LM174:
	LD	r5,#1342177344
	CMP	r7,r5
	JZ	.L148
.LM175:
	LD	r5,#1342177408
	CMP	r7,r5
	JZ	.L148
	LD	r5,#1342177472
	CMP	r7,r5
	JZ	.L148
	LD	r5,#1342177536
	CMP	r7,r5
	JZ	.L148
	LD	r5,#1342177600
	CMP	r7,r5
	JZ	.L148
	LD	r5,#1342177664
	CMP	r7,r5
	JZ	.L148
	LD	r5,#1342177728
	CMP	r7,r5
	JZ	.L148
	MOV	r0,#0
.L148:
.LM176:
	LD	r2,#CHECK_RESTRICTION
.LVL137:
	MOV	r9,r2
	LJMP	r2
.LVL138:
.LM177:
	MOV	r0,#1
	LJMP	r9
.LVL139:
.LM178:
	MOV	r0,#1
	CMP	r8,r0
	JLS	.L150
	MOV	r0,#0
.L150:
	LJMP	r9
.LVL140:
.LM179:
	LD.w	r1,[r7+#6]
.LVL141:
.LM180:
	CMP	r6,#0
	JZ	.L151
.LM181:
	MOV	r5,#0
.LM182:
	MOV	r3,#1
.LVL142:
.L153:
	ANL	r4,r6,r3
	JZ	.L152
.LM183:
	LSL	r4,r3,r5
	NOT	r4,r4
	ANL	r1,r4,r1
.LVL143:
.LM184:
	MOV	r2,r8
	LSL	r4,r2,r5
	ORL	r1,r1,r4
.LVL144:
.L152:
.LM185:
	LSR	r6,#1
.LVL145:
.LM186:
	ADD	r5,r5,#2
.LVL146:
.LM187:
	CMP	r6,#0
	JNZ	.L153
.LVL147:
.L151:
.LM188:
	ST.w	[r7+#6],r1
.LM189:
	POP	{r6, r7, r8, r9}
	.cfi_def_cfa_offset 4
.LVL148:
	POP	lr
	.cfi_def_cfa_offset 0
	JMP	lr
	.cfi_endproc
.LFE12:
	.size	GPIO_Speed_Config, .-GPIO_Speed_Config
	.section .text$GPIO_Toggle_Speed_Config
	.type	.text$GPIO_Toggle_Speed_Config$scode_local_13, @function
	.text$GPIO_Toggle_Speed_Config$scode_local_13:
	.align	1
	.export	GPIO_Toggle_Speed_Config
	.type	GPIO_Toggle_Speed_Config, @function
GPIO_Toggle_Speed_Config:
.LFB13:
.LM190:
	.cfi_startproc
.LVL149:
	PUSH	{r6, r7, r8, lr}
	.cfi_def_cfa_offset 16
	MOV	r7,r0
	ZXT.h	r6,r1
.LVL150:
.LM191:
	MOV	r0,#1
.LVL151:
	LD	r5,#1342177280
	CMP	r7,r5
	JZ	.L169
.LM192:
	LD	r5,#1342177344
	CMP	r7,r5
	JZ	.L169
.LM193:
	LD	r5,#1342177408
	CMP	r7,r5
	JZ	.L169
	LD	r5,#1342177472
	CMP	r7,r5
	JZ	.L169
	LD	r5,#1342177536
	CMP	r7,r5
	JZ	.L169
	LD	r5,#1342177600
	CMP	r7,r5
	JZ	.L169
	LD	r5,#1342177664
	CMP	r7,r5
	JZ	.L169
	LD	r5,#1342177728
	CMP	r7,r5
	JZ	.L169
	MOV	r0,#0
.L169:
.LM194:
	LD	r5,#CHECK_RESTRICTION
	MOV	r8,r5
	LJMP	r5
.LVL152:
.LM195:
	MOV	r0,#1
	LJMP	r8
.LVL153:
.LM196:
	LD.w	r2,[r7+#6]
.LVL154:
.LM197:
	CMP	r6,#0
	JZ	.L171
.LM198:
	MOV	r5,#0
.LM199:
	MOV	r3,#1
.LVL155:
.L173:
	ANL	r4,r6,r3
	JZ	.L172
.LM200:
	LSL	r4,r3,r5
	XRL	r2,r2,r4
.LVL156:
.L172:
.LM201:
	LSR	r6,#1
.LVL157:
.LM202:
	ADD	r5,r5,#2
.LVL158:
.LM203:
	CMP	r6,#0
	JNZ	.L173
.LVL159:
.L171:
.LM204:
	ST.w	[r7+#6],r2
.LM205:
	POP	{r6, r7, r8}
	.cfi_def_cfa_offset 4
.LVL160:
	POP	lr
	.cfi_def_cfa_offset 0
	JMP	lr
	.cfi_endproc
.LFE13:
	.size	GPIO_Toggle_Speed_Config, .-GPIO_Toggle_Speed_Config
	.section .text$GPIO_Read_Input_Data_Bit
	.type	.text$GPIO_Read_Input_Data_Bit$scode_local_14, @function
	.text$GPIO_Read_Input_Data_Bit$scode_local_14:
	.align	1
	.export	GPIO_Read_Input_Data_Bit
	.type	GPIO_Read_Input_Data_Bit, @function
GPIO_Read_Input_Data_Bit:
.LFB14:
.LM206:
	.cfi_startproc
.LVL161:
	PUSH	{r6, r7, r8, lr}
	.cfi_def_cfa_offset 16
	MOV	r6,r0
	ZXT.h	r8,r1
.LVL162:
.LM207:
	MOV	r0,#1
.LVL163:
	LD	r5,#1342177280
	CMP	r6,r5
	JZ	.L189
.LM208:
	LD	r5,#1342177344
	CMP	r6,r5
	JZ	.L189
.LM209:
	LD	r5,#1342177408
	CMP	r6,r5
	JZ	.L189
	LD	r5,#1342177472
	CMP	r6,r5
	JZ	.L189
	LD	r5,#1342177536
	CMP	r6,r5
	JZ	.L189
	LD	r5,#1342177600
	CMP	r6,r5
	JZ	.L189
	LD	r5,#1342177664
	CMP	r6,r5
	JZ	.L189
	LD	r5,#1342177728
	CMP	r6,r5
	JZ	.L189
	MOV	r0,#0
.L189:
.LM210:
	LD	r7,#CHECK_RESTRICTION
	LJMP	r7
.LVL164:
.LM211:
	MOV	r0,#1
	LJMP	r7
.LVL165:
.LM212:
	LD.w	r0,[r6]
	ANL	r8,r0
.LVL166:
	MOV	r0,#0
	SUB	r0,r8
.LM213:
	LSR	r0,#31
	POP	{r6, r7, r8}
	.cfi_def_cfa_offset 4
	POP	lr
	.cfi_def_cfa_offset 0
	JMP	lr
	.cfi_endproc
.LFE14:
	.size	GPIO_Read_Input_Data_Bit, .-GPIO_Read_Input_Data_Bit
	.section .text$GPIO_Read_Input_Data
	.type	.text$GPIO_Read_Input_Data$scode_local_15, @function
	.text$GPIO_Read_Input_Data$scode_local_15:
	.align	1
	.export	GPIO_Read_Input_Data
	.type	GPIO_Read_Input_Data, @function
GPIO_Read_Input_Data:
.LFB15:
.LM214:
	.cfi_startproc
.LVL167:
	PUSH	{r6, lr}
	.cfi_def_cfa_offset 8
	MOV	r6,r0
.LVL168:
.LM215:
	LD	r5,#1342177280
	CMP	r0,r5
	JZ	.L206
.LM216:
	LD	r5,#1342177344
	CMP	r0,r5
	JZ	.L206
.LM217:
	LD	r5,#1342177408
	CMP	r0,r5
	JZ	.L206
	LD	r5,#1342177472
	CMP	r0,r5
	JZ	.L206
	LD	r5,#1342177536
	CMP	r0,r5
	JZ	.L206
	LD	r5,#1342177600
	CMP	r0,r5
	JZ	.L206
	LD	r5,#1342177664
	MOV	r0,#1
.LVL169:
	CMP	r6,r5
	JZ	.L199
	LD	r5,#1342177728
	CMP	r6,r5
	JZ	.L199
	MOV	r0,#0
.L199:
.LM218:
	LD	r5,#CHECK_RESTRICTION
	LJMP	r5
.LVL170:
.LM219:
	LD.w	r0,[r6]
.LVL171:
.LM220:
	ZXT.h	r0,r0
.LVL172:
	POP	r6
	.cfi_remember_state
	.cfi_def_cfa_offset 4
.LVL173:
	POP	lr
	.cfi_def_cfa_offset 0
	JMP	lr
.LVL174:
.L206:
	.cfi_restore_state
.LM221:
	MOV	r0,#1
.LVL175:
	LD	r5,#CHECK_RESTRICTION
	LJMP	r5
.LVL176:
.LM222:
	LD.w	r0,[r6]
.LVL177:
.LM223:
	ZXT.h	r0,r0
.LVL178:
	POP	r6
	.cfi_def_cfa_offset 4
.LVL179:
	POP	lr
	.cfi_def_cfa_offset 0
	JMP	lr
	.cfi_endproc
.LFE15:
	.size	GPIO_Read_Input_Data, .-GPIO_Read_Input_Data
	.section .text$GPIO_Read_Output_Data_Bit
	.type	.text$GPIO_Read_Output_Data_Bit$scode_local_16, @function
	.text$GPIO_Read_Output_Data_Bit$scode_local_16:
	.align	1
	.export	GPIO_Read_Output_Data_Bit
	.type	GPIO_Read_Output_Data_Bit, @function
GPIO_Read_Output_Data_Bit:
.LFB16:
.LM224:
	.cfi_startproc
.LVL180:
	PUSH	{r6, r7, r8, lr}
	.cfi_def_cfa_offset 16
	MOV	r6,r0
	ZXT.h	r8,r1
.LVL181:
.LM225:
	MOV	r0,#1
.LVL182:
	LD	r5,#1342177280
	CMP	r6,r5
	JZ	.L209
.LM226:
	LD	r5,#1342177344
	CMP	r6,r5
	JZ	.L209
.LM227:
	LD	r5,#1342177408
	CMP	r6,r5
	JZ	.L209
	LD	r5,#1342177472
	CMP	r6,r5
	JZ	.L209
	LD	r5,#1342177536
	CMP	r6,r5
	JZ	.L209
	LD	r5,#1342177600
	CMP	r6,r5
	JZ	.L209
	LD	r5,#1342177664
	CMP	r6,r5
	JZ	.L209
	LD	r5,#1342177728
	CMP	r6,r5
	JZ	.L209
	MOV	r0,#0
.L209:
.LM228:
	LD	r7,#CHECK_RESTRICTION
	LJMP	r7
.LVL183:
.LM229:
	MOV	r0,#1
	LJMP	r7
.LVL184:
.LM230:
	LD.w	r0,[r6+#1]
	ANL	r8,r0
.LVL185:
	MOV	r0,#0
	SUB	r0,r8
.LM231:
	LSR	r0,#31
	POP	{r6, r7, r8}
	.cfi_def_cfa_offset 4
	POP	lr
	.cfi_def_cfa_offset 0
	JMP	lr
	.cfi_endproc
.LFE16:
	.size	GPIO_Read_Output_Data_Bit, .-GPIO_Read_Output_Data_Bit
	.section .text$GPIO_Read_Output_Data
	.type	.text$GPIO_Read_Output_Data$scode_local_17, @function
	.text$GPIO_Read_Output_Data$scode_local_17:
	.align	1
	.export	GPIO_Read_Output_Data
	.type	GPIO_Read_Output_Data, @function
GPIO_Read_Output_Data:
.LFB17:
.LM232:
	.cfi_startproc
.LVL186:
	PUSH	{r6, lr}
	.cfi_def_cfa_offset 8
	MOV	r6,r0
.LVL187:
.LM233:
	LD	r5,#1342177280
	CMP	r0,r5
	JZ	.L226
.LM234:
	LD	r5,#1342177344
	CMP	r0,r5
	JZ	.L226
.LM235:
	LD	r5,#1342177408
	CMP	r0,r5
	JZ	.L226
	LD	r5,#1342177472
	CMP	r0,r5
	JZ	.L226
	LD	r5,#1342177536
	CMP	r0,r5
	JZ	.L226
	LD	r5,#1342177600
	CMP	r0,r5
	JZ	.L226
	LD	r5,#1342177664
	MOV	r0,#1
.LVL188:
	CMP	r6,r5
	JZ	.L219
	LD	r5,#1342177728
	CMP	r6,r5
	JZ	.L219
	MOV	r0,#0
.L219:
.LM236:
	LD	r5,#CHECK_RESTRICTION
	LJMP	r5
.LVL189:
.LM237:
	LD.w	r0,[r6+#1]
.LVL190:
.LM238:
	ZXT.h	r0,r0
.LVL191:
	POP	r6
	.cfi_remember_state
	.cfi_def_cfa_offset 4
.LVL192:
	POP	lr
	.cfi_def_cfa_offset 0
	JMP	lr
.LVL193:
.L226:
	.cfi_restore_state
.LM239:
	MOV	r0,#1
.LVL194:
	LD	r5,#CHECK_RESTRICTION
	LJMP	r5
.LVL195:
.LM240:
	LD.w	r0,[r6+#1]
.LVL196:
.LM241:
	ZXT.h	r0,r0
.LVL197:
	POP	r6
	.cfi_def_cfa_offset 4
.LVL198:
	POP	lr
	.cfi_def_cfa_offset 0
	JMP	lr
	.cfi_endproc
.LFE17:
	.size	GPIO_Read_Output_Data, .-GPIO_Read_Output_Data
	.section .text$GPIO_Set_Output_Data_Bits
	.type	.text$GPIO_Set_Output_Data_Bits$scode_local_18, @function
	.text$GPIO_Set_Output_Data_Bits$scode_local_18:
	.align	1
	.export	GPIO_Set_Output_Data_Bits
	.type	GPIO_Set_Output_Data_Bits, @function
GPIO_Set_Output_Data_Bits:
.LFB18:
.LM242:
	.cfi_startproc
.LVL199:
	PUSH	{r6, r7, r8, r9, lr}
	.cfi_def_cfa_offset 20
	MOV	r6,r0
	MOV	r8,r2
	ZXT.h	r9,r1
.LM243:
	MOV	r0,#1
.LVL200:
	LD	r5,#1342177280
	CMP	r6,r5
	JZ	.L229
.LM244:
	LD	r5,#1342177344
	CMP	r6,r5
	JZ	.L229
.LM245:
	LD	r5,#1342177408
	CMP	r6,r5
	JZ	.L229
	LD	r5,#1342177472
	CMP	r6,r5
	JZ	.L229
	LD	r5,#1342177536
	CMP	r6,r5
	JZ	.L229
	LD	r5,#1342177600
	CMP	r6,r5
	JZ	.L229
	LD	r5,#1342177664
	CMP	r6,r5
	JZ	.L229
	LD	r5,#1342177728
	CMP	r6,r5
	JZ	.L229
	MOV	r0,#0
.L229:
.LM246:
	LD	r7,#CHECK_RESTRICTION
	LJMP	r7
.LVL201:
.LM247:
	MOV	r0,#1
	LJMP	r7
.LVL202:
.LM248:
	MOV	r0,#1
	CMP	r8,r0
	JLS	.L231
	MOV	r0,#0
.L231:
	LJMP	r7
.LVL203:
.LM249:
	LD.w	r5,[r6+#1]
.LM250:
	CMP	r8,#0
	JNZ	.L241
.LM251:
	NOT	r9,r9
.LVL204:
	MOV	r4,r9
	ANL	r5,r4,r5
	ST.w	[r6+#1],r5
.LM252:
	POP	{r6, r7, r8, r9}
	.cfi_remember_state
	.cfi_def_cfa_offset 4
.LVL205:
	POP	lr
	.cfi_def_cfa_offset 0
	JMP	lr
.LVL206:
.L241:
	.cfi_restore_state
.LM253:
	MOV	r4,r9
	ORL	r5,r4,r5
	ST.w	[r6+#1],r5
.LM254:
	POP	{r6, r7, r8, r9}
	.cfi_def_cfa_offset 4
.LVL207:
	POP	lr
	.cfi_def_cfa_offset 0
	JMP	lr
	.cfi_endproc
.LFE18:
	.size	GPIO_Set_Output_Data_Bits, .-GPIO_Set_Output_Data_Bits
	.section .text$GPIO_Toggle_Output_Data_Config
	.type	.text$GPIO_Toggle_Output_Data_Config$scode_local_19, @function
	.text$GPIO_Toggle_Output_Data_Config$scode_local_19:
	.align	1
	.export	GPIO_Toggle_Output_Data_Config
	.type	GPIO_Toggle_Output_Data_Config, @function
GPIO_Toggle_Output_Data_Config:
.LFB19:
.LM255:
	.cfi_startproc
.LVL208:
	PUSH	{r6, r7, lr}
	.cfi_def_cfa_offset 12
	MOV	r6,r0
	ZXT.h	r7,r1
.LM256:
	LD	r5,#1342177280
	CMP	r0,r5
	JZ	.L250
.LM257:
	LD	r5,#1342177344
	CMP	r0,r5
	JZ	.L250
.LM258:
	LD	r5,#1342177408
	CMP	r0,r5
	JZ	.L250
	LD	r5,#1342177472
	CMP	r0,r5
	JZ	.L250
	LD	r5,#1342177536
	CMP	r0,r5
	JZ	.L250
	LD	r5,#1342177600
	CMP	r0,r5
	JZ	.L250
	LD	r5,#1342177664
	MOV	r0,#1
.LVL209:
	CMP	r6,r5
	JZ	.L243
	LD	r5,#1342177728
	CMP	r6,r5
	JZ	.L243
	MOV	r0,#0
.L243:
.LM259:
	LD	r5,#CHECK_RESTRICTION
	LJMP	r5
.LVL210:
.LM260:
	LD.w	r5,[r6+#1]
	XRL	r7,r7,r5
.LVL211:
	ST.w	[r6+#1],r7
.LM261:
	POP	{r6, r7}
	.cfi_remember_state
	.cfi_def_cfa_offset 4
	POP	lr
	.cfi_def_cfa_offset 0
	JMP	lr
.LVL212:
.L250:
	.cfi_restore_state
.LM262:
	MOV	r0,#1
.LVL213:
	LD	r5,#CHECK_RESTRICTION
	LJMP	r5
.LVL214:
.LM263:
	LD.w	r5,[r6+#1]
	XRL	r7,r7,r5
.LVL215:
	ST.w	[r6+#1],r7
.LM264:
	POP	{r6, r7}
	.cfi_def_cfa_offset 4
	POP	lr
	.cfi_def_cfa_offset 0
	JMP	lr
	.cfi_endproc
.LFE19:
	.size	GPIO_Toggle_Output_Data_Config, .-GPIO_Toggle_Output_Data_Config
	.section .text$GPIO_Pin_RMP_Config
	.type	.text$GPIO_Pin_RMP_Config$scode_local_20, @function
	.text$GPIO_Pin_RMP_Config$scode_local_20:
	.align	1
	.export	GPIO_Pin_RMP_Config
	.type	GPIO_Pin_RMP_Config, @function
GPIO_Pin_RMP_Config:
.LFB20:
.LM265:
	.cfi_startproc
.LVL216:
	PUSH	{r6, r7, r8, r9, r10, r11, lr}
	.cfi_def_cfa_offset 28
	MOV	r6,r0
	MOV	r10,r2
	ZXT.h	r7,r1
.LVL217:
.LM266:
	LD	r5,#768
	ANL	r5,r2,r5
	LSR	r5,#8
	MOV	r8,r5
.LVL218:
.LM267:
	MOV	r0,#1
.LVL219:
	LD	r5,#1342177280
.LVL220:
	CMP	r6,r5
	JZ	.L253
.LM268:
	LD	r5,#1342177344
	CMP	r6,r5
	JZ	.L253
.LM269:
	LD	r5,#1342177408
	CMP	r6,r5
	JZ	.L253
	LD	r5,#1342177472
	CMP	r6,r5
	JZ	.L253
	LD	r5,#1342177536
	CMP	r6,r5
	JZ	.L253
	LD	r5,#1342177600
	CMP	r6,r5
	JZ	.L253
	LD	r5,#1342177664
	CMP	r6,r5
	JZ	.L253
	LD	r5,#1342177728
	CMP	r6,r5
	JZ	.L253
	MOV	r0,#0
.L253:
.LM270:
	LD	r4,#CHECK_RESTRICTION
	MOV	r9,r4
	LJMP	r4
.LVL221:
.LM271:
	MOV	r11,#1
	CMP	r7,#15
	JLS	.L255
	MOV	r11,#0
.L255:
	ZXT.b	r11,r11
	MOV	r0,r11
	LJMP	r9
.LVL222:
.LM272:
	CMP	r8,#2
	JZ	.L258
	CMP	r8,#3
	JZ	.L259
	CMP	r8,#1
	JZ	.L277
.L256:
.LM273:
	MOV	r5,#16
	ADD	r4,r7,r5
.LVL223:
.LM274:
	MOV	r5,r8
	SUB	r3,r5,#1
.LVL224:
.LM275:
	LD.w	r2,[r6+#13]
.LVL225:
.LM276:
	MOV	r5,#1
	ANL	r1,r3,r5
	LSL	r1,r1,r7
	LSR	r3,r3,r5
.LVL226:
	LSL	r3,r3,r4
	ADD	r3,r1,r3
.LVL227:
.LM277:
	LSL	r4,r5,r4
.LVL228:
	LSL	r5,r5,r7
	ADD	r5,r4,r5
.LVL229:
.LM278:
	NOT	r5,r5
.LVL230:
.LBB58:
.LBB59:
.LM279:
	ANL	r5,r5,r2
.LVL231:
	ORL	r3,r3,r5
.LVL232:
.LBE59:
.LBE58:
.LM280:
	ST.w	[r6+#13],r3
.LM281:
	CMP	r7,#7
	JLS	.L278
.LM282:
	CMP	r11,#0
	JZ	.L252
.LM283:
	SUB	r7,#8
.LVL233:
	LSL	r7,#2
.LVL234:
.LM284:
	LD.w	r3,[r6+#9]
.LVL235:
.LM285:
	MOV	r5,#15
	LSL	r4,r5,r7
.LVL236:
.LM286:
	NOT	r4,r4
.LVL237:
.LBB60:
.LBB61:
.LM287:
	ANL	r4,r4,r3
.LVL238:
.LBE61:
.LBE60:
.LM288:
	ANL	r10,r5
.LVL239:
	MOV	r5,r10
	LSL	r7,r5,r7
.LVL240:
.LBB63:
.LBB62:
.LM289:
	ORL	r7,r4,r7
.LVL241:
.LBE62:
.LBE63:
.LM290:
	ST.w	[r6+#9],r7
.LVL242:
.L252:
.LM291:
	POP	{r6, r7, r8, r9, r10, r11}
	.cfi_remember_state
	.cfi_def_cfa_offset 4
.LVL243:
	POP	lr
	.cfi_def_cfa_offset 0
	JMP	lr
.LVL244:
.L277:
	.cfi_restore_state
.LM292:
	MOV	r5,#255
	ADD	r5,r5,#1
	MOV	r4,r10
	SUB	r5,r4,r5
	MOV	r0,r8
	CMP	r5,#15
	JHI	.L275
.LVL245:
.L262:
.LM293:
	LJMP	r9
.LVL246:
.LM294:
	JMP	.L256
.L259:
.LM295:
	LD	r5,#768
	MOV	r4,r10
	SUB	r5,r4,r5
	MOV	r0,#1
	CMP	r5,#14
	JLS	.L262
.LVL247:
.L275:
	MOV	r0,#0
	LJMP	r9
.LVL248:
	JMP	.L256
.LVL249:
.L278:
.LM296:
	LSL	r7,#2
.LVL250:
.LM297:
	LD.w	r3,[r6+#8]
.LVL251:
.LM298:
	MOV	r5,#15
	LSL	r4,r5,r7
.LVL252:
.LM299:
	NOT	r4,r4
.LVL253:
.LBB64:
.LBB65:
.LM300:
	ANL	r4,r4,r3
.LVL254:
.LBE65:
.LBE64:
.LM301:
	ANL	r10,r5
.LVL255:
	MOV	r5,r10
	LSL	r7,r5,r7
.LVL256:
.LBB67:
.LBB66:
.LM302:
	ORL	r7,r4,r7
.LVL257:
.LBE66:
.LBE67:
.LM303:
	ST.w	[r6+#8],r7
.LM304:
	POP	{r6, r7, r8, r9, r10, r11}
	.cfi_remember_state
	.cfi_def_cfa_offset 4
.LVL258:
	POP	lr
	.cfi_def_cfa_offset 0
	JMP	lr
.LVL259:
.L258:
	.cfi_restore_state
.LM305:
	MOV	r5,#1
	LSL	r5,#9
	MOV	r4,r10
	SUB	r5,r4,r5
	MOV	r0,#1
	CMP	r5,#12
	JHI	.L275
.LVL260:
.LM306:
	LJMP	r9
.LVL261:
	JMP	.L256
	.cfi_endproc
.LFE20:
	.size	GPIO_Pin_RMP_Config, .-GPIO_Pin_RMP_Config
	.section .text$FlexRM_Reset
	.type	.text$FlexRM_Reset$scode_local_21, @function
	.text$FlexRM_Reset$scode_local_21:
	.align	1
	.export	FlexRM_Reset
	.type	FlexRM_Reset, @function
FlexRM_Reset:
.LFB21:
.LM307:
	.cfi_startproc
	PUSH	{r6, r7, lr}
	.cfi_def_cfa_offset 12
.LM308:
	MOV	r6,#1
	LSL	r6,#25
	MOV	r0,r6
	MOV	r1,#1
	LD	r7,#RST_CTL3_Peripheral_Reset_Enable
	LJMP	r7
.LVL262:
.LM309:
	MOV	r0,r6
	MOV	r1,#0
	LJMP	r7
.LVL263:
.LM310:
	MOV	r0,r6
	MOV	r1,#1
	LD	r5,#PCLK_CTL3_Peripheral_Clock_Enable
	LJMP	r5
.LVL264:
.LM311:
	POP	{r6, r7}
	.cfi_def_cfa_offset 4
	POP	lr
	.cfi_def_cfa_offset 0
	JMP	lr
	.cfi_endproc
.LFE21:
	.size	FlexRM_Reset, .-FlexRM_Reset
	.section .text$FlexRM_Channel_Direction_Select
	.type	.text$FlexRM_Channel_Direction_Select$scode_local_22, @function
	.text$FlexRM_Channel_Direction_Select$scode_local_22:
	.align	1
	.export	FlexRM_Channel_Direction_Select
	.type	FlexRM_Channel_Direction_Select, @function
FlexRM_Channel_Direction_Select:
.LFB22:
.LM312:
	.cfi_startproc
.LVL265:
	PUSH	{r6, r7, r8, lr}
	.cfi_def_cfa_offset 16
	MOV	r7,r0
	MOV	r6,r1
.LVL266:
.LM313:
	MOV	r0,#1
.LVL267:
	CMP	r7,#11
	JLS	.L281
	MOV	r0,#0
.L281:
	LD	r5,#CHECK_RESTRICTION
	MOV	r8,r5
	LJMP	r5
.LVL268:
.LM314:
	MOV	r0,#1
	CMP	r6,r0
	JLS	.L282
	MOV	r0,#0
.L282:
	LJMP	r8
.LVL269:
.LM315:
	ADD	r7,#12
.LVL270:
.LM316:
	LD	r5,#1073753472
	LD.w	r3,[r5]
.LVL271:
.LM317:
	MOV	r4,#1
	LSL	r4,r4,r7
.LVL272:
.LM318:
	NOT	r4,r4
.LVL273:
.LBB68:
.LBB69:
.LM319:
	ANL	r4,r4,r3
.LVL274:
.LBE69:
.LBE68:
.LM320:
	LSL	r7,r6,r7
.LVL275:
.LBB71:
.LBB70:
.LM321:
	ORL	r7,r4,r7
.LVL276:
.LBE70:
.LBE71:
.LM322:
	ST.w	[r5],r7
.LM323:
	POP	{r6, r7, r8}
	.cfi_def_cfa_offset 4
	POP	lr
	.cfi_def_cfa_offset 0
	JMP	lr
	.cfi_endproc
.LFE22:
	.size	FlexRM_Channel_Direction_Select, .-FlexRM_Channel_Direction_Select
	.section .text$FlexRM_Group_Enable
	.type	.text$FlexRM_Group_Enable$scode_local_23, @function
	.text$FlexRM_Group_Enable$scode_local_23:
	.align	1
	.export	FlexRM_Group_Enable
	.type	FlexRM_Group_Enable, @function
FlexRM_Group_Enable:
.LFB23:
.LM324:
	.cfi_startproc
.LVL277:
	PUSH	{r6, r7, r8, lr}
	.cfi_def_cfa_offset 16
	MOV	r6,r0
	MOV	r7,r1
.LVL278:
.LM325:
	MOV	r0,#1
.LVL279:
	CMP	r6,#11
	JLS	.L284
	MOV	r0,#0
.L284:
	LD	r5,#CHECK_RESTRICTION
	MOV	r8,r5
	LJMP	r5
.LVL280:
.LM326:
	MOV	r0,#1
	CMP	r7,r0
	JLS	.L285
	MOV	r0,#0
.L285:
	LJMP	r8
.LVL281:
.LM327:
	LD	r5,#1073753472
	LD.w	r3,[r5]
.LVL282:
.LM328:
	MOV	r4,#1
	LSL	r4,r4,r6
.LVL283:
.LM329:
	NOT	r4,r4
.LVL284:
.LBB72:
.LBB73:
.LM330:
	ANL	r4,r4,r3
.LVL285:
.LBE73:
.LBE72:
.LM331:
	LSL	r7,r7,r6
.LVL286:
.LBB75:
.LBB74:
.LM332:
	ORL	r6,r4,r7
.LVL287:
.LBE74:
.LBE75:
.LM333:
	ST.w	[r5],r6
.LM334:
	POP	{r6, r7, r8}
	.cfi_def_cfa_offset 4
.LVL288:
	POP	lr
	.cfi_def_cfa_offset 0
	JMP	lr
	.cfi_endproc
.LFE23:
	.size	FlexRM_Group_Enable, .-FlexRM_Group_Enable
	.section .text$FlexRM_Group_Function_Select
	.type	.text$FlexRM_Group_Function_Select$scode_local_24, @function
	.text$FlexRM_Group_Function_Select$scode_local_24:
	.align	1
	.export	FlexRM_Group_Function_Select
	.type	FlexRM_Group_Function_Select, @function
FlexRM_Group_Function_Select:
.LFB24:
.LM335:
	.cfi_startproc
.LVL289:
	PUSH	{r6, r7, r8, lr}
	.cfi_def_cfa_offset 16
	MOV	r6,r0
	MOV	r7,r1
.LVL290:
.LM336:
	MOV	r0,#1
.LVL291:
	CMP	r6,#11
	JLS	.L287
	MOV	r0,#0
.L287:
	LD	r5,#CHECK_RESTRICTION
	MOV	r8,r5
	LJMP	r5
.LVL292:
.LM337:
	MOV	r0,#1
	CMP	r7,#15
	JLS	.L288
	MOV	r0,#0
.L288:
	LJMP	r8
.LVL293:
.LM338:
	CMP	r6,#7
	JLS	.L291
.LM339:
	LSL	r6,#2
.LVL294:
	SUB	r6,#32
.LVL295:
.LM340:
	LD	r5,#1073753472
	LD.w	r3,[r5+#2]
.LVL296:
.LM341:
	MOV	r4,#15
	LSL	r4,r4,r6
.LVL297:
.LM342:
	NOT	r4,r4
.LVL298:
.LBB76:
.LBB77:
.LM343:
	ANL	r4,r4,r3
.LVL299:
.LBE77:
.LBE76:
.LM344:
	LSL	r7,r7,r6
.LVL300:
.LBB79:
.LBB78:
.LM345:
	ORL	r6,r4,r7
.LVL301:
.LBE78:
.LBE79:
.LM346:
	ST.w	[r5+#2],r6
.LM347:
	POP	{r6, r7, r8}
	.cfi_remember_state
	.cfi_def_cfa_offset 4
.LVL302:
	POP	lr
	.cfi_def_cfa_offset 0
	JMP	lr
.LVL303:
.L291:
	.cfi_restore_state
.LM348:
	LSL	r6,#2
.LVL304:
.LM349:
	LD	r5,#1073753472
	LD.w	r3,[r5+#1]
.LVL305:
.LM350:
	MOV	r4,#15
	LSL	r4,r4,r6
.LVL306:
.LM351:
	NOT	r4,r4
.LVL307:
.LBB80:
.LBB81:
.LM352:
	ANL	r4,r4,r3
.LVL308:
.LBE81:
.LBE80:
.LM353:
	LSL	r6,r7,r6
.LVL309:
.LBB83:
.LBB82:
.LM354:
	ORL	r6,r4,r6
.LVL310:
.LBE82:
.LBE83:
.LM355:
	ST.w	[r5+#1],r6
.LM356:
	POP	{r6, r7, r8}
	.cfi_def_cfa_offset 4
.LVL311:
	POP	lr
	.cfi_def_cfa_offset 0
	JMP	lr
	.cfi_endproc
.LFE24:
	.size	FlexRM_Group_Function_Select, .-FlexRM_Group_Function_Select
	.section .text$FlexRM_Group_Output_Select
	.type	.text$FlexRM_Group_Output_Select$scode_local_25, @function
	.text$FlexRM_Group_Output_Select$scode_local_25:
	.align	1
	.export	FlexRM_Group_Output_Select
	.type	FlexRM_Group_Output_Select, @function
FlexRM_Group_Output_Select:
.LFB25:
.LM357:
	.cfi_startproc
.LVL312:
	PUSH	{r6, r7, r8, lr}
	.cfi_def_cfa_offset 16
	MOV	r8,r0
	MOV	r6,r1
.LVL313:
.LM358:
	MOV	r0,#1
.LVL314:
	CMP	r1,#11
	JLS	.L293
	MOV	r0,#0
.L293:
	LD	r7,#CHECK_RESTRICTION
	LJMP	r7
.LVL315:
.LM359:
	MOV	r0,#1
	CMP	r8,#11
	JLS	.L294
	MOV	r0,#0
.L294:
	LJMP	r7
.LVL316:
.LM360:
	CMP	r6,#3
	JLS	.L298
.LM361:
	CMP	r6,#7
	JLS	.L299
.LM362:
	LSL	r6,#3
.LVL317:
	SUB	r6,#64
.LVL318:
.LM363:
	LD	r5,#1073753472
	LD.w	r3,[r5+#5]
.LVL319:
.LM364:
	MOV	r4,#15
	LSL	r4,r4,r6
.LVL320:
.LM365:
	NOT	r4,r4
.LVL321:
.LBB84:
.LBB85:
.LM366:
	ANL	r4,r4,r3
.LVL322:
.LBE85:
.LBE84:
.LM367:
	LSL	r8,r6
.LVL323:
.LBB87:
.LBB86:
.LM368:
	MOV	r3,r8
.LVL324:
	ORL	r6,r4,r3
.LVL325:
.LBE86:
.LBE87:
.LM369:
	ST.w	[r5+#5],r6
.LM370:
	POP	{r6, r7, r8}
	.cfi_remember_state
	.cfi_def_cfa_offset 4
.LVL326:
	POP	lr
	.cfi_def_cfa_offset 0
	JMP	lr
.LVL327:
.L299:
	.cfi_restore_state
.LM371:
	LSL	r6,#3
.LVL328:
	SUB	r6,#32
.LVL329:
.LM372:
	LD	r5,#1073753472
	LD.w	r3,[r5+#4]
.LVL330:
.LM373:
	MOV	r4,#15
	LSL	r4,r4,r6
.LVL331:
.LM374:
	NOT	r4,r4
.LVL332:
.LBB88:
.LBB89:
.LM375:
	ANL	r4,r4,r3
.LVL333:
.LBE89:
.LBE88:
.LM376:
	LSL	r8,r6
.LVL334:
.LBB91:
.LBB90:
.LM377:
	MOV	r3,r8
.LVL335:
	ORL	r6,r4,r3
.LVL336:
.LBE90:
.LBE91:
.LM378:
	ST.w	[r5+#4],r6
.LM379:
	POP	{r6, r7, r8}
	.cfi_remember_state
	.cfi_def_cfa_offset 4
.LVL337:
	POP	lr
	.cfi_def_cfa_offset 0
	JMP	lr
.LVL338:
.L298:
	.cfi_restore_state
.LM380:
	LSL	r6,#3
.LVL339:
.LM381:
	LD	r5,#1073753472
	LD.w	r3,[r5+#3]
.LVL340:
.LM382:
	MOV	r4,#15
	LSL	r4,r4,r6
.LVL341:
.LM383:
	NOT	r4,r4
.LVL342:
.LBB92:
.LBB93:
.LM384:
	ANL	r4,r4,r3
.LVL343:
.LBE93:
.LBE92:
.LM385:
	MOV	r3,r8
.LVL344:
	LSL	r6,r3,r6
.LVL345:
.LBB95:
.LBB94:
.LM386:
	ORL	r6,r4,r6
.LVL346:
.LBE94:
.LBE95:
.LM387:
	ST.w	[r5+#3],r6
.LM388:
	POP	{r6, r7, r8}
	.cfi_def_cfa_offset 4
.LVL347:
	POP	lr
	.cfi_def_cfa_offset 0
	JMP	lr
	.cfi_endproc
.LFE25:
	.size	FlexRM_Group_Output_Select, .-FlexRM_Group_Output_Select
	.section .text$FlexRM_Group_Input_Select
	.type	.text$FlexRM_Group_Input_Select$scode_local_26, @function
	.text$FlexRM_Group_Input_Select$scode_local_26:
	.align	1
	.export	FlexRM_Group_Input_Select
	.type	FlexRM_Group_Input_Select, @function
FlexRM_Group_Input_Select:
.LFB26:
.LM389:
	.cfi_startproc
.LVL348:
	PUSH	{r6, r7, r8, lr}
	.cfi_def_cfa_offset 16
	MOV	r6,r0
	MOV	r8,r1
.LVL349:
.LM390:
	MOV	r0,#1
.LVL350:
	CMP	r1,#11
	JLS	.L301
	MOV	r0,#0
.L301:
	LD	r7,#CHECK_RESTRICTION
	LJMP	r7
.LVL351:
.LM391:
	MOV	r0,#1
	CMP	r6,#11
	JLS	.L302
	MOV	r0,#0
.L302:
	LJMP	r7
.LVL352:
.LM392:
	CMP	r6,#3
	JLS	.L306
.LM393:
	CMP	r6,#7
	JLS	.L307
.LM394:
	LSL	r6,#3
.LVL353:
	SUB	r6,#60
.LVL354:
.LM395:
	LD	r5,#1073753472
	LD.w	r3,[r5+#5]
.LVL355:
.LM396:
	MOV	r4,#240
	LSL	r4,r4,r6
.LVL356:
.LM397:
	NOT	r4,r4
.LVL357:
.LBB96:
.LBB97:
.LM398:
	ANL	r4,r4,r3
.LVL358:
.LBE97:
.LBE96:
.LM399:
	LSL	r8,r6
.LVL359:
.LBB99:
.LBB98:
.LM400:
	MOV	r3,r8
.LVL360:
	ORL	r6,r4,r3
.LVL361:
.LBE98:
.LBE99:
.LM401:
	ST.w	[r5+#5],r6
.LM402:
	POP	{r6, r7, r8}
	.cfi_remember_state
	.cfi_def_cfa_offset 4
.LVL362:
	POP	lr
	.cfi_def_cfa_offset 0
	JMP	lr
.LVL363:
.L307:
	.cfi_restore_state
.LM403:
	LSL	r6,#3
.LVL364:
	SUB	r6,#28
.LVL365:
.LM404:
	LD	r5,#1073753472
	LD.w	r3,[r5+#4]
.LVL366:
.LM405:
	MOV	r4,#240
	LSL	r4,r4,r6
.LVL367:
.LM406:
	NOT	r4,r4
.LVL368:
.LBB100:
.LBB101:
.LM407:
	ANL	r4,r4,r3
.LVL369:
.LBE101:
.LBE100:
.LM408:
	LSL	r8,r6
.LVL370:
.LBB103:
.LBB102:
.LM409:
	MOV	r3,r8
.LVL371:
	ORL	r6,r4,r3
.LVL372:
.LBE102:
.LBE103:
.LM410:
	ST.w	[r5+#4],r6
.LM411:
	POP	{r6, r7, r8}
	.cfi_remember_state
	.cfi_def_cfa_offset 4
.LVL373:
	POP	lr
	.cfi_def_cfa_offset 0
	JMP	lr
.LVL374:
.L306:
	.cfi_restore_state
.LM412:
	LSL	r6,#3
.LVL375:
	ADD	r6,r6,#4
.LVL376:
.LM413:
	LD	r5,#1073753472
	LD.w	r3,[r5+#3]
.LVL377:
.LM414:
	MOV	r4,#240
	LSL	r4,r4,r6
.LVL378:
.LM415:
	NOT	r4,r4
.LVL379:
.LBB104:
.LBB105:
.LM416:
	ANL	r4,r4,r3
.LVL380:
.LBE105:
.LBE104:
.LM417:
	LSL	r8,r6
.LVL381:
.LBB107:
.LBB106:
.LM418:
	MOV	r3,r8
.LVL382:
	ORL	r6,r4,r3
.LVL383:
.LBE106:
.LBE107:
.LM419:
	ST.w	[r5+#3],r6
.LM420:
	POP	{r6, r7, r8}
	.cfi_def_cfa_offset 4
.LVL384:
	POP	lr
	.cfi_def_cfa_offset 0
	JMP	lr
	.cfi_endproc
.LFE26:
	.size	FlexRM_Group_Input_Select, .-FlexRM_Group_Input_Select
	.text	
.Letext0: