	.file	"kf32a9k1xxx_epwm.c"
	.text	
.Ltext0:
	.cfi_sections	.debug_frame
	.section .text$EPWM_Reset
	.type	.text$EPWM_Reset$scode_local_1, @function
	.text$EPWM_Reset$scode_local_1:
	.align	1
	.export	EPWM_Reset
	.type	EPWM_Reset, @function
EPWM_Reset:
.LFB1:
.LM1:
	.cfi_startproc
.LVL0:
	PUSH	{r6, lr}
	.cfi_def_cfa_offset 8
.LM2:
	LD	r5,#1073748480
	CMP	r0,r5
	JZ	.L2
.LM3:
	LD	r5,#1073746688
	CMP	r0,r5
	JZ	.L3
.LM4:
	LD	r5,#1073746816
	CMP	r0,r5
	JZ	.L4
	MOV	r6,#1
	LD	r5,#1073753600
	CMP	r0,r5
	JZ	.L5
	MOV	r6,#0
.L5:
	ZXT.b	r6,r6
	MOV	r0,r6
.LVL1:
	LD	r5,#CHECK_RESTRICTION
	LJMP	r5
.LVL2:
.LM5:
	CMP	r6,#0
	JNZ	.L11
.L1:
.LM6:
	POP	r6
	.cfi_remember_state
	.cfi_def_cfa_offset 4
	POP	lr
	.cfi_def_cfa_offset 0
	JMP	lr
.LVL3:
.L2:
	.cfi_restore_state
.LM7:
	MOV	r0,#1
.LVL4:
	LD	r5,#CHECK_RESTRICTION
	LJMP	r5
.LVL5:
.LM8:
	MOV	r0,#255
	ADD	r0,r0,#1
	MOV	r1,#1
	LD	r6,#RST_CTL2_Peripheral_Reset_Enable
	LJMP	r6
.LVL6:
.LM9:
	MOV	r0,#255
	ADD	r0,r0,#1
	MOV	r1,#0
	LJMP	r6
.LVL7:
.LM10:
	MOV	r0,#255
	ADD	r0,r0,#1
	MOV	r1,#1
	LD	r5,#PCLK_CTL2_Peripheral_Clock_Enable
	LJMP	r5
.LVL8:
.LM11:
	POP	r6
	.cfi_remember_state
	.cfi_def_cfa_offset 4
	POP	lr
	.cfi_def_cfa_offset 0
	JMP	lr
.LVL9:
.L3:
	.cfi_restore_state
.LM12:
	MOV	r0,#1
.LVL10:
	LD	r5,#CHECK_RESTRICTION
	LJMP	r5
.LVL11:
.LM13:
	MOV	r0,#1
	LSL	r0,#9
	MOV	r1,#1
	LD	r6,#RST_CTL2_Peripheral_Reset_Enable
	LJMP	r6
.LVL12:
.LM14:
	MOV	r0,#1
	LSL	r0,#9
	MOV	r1,#0
	LJMP	r6
.LVL13:
.LM15:
	MOV	r0,#1
	LSL	r0,#9
	MOV	r1,#1
	LD	r5,#PCLK_CTL2_Peripheral_Clock_Enable
	LJMP	r5
.LVL14:
.LM16:
	POP	r6
	.cfi_remember_state
	.cfi_def_cfa_offset 4
	POP	lr
	.cfi_def_cfa_offset 0
	JMP	lr
.LVL15:
.L4:
	.cfi_restore_state
.LM17:
	MOV	r0,#1
.LVL16:
	LD	r5,#CHECK_RESTRICTION
	LJMP	r5
.LVL17:
.LM18:
	MOV	r0,#1
	LSL	r0,#10
	MOV	r1,#1
	LD	r6,#RST_CTL2_Peripheral_Reset_Enable
	LJMP	r6
.LVL18:
.LM19:
	MOV	r0,#1
	LSL	r0,#10
	MOV	r1,#0
	LJMP	r6
.LVL19:
.LM20:
	MOV	r0,#1
	LSL	r0,#10
	MOV	r1,#1
	LD	r5,#PCLK_CTL2_Peripheral_Clock_Enable
	LJMP	r5
.LVL20:
.LM21:
	POP	r6
	.cfi_remember_state
	.cfi_def_cfa_offset 4
	POP	lr
	.cfi_def_cfa_offset 0
	JMP	lr
.L11:
	.cfi_restore_state
.LM22:
	MOV	r0,#1
	LSL	r0,#11
	MOV	r1,#1
	LD	r6,#RST_CTL2_Peripheral_Reset_Enable
	LJMP	r6
.LVL21:
.LM23:
	MOV	r0,#1
	LSL	r0,#11
	MOV	r1,#0
	LJMP	r6
.LVL22:
.LM24:
	MOV	r0,#1
	LSL	r0,#11
	MOV	r1,#1
	LD	r5,#PCLK_CTL2_Peripheral_Clock_Enable
	LJMP	r5
.LVL23:
	JMP	.L1
	.cfi_endproc
.LFE1:
	.size	EPWM_Reset, .-EPWM_Reset
	.section .text$EPWM_TxCNT_Value_Config
	.type	.text$EPWM_TxCNT_Value_Config$scode_local_2, @function
	.text$EPWM_TxCNT_Value_Config$scode_local_2:
	.align	1
	.export	EPWM_TxCNT_Value_Config
	.type	EPWM_TxCNT_Value_Config, @function
EPWM_TxCNT_Value_Config:
.LFB2:
.LM25:
	.cfi_startproc
.LVL24:
	PUSH	{r6, r7, r8, lr}
	.cfi_def_cfa_offset 16
	MOV	r6,r0
	MOV	r8,r1
.LM26:
	LD	r5,#1073748480
	CMP	r0,r5
	JZ	.L16
.LM27:
	LD	r5,#1073746688
	CMP	r0,r5
	JZ	.L16
.LM28:
	LD	r5,#1073746816
	MOV	r0,#1
.LVL25:
	CMP	r6,r5
	JZ	.L13
	LD	r5,#1073753600
	CMP	r6,r5
	JZ	.L13
	MOV	r0,#0
.L13:
.LM29:
	LD	r7,#CHECK_RESTRICTION
	LJMP	r7
.LVL26:
.LM30:
	MOV	r0,#1
	LJMP	r7
.LVL27:
.LM31:
	ST.w	[r6],r8
.LM32:
	POP	{r6, r7, r8}
	.cfi_remember_state
	.cfi_def_cfa_offset 4
.LVL28:
	POP	lr
	.cfi_def_cfa_offset 0
	JMP	lr
.LVL29:
.L16:
	.cfi_restore_state
.LM33:
	MOV	r0,#1
.LVL30:
	LD	r7,#CHECK_RESTRICTION
	LJMP	r7
.LVL31:
.LM34:
	MOV	r0,#1
	LJMP	r7
.LVL32:
.LM35:
	ST.w	[r6],r8
.LM36:
	POP	{r6, r7, r8}
	.cfi_def_cfa_offset 4
.LVL33:
	POP	lr
	.cfi_def_cfa_offset 0
	JMP	lr
	.cfi_endproc
.LFE2:
	.size	EPWM_TxCNT_Value_Config, .-EPWM_TxCNT_Value_Config
	.section .text$EPWM_Get_TxCNT_Value
	.type	.text$EPWM_Get_TxCNT_Value$scode_local_3, @function
	.text$EPWM_Get_TxCNT_Value$scode_local_3:
	.align	1
	.export	EPWM_Get_TxCNT_Value
	.type	EPWM_Get_TxCNT_Value, @function
EPWM_Get_TxCNT_Value:
.LFB3:
.LM37:
	.cfi_startproc
.LVL34:
	PUSH	{r6, lr}
	.cfi_def_cfa_offset 8
	MOV	r6,r0
.LM38:
	LD	r5,#1073748480
	CMP	r0,r5
	JZ	.L22
.LM39:
	LD	r5,#1073746688
	CMP	r0,r5
	JZ	.L22
.LM40:
	LD	r5,#1073746816
	MOV	r0,#1
.LVL35:
	CMP	r6,r5
	JZ	.L19
	LD	r5,#1073753600
	CMP	r6,r5
	JZ	.L19
	MOV	r0,#0
.L19:
.LM41:
	LD	r5,#CHECK_RESTRICTION
	LJMP	r5
.LVL36:
.LM42:
	LD.w	r0,[r6]
.LM43:
	POP	r6
	.cfi_remember_state
	.cfi_def_cfa_offset 4
.LVL37:
	POP	lr
	.cfi_def_cfa_offset 0
	JMP	lr
.LVL38:
.L22:
	.cfi_restore_state
.LM44:
	MOV	r0,#1
.LVL39:
	LD	r5,#CHECK_RESTRICTION
	LJMP	r5
.LVL40:
.LM45:
	LD.w	r0,[r6]
.LM46:
	POP	r6
	.cfi_def_cfa_offset 4
.LVL41:
	POP	lr
	.cfi_def_cfa_offset 0
	JMP	lr
	.cfi_endproc
.LFE3:
	.size	EPWM_Get_TxCNT_Value, .-EPWM_Get_TxCNT_Value
	.section .text$EPWM_TxPHS_Value_Config
	.type	.text$EPWM_TxPHS_Value_Config$scode_local_4, @function
	.text$EPWM_TxPHS_Value_Config$scode_local_4:
	.align	1
	.export	EPWM_TxPHS_Value_Config
	.type	EPWM_TxPHS_Value_Config, @function
EPWM_TxPHS_Value_Config:
.LFB4:
.LM47:
	.cfi_startproc
.LVL42:
	PUSH	{r6, r7, r8, lr}
	.cfi_def_cfa_offset 16
	MOV	r6,r0
	MOV	r8,r1
.LM48:
	LD	r5,#1073748480
	CMP	r0,r5
	JZ	.L28
.LM49:
	LD	r5,#1073746688
	CMP	r0,r5
	JZ	.L28
.LM50:
	LD	r5,#1073746816
	MOV	r0,#1
.LVL43:
	CMP	r6,r5
	JZ	.L25
	LD	r5,#1073753600
	CMP	r6,r5
	JZ	.L25
	MOV	r0,#0
.L25:
.LM51:
	LD	r7,#CHECK_RESTRICTION
	LJMP	r7
.LVL44:
.LM52:
	MOV	r0,#1
	LJMP	r7
.LVL45:
.LM53:
	MOV	r5,r8
	ST.w	[r6+#1],r5
.LM54:
	POP	{r6, r7, r8}
	.cfi_remember_state
	.cfi_def_cfa_offset 4
.LVL46:
	POP	lr
	.cfi_def_cfa_offset 0
	JMP	lr
.LVL47:
.L28:
	.cfi_restore_state
.LM55:
	MOV	r0,#1
.LVL48:
	JMP	.L25
	.cfi_endproc
.LFE4:
	.size	EPWM_TxPHS_Value_Config, .-EPWM_TxPHS_Value_Config
	.section .text$EPWM_Get_TxPHS_Value
	.type	.text$EPWM_Get_TxPHS_Value$scode_local_5, @function
	.text$EPWM_Get_TxPHS_Value$scode_local_5:
	.align	1
	.export	EPWM_Get_TxPHS_Value
	.type	EPWM_Get_TxPHS_Value, @function
EPWM_Get_TxPHS_Value:
.LFB5:
.LM56:
	.cfi_startproc
.LVL49:
	PUSH	{r6, lr}
	.cfi_def_cfa_offset 8
	MOV	r6,r0
.LM57:
	LD	r5,#1073748480
	CMP	r0,r5
	JZ	.L34
.LM58:
	LD	r5,#1073746688
	CMP	r0,r5
	JZ	.L34
.LM59:
	LD	r5,#1073746816
	MOV	r0,#1
.LVL50:
	CMP	r6,r5
	JZ	.L31
	LD	r5,#1073753600
	CMP	r6,r5
	JZ	.L31
	MOV	r0,#0
.L31:
.LM60:
	LD	r5,#CHECK_RESTRICTION
	LJMP	r5
.LVL51:
.LM61:
	LD.w	r0,[r6+#1]
.LM62:
	POP	r6
	.cfi_remember_state
	.cfi_def_cfa_offset 4
.LVL52:
	POP	lr
	.cfi_def_cfa_offset 0
	JMP	lr
.LVL53:
.L34:
	.cfi_restore_state
.LM63:
	MOV	r0,#1
.LVL54:
	LD	r5,#CHECK_RESTRICTION
	LJMP	r5
.LVL55:
.LM64:
	LD.w	r0,[r6+#1]
.LM65:
	POP	r6
	.cfi_def_cfa_offset 4
.LVL56:
	POP	lr
	.cfi_def_cfa_offset 0
	JMP	lr
	.cfi_endproc
.LFE5:
	.size	EPWM_Get_TxPHS_Value, .-EPWM_Get_TxPHS_Value
	.section .text$EPWM_TxPPX_Value_Config
	.type	.text$EPWM_TxPPX_Value_Config$scode_local_6, @function
	.text$EPWM_TxPPX_Value_Config$scode_local_6:
	.align	1
	.export	EPWM_TxPPX_Value_Config
	.type	EPWM_TxPPX_Value_Config, @function
EPWM_TxPPX_Value_Config:
.LFB6:
.LM66:
	.cfi_startproc
.LVL57:
	PUSH	{r6, r7, r8, lr}
	.cfi_def_cfa_offset 16
	MOV	r6,r0
	MOV	r8,r1
.LM67:
	LD	r5,#1073748480
	CMP	r0,r5
	JZ	.L40
.LM68:
	LD	r5,#1073746688
	CMP	r0,r5
	JZ	.L40
.LM69:
	LD	r5,#1073746816
	MOV	r0,#1
.LVL58:
	CMP	r6,r5
	JZ	.L37
	LD	r5,#1073753600
	CMP	r6,r5
	JZ	.L37
	MOV	r0,#0
.L37:
.LM70:
	LD	r7,#CHECK_RESTRICTION
	LJMP	r7
.LVL59:
.LM71:
	MOV	r0,#1
	LJMP	r7
.LVL60:
.LM72:
	MOV	r5,r8
	ST.w	[r6+#2],r5
.LM73:
	POP	{r6, r7, r8}
	.cfi_remember_state
	.cfi_def_cfa_offset 4
.LVL61:
	POP	lr
	.cfi_def_cfa_offset 0
	JMP	lr
.LVL62:
.L40:
	.cfi_restore_state
.LM74:
	MOV	r0,#1
.LVL63:
	JMP	.L37
	.cfi_endproc
.LFE6:
	.size	EPWM_TxPPX_Value_Config, .-EPWM_TxPPX_Value_Config
	.section .text$EPWM_Get_TxPPX_Value
	.type	.text$EPWM_Get_TxPPX_Value$scode_local_7, @function
	.text$EPWM_Get_TxPPX_Value$scode_local_7:
	.align	1
	.export	EPWM_Get_TxPPX_Value
	.type	EPWM_Get_TxPPX_Value, @function
EPWM_Get_TxPPX_Value:
.LFB7:
.LM75:
	.cfi_startproc
.LVL64:
	PUSH	{r6, lr}
	.cfi_def_cfa_offset 8
	MOV	r6,r0
.LM76:
	LD	r5,#1073748480
	CMP	r0,r5
	JZ	.L46
.LM77:
	LD	r5,#1073746688
	CMP	r0,r5
	JZ	.L46
.LM78:
	LD	r5,#1073746816
	MOV	r0,#1
.LVL65:
	CMP	r6,r5
	JZ	.L43
	LD	r5,#1073753600
	CMP	r6,r5
	JZ	.L43
	MOV	r0,#0
.L43:
.LM79:
	LD	r5,#CHECK_RESTRICTION
	LJMP	r5
.LVL66:
.LM80:
	LD.w	r0,[r6+#2]
.LM81:
	POP	r6
	.cfi_remember_state
	.cfi_def_cfa_offset 4
.LVL67:
	POP	lr
	.cfi_def_cfa_offset 0
	JMP	lr
.LVL68:
.L46:
	.cfi_restore_state
.LM82:
	MOV	r0,#1
.LVL69:
	LD	r5,#CHECK_RESTRICTION
	LJMP	r5
.LVL70:
.LM83:
	LD.w	r0,[r6+#2]
.LM84:
	POP	r6
	.cfi_def_cfa_offset 4
.LVL71:
	POP	lr
	.cfi_def_cfa_offset 0
	JMP	lr
	.cfi_endproc
.LFE7:
	.size	EPWM_Get_TxPPX_Value, .-EPWM_Get_TxPPX_Value
	.section .text$EPWM_TxPRSC_Value_Config
	.type	.text$EPWM_TxPRSC_Value_Config$scode_local_8, @function
	.text$EPWM_TxPRSC_Value_Config$scode_local_8:
	.align	1
	.export	EPWM_TxPRSC_Value_Config
	.type	EPWM_TxPRSC_Value_Config, @function
EPWM_TxPRSC_Value_Config:
.LFB8:
.LM85:
	.cfi_startproc
.LVL72:
	PUSH	{r6, r7, r8, lr}
	.cfi_def_cfa_offset 16
	MOV	r6,r0
	MOV	r8,r1
.LM86:
	LD	r5,#1073748480
	CMP	r0,r5
	JZ	.L52
.LM87:
	LD	r5,#1073746688
	CMP	r0,r5
	JZ	.L52
.LM88:
	LD	r5,#1073746816
	MOV	r0,#1
.LVL73:
	CMP	r6,r5
	JZ	.L49
	LD	r5,#1073753600
	CMP	r6,r5
	JZ	.L49
	MOV	r0,#0
.L49:
.LM89:
	LD	r7,#CHECK_RESTRICTION
	LJMP	r7
.LVL74:
.LM90:
	MOV	r0,#1
	LJMP	r7
.LVL75:
.LM91:
	MOV	r5,r8
	ST.w	[r6+#3],r5
.LM92:
	POP	{r6, r7, r8}
	.cfi_remember_state
	.cfi_def_cfa_offset 4
.LVL76:
	POP	lr
	.cfi_def_cfa_offset 0
	JMP	lr
.LVL77:
.L52:
	.cfi_restore_state
.LM93:
	MOV	r0,#1
.LVL78:
	JMP	.L49
	.cfi_endproc
.LFE8:
	.size	EPWM_TxPRSC_Value_Config, .-EPWM_TxPRSC_Value_Config
	.section .text$EPWM_Get_TxPRSC_Value
	.type	.text$EPWM_Get_TxPRSC_Value$scode_local_9, @function
	.text$EPWM_Get_TxPRSC_Value$scode_local_9:
	.align	1
	.export	EPWM_Get_TxPRSC_Value
	.type	EPWM_Get_TxPRSC_Value, @function
EPWM_Get_TxPRSC_Value:
.LFB9:
.LM94:
	.cfi_startproc
.LVL79:
	PUSH	{r6, lr}
	.cfi_def_cfa_offset 8
	MOV	r6,r0
.LM95:
	LD	r5,#1073748480
	CMP	r0,r5
	JZ	.L58
.LM96:
	LD	r5,#1073746688
	CMP	r0,r5
	JZ	.L58
.LM97:
	LD	r5,#1073746816
	MOV	r0,#1
.LVL80:
	CMP	r6,r5
	JZ	.L55
	LD	r5,#1073753600
	CMP	r6,r5
	JZ	.L55
	MOV	r0,#0
.L55:
.LM98:
	LD	r5,#CHECK_RESTRICTION
	LJMP	r5
.LVL81:
.LM99:
	LD.w	r0,[r6+#3]
.LM100:
	POP	r6
	.cfi_remember_state
	.cfi_def_cfa_offset 4
.LVL82:
	POP	lr
	.cfi_def_cfa_offset 0
	JMP	lr
.LVL83:
.L58:
	.cfi_restore_state
.LM101:
	MOV	r0,#1
.LVL84:
	LD	r5,#CHECK_RESTRICTION
	LJMP	r5
.LVL85:
.LM102:
	LD.w	r0,[r6+#3]
.LM103:
	POP	r6
	.cfi_def_cfa_offset 4
.LVL86:
	POP	lr
	.cfi_def_cfa_offset 0
	JMP	lr
	.cfi_endproc
.LFE9:
	.size	EPWM_Get_TxPRSC_Value, .-EPWM_Get_TxPRSC_Value
	.section .text$EPWM_Response_UpperLevel_LINK_Enable
	.type	.text$EPWM_Response_UpperLevel_LINK_Enable$scode_local_10, @function
	.text$EPWM_Response_UpperLevel_LINK_Enable$scode_local_10:
	.align	1
	.export	EPWM_Response_UpperLevel_LINK_Enable
	.type	EPWM_Response_UpperLevel_LINK_Enable, @function
EPWM_Response_UpperLevel_LINK_Enable:
.LFB10:
.LM104:
	.cfi_startproc
.LVL87:
	PUSH	{r6, r7, r8, lr}
	.cfi_def_cfa_offset 16
	MOV	r6,r0
	MOV	r7,r1
.LVL88:
.LM105:
	LD	r5,#1073748480
	CMP	r0,r5
	JZ	.L65
.LM106:
	LD	r5,#1073746688
	CMP	r0,r5
	JZ	.L65
.LM107:
	LD	r5,#1073746816
	MOV	r0,#1
.LVL89:
	CMP	r6,r5
	JZ	.L61
	LD	r5,#1073753600
	CMP	r6,r5
	JZ	.L61
	MOV	r0,#0
.L61:
.LM108:
	LD	r5,#CHECK_RESTRICTION
	MOV	r8,r5
	LJMP	r5
.LVL90:
.LM109:
	MOV	r0,#1
	CMP	r7,r0
	JLS	.L63
	MOV	r0,#0
.L63:
	LJMP	r8
.LVL91:
.LM110:
	LD.w	r5,[r6+#4]
.LVL92:
.LM111:
	LSL	r7,#31
.LVL93:
.LBB124:
.LBB125:
.LM112:
	CLR	r5,#31
.LVL94:
	ORL	r7,r7,r5
.LVL95:
.LBE125:
.LBE124:
.LM113:
	ST.w	[r6+#4],r7
.LM114:
	POP	{r6, r7, r8}
	.cfi_remember_state
	.cfi_def_cfa_offset 4
	POP	lr
	.cfi_def_cfa_offset 0
	JMP	lr
.LVL96:
.L65:
	.cfi_restore_state
.LM115:
	MOV	r0,#1
.LVL97:
	JMP	.L61
	.cfi_endproc
.LFE10:
	.size	EPWM_Response_UpperLevel_LINK_Enable, .-EPWM_Response_UpperLevel_LINK_Enable
	.section .text$EPWM_NextLevel_LINK_Ask_Enable
	.type	.text$EPWM_NextLevel_LINK_Ask_Enable$scode_local_11, @function
	.text$EPWM_NextLevel_LINK_Ask_Enable$scode_local_11:
	.align	1
	.export	EPWM_NextLevel_LINK_Ask_Enable
	.type	EPWM_NextLevel_LINK_Ask_Enable, @function
EPWM_NextLevel_LINK_Ask_Enable:
.LFB11:
.LM116:
	.cfi_startproc
.LVL98:
	PUSH	{r6, r7, r8, lr}
	.cfi_def_cfa_offset 16
	MOV	r6,r0
	MOV	r7,r1
.LVL99:
.LM117:
	LD	r5,#1073748480
	CMP	r0,r5
	JZ	.L72
.LM118:
	LD	r5,#1073746688
	CMP	r0,r5
	JZ	.L72
.LM119:
	LD	r5,#1073746816
	MOV	r0,#1
.LVL100:
	CMP	r6,r5
	JZ	.L68
	LD	r5,#1073753600
	CMP	r6,r5
	JZ	.L68
	MOV	r0,#0
.L68:
.LM120:
	LD	r5,#CHECK_RESTRICTION
	MOV	r8,r5
	LJMP	r5
.LVL101:
.LM121:
	MOV	r0,#1
	CMP	r7,r0
	JLS	.L70
	MOV	r0,#0
.L70:
	LJMP	r8
.LVL102:
.LM122:
	LD.w	r5,[r6+#4]
.LVL103:
.LM123:
	LSL	r7,#30
.LVL104:
.LBB126:
.LBB127:
.LM124:
	CLR	r5,#30
.LVL105:
	ORL	r7,r7,r5
.LVL106:
.LBE127:
.LBE126:
.LM125:
	ST.w	[r6+#4],r7
.LM126:
	POP	{r6, r7, r8}
	.cfi_remember_state
	.cfi_def_cfa_offset 4
	POP	lr
	.cfi_def_cfa_offset 0
	JMP	lr
.LVL107:
.L72:
	.cfi_restore_state
.LM127:
	MOV	r0,#1
.LVL108:
	JMP	.L68
	.cfi_endproc
.LFE11:
	.size	EPWM_NextLevel_LINK_Ask_Enable, .-EPWM_NextLevel_LINK_Ask_Enable
	.section .text$EPWM_SYNC_Single_Trigger_Enable
	.type	.text$EPWM_SYNC_Single_Trigger_Enable$scode_local_12, @function
	.text$EPWM_SYNC_Single_Trigger_Enable$scode_local_12:
	.align	1
	.export	EPWM_SYNC_Single_Trigger_Enable
	.type	EPWM_SYNC_Single_Trigger_Enable, @function
EPWM_SYNC_Single_Trigger_Enable:
.LFB12:
.LM128:
	.cfi_startproc
.LVL109:
	PUSH	{r6, r7, r8, lr}
	.cfi_def_cfa_offset 16
	MOV	r6,r0
	MOV	r7,r1
.LVL110:
.LM129:
	LD	r5,#1073748480
	CMP	r0,r5
	JZ	.L79
.LM130:
	LD	r5,#1073746688
	CMP	r0,r5
	JZ	.L79
.LM131:
	LD	r5,#1073746816
	MOV	r0,#1
.LVL111:
	CMP	r6,r5
	JZ	.L75
	LD	r5,#1073753600
	CMP	r6,r5
	JZ	.L75
	MOV	r0,#0
.L75:
.LM132:
	LD	r5,#CHECK_RESTRICTION
	MOV	r8,r5
	LJMP	r5
.LVL112:
.LM133:
	MOV	r0,#1
	CMP	r7,r0
	JLS	.L77
	MOV	r0,#0
.L77:
	LJMP	r8
.LVL113:
.LM134:
	LD.w	r5,[r6+#4]
.LVL114:
.LM135:
	LSL	r7,#29
.LVL115:
.LBB128:
.LBB129:
.LM136:
	CLR	r5,#29
.LVL116:
	ORL	r7,r7,r5
.LVL117:
.LBE129:
.LBE128:
.LM137:
	ST.w	[r6+#4],r7
.LM138:
	POP	{r6, r7, r8}
	.cfi_remember_state
	.cfi_def_cfa_offset 4
	POP	lr
	.cfi_def_cfa_offset 0
	JMP	lr
.LVL118:
.L79:
	.cfi_restore_state
.LM139:
	MOV	r0,#1
.LVL119:
	JMP	.L75
	.cfi_endproc
.LFE12:
	.size	EPWM_SYNC_Single_Trigger_Enable, .-EPWM_SYNC_Single_Trigger_Enable
	.section .text$EPWM_Submodule_Register_Lock_Config
	.type	.text$EPWM_Submodule_Register_Lock_Config$scode_local_13, @function
	.text$EPWM_Submodule_Register_Lock_Config$scode_local_13:
	.align	1
	.export	EPWM_Submodule_Register_Lock_Config
	.type	EPWM_Submodule_Register_Lock_Config, @function
EPWM_Submodule_Register_Lock_Config:
.LFB13:
.LM140:
	.cfi_startproc
.LVL120:
	PUSH	{r6, r7, r8, r9, lr}
	.cfi_def_cfa_offset 20
	MOV	r6,r0
	MOV	r9,r1
	MOV	r8,r2
.LVL121:
.LM141:
	LD	r5,#1073748480
	CMP	r0,r5
	JZ	.L87
.LM142:
	LD	r5,#1073746688
	CMP	r0,r5
	JZ	.L87
.LM143:
	LD	r5,#1073746816
	MOV	r0,#1
.LVL122:
	CMP	r6,r5
	JZ	.L82
	LD	r5,#1073753600
	CMP	r6,r5
	JZ	.L82
	MOV	r0,#0
.L82:
.LM144:
	LD	r7,#CHECK_RESTRICTION
	LJMP	r7
.LVL123:
.LM145:
	MOV	r0,#1
	CMP	r9,#5
	JLS	.L84
	MOV	r0,#0
.L84:
	LJMP	r7
.LVL124:
.LM146:
	MOV	r0,#1
	CMP	r8,r0
	JLS	.L85
	MOV	r0,#0
.L85:
	LJMP	r7
.LVL125:
.LM147:
	ADD	r9,#23
.LVL126:
.LM148:
	LD.w	r4,[r6+#4]
.LVL127:
.LM149:
	MOV	r5,#1
	LSL	r5,r9
.LVL128:
.LM150:
	NOT	r5,r5
.LVL129:
.LBB130:
.LBB131:
.LM151:
	ANL	r5,r5,r4
.LVL130:
.LBE131:
.LBE130:
.LM152:
	MOV	r4,r8
.LVL131:
	LSL	r4,r9
.LVL132:
.LBB133:
.LBB132:
.LM153:
	ORL	r5,r5,r4
.LBE132:
.LBE133:
.LM154:
	ST.w	[r6+#4],r5
.LM155:
	POP	{r6, r7, r8, r9}
	.cfi_remember_state
	.cfi_def_cfa_offset 4
.LVL133:
	POP	lr
	.cfi_def_cfa_offset 0
	JMP	lr
.LVL134:
.L87:
	.cfi_restore_state
.LM156:
	MOV	r0,#1
.LVL135:
	JMP	.L82
	.cfi_endproc
.LFE13:
	.size	EPWM_Submodule_Register_Lock_Config, .-EPWM_Submodule_Register_Lock_Config
	.section .text$EPWM_Cap_Function_Enable
	.type	.text$EPWM_Cap_Function_Enable$scode_local_14, @function
	.text$EPWM_Cap_Function_Enable$scode_local_14:
	.align	1
	.export	EPWM_Cap_Function_Enable
	.type	EPWM_Cap_Function_Enable, @function
EPWM_Cap_Function_Enable:
.LFB14:
.LM157:
	.cfi_startproc
.LVL136:
	PUSH	{r6, r7, r8, lr}
	.cfi_def_cfa_offset 16
	MOV	r6,r0
	MOV	r7,r1
.LVL137:
.LM158:
	LD	r5,#1073748480
	CMP	r0,r5
	JZ	.L94
.LM159:
	LD	r5,#1073746688
	CMP	r0,r5
	JZ	.L94
.LM160:
	LD	r5,#1073746816
	MOV	r0,#1
.LVL138:
	CMP	r6,r5
	JZ	.L90
	LD	r5,#1073753600
	CMP	r6,r5
	JZ	.L90
	MOV	r0,#0
.L90:
.LM161:
	LD	r5,#CHECK_RESTRICTION
	MOV	r8,r5
	LJMP	r5
.LVL139:
.LM162:
	MOV	r0,#1
	CMP	r7,r0
	JLS	.L92
	MOV	r0,#0
.L92:
	LJMP	r8
.LVL140:
.LM163:
	LD.w	r5,[r6+#4]
.LVL141:
.LM164:
	LSL	r7,#22
.LVL142:
.LBB134:
.LBB135:
.LM165:
	CLR	r5,#22
.LVL143:
	ORL	r7,r7,r5
.LVL144:
.LBE135:
.LBE134:
.LM166:
	ST.w	[r6+#4],r7
.LM167:
	POP	{r6, r7, r8}
	.cfi_remember_state
	.cfi_def_cfa_offset 4
	POP	lr
	.cfi_def_cfa_offset 0
	JMP	lr
.LVL145:
.L94:
	.cfi_restore_state
.LM168:
	MOV	r0,#1
.LVL146:
	JMP	.L90
	.cfi_endproc
.LFE14:
	.size	EPWM_Cap_Function_Enable, .-EPWM_Cap_Function_Enable
	.section .text$EPWM_Cap_Trigger_Event_Select
	.type	.text$EPWM_Cap_Trigger_Event_Select$scode_local_15, @function
	.text$EPWM_Cap_Trigger_Event_Select$scode_local_15:
	.align	1
	.export	EPWM_Cap_Trigger_Event_Select
	.type	EPWM_Cap_Trigger_Event_Select, @function
EPWM_Cap_Trigger_Event_Select:
.LFB15:
.LM169:
	.cfi_startproc
.LVL147:
	PUSH	{r6, r7, r8, lr}
	.cfi_def_cfa_offset 16
	MOV	r6,r0
	MOV	r7,r1
.LVL148:
.LM170:
	LD	r5,#1073748480
	CMP	r0,r5
	JZ	.L101
.LM171:
	LD	r5,#1073746688
	CMP	r0,r5
	JZ	.L101
.LM172:
	LD	r5,#1073746816
	MOV	r0,#1
.LVL149:
	CMP	r6,r5
	JZ	.L97
	LD	r5,#1073753600
	CMP	r6,r5
	JZ	.L97
	MOV	r0,#0
.L97:
.LM173:
	LD	r5,#CHECK_RESTRICTION
	MOV	r8,r5
	LJMP	r5
.LVL150:
.LM174:
	MOV	r0,#1
	CMP	r7,#3
	JLS	.L99
	MOV	r0,#0
.L99:
	LJMP	r8
.LVL151:
.LM175:
	LD.w	r5,[r6+#4]
.LVL152:
.LM176:
	LSL	r7,#20
.LVL153:
.LBB136:
.LBB137:
.LM177:
	CLR	r5,#20
	CLR	r5,#21
.LVL154:
	ORL	r7,r7,r5
.LVL155:
.LBE137:
.LBE136:
.LM178:
	ST.w	[r6+#4],r7
.LM179:
	POP	{r6, r7, r8}
	.cfi_remember_state
	.cfi_def_cfa_offset 4
	POP	lr
	.cfi_def_cfa_offset 0
	JMP	lr
.LVL156:
.L101:
	.cfi_restore_state
.LM180:
	MOV	r0,#1
.LVL157:
	JMP	.L97
	.cfi_endproc
.LFE15:
	.size	EPWM_Cap_Trigger_Event_Select, .-EPWM_Cap_Trigger_Event_Select
	.section .text$EPWM_Get_CountValue_MAX_Status
	.type	.text$EPWM_Get_CountValue_MAX_Status$scode_local_16, @function
	.text$EPWM_Get_CountValue_MAX_Status$scode_local_16:
	.align	1
	.export	EPWM_Get_CountValue_MAX_Status
	.type	EPWM_Get_CountValue_MAX_Status, @function
EPWM_Get_CountValue_MAX_Status:
.LFB16:
.LM181:
	.cfi_startproc
.LVL158:
	PUSH	{r6, lr}
	.cfi_def_cfa_offset 8
	MOV	r6,r0
.LM182:
	LD	r5,#1073748480
	CMP	r0,r5
	JZ	.L107
.LM183:
	LD	r5,#1073746688
	CMP	r0,r5
	JZ	.L107
.LM184:
	LD	r5,#1073746816
	MOV	r0,#1
.LVL159:
	CMP	r6,r5
	JZ	.L104
	LD	r5,#1073753600
	CMP	r6,r5
	JZ	.L104
	MOV	r0,#0
.L104:
.LM185:
	LD	r5,#CHECK_RESTRICTION
	LJMP	r5
.LVL160:
.LM186:
	LD.w	r0,[r6+#4]
	MOV	r5,#1
	LSL	r5,#19
	ANL	r0,r0,r5
.LM187:
	LSR	r0,#19
	POP	r6
	.cfi_remember_state
	.cfi_def_cfa_offset 4
.LVL161:
	POP	lr
	.cfi_def_cfa_offset 0
	JMP	lr
.LVL162:
.L107:
	.cfi_restore_state
.LM188:
	MOV	r0,#1
.LVL163:
	JMP	.L104
	.cfi_endproc
.LFE16:
	.size	EPWM_Get_CountValue_MAX_Status, .-EPWM_Get_CountValue_MAX_Status
	.section .text$EPWM_Clear_CountValue_MAX_Status
	.type	.text$EPWM_Clear_CountValue_MAX_Status$scode_local_17, @function
	.text$EPWM_Clear_CountValue_MAX_Status$scode_local_17:
	.align	1
	.export	EPWM_Clear_CountValue_MAX_Status
	.type	EPWM_Clear_CountValue_MAX_Status, @function
EPWM_Clear_CountValue_MAX_Status:
.LFB17:
.LM189:
	.cfi_startproc
.LVL164:
	PUSH	{r6, lr}
	.cfi_def_cfa_offset 8
	MOV	r6,r0
.LM190:
	MOV	r0,#1
.LVL165:
	LD	r5,#1073748480
	CMP	r6,r5
	JZ	.L110
.LM191:
	LD	r5,#1073746688
	CMP	r6,r5
	JZ	.L110
.LM192:
	LD	r5,#1073746816
	CMP	r6,r5
	JZ	.L110
	LD	r5,#1073753600
	CMP	r6,r5
	JZ	.L110
	MOV	r0,#0
.L110:
.LM193:
	LD	r5,#CHECK_RESTRICTION
	LJMP	r5
.LVL166:
.LM194:
	LD.w	r5,[r6+#4]
.LVL167:
.LBB138:
.LBB139:
.LM195:
	SET	r5,#19
.LVL168:
.LBE139:
.LBE138:
.LM196:
	ST.w	[r6+#4],r5
.LM197:
	MOV	r4,#1
	LSL	r4,#19
.L112:
.LM198:
	LD.w	r5,[r6+#4]
	ANL	r5,r5,r4
	JZ	.L112
.LM199:
	POP	r6
	.cfi_def_cfa_offset 4
.LVL169:
	POP	lr
	.cfi_def_cfa_offset 0
	JMP	lr
	.cfi_endproc
.LFE17:
	.size	EPWM_Clear_CountValue_MAX_Status, .-EPWM_Clear_CountValue_MAX_Status
	.section .text$EPWM_Phase_Direction_Config
	.type	.text$EPWM_Phase_Direction_Config$scode_local_18, @function
	.text$EPWM_Phase_Direction_Config$scode_local_18:
	.align	1
	.export	EPWM_Phase_Direction_Config
	.type	EPWM_Phase_Direction_Config, @function
EPWM_Phase_Direction_Config:
.LFB18:
.LM200:
	.cfi_startproc
.LVL170:
	PUSH	{r6, r7, r8, lr}
	.cfi_def_cfa_offset 16
	MOV	r6,r0
	MOV	r7,r1
.LVL171:
.LM201:
	LD	r5,#1073748480
	CMP	r0,r5
	JZ	.L125
.LM202:
	LD	r5,#1073746688
	CMP	r0,r5
	JZ	.L125
.LM203:
	LD	r5,#1073746816
	MOV	r0,#1
.LVL172:
	CMP	r6,r5
	JZ	.L121
	LD	r5,#1073753600
	CMP	r6,r5
	JZ	.L121
	MOV	r0,#0
.L121:
.LM204:
	LD	r5,#CHECK_RESTRICTION
	MOV	r8,r5
	LJMP	r5
.LVL173:
.LM205:
	MOV	r0,#1
	CMP	r7,r0
	JLS	.L123
	MOV	r0,#0
.L123:
	LJMP	r8
.LVL174:
.LM206:
	LD.w	r5,[r6+#4]
.LVL175:
.LM207:
	LSL	r7,#18
.LVL176:
.LBB140:
.LBB141:
.LM208:
	CLR	r5,#18
.LVL177:
	ORL	r7,r7,r5
.LVL178:
.LBE141:
.LBE140:
.LM209:
	ST.w	[r6+#4],r7
.LM210:
	POP	{r6, r7, r8}
	.cfi_remember_state
	.cfi_def_cfa_offset 4
	POP	lr
	.cfi_def_cfa_offset 0
	JMP	lr
.LVL179:
.L125:
	.cfi_restore_state
.LM211:
	MOV	r0,#1
.LVL180:
	JMP	.L121
	.cfi_endproc
.LFE18:
	.size	EPWM_Phase_Direction_Config, .-EPWM_Phase_Direction_Config
	.section .text$EPWM_Software_SYNC_Event
	.type	.text$EPWM_Software_SYNC_Event$scode_local_19, @function
	.text$EPWM_Software_SYNC_Event$scode_local_19:
	.align	1
	.export	EPWM_Software_SYNC_Event
	.type	EPWM_Software_SYNC_Event, @function
EPWM_Software_SYNC_Event:
.LFB19:
.LM212:
	.cfi_startproc
.LVL181:
	PUSH	{r6, lr}
	.cfi_def_cfa_offset 8
	MOV	r6,r0
.LM213:
	LD	r5,#1073748480
	CMP	r0,r5
	JZ	.L131
.LM214:
	LD	r5,#1073746688
	CMP	r0,r5
	JZ	.L131
.LM215:
	LD	r5,#1073746816
	MOV	r0,#1
.LVL182:
	CMP	r6,r5
	JZ	.L128
	LD	r5,#1073753600
	CMP	r6,r5
	JZ	.L128
	MOV	r0,#0
.L128:
.LM216:
	LD	r5,#CHECK_RESTRICTION
	LJMP	r5
.LVL183:
.LM217:
	LD.w	r5,[r6+#4]
.LVL184:
.LBB142:
.LBB143:
.LM218:
	SET	r5,#17
.LVL185:
.LBE143:
.LBE142:
.LM219:
	ST.w	[r6+#4],r5
.LM220:
	POP	r6
	.cfi_remember_state
	.cfi_def_cfa_offset 4
.LVL186:
	POP	lr
	.cfi_def_cfa_offset 0
	JMP	lr
.LVL187:
.L131:
	.cfi_restore_state
.LM221:
	MOV	r0,#1
.LVL188:
	LD	r5,#CHECK_RESTRICTION
	LJMP	r5
.LVL189:
.LM222:
	LD.w	r5,[r6+#4]
.LVL190:
.LBB145:
.LBB144:
.LM223:
	SET	r5,#17
.LVL191:
.LBE144:
.LBE145:
.LM224:
	ST.w	[r6+#4],r5
.LM225:
	POP	r6
	.cfi_def_cfa_offset 4
.LVL192:
	POP	lr
	.cfi_def_cfa_offset 0
	JMP	lr
	.cfi_endproc
.LFE19:
	.size	EPWM_Software_SYNC_Event, .-EPWM_Software_SYNC_Event
	.section .text$EPWM_SYNC_Event_Out_Select
	.type	.text$EPWM_SYNC_Event_Out_Select$scode_local_20, @function
	.text$EPWM_SYNC_Event_Out_Select$scode_local_20:
	.align	1
	.export	EPWM_SYNC_Event_Out_Select
	.type	EPWM_SYNC_Event_Out_Select, @function
EPWM_SYNC_Event_Out_Select:
.LFB20:
.LM226:
	.cfi_startproc
.LVL193:
	PUSH	{r6, r7, r8, lr}
	.cfi_def_cfa_offset 16
	MOV	r6,r0
	MOV	r7,r1
.LVL194:
.LM227:
	LD	r5,#1073748480
	CMP	r0,r5
	JZ	.L138
.LM228:
	LD	r5,#1073746688
	CMP	r0,r5
	JZ	.L138
.LM229:
	LD	r5,#1073746816
	MOV	r0,#1
.LVL195:
	CMP	r6,r5
	JZ	.L134
	LD	r5,#1073753600
	CMP	r6,r5
	JZ	.L134
	MOV	r0,#0
.L134:
.LM230:
	LD	r5,#CHECK_RESTRICTION
	MOV	r8,r5
	LJMP	r5
.LVL196:
.LM231:
	MOV	r0,#1
	CMP	r7,#3
	JLS	.L136
	MOV	r0,#0
.L136:
	LJMP	r8
.LVL197:
.LM232:
	LD.w	r5,[r6+#4]
.LVL198:
.LM233:
	LSL	r7,#15
.LVL199:
.LBB146:
.LBB147:
.LM234:
	CLR	r5,#15
	CLR	r5,#16
.LVL200:
	ORL	r7,r7,r5
.LVL201:
.LBE147:
.LBE146:
.LM235:
	ST.w	[r6+#4],r7
.LM236:
	POP	{r6, r7, r8}
	.cfi_remember_state
	.cfi_def_cfa_offset 4
	POP	lr
	.cfi_def_cfa_offset 0
	JMP	lr
.LVL202:
.L138:
	.cfi_restore_state
.LM237:
	MOV	r0,#1
.LVL203:
	JMP	.L134
	.cfi_endproc
.LFE20:
	.size	EPWM_SYNC_Event_Out_Select, .-EPWM_SYNC_Event_Out_Select
	.section .text$EPWM_Phase_Register_Loading_Enable
	.type	.text$EPWM_Phase_Register_Loading_Enable$scode_local_21, @function
	.text$EPWM_Phase_Register_Loading_Enable$scode_local_21:
	.align	1
	.export	EPWM_Phase_Register_Loading_Enable
	.type	EPWM_Phase_Register_Loading_Enable, @function
EPWM_Phase_Register_Loading_Enable:
.LFB21:
.LM238:
	.cfi_startproc
.LVL204:
	PUSH	{r6, r7, r8, lr}
	.cfi_def_cfa_offset 16
	MOV	r6,r0
	MOV	r7,r1
.LVL205:
.LM239:
	LD	r5,#1073748480
	CMP	r0,r5
	JZ	.L145
.LM240:
	LD	r5,#1073746688
	CMP	r0,r5
	JZ	.L145
.LM241:
	LD	r5,#1073746816
	MOV	r0,#1
.LVL206:
	CMP	r6,r5
	JZ	.L141
	LD	r5,#1073753600
	CMP	r6,r5
	JZ	.L141
	MOV	r0,#0
.L141:
.LM242:
	LD	r5,#CHECK_RESTRICTION
	MOV	r8,r5
	LJMP	r5
.LVL207:
.LM243:
	MOV	r0,#1
	CMP	r7,r0
	JLS	.L143
	MOV	r0,#0
.L143:
	LJMP	r8
.LVL208:
.LM244:
	LD.w	r5,[r6+#4]
.LVL209:
.LM245:
	LSL	r7,#14
.LVL210:
.LBB148:
.LBB149:
.LM246:
	CLR	r5,#14
.LVL211:
	ORL	r7,r7,r5
.LVL212:
.LBE149:
.LBE148:
.LM247:
	ST.w	[r6+#4],r7
.LM248:
	POP	{r6, r7, r8}
	.cfi_remember_state
	.cfi_def_cfa_offset 4
	POP	lr
	.cfi_def_cfa_offset 0
	JMP	lr
.LVL213:
.L145:
	.cfi_restore_state
.LM249:
	MOV	r0,#1
.LVL214:
	JMP	.L141
	.cfi_endproc
.LFE21:
	.size	EPWM_Phase_Register_Loading_Enable, .-EPWM_Phase_Register_Loading_Enable
	.section .text$EPWM_Get_External_SYNC_Event_Status
	.type	.text$EPWM_Get_External_SYNC_Event_Status$scode_local_22, @function
	.text$EPWM_Get_External_SYNC_Event_Status$scode_local_22:
	.align	1
	.export	EPWM_Get_External_SYNC_Event_Status
	.type	EPWM_Get_External_SYNC_Event_Status, @function
EPWM_Get_External_SYNC_Event_Status:
.LFB22:
.LM250:
	.cfi_startproc
.LVL215:
	PUSH	{r6, lr}
	.cfi_def_cfa_offset 8
	MOV	r6,r0
.LM251:
	LD	r5,#1073748480
	CMP	r0,r5
	JZ	.L151
.LM252:
	LD	r5,#1073746688
	CMP	r0,r5
	JZ	.L151
.LM253:
	LD	r5,#1073746816
	MOV	r0,#1
.LVL216:
	CMP	r6,r5
	JZ	.L148
	LD	r5,#1073753600
	CMP	r6,r5
	JZ	.L148
	MOV	r0,#0
.L148:
.LM254:
	LD	r5,#CHECK_RESTRICTION
	LJMP	r5
.LVL217:
.LM255:
	LD.w	r0,[r6+#4]
	MOV	r5,#1
	LSL	r5,#13
	ANL	r0,r0,r5
.LM256:
	LSR	r0,#13
	POP	r6
	.cfi_remember_state
	.cfi_def_cfa_offset 4
.LVL218:
	POP	lr
	.cfi_def_cfa_offset 0
	JMP	lr
.LVL219:
.L151:
	.cfi_restore_state
.LM257:
	MOV	r0,#1
.LVL220:
	JMP	.L148
	.cfi_endproc
.LFE22:
	.size	EPWM_Get_External_SYNC_Event_Status, .-EPWM_Get_External_SYNC_Event_Status
	.section .text$EPWM_Clear_External_SYNC_Event_Status
	.type	.text$EPWM_Clear_External_SYNC_Event_Status$scode_local_23, @function
	.text$EPWM_Clear_External_SYNC_Event_Status$scode_local_23:
	.align	1
	.export	EPWM_Clear_External_SYNC_Event_Status
	.type	EPWM_Clear_External_SYNC_Event_Status, @function
EPWM_Clear_External_SYNC_Event_Status:
.LFB23:
.LM258:
	.cfi_startproc
.LVL221:
	PUSH	{r6, lr}
	.cfi_def_cfa_offset 8
	MOV	r6,r0
.LM259:
	MOV	r0,#1
.LVL222:
	LD	r5,#1073748480
	CMP	r6,r5
	JZ	.L154
.LM260:
	LD	r5,#1073746688
	CMP	r6,r5
	JZ	.L154
.LM261:
	LD	r5,#1073746816
	CMP	r6,r5
	JZ	.L154
	LD	r5,#1073753600
	CMP	r6,r5
	JZ	.L154
	MOV	r0,#0
.L154:
.LM262:
	LD	r5,#CHECK_RESTRICTION
	LJMP	r5
.LVL223:
.LM263:
	LD.w	r5,[r6+#4]
.LVL224:
.LBB150:
.LBB151:
.LM264:
	SET	r5,#13
.LVL225:
.LBE151:
.LBE150:
.LM265:
	ST.w	[r6+#4],r5
.LM266:
	MOV	r4,#1
	LSL	r4,#13
.L156:
.LM267:
	LD.w	r5,[r6+#4]
	ANL	r5,r5,r4
	JZ	.L156
.LM268:
	POP	r6
	.cfi_def_cfa_offset 4
.LVL226:
	POP	lr
	.cfi_def_cfa_offset 0
	JMP	lr
	.cfi_endproc
.LFE23:
	.size	EPWM_Clear_External_SYNC_Event_Status, .-EPWM_Clear_External_SYNC_Event_Status
	.section .text$EPWM_Updata_Event_Generate_Enable
	.type	.text$EPWM_Updata_Event_Generate_Enable$scode_local_24, @function
	.text$EPWM_Updata_Event_Generate_Enable$scode_local_24:
	.align	1
	.export	EPWM_Updata_Event_Generate_Enable
	.type	EPWM_Updata_Event_Generate_Enable, @function
EPWM_Updata_Event_Generate_Enable:
.LFB24:
.LM269:
	.cfi_startproc
.LVL227:
	PUSH	{r6, r7, r8, lr}
	.cfi_def_cfa_offset 16
	MOV	r6,r0
	MOV	r7,r1
.LVL228:
.LM270:
	LD	r5,#1073748480
	CMP	r0,r5
	JZ	.L169
.LM271:
	LD	r5,#1073746688
	CMP	r0,r5
	JZ	.L169
.LM272:
	LD	r5,#1073746816
	MOV	r0,#1
.LVL229:
	CMP	r6,r5
	JZ	.L165
	LD	r5,#1073753600
	CMP	r6,r5
	JZ	.L165
	MOV	r0,#0
.L165:
.LM273:
	LD	r5,#CHECK_RESTRICTION
	MOV	r8,r5
	LJMP	r5
.LVL230:
.LM274:
	MOV	r0,#1
	CMP	r7,r0
	JLS	.L167
	MOV	r0,#0
.L167:
	LJMP	r8
.LVL231:
.LM275:
	LD.w	r5,[r6+#4]
.LVL232:
.LM276:
	LSL	r7,#12
.LVL233:
.LBB152:
.LBB153:
.LM277:
	CLR	r5,#12
.LVL234:
	ORL	r7,r7,r5
.LVL235:
.LBE153:
.LBE152:
.LM278:
	ST.w	[r6+#4],r7
.LM279:
	POP	{r6, r7, r8}
	.cfi_remember_state
	.cfi_def_cfa_offset 4
	POP	lr
	.cfi_def_cfa_offset 0
	JMP	lr
.LVL236:
.L169:
	.cfi_restore_state
.LM280:
	MOV	r0,#1
.LVL237:
	JMP	.L165
	.cfi_endproc
.LFE24:
	.size	EPWM_Updata_Event_Generate_Enable, .-EPWM_Updata_Event_Generate_Enable
	.section .text$EPWM_Updata_Event_Config
	.type	.text$EPWM_Updata_Event_Config$scode_local_25, @function
	.text$EPWM_Updata_Event_Config$scode_local_25:
	.align	1
	.export	EPWM_Updata_Event_Config
	.type	EPWM_Updata_Event_Config, @function
EPWM_Updata_Event_Config:
.LFB25:
.LM281:
	.cfi_startproc
.LVL238:
	PUSH	{r6, r7, r8, lr}
	.cfi_def_cfa_offset 16
	MOV	r6,r0
	MOV	r7,r1
.LVL239:
.LM282:
	LD	r5,#1073748480
	CMP	r0,r5
	JZ	.L176
.LM283:
	LD	r5,#1073746688
	CMP	r0,r5
	JZ	.L176
.LM284:
	LD	r5,#1073746816
	MOV	r0,#1
.LVL240:
	CMP	r6,r5
	JZ	.L172
	LD	r5,#1073753600
	CMP	r6,r5
	JZ	.L172
	MOV	r0,#0
.L172:
.LM285:
	LD	r5,#CHECK_RESTRICTION
	MOV	r8,r5
	LJMP	r5
.LVL241:
.LM286:
	MOV	r0,#1
	CMP	r7,r0
	JLS	.L174
	MOV	r0,#0
.L174:
	LJMP	r8
.LVL242:
.LM287:
	LD.w	r5,[r6+#4]
.LVL243:
.LM288:
	LSL	r7,#11
.LVL244:
.LBB154:
.LBB155:
.LM289:
	CLR	r5,#11
.LVL245:
	ORL	r7,r7,r5
.LVL246:
.LBE155:
.LBE154:
.LM290:
	ST.w	[r6+#4],r7
.LM291:
	POP	{r6, r7, r8}
	.cfi_remember_state
	.cfi_def_cfa_offset 4
	POP	lr
	.cfi_def_cfa_offset 0
	JMP	lr
.LVL247:
.L176:
	.cfi_restore_state
.LM292:
	MOV	r0,#1
.LVL248:
	JMP	.L172
	.cfi_endproc
.LFE25:
	.size	EPWM_Updata_Event_Config, .-EPWM_Updata_Event_Config
	.section .text$EPWM_Updata_Event_Enable
	.type	.text$EPWM_Updata_Event_Enable$scode_local_26, @function
	.text$EPWM_Updata_Event_Enable$scode_local_26:
	.align	1
	.export	EPWM_Updata_Event_Enable
	.type	EPWM_Updata_Event_Enable, @function
EPWM_Updata_Event_Enable:
.LFB26:
.LM293:
	.cfi_startproc
.LVL249:
	PUSH	{r6, r7, r8, lr}
	.cfi_def_cfa_offset 16
	MOV	r6,r0
	MOV	r7,r1
.LVL250:
.LM294:
	LD	r5,#1073748480
	CMP	r0,r5
	JZ	.L183
.LM295:
	LD	r5,#1073746688
	CMP	r0,r5
	JZ	.L183
.LM296:
	LD	r5,#1073746816
	MOV	r0,#1
.LVL251:
	CMP	r6,r5
	JZ	.L179
	LD	r5,#1073753600
	CMP	r6,r5
	JZ	.L179
	MOV	r0,#0
.L179:
.LM297:
	LD	r5,#CHECK_RESTRICTION
	MOV	r8,r5
	LJMP	r5
.LVL252:
.LM298:
	MOV	r0,#1
	CMP	r7,r0
	JLS	.L181
	MOV	r0,#0
.L181:
	LJMP	r8
.LVL253:
.LM299:
	LD.w	r5,[r6+#4]
.LVL254:
.LM300:
	LSL	r7,#10
.LVL255:
.LBB156:
.LBB157:
.LM301:
	CLR	r5,#10
.LVL256:
	ORL	r7,r7,r5
.LVL257:
.LBE157:
.LBE156:
.LM302:
	ST.w	[r6+#4],r7
.LM303:
	POP	{r6, r7, r8}
	.cfi_remember_state
	.cfi_def_cfa_offset 4
	POP	lr
	.cfi_def_cfa_offset 0
	JMP	lr
.LVL258:
.L183:
	.cfi_restore_state
.LM304:
	MOV	r0,#1
.LVL259:
	JMP	.L179
	.cfi_endproc
.LFE26:
	.size	EPWM_Updata_Event_Enable, .-EPWM_Updata_Event_Enable
	.section .text$EPWM_Counter_Mode_Select
	.type	.text$EPWM_Counter_Mode_Select$scode_local_27, @function
	.text$EPWM_Counter_Mode_Select$scode_local_27:
	.align	1
	.export	EPWM_Counter_Mode_Select
	.type	EPWM_Counter_Mode_Select, @function
EPWM_Counter_Mode_Select:
.LFB27:
.LM305:
	.cfi_startproc
.LVL260:
	PUSH	{r6, r7, r8, lr}
	.cfi_def_cfa_offset 16
	MOV	r6,r0
	MOV	r7,r1
.LVL261:
.LM306:
	MOV	r0,#1
.LVL262:
	LD	r5,#1073748480
	CMP	r6,r5
	JZ	.L186
.LM307:
	LD	r5,#1073746688
	CMP	r6,r5
	JZ	.L186
.LM308:
	LD	r5,#1073746816
	CMP	r6,r5
	JZ	.L186
	LD	r5,#1073753600
	CMP	r6,r5
	JZ	.L186
	MOV	r0,#0
.L186:
.LM309:
	LD	r5,#CHECK_RESTRICTION
	MOV	r8,r5
	LJMP	r5
.LVL263:
.LM310:
	MOV	r0,#1
	CMP	r7,#0
	JZ	.L188
.LM311:
	CMP	r7,#4
	JZ	.L188
.LM312:
	CMP	r7,#5
	JZ	.L188
	CMP	r7,#6
	JZ	.L188
	CMP	r7,#7
	JZ	.L188
	MOV	r0,#0
.L188:
.LM313:
	LJMP	r8
.LVL264:
.LM314:
	LD.w	r4,[r6+#4]
.LVL265:
.LM315:
	LSL	r7,#7
.LVL266:
.LBB158:
.LBB159:
.LM316:
	LD	r5,#-897
	ANL	r5,r4,r5
	ORL	r7,r7,r5
.LVL267:
.LBE159:
.LBE158:
.LM317:
	ST.w	[r6+#4],r7
.LM318:
	POP	{r6, r7, r8}
	.cfi_def_cfa_offset 4
	POP	lr
	.cfi_def_cfa_offset 0
	JMP	lr
	.cfi_endproc
.LFE27:
	.size	EPWM_Counter_Mode_Select, .-EPWM_Counter_Mode_Select
	.section .text$EPWM_Get_Tx_Count_Direction
	.type	.text$EPWM_Get_Tx_Count_Direction$scode_local_28, @function
	.text$EPWM_Get_Tx_Count_Direction$scode_local_28:
	.align	1
	.export	EPWM_Get_Tx_Count_Direction
	.type	EPWM_Get_Tx_Count_Direction, @function
EPWM_Get_Tx_Count_Direction:
.LFB28:
.LM319:
	.cfi_startproc
.LVL268:
	PUSH	{r6, lr}
	.cfi_def_cfa_offset 8
	MOV	r6,r0
.LM320:
	LD	r5,#1073748480
	CMP	r0,r5
	JZ	.L208
.LM321:
	LD	r5,#1073746688
	CMP	r0,r5
	JZ	.L208
.LM322:
	LD	r5,#1073746816
	MOV	r0,#1
.LVL269:
	CMP	r6,r5
	JZ	.L205
	LD	r5,#1073753600
	CMP	r6,r5
	JZ	.L205
	MOV	r0,#0
.L205:
.LM323:
	LD	r5,#CHECK_RESTRICTION
	LJMP	r5
.LVL270:
.LM324:
	LD.w	r0,[r6+#4]
	MOV	r5,#64
	ANL	r0,r0,r5
.LM325:
	LSR	r0,#6
	POP	r6
	.cfi_remember_state
	.cfi_def_cfa_offset 4
.LVL271:
	POP	lr
	.cfi_def_cfa_offset 0
	JMP	lr
.LVL272:
.L208:
	.cfi_restore_state
.LM326:
	MOV	r0,#1
.LVL273:
	JMP	.L205
	.cfi_endproc
.LFE28:
	.size	EPWM_Get_Tx_Count_Direction, .-EPWM_Get_Tx_Count_Direction
	.section .text$EPWM_Work_Clock_Select
	.type	.text$EPWM_Work_Clock_Select$scode_local_29, @function
	.text$EPWM_Work_Clock_Select$scode_local_29:
	.align	1
	.export	EPWM_Work_Clock_Select
	.type	EPWM_Work_Clock_Select, @function
EPWM_Work_Clock_Select:
.LFB29:
.LM327:
	.cfi_startproc
.LVL274:
	PUSH	{r6, r7, r8, lr}
	.cfi_def_cfa_offset 16
	MOV	r6,r0
	MOV	r7,r1
.LVL275:
.LM328:
	LD	r5,#1073748480
	CMP	r0,r5
	JZ	.L215
.LM329:
	LD	r5,#1073746688
	CMP	r0,r5
	JZ	.L215
.LM330:
	LD	r5,#1073746816
	MOV	r0,#1
.LVL276:
	CMP	r6,r5
	JZ	.L211
	LD	r5,#1073753600
	CMP	r6,r5
	JZ	.L211
	MOV	r0,#0
.L211:
.LM331:
	LD	r5,#CHECK_RESTRICTION
	MOV	r8,r5
	LJMP	r5
.LVL277:
.LM332:
	MOV	r0,#1
	CMP	r7,#3
	JLS	.L213
	MOV	r0,#0
.L213:
	LJMP	r8
.LVL278:
.LM333:
	LD.w	r5,[r6+#4]
.LVL279:
.LM334:
	LSL	r7,#4
.LVL280:
.LBB160:
.LBB161:
.LM335:
	CLR	r5,#4
	CLR	r5,#5
.LVL281:
	ORL	r7,r7,r5
.LVL282:
.LBE161:
.LBE160:
.LM336:
	ST.w	[r6+#4],r7
.LM337:
	POP	{r6, r7, r8}
	.cfi_remember_state
	.cfi_def_cfa_offset 4
	POP	lr
	.cfi_def_cfa_offset 0
	JMP	lr
.LVL283:
.L215:
	.cfi_restore_state
.LM338:
	MOV	r0,#1
.LVL284:
	JMP	.L211
	.cfi_endproc
.LFE29:
	.size	EPWM_Work_Clock_Select, .-EPWM_Work_Clock_Select
	.section .text$EPWM_External_Pulse_Sync_Config
	.type	.text$EPWM_External_Pulse_Sync_Config$scode_local_30, @function
	.text$EPWM_External_Pulse_Sync_Config$scode_local_30:
	.align	1
	.export	EPWM_External_Pulse_Sync_Config
	.type	EPWM_External_Pulse_Sync_Config, @function
EPWM_External_Pulse_Sync_Config:
.LFB30:
.LM339:
	.cfi_startproc
.LVL285:
	PUSH	{r6, r7, r8, lr}
	.cfi_def_cfa_offset 16
	MOV	r6,r0
	MOV	r7,r1
.LVL286:
.LM340:
	LD	r5,#1073748480
	CMP	r0,r5
	JZ	.L222
.LM341:
	LD	r5,#1073746688
	CMP	r0,r5
	JZ	.L222
.LM342:
	LD	r5,#1073746816
	MOV	r0,#1
.LVL287:
	CMP	r6,r5
	JZ	.L218
	LD	r5,#1073753600
	CMP	r6,r5
	JZ	.L218
	MOV	r0,#0
.L218:
.LM343:
	LD	r5,#CHECK_RESTRICTION
	MOV	r8,r5
	LJMP	r5
.LVL288:
.LM344:
	MOV	r0,#1
	CMP	r7,r0
	JLS	.L220
	MOV	r0,#0
.L220:
	LJMP	r8
.LVL289:
.LM345:
	LD.w	r5,[r6+#4]
.LVL290:
.LM346:
	LSL	r7,#3
.LVL291:
.LBB162:
.LBB163:
.LM347:
	CLR	r5,#3
.LVL292:
	ORL	r7,r7,r5
.LVL293:
.LBE163:
.LBE162:
.LM348:
	ST.w	[r6+#4],r7
.LM349:
	POP	{r6, r7, r8}
	.cfi_remember_state
	.cfi_def_cfa_offset 4
	POP	lr
	.cfi_def_cfa_offset 0
	JMP	lr
.LVL294:
.L222:
	.cfi_restore_state
.LM350:
	MOV	r0,#1
.LVL295:
	JMP	.L218
	.cfi_endproc
.LFE30:
	.size	EPWM_External_Pulse_Sync_Config, .-EPWM_External_Pulse_Sync_Config
	.section .text$EPWM_Gated_Enable
	.type	.text$EPWM_Gated_Enable$scode_local_31, @function
	.text$EPWM_Gated_Enable$scode_local_31:
	.align	1
	.export	EPWM_Gated_Enable
	.type	EPWM_Gated_Enable, @function
EPWM_Gated_Enable:
.LFB31:
.LM351:
	.cfi_startproc
.LVL296:
	PUSH	{r6, r7, r8, lr}
	.cfi_def_cfa_offset 16
	MOV	r6,r0
	MOV	r7,r1
.LVL297:
.LM352:
	LD	r5,#1073748480
	CMP	r0,r5
	JZ	.L229
.LM353:
	LD	r5,#1073746688
	CMP	r0,r5
	JZ	.L229
.LM354:
	LD	r5,#1073746816
	MOV	r0,#1
.LVL298:
	CMP	r6,r5
	JZ	.L225
	LD	r5,#1073753600
	CMP	r6,r5
	JZ	.L225
	MOV	r0,#0
.L225:
.LM355:
	LD	r5,#CHECK_RESTRICTION
	MOV	r8,r5
	LJMP	r5
.LVL299:
.LM356:
	MOV	r0,#1
	CMP	r7,r0
	JLS	.L227
	MOV	r0,#0
.L227:
	LJMP	r8
.LVL300:
.LM357:
	LD.w	r5,[r6+#4]
.LVL301:
.LM358:
	LSL	r7,#2
.LVL302:
.LBB164:
.LBB165:
.LM359:
	CLR	r5,#2
.LVL303:
	ORL	r7,r7,r5
.LVL304:
.LBE165:
.LBE164:
.LM360:
	ST.w	[r6+#4],r7
.LM361:
	POP	{r6, r7, r8}
	.cfi_remember_state
	.cfi_def_cfa_offset 4
	POP	lr
	.cfi_def_cfa_offset 0
	JMP	lr
.LVL305:
.L229:
	.cfi_restore_state
.LM362:
	MOV	r0,#1
.LVL306:
	JMP	.L225
	.cfi_endproc
.LFE31:
	.size	EPWM_Gated_Enable, .-EPWM_Gated_Enable
	.section .text$EPWM_Work_Mode_Config
	.type	.text$EPWM_Work_Mode_Config$scode_local_32, @function
	.text$EPWM_Work_Mode_Config$scode_local_32:
	.align	1
	.export	EPWM_Work_Mode_Config
	.type	EPWM_Work_Mode_Config, @function
EPWM_Work_Mode_Config:
.LFB32:
.LM363:
	.cfi_startproc
.LVL307:
	PUSH	{r6, r7, r8, lr}
	.cfi_def_cfa_offset 16
	MOV	r6,r0
	MOV	r7,r1
.LVL308:
.LM364:
	LD	r5,#1073748480
	CMP	r0,r5
	JZ	.L236
.LM365:
	LD	r5,#1073746688
	CMP	r0,r5
	JZ	.L236
.LM366:
	LD	r5,#1073746816
	MOV	r0,#1
.LVL309:
	CMP	r6,r5
	JZ	.L232
	LD	r5,#1073753600
	CMP	r6,r5
	JZ	.L232
	MOV	r0,#0
.L232:
.LM367:
	LD	r5,#CHECK_RESTRICTION
	MOV	r8,r5
	LJMP	r5
.LVL310:
.LM368:
	MOV	r0,#1
	CMP	r7,r0
	JLS	.L234
	MOV	r0,#0
.L234:
	LJMP	r8
.LVL311:
.LM369:
	LD.w	r5,[r6+#4]
.LVL312:
.LM370:
	ADD	r7,r7,r7
.LVL313:
.LBB166:
.LBB167:
.LM371:
	CLR	r5,#1
.LVL314:
	ORL	r7,r7,r5
.LBE167:
.LBE166:
.LM372:
	ST.w	[r6+#4],r7
.LM373:
	POP	{r6, r7, r8}
	.cfi_remember_state
	.cfi_def_cfa_offset 4
	POP	lr
	.cfi_def_cfa_offset 0
	JMP	lr
.LVL315:
.L236:
	.cfi_restore_state
.LM374:
	MOV	r0,#1
.LVL316:
	JMP	.L232
	.cfi_endproc
.LFE32:
	.size	EPWM_Work_Mode_Config, .-EPWM_Work_Mode_Config
	.section .text$EPWM_Enable
	.type	.text$EPWM_Enable$scode_local_33, @function
	.text$EPWM_Enable$scode_local_33:
	.align	1
	.export	EPWM_Enable
	.type	EPWM_Enable, @function
EPWM_Enable:
.LFB33:
.LM375:
	.cfi_startproc
.LVL317:
	PUSH	{r6, r7, r8, lr}
	.cfi_def_cfa_offset 16
	MOV	r6,r0
	MOV	r7,r1
.LM376:
	LD	r5,#1073748480
	CMP	r0,r5
	JZ	.L243
.LM377:
	LD	r5,#1073746688
	CMP	r0,r5
	JZ	.L243
.LM378:
	LD	r5,#1073746816
	MOV	r0,#1
.LVL318:
	CMP	r6,r5
	JZ	.L239
	LD	r5,#1073753600
	CMP	r6,r5
	JZ	.L239
	MOV	r0,#0
.L239:
.LM379:
	LD	r5,#CHECK_RESTRICTION
	MOV	r8,r5
	LJMP	r5
.LVL319:
.LM380:
	MOV	r0,#1
	CMP	r7,r0
	JLS	.L241
	MOV	r0,#0
.L241:
	LJMP	r8
.LVL320:
.LM381:
	LD.w	r5,[r6+#4]
.LVL321:
.LBB168:
.LBB169:
.LM382:
	CLR	r5,#0
.LVL322:
	ORL	r7,r7,r5
.LVL323:
.LBE169:
.LBE168:
.LM383:
	ST.w	[r6+#4],r7
.LM384:
	POP	{r6, r7, r8}
	.cfi_remember_state
	.cfi_def_cfa_offset 4
	POP	lr
	.cfi_def_cfa_offset 0
	JMP	lr
.LVL324:
.L243:
	.cfi_restore_state
.LM385:
	MOV	r0,#1
.LVL325:
	JMP	.L239
	.cfi_endproc
.LFE33:
	.size	EPWM_Enable, .-EPWM_Enable
	.section .text$EPWM_Duty_Cycle_RegisterABCD_Config
	.type	.text$EPWM_Duty_Cycle_RegisterABCD_Config$scode_local_34, @function
	.text$EPWM_Duty_Cycle_RegisterABCD_Config$scode_local_34:
	.align	1
	.export	EPWM_Duty_Cycle_RegisterABCD_Config
	.type	EPWM_Duty_Cycle_RegisterABCD_Config, @function
EPWM_Duty_Cycle_RegisterABCD_Config:
.LFB34:
.LM386:
	.cfi_startproc
.LVL326:
	PUSH	{r6, r7, r8, r9, lr}
	.cfi_def_cfa_offset 20
	MOV	r6,r0
	MOV	r7,r1
	MOV	r9,r2
.LM387:
	MOV	r0,#1
.LVL327:
	LD	r5,#1073748480
	CMP	r6,r5
	JZ	.L246
.LM388:
	LD	r5,#1073746688
	CMP	r6,r5
	JZ	.L246
.LM389:
	LD	r5,#1073746816
	CMP	r6,r5
	JZ	.L246
	LD	r5,#1073753600
	CMP	r6,r5
	JZ	.L246
	MOV	r0,#0
.L246:
.LM390:
	LD	r5,#CHECK_RESTRICTION
	MOV	r8,r5
	LJMP	r5
.LVL328:
.LM391:
	MOV	r0,#1
	CMP	r7,#3
	JLS	.L248
	MOV	r0,#0
.L248:
	LJMP	r8
.LVL329:
.LM392:
	MOV	r0,#1
	LJMP	r8
.LVL330:
.LM393:
	CMP	r7,#0
	JZ	.L256
.LM394:
	CMP	r7,#1
	JZ	.L257
.LM395:
	CMP	r7,#2
	JZ	.L258
.LM396:
	CMP	r7,#3
	JNZ	.L245
.LM397:
	MOV	r5,r9
	ST.w	[r6+#24],r5
.L245:
.LM398:
	POP	{r6, r7, r8, r9}
	.cfi_remember_state
	.cfi_def_cfa_offset 4
.LVL331:
	POP	lr
	.cfi_def_cfa_offset 0
	JMP	lr
.LVL332:
.L256:
	.cfi_restore_state
.LM399:
	MOV	r5,r9
	ST.w	[r6+#5],r5
.LM400:
	POP	{r6, r7, r8, r9}
	.cfi_remember_state
	.cfi_def_cfa_offset 4
.LVL333:
	POP	lr
	.cfi_def_cfa_offset 0
	JMP	lr
.LVL334:
.L257:
	.cfi_restore_state
.LM401:
	MOV	r5,r9
	ST.w	[r6+#6],r5
.LM402:
	POP	{r6, r7, r8, r9}
	.cfi_remember_state
	.cfi_def_cfa_offset 4
.LVL335:
	POP	lr
	.cfi_def_cfa_offset 0
	JMP	lr
.LVL336:
.L258:
	.cfi_restore_state
.LM403:
	MOV	r5,r9
	ST.w	[r6+#23],r5
	JMP	.L245
	.cfi_endproc
.LFE34:
	.size	EPWM_Duty_Cycle_RegisterABCD_Config, .-EPWM_Duty_Cycle_RegisterABCD_Config
	.section .text$EPWM_Get_Duty_Cycle_RegisterABCD_Value
	.type	.text$EPWM_Get_Duty_Cycle_RegisterABCD_Value$scode_local_35, @function
	.text$EPWM_Get_Duty_Cycle_RegisterABCD_Value$scode_local_35:
	.align	1
	.export	EPWM_Get_Duty_Cycle_RegisterABCD_Value
	.type	EPWM_Get_Duty_Cycle_RegisterABCD_Value, @function
EPWM_Get_Duty_Cycle_RegisterABCD_Value:
.LFB35:
.LM404:
	.cfi_startproc
.LVL337:
	PUSH	{r6, r7, r8, lr}
	.cfi_def_cfa_offset 16
	MOV	r6,r0
	MOV	r7,r1
.LM405:
	MOV	r0,#1
.LVL338:
	LD	r5,#1073748480
	CMP	r6,r5
	JZ	.L260
.LM406:
	LD	r5,#1073746688
	CMP	r6,r5
	JZ	.L260
.LM407:
	LD	r5,#1073746816
	CMP	r6,r5
	JZ	.L260
	LD	r5,#1073753600
	CMP	r6,r5
	JZ	.L260
	MOV	r0,#0
.L260:
.LM408:
	LD	r5,#CHECK_RESTRICTION
	MOV	r8,r5
	LJMP	r5
.LVL339:
.LM409:
	MOV	r0,#1
	CMP	r7,#3
	JLS	.L262
	MOV	r0,#0
.L262:
	LJMP	r8
.LVL340:
.LM410:
	CMP	r7,#0
	JZ	.L271
.LM411:
	CMP	r7,#1
	JZ	.L272
.LM412:
	CMP	r7,#2
	JZ	.L273
.LM413:
	CMP	r7,#3
	JZ	.L274
.L259:
.LM414:
	POP	{r6, r7, r8}
	.cfi_remember_state
	.cfi_def_cfa_offset 4
.LVL341:
	POP	lr
	.cfi_def_cfa_offset 0
	JMP	lr
.LVL342:
.L271:
	.cfi_restore_state
.LM415:
	LD.w	r0,[r6+#5]
.LM416:
	POP	{r6, r7, r8}
	.cfi_remember_state
	.cfi_def_cfa_offset 4
.LVL343:
	POP	lr
	.cfi_def_cfa_offset 0
	JMP	lr
.LVL344:
.L272:
	.cfi_restore_state
.LM417:
	LD.w	r0,[r6+#6]
.LM418:
	POP	{r6, r7, r8}
	.cfi_remember_state
	.cfi_def_cfa_offset 4
.LVL345:
	POP	lr
	.cfi_def_cfa_offset 0
	JMP	lr
.LVL346:
.L274:
	.cfi_restore_state
.LM419:
	LD.w	r0,[r6+#24]
.LM420:
	POP	{r6, r7, r8}
	.cfi_remember_state
	.cfi_def_cfa_offset 4
.LVL347:
	POP	lr
	.cfi_def_cfa_offset 0
	JMP	lr
.LVL348:
.L273:
	.cfi_restore_state
.LM421:
	LD.w	r0,[r6+#23]
	JMP	.L259
	.cfi_endproc
.LFE35:
	.size	EPWM_Get_Duty_Cycle_RegisterABCD_Value, .-EPWM_Get_Duty_Cycle_RegisterABCD_Value
	.section .text$EPWM_Single_Mandatory_Output_Enable
	.type	.text$EPWM_Single_Mandatory_Output_Enable$scode_local_36, @function
	.text$EPWM_Single_Mandatory_Output_Enable$scode_local_36:
	.align	1
	.export	EPWM_Single_Mandatory_Output_Enable
	.type	EPWM_Single_Mandatory_Output_Enable, @function
EPWM_Single_Mandatory_Output_Enable:
.LFB36:
.LM422:
	.cfi_startproc
.LVL349:
	PUSH	{r6, r7, r8, r9, lr}
	.cfi_def_cfa_offset 20
	MOV	r6,r0
	MOV	r8,r1
	MOV	r9,r2
.LVL350:
.LM423:
	MOV	r0,#1
.LVL351:
	LD	r5,#1073748480
	CMP	r6,r5
	JZ	.L276
.LM424:
	LD	r5,#1073746688
	CMP	r6,r5
	JZ	.L276
.LM425:
	LD	r5,#1073746816
	CMP	r6,r5
	JZ	.L276
	LD	r5,#1073753600
	CMP	r6,r5
	JZ	.L276
	MOV	r0,#0
.L276:
.LM426:
	LD	r7,#CHECK_RESTRICTION
	LJMP	r7
.LVL352:
.LM427:
	MOV	r0,#1
	CMP	r8,#3
	JLS	.L278
	MOV	r0,#0
.L278:
	LJMP	r7
.LVL353:
.LM428:
	MOV	r0,#1
	CMP	r9,r0
	JLS	.L279
	MOV	r0,#0
.L279:
	LJMP	r7
.LVL354:
.LM429:
	LSL	r9,#16
.LVL355:
.LM430:
	CMP	r8,#0
	JZ	.L285
.LM431:
	CMP	r8,#1
	JZ	.L286
.LM432:
	POP	{r6, r7, r8, r9}
	.cfi_remember_state
	.cfi_def_cfa_offset 4
.LVL356:
	POP	lr
	.cfi_def_cfa_offset 0
	JMP	lr
.LVL357:
.L286:
	.cfi_restore_state
.LM433:
	LD.w	r5,[r6+#8]
.LVL358:
.LBB170:
.LBB171:
.LM434:
	CLR	r5,#16
.LVL359:
	MOV	r4,r9
	ORL	r5,r4,r5
.LBE171:
.LBE170:
.LM435:
	ST.w	[r6+#8],r5
.LM436:
	POP	{r6, r7, r8, r9}
	.cfi_remember_state
	.cfi_def_cfa_offset 4
.LVL360:
	POP	lr
	.cfi_def_cfa_offset 0
	JMP	lr
.LVL361:
.L285:
	.cfi_restore_state
.LM437:
	LD.w	r5,[r6+#7]
.LVL362:
.LBB172:
.LBB173:
.LM438:
	CLR	r5,#16
.LVL363:
	MOV	r4,r9
	ORL	r5,r4,r5
.LBE173:
.LBE172:
.LM439:
	ST.w	[r6+#7],r5
.LM440:
	POP	{r6, r7, r8, r9}
	.cfi_def_cfa_offset 4
.LVL364:
	POP	lr
	.cfi_def_cfa_offset 0
	JMP	lr
	.cfi_endproc
.LFE36:
	.size	EPWM_Single_Mandatory_Output_Enable, .-EPWM_Single_Mandatory_Output_Enable
	.section .text$EPWM_Single_Mandatory_Output_Config
	.type	.text$EPWM_Single_Mandatory_Output_Config$scode_local_37, @function
	.text$EPWM_Single_Mandatory_Output_Config$scode_local_37:
	.align	1
	.export	EPWM_Single_Mandatory_Output_Config
	.type	EPWM_Single_Mandatory_Output_Config, @function
EPWM_Single_Mandatory_Output_Config:
.LFB37:
.LM441:
	.cfi_startproc
.LVL365:
	PUSH	{r6, r7, r8, r9, lr}
	.cfi_def_cfa_offset 20
	MOV	r6,r0
	MOV	r8,r1
	MOV	r9,r2
.LVL366:
.LM442:
	MOV	r0,#1
.LVL367:
	LD	r5,#1073748480
	CMP	r6,r5
	JZ	.L288
.LM443:
	LD	r5,#1073746688
	CMP	r6,r5
	JZ	.L288
.LM444:
	LD	r5,#1073746816
	CMP	r6,r5
	JZ	.L288
	LD	r5,#1073753600
	CMP	r6,r5
	JZ	.L288
	MOV	r0,#0
.L288:
.LM445:
	LD	r7,#CHECK_RESTRICTION
	LJMP	r7
.LVL368:
.LM446:
	MOV	r0,#1
	CMP	r8,#3
	JLS	.L290
	MOV	r0,#0
.L290:
	LJMP	r7
.LVL369:
.LM447:
	MOV	r0,#1
	CMP	r9,#3
	JLS	.L291
	MOV	r0,#0
.L291:
	LJMP	r7
.LVL370:
.LM448:
	LSL	r9,#14
.LVL371:
.LM449:
	CMP	r8,#0
	JZ	.L297
.LM450:
	CMP	r8,#1
	JZ	.L298
.LM451:
	POP	{r6, r7, r8, r9}
	.cfi_remember_state
	.cfi_def_cfa_offset 4
.LVL372:
	POP	lr
	.cfi_def_cfa_offset 0
	JMP	lr
.LVL373:
.L298:
	.cfi_restore_state
.LM452:
	LD.w	r5,[r6+#8]
.LVL374:
.LBB174:
.LBB175:
.LM453:
	CLR	r5,#14
	CLR	r5,#15
.LVL375:
	MOV	r4,r9
	ORL	r5,r4,r5
.LBE175:
.LBE174:
.LM454:
	ST.w	[r6+#8],r5
.LM455:
	POP	{r6, r7, r8, r9}
	.cfi_remember_state
	.cfi_def_cfa_offset 4
.LVL376:
	POP	lr
	.cfi_def_cfa_offset 0
	JMP	lr
.LVL377:
.L297:
	.cfi_restore_state
.LM456:
	LD.w	r5,[r6+#7]
.LVL378:
.LBB176:
.LBB177:
.LM457:
	CLR	r5,#14
	CLR	r5,#15
.LVL379:
	MOV	r4,r9
	ORL	r5,r4,r5
.LBE177:
.LBE176:
.LM458:
	ST.w	[r6+#7],r5
.LM459:
	POP	{r6, r7, r8, r9}
	.cfi_def_cfa_offset 4
.LVL380:
	POP	lr
	.cfi_def_cfa_offset 0
	JMP	lr
	.cfi_endproc
.LFE37:
	.size	EPWM_Single_Mandatory_Output_Config, .-EPWM_Single_Mandatory_Output_Config
	.section .text$EPWM_Continuous_Mandatory_Output_Config
	.type	.text$EPWM_Continuous_Mandatory_Output_Config$scode_local_38, @function
	.text$EPWM_Continuous_Mandatory_Output_Config$scode_local_38:
	.align	1
	.export	EPWM_Continuous_Mandatory_Output_Config
	.type	EPWM_Continuous_Mandatory_Output_Config, @function
EPWM_Continuous_Mandatory_Output_Config:
.LFB38:
.LM460:
	.cfi_startproc
.LVL381:
	PUSH	{r6, r7, r8, r9, lr}
	.cfi_def_cfa_offset 20
	MOV	r6,r0
	MOV	r8,r1
	MOV	r9,r2
.LVL382:
.LM461:
	MOV	r0,#1
.LVL383:
	LD	r5,#1073748480
	CMP	r6,r5
	JZ	.L300
.LM462:
	LD	r5,#1073746688
	CMP	r6,r5
	JZ	.L300
.LM463:
	LD	r5,#1073746816
	CMP	r6,r5
	JZ	.L300
	LD	r5,#1073753600
	CMP	r6,r5
	JZ	.L300
	MOV	r0,#0
.L300:
.LM464:
	LD	r7,#CHECK_RESTRICTION
	LJMP	r7
.LVL384:
.LM465:
	MOV	r0,#1
	CMP	r8,#3
	JLS	.L302
	MOV	r0,#0
.L302:
	LJMP	r7
.LVL385:
.LM466:
	MOV	r0,#1
	CMP	r9,#3
	JLS	.L303
	MOV	r0,#0
.L303:
	LJMP	r7
.LVL386:
.LM467:
	LSL	r9,#12
.LVL387:
.LM468:
	CMP	r8,#0
	JZ	.L309
.LM469:
	CMP	r8,#1
	JZ	.L310
.LM470:
	POP	{r6, r7, r8, r9}
	.cfi_remember_state
	.cfi_def_cfa_offset 4
.LVL388:
	POP	lr
	.cfi_def_cfa_offset 0
	JMP	lr
.LVL389:
.L310:
	.cfi_restore_state
.LM471:
	LD.w	r5,[r6+#8]
.LVL390:
.LBB178:
.LBB179:
.LM472:
	CLR	r5,#12
	CLR	r5,#13
.LVL391:
	MOV	r4,r9
	ORL	r5,r4,r5
.LBE179:
.LBE178:
.LM473:
	ST.w	[r6+#8],r5
.LM474:
	POP	{r6, r7, r8, r9}
	.cfi_remember_state
	.cfi_def_cfa_offset 4
.LVL392:
	POP	lr
	.cfi_def_cfa_offset 0
	JMP	lr
.LVL393:
.L309:
	.cfi_restore_state
.LM475:
	LD.w	r5,[r6+#7]
.LVL394:
.LBB180:
.LBB181:
.LM476:
	CLR	r5,#12
	CLR	r5,#13
.LVL395:
	MOV	r4,r9
	ORL	r5,r4,r5
.LBE181:
.LBE180:
.LM477:
	ST.w	[r6+#7],r5
.LM478:
	POP	{r6, r7, r8, r9}
	.cfi_def_cfa_offset 4
.LVL396:
	POP	lr
	.cfi_def_cfa_offset 0
	JMP	lr
	.cfi_endproc
.LFE38:
	.size	EPWM_Continuous_Mandatory_Output_Config, .-EPWM_Continuous_Mandatory_Output_Config
	.section .text$EPWM_EPWMxAB_OUTPUT_Select
	.type	.text$EPWM_EPWMxAB_OUTPUT_Select$scode_local_39, @function
	.text$EPWM_EPWMxAB_OUTPUT_Select$scode_local_39:
	.align	1
	.export	EPWM_EPWMxAB_OUTPUT_Select
	.type	EPWM_EPWMxAB_OUTPUT_Select, @function
EPWM_EPWMxAB_OUTPUT_Select:
.LFB39:
.LM479:
	.cfi_startproc
.LVL397:
	PUSH	{r6, r7, r8, r9, r10, lr}
	.cfi_def_cfa_offset 24
	MOV	r6,r0
	MOV	r9,r1
	MOV	r8,r2
	MOV	r10,r3
.LVL398:
.LM480:
	MOV	r0,#1
.LVL399:
	LD	r5,#1073748480
	CMP	r6,r5
	JZ	.L312
.LM481:
	LD	r5,#1073746688
	CMP	r6,r5
	JZ	.L312
.LM482:
	LD	r5,#1073746816
	CMP	r6,r5
	JZ	.L312
	LD	r5,#1073753600
	CMP	r6,r5
	JZ	.L312
	MOV	r0,#0
.L312:
.LM483:
	LD	r7,#CHECK_RESTRICTION
	LJMP	r7
.LVL400:
.LM484:
	MOV	r0,#1
	CMP	r9,#3
	JLS	.L314
	MOV	r0,#0
.L314:
	LJMP	r7
.LVL401:
.LM485:
	MOV	r0,#1
	CMP	r8,#5
	JLS	.L315
	MOV	r0,#0
.L315:
	LJMP	r7
.LVL402:
.LM486:
	MOV	r0,#1
	CMP	r10,#3
	JLS	.L316
	MOV	r0,#0
.L316:
	LJMP	r7
.LVL403:
.LM487:
	ADD	r8,r8
.LVL404:
	LSL	r10,r8
.LVL405:
.LM488:
	MOV	r5,#3
	LSL	r5,r8
.LVL406:
.LM489:
	CMP	r9,#0
	JZ	.L322
.LM490:
	CMP	r9,#1
	JZ	.L323
.LM491:
	POP	{r6, r7, r8, r9, r10}
	.cfi_remember_state
	.cfi_def_cfa_offset 4
.LVL407:
	POP	lr
	.cfi_def_cfa_offset 0
	JMP	lr
.LVL408:
.L323:
	.cfi_restore_state
.LM492:
	LD.w	r4,[r6+#8]
.LVL409:
	NOT	r5,r5
.LVL410:
.LBB182:
.LBB183:
.LM493:
	ANL	r5,r5,r4
.LVL411:
	ORL	r5,r10
.LBE183:
.LBE182:
.LM494:
	ST.w	[r6+#8],r5
.LM495:
	POP	{r6, r7, r8, r9, r10}
	.cfi_remember_state
	.cfi_def_cfa_offset 4
.LVL412:
	POP	lr
	.cfi_def_cfa_offset 0
	JMP	lr
.LVL413:
.L322:
	.cfi_restore_state
.LM496:
	LD.w	r4,[r6+#7]
.LVL414:
	NOT	r5,r5
.LVL415:
.LBB184:
.LBB185:
.LM497:
	ANL	r5,r5,r4
.LVL416:
	ORL	r5,r10
.LBE185:
.LBE184:
.LM498:
	ST.w	[r6+#7],r5
.LM499:
	POP	{r6, r7, r8, r9, r10}
	.cfi_def_cfa_offset 4
.LVL417:
	POP	lr
	.cfi_def_cfa_offset 0
	JMP	lr
	.cfi_endproc
.LFE39:
	.size	EPWM_EPWMxAB_OUTPUT_Select, .-EPWM_EPWMxAB_OUTPUT_Select
	.section .text$EPWM_Dead_Zone_Input_Select
	.type	.text$EPWM_Dead_Zone_Input_Select$scode_local_40, @function
	.text$EPWM_Dead_Zone_Input_Select$scode_local_40:
	.align	1
	.export	EPWM_Dead_Zone_Input_Select
	.type	EPWM_Dead_Zone_Input_Select, @function
EPWM_Dead_Zone_Input_Select:
.LFB40:
.LM500:
	.cfi_startproc
.LVL418:
	PUSH	{r6, r7, r8, lr}
	.cfi_def_cfa_offset 16
	MOV	r6,r0
	MOV	r7,r1
.LVL419:
.LM501:
	LD	r5,#1073748480
	CMP	r0,r5
	JZ	.L329
.LM502:
	LD	r5,#1073746688
	CMP	r0,r5
	JZ	.L329
.LM503:
	LD	r5,#1073746816
	MOV	r0,#1
.LVL420:
	CMP	r6,r5
	JZ	.L325
	LD	r5,#1073753600
	CMP	r6,r5
	JZ	.L325
	MOV	r0,#0
.L325:
.LM504:
	LD	r5,#CHECK_RESTRICTION
	MOV	r8,r5
	LJMP	r5
.LVL421:
.LM505:
	MOV	r0,#1
	CMP	r7,#3
	JLS	.L327
	MOV	r0,#0
.L327:
	LJMP	r8
.LVL422:
.LM506:
	LD.w	r5,[r6+#9]
.LVL423:
.LM507:
	LSL	r7,#4
.LVL424:
.LBB186:
.LBB187:
.LM508:
	CLR	r5,#4
	CLR	r5,#5
.LVL425:
	ORL	r7,r7,r5
.LVL426:
.LBE187:
.LBE186:
.LM509:
	ST.w	[r6+#9],r7
.LM510:
	POP	{r6, r7, r8}
	.cfi_remember_state
	.cfi_def_cfa_offset 4
	POP	lr
	.cfi_def_cfa_offset 0
	JMP	lr
.LVL427:
.L329:
	.cfi_restore_state
.LM511:
	MOV	r0,#1
.LVL428:
	JMP	.L325
	.cfi_endproc
.LFE40:
	.size	EPWM_Dead_Zone_Input_Select, .-EPWM_Dead_Zone_Input_Select
	.section .text$EPWM_Dead_Zone_Output_Polarity_Select
	.type	.text$EPWM_Dead_Zone_Output_Polarity_Select$scode_local_41, @function
	.text$EPWM_Dead_Zone_Output_Polarity_Select$scode_local_41:
	.align	1
	.export	EPWM_Dead_Zone_Output_Polarity_Select
	.type	EPWM_Dead_Zone_Output_Polarity_Select, @function
EPWM_Dead_Zone_Output_Polarity_Select:
.LFB41:
.LM512:
	.cfi_startproc
.LVL429:
	PUSH	{r6, r7, r8, lr}
	.cfi_def_cfa_offset 16
	MOV	r6,r0
	MOV	r7,r1
.LVL430:
.LM513:
	LD	r5,#1073748480
	CMP	r0,r5
	JZ	.L336
.LM514:
	LD	r5,#1073746688
	CMP	r0,r5
	JZ	.L336
.LM515:
	LD	r5,#1073746816
	MOV	r0,#1
.LVL431:
	CMP	r6,r5
	JZ	.L332
	LD	r5,#1073753600
	CMP	r6,r5
	JZ	.L332
	MOV	r0,#0
.L332:
.LM516:
	LD	r5,#CHECK_RESTRICTION
	MOV	r8,r5
	LJMP	r5
.LVL432:
.LM517:
	MOV	r0,#1
	CMP	r7,#3
	JLS	.L334
	MOV	r0,#0
.L334:
	LJMP	r8
.LVL433:
.LM518:
	LD.w	r5,[r6+#9]
.LVL434:
.LM519:
	LSL	r7,#2
.LVL435:
.LBB188:
.LBB189:
.LM520:
	CLR	r5,#2
	CLR	r5,#3
.LVL436:
	ORL	r7,r7,r5
.LVL437:
.LBE189:
.LBE188:
.LM521:
	ST.w	[r6+#9],r7
.LM522:
	POP	{r6, r7, r8}
	.cfi_remember_state
	.cfi_def_cfa_offset 4
	POP	lr
	.cfi_def_cfa_offset 0
	JMP	lr
.LVL438:
.L336:
	.cfi_restore_state
.LM523:
	MOV	r0,#1
.LVL439:
	JMP	.L332
	.cfi_endproc
.LFE41:
	.size	EPWM_Dead_Zone_Output_Polarity_Select, .-EPWM_Dead_Zone_Output_Polarity_Select
	.section .text$EPWM_Dead_Zone_Output_Select
	.type	.text$EPWM_Dead_Zone_Output_Select$scode_local_42, @function
	.text$EPWM_Dead_Zone_Output_Select$scode_local_42:
	.align	1
	.export	EPWM_Dead_Zone_Output_Select
	.type	EPWM_Dead_Zone_Output_Select, @function
EPWM_Dead_Zone_Output_Select:
.LFB42:
.LM524:
	.cfi_startproc
.LVL440:
	PUSH	{r6, r7, r8, lr}
	.cfi_def_cfa_offset 16
	MOV	r6,r0
	MOV	r7,r1
.LVL441:
.LM525:
	LD	r5,#1073748480
	CMP	r0,r5
	JZ	.L343
.LM526:
	LD	r5,#1073746688
	CMP	r0,r5
	JZ	.L343
.LM527:
	LD	r5,#1073746816
	MOV	r0,#1
.LVL442:
	CMP	r6,r5
	JZ	.L339
	LD	r5,#1073753600
	CMP	r6,r5
	JZ	.L339
	MOV	r0,#0
.L339:
.LM528:
	LD	r5,#CHECK_RESTRICTION
	MOV	r8,r5
	LJMP	r5
.LVL443:
.LM529:
	MOV	r0,#1
	CMP	r7,#3
	JLS	.L341
	MOV	r0,#0
.L341:
	LJMP	r8
.LVL444:
.LM530:
	LD.w	r5,[r6+#9]
.LVL445:
.LBB190:
.LBB191:
.LM531:
	CLR	r5,#0
	CLR	r5,#1
.LVL446:
	ORL	r7,r7,r5
.LVL447:
.LBE191:
.LBE190:
.LM532:
	ST.w	[r6+#9],r7
.LM533:
	POP	{r6, r7, r8}
	.cfi_remember_state
	.cfi_def_cfa_offset 4
	POP	lr
	.cfi_def_cfa_offset 0
	JMP	lr
.LVL448:
.L343:
	.cfi_restore_state
.LM534:
	MOV	r0,#1
.LVL449:
	JMP	.L339
	.cfi_endproc
.LFE42:
	.size	EPWM_Dead_Zone_Output_Select, .-EPWM_Dead_Zone_Output_Select
	.section .text$EPWM_Dead_Zone_Time_Config
	.type	.text$EPWM_Dead_Zone_Time_Config$scode_local_43, @function
	.text$EPWM_Dead_Zone_Time_Config$scode_local_43:
	.align	1
	.export	EPWM_Dead_Zone_Time_Config
	.type	EPWM_Dead_Zone_Time_Config, @function
EPWM_Dead_Zone_Time_Config:
.LFB43:
.LM535:
	.cfi_startproc
.LVL450:
	PUSH	{r6, r7, r8, r9, lr}
	.cfi_def_cfa_offset 20
	MOV	r6,r0
	MOV	r8,r1
	MOV	r9,r2
.LVL451:
.LM536:
	MOV	r0,#1
.LVL452:
	LD	r5,#1073748480
	CMP	r6,r5
	JZ	.L346
.LM537:
	LD	r5,#1073746688
	CMP	r6,r5
	JZ	.L346
.LM538:
	LD	r5,#1073746816
	CMP	r6,r5
	JZ	.L346
	LD	r5,#1073753600
	CMP	r6,r5
	JZ	.L346
	MOV	r0,#0
.L346:
.LM539:
	LD	r7,#CHECK_RESTRICTION
	LJMP	r7
.LVL453:
.LM540:
	MOV	r0,#1
	CMP	r8,r0
	JLS	.L348
	MOV	r0,#0
.L348:
	LJMP	r7
.LVL454:
.LM541:
	MOV	r0,#1
	LD	r5,#65535
	CMP	r9,r5
	JLS	.L349
	MOV	r0,#0
.L349:
	LJMP	r7
.LVL455:
.LM542:
	CMP	r8,#1
	JZ	.L355
.LM543:
	CMP	r8,#0
	JNZ	.L345
.LM544:
	LD.w	r4,[r6+#10]
.LVL456:
.LBB192:
.LBB193:
.LM545:
	LD	r5,#-65536
	ANL	r5,r4,r5
	MOV	r4,r9
.LVL457:
	ORL	r5,r4,r5
.LBE193:
.LBE192:
.LM546:
	ST.w	[r6+#10],r5
.LVL458:
.L345:
.LM547:
	POP	{r6, r7, r8, r9}
	.cfi_remember_state
	.cfi_def_cfa_offset 4
.LVL459:
	POP	lr
	.cfi_def_cfa_offset 0
	JMP	lr
.LVL460:
.L355:
	.cfi_restore_state
.LM548:
	LD.w	r5,[r6+#10]
.LVL461:
	LSL	r9,#16
.LVL462:
.LBB194:
.LBB195:
.LM549:
	ZXT.h	r5,r5
.LVL463:
	MOV	r4,r9
	ORL	r5,r4,r5
.LBE195:
.LBE194:
.LM550:
	ST.w	[r6+#10],r5
.LM551:
	POP	{r6, r7, r8, r9}
	.cfi_def_cfa_offset 4
.LVL464:
	POP	lr
	.cfi_def_cfa_offset 0
	JMP	lr
	.cfi_endproc
.LFE43:
	.size	EPWM_Dead_Zone_Time_Config, .-EPWM_Dead_Zone_Time_Config
	.section .text$EPWM_PCLK_Frequency_Config
	.type	.text$EPWM_PCLK_Frequency_Config$scode_local_44, @function
	.text$EPWM_PCLK_Frequency_Config$scode_local_44:
	.align	1
	.export	EPWM_PCLK_Frequency_Config
	.type	EPWM_PCLK_Frequency_Config, @function
EPWM_PCLK_Frequency_Config:
.LFB44:
.LM552:
	.cfi_startproc
.LVL465:
	PUSH	{r6, r7, r8, lr}
	.cfi_def_cfa_offset 16
	MOV	r6,r0
	MOV	r7,r1
.LVL466:
.LM553:
	LD	r5,#1073748480
	CMP	r0,r5
	JZ	.L361
.LM554:
	LD	r5,#1073746688
	CMP	r0,r5
	JZ	.L361
.LM555:
	LD	r5,#1073746816
	MOV	r0,#1
.LVL467:
	CMP	r6,r5
	JZ	.L357
	LD	r5,#1073753600
	CMP	r6,r5
	JZ	.L357
	MOV	r0,#0
.L357:
.LM556:
	LD	r5,#CHECK_RESTRICTION
	MOV	r8,r5
	LJMP	r5
.LVL468:
.LM557:
	MOV	r0,#1
	CMP	r7,#7
	JLS	.L359
	MOV	r0,#0
.L359:
	LJMP	r8
.LVL469:
.LM558:
	LD.w	r4,[r6+#11]
.LVL470:
.LM559:
	LSL	r7,#8
.LVL471:
.LBB196:
.LBB197:
.LM560:
	LD	r5,#-1793
	ANL	r5,r4,r5
	ORL	r7,r7,r5
.LVL472:
.LBE197:
.LBE196:
.LM561:
	ST.w	[r6+#11],r7
.LM562:
	POP	{r6, r7, r8}
	.cfi_remember_state
	.cfi_def_cfa_offset 4
	POP	lr
	.cfi_def_cfa_offset 0
	JMP	lr
.LVL473:
.L361:
	.cfi_restore_state
.LM563:
	MOV	r0,#1
.LVL474:
	JMP	.L357
	.cfi_endproc
.LFE44:
	.size	EPWM_PCLK_Frequency_Config, .-EPWM_PCLK_Frequency_Config
	.section .text$EPWM_PCLK_Duty_Cycle_Config
	.type	.text$EPWM_PCLK_Duty_Cycle_Config$scode_local_45, @function
	.text$EPWM_PCLK_Duty_Cycle_Config$scode_local_45:
	.align	1
	.export	EPWM_PCLK_Duty_Cycle_Config
	.type	EPWM_PCLK_Duty_Cycle_Config, @function
EPWM_PCLK_Duty_Cycle_Config:
.LFB45:
.LM564:
	.cfi_startproc
.LVL475:
	PUSH	{r6, r7, r8, lr}
	.cfi_def_cfa_offset 16
	MOV	r6,r0
	MOV	r7,r1
.LVL476:
.LM565:
	LD	r5,#1073748480
	CMP	r0,r5
	JZ	.L368
.LM566:
	LD	r5,#1073746688
	CMP	r0,r5
	JZ	.L368
.LM567:
	LD	r5,#1073746816
	MOV	r0,#1
.LVL477:
	CMP	r6,r5
	JZ	.L364
	LD	r5,#1073753600
	CMP	r6,r5
	JZ	.L364
	MOV	r0,#0
.L364:
.LM568:
	LD	r5,#CHECK_RESTRICTION
	MOV	r8,r5
	LJMP	r5
.LVL478:
.LM569:
	MOV	r0,#1
	CMP	r7,#6
	JLS	.L366
	MOV	r0,#0
.L366:
	LJMP	r8
.LVL479:
.LM570:
	LD.w	r4,[r6+#11]
.LVL480:
.LM571:
	LSL	r7,#5
.LVL481:
.LBB198:
.LBB199:
.LM572:
	MOV	r5,#224
	NOT	r5,r5
	ANL	r5,r4,r5
	ORL	r7,r7,r5
.LVL482:
.LBE199:
.LBE198:
.LM573:
	ST.w	[r6+#11],r7
.LM574:
	POP	{r6, r7, r8}
	.cfi_remember_state
	.cfi_def_cfa_offset 4
	POP	lr
	.cfi_def_cfa_offset 0
	JMP	lr
.LVL483:
.L368:
	.cfi_restore_state
.LM575:
	MOV	r0,#1
.LVL484:
	JMP	.L364
	.cfi_endproc
.LFE45:
	.size	EPWM_PCLK_Duty_Cycle_Config, .-EPWM_PCLK_Duty_Cycle_Config
	.section .text$EPWM_Chopping_Pulse_Width_Config
	.type	.text$EPWM_Chopping_Pulse_Width_Config$scode_local_46, @function
	.text$EPWM_Chopping_Pulse_Width_Config$scode_local_46:
	.align	1
	.export	EPWM_Chopping_Pulse_Width_Config
	.type	EPWM_Chopping_Pulse_Width_Config, @function
EPWM_Chopping_Pulse_Width_Config:
.LFB46:
.LM576:
	.cfi_startproc
.LVL485:
	PUSH	{r6, r7, r8, lr}
	.cfi_def_cfa_offset 16
	MOV	r6,r0
	MOV	r7,r1
.LVL486:
.LM577:
	LD	r5,#1073748480
	CMP	r0,r5
	JZ	.L375
.LM578:
	LD	r5,#1073746688
	CMP	r0,r5
	JZ	.L375
.LM579:
	LD	r5,#1073746816
	MOV	r0,#1
.LVL487:
	CMP	r6,r5
	JZ	.L371
	LD	r5,#1073753600
	CMP	r6,r5
	JZ	.L371
	MOV	r0,#0
.L371:
.LM580:
	LD	r5,#CHECK_RESTRICTION
	MOV	r8,r5
	LJMP	r5
.LVL488:
.LM581:
	MOV	r0,#1
	CMP	r7,#15
	JLS	.L373
	MOV	r0,#0
.L373:
	LJMP	r8
.LVL489:
.LM582:
	LD.w	r4,[r6+#11]
.LVL490:
.LM583:
	ADD	r7,r7,r7
.LVL491:
.LBB200:
.LBB201:
.LM584:
	MOV	r5,#30
	NOT	r5,r5
	ANL	r5,r4,r5
	ORL	r7,r7,r5
.LBE201:
.LBE200:
.LM585:
	ST.w	[r6+#11],r7
.LM586:
	POP	{r6, r7, r8}
	.cfi_remember_state
	.cfi_def_cfa_offset 4
	POP	lr
	.cfi_def_cfa_offset 0
	JMP	lr
.LVL492:
.L375:
	.cfi_restore_state
.LM587:
	MOV	r0,#1
.LVL493:
	JMP	.L371
	.cfi_endproc
.LFE46:
	.size	EPWM_Chopping_Pulse_Width_Config, .-EPWM_Chopping_Pulse_Width_Config
	.section .text$EPWM_Chopping_Pulse_Mode_Enable
	.type	.text$EPWM_Chopping_Pulse_Mode_Enable$scode_local_47, @function
	.text$EPWM_Chopping_Pulse_Mode_Enable$scode_local_47:
	.align	1
	.export	EPWM_Chopping_Pulse_Mode_Enable
	.type	EPWM_Chopping_Pulse_Mode_Enable, @function
EPWM_Chopping_Pulse_Mode_Enable:
.LFB47:
.LM588:
	.cfi_startproc
.LVL494:
	PUSH	{r6, r7, r8, lr}
	.cfi_def_cfa_offset 16
	MOV	r6,r0
	MOV	r7,r1
.LM589:
	LD	r5,#1073748480
	CMP	r0,r5
	JZ	.L382
.LM590:
	LD	r5,#1073746688
	CMP	r0,r5
	JZ	.L382
.LM591:
	LD	r5,#1073746816
	MOV	r0,#1
.LVL495:
	CMP	r6,r5
	JZ	.L378
	LD	r5,#1073753600
	CMP	r6,r5
	JZ	.L378
	MOV	r0,#0
.L378:
.LM592:
	LD	r5,#CHECK_RESTRICTION
	MOV	r8,r5
	LJMP	r5
.LVL496:
.LM593:
	MOV	r0,#1
	CMP	r7,r0
	JLS	.L380
	MOV	r0,#0
.L380:
	LJMP	r8
.LVL497:
.LM594:
	LD.w	r5,[r6+#11]
.LVL498:
.LBB202:
.LBB203:
.LM595:
	CLR	r5,#0
.LVL499:
	ORL	r7,r7,r5
.LVL500:
.LBE203:
.LBE202:
.LM596:
	ST.w	[r6+#11],r7
.LM597:
	POP	{r6, r7, r8}
	.cfi_remember_state
	.cfi_def_cfa_offset 4
	POP	lr
	.cfi_def_cfa_offset 0
	JMP	lr
.LVL501:
.L382:
	.cfi_restore_state
.LM598:
	MOV	r0,#1
.LVL502:
	JMP	.L378
	.cfi_endproc
.LFE47:
	.size	EPWM_Chopping_Pulse_Mode_Enable, .-EPWM_Chopping_Pulse_Mode_Enable
	.section .text$EPWM_Auto_Reset_Enable
	.type	.text$EPWM_Auto_Reset_Enable$scode_local_48, @function
	.text$EPWM_Auto_Reset_Enable$scode_local_48:
	.align	1
	.export	EPWM_Auto_Reset_Enable
	.type	EPWM_Auto_Reset_Enable, @function
EPWM_Auto_Reset_Enable:
.LFB48:
.LM599:
	.cfi_startproc
.LVL503:
	PUSH	{r6, r7, r8, lr}
	.cfi_def_cfa_offset 16
	MOV	r6,r0
	MOV	r7,r1
.LVL504:
.LM600:
	LD	r5,#1073748480
	CMP	r0,r5
	JZ	.L389
.LM601:
	LD	r5,#1073746688
	CMP	r0,r5
	JZ	.L389
.LM602:
	LD	r5,#1073746816
	MOV	r0,#1
.LVL505:
	CMP	r6,r5
	JZ	.L385
	LD	r5,#1073753600
	CMP	r6,r5
	JZ	.L385
	MOV	r0,#0
.L385:
.LM603:
	LD	r5,#CHECK_RESTRICTION
	MOV	r8,r5
	LJMP	r5
.LVL506:
.LM604:
	MOV	r0,#1
	CMP	r7,r0
	JLS	.L387
	MOV	r0,#0
.L387:
	LJMP	r8
.LVL507:
.LM605:
	LD.w	r5,[r6+#12]
.LVL508:
.LM606:
	LSL	r7,#8
.LVL509:
.LBB204:
.LBB205:
.LM607:
	CLR	r5,#8
.LVL510:
	ORL	r7,r7,r5
.LVL511:
.LBE205:
.LBE204:
.LM608:
	ST.w	[r6+#12],r7
.LM609:
	POP	{r6, r7, r8}
	.cfi_remember_state
	.cfi_def_cfa_offset 4
	POP	lr
	.cfi_def_cfa_offset 0
	JMP	lr
.LVL512:
.L389:
	.cfi_restore_state
.LM610:
	MOV	r0,#1
.LVL513:
	JMP	.L385
	.cfi_endproc
.LFE48:
	.size	EPWM_Auto_Reset_Enable, .-EPWM_Auto_Reset_Enable
	.section .text$EPWM_Pin_EPWMA_ShouDown_Status_Config
	.type	.text$EPWM_Pin_EPWMA_ShouDown_Status_Config$scode_local_49, @function
	.text$EPWM_Pin_EPWMA_ShouDown_Status_Config$scode_local_49:
	.align	1
	.export	EPWM_Pin_EPWMA_ShouDown_Status_Config
	.type	EPWM_Pin_EPWMA_ShouDown_Status_Config, @function
EPWM_Pin_EPWMA_ShouDown_Status_Config:
.LFB49:
.LM611:
	.cfi_startproc
.LVL514:
	PUSH	{r6, r7, r8, lr}
	.cfi_def_cfa_offset 16
	MOV	r6,r0
	MOV	r7,r1
.LVL515:
.LM612:
	LD	r5,#1073748480
	CMP	r0,r5
	JZ	.L396
.LM613:
	LD	r5,#1073746688
	CMP	r0,r5
	JZ	.L396
.LM614:
	LD	r5,#1073746816
	MOV	r0,#1
.LVL516:
	CMP	r6,r5
	JZ	.L392
	LD	r5,#1073753600
	CMP	r6,r5
	JZ	.L392
	MOV	r0,#0
.L392:
.LM615:
	LD	r5,#CHECK_RESTRICTION
	MOV	r8,r5
	LJMP	r5
.LVL517:
.LM616:
	MOV	r0,#1
	CMP	r7,#3
	JLS	.L394
	MOV	r0,#0
.L394:
	LJMP	r8
.LVL518:
.LM617:
	LD.w	r5,[r6+#12]
.LVL519:
.LM618:
	LSL	r7,#6
.LVL520:
.LBB206:
.LBB207:
.LM619:
	CLR	r5,#6
	CLR	r5,#7
.LVL521:
	ORL	r7,r7,r5
.LVL522:
.LBE207:
.LBE206:
.LM620:
	ST.w	[r6+#12],r7
.LM621:
	POP	{r6, r7, r8}
	.cfi_remember_state
	.cfi_def_cfa_offset 4
	POP	lr
	.cfi_def_cfa_offset 0
	JMP	lr
.LVL523:
.L396:
	.cfi_restore_state
.LM622:
	MOV	r0,#1
.LVL524:
	JMP	.L392
	.cfi_endproc
.LFE49:
	.size	EPWM_Pin_EPWMA_ShouDown_Status_Config, .-EPWM_Pin_EPWMA_ShouDown_Status_Config
	.section .text$EPWM_Pin_EPWMB_ShouDown_Status_Config
	.type	.text$EPWM_Pin_EPWMB_ShouDown_Status_Config$scode_local_50, @function
	.text$EPWM_Pin_EPWMB_ShouDown_Status_Config$scode_local_50:
	.align	1
	.export	EPWM_Pin_EPWMB_ShouDown_Status_Config
	.type	EPWM_Pin_EPWMB_ShouDown_Status_Config, @function
EPWM_Pin_EPWMB_ShouDown_Status_Config:
.LFB50:
.LM623:
	.cfi_startproc
.LVL525:
	PUSH	{r6, r7, r8, lr}
	.cfi_def_cfa_offset 16
	MOV	r6,r0
	MOV	r7,r1
.LVL526:
.LM624:
	LD	r5,#1073748480
	CMP	r0,r5
	JZ	.L403
.LM625:
	LD	r5,#1073746688
	CMP	r0,r5
	JZ	.L403
.LM626:
	LD	r5,#1073746816
	MOV	r0,#1
.LVL527:
	CMP	r6,r5
	JZ	.L399
	LD	r5,#1073753600
	CMP	r6,r5
	JZ	.L399
	MOV	r0,#0
.L399:
.LM627:
	LD	r5,#CHECK_RESTRICTION
	MOV	r8,r5
	LJMP	r5
.LVL528:
.LM628:
	MOV	r0,#1
	CMP	r7,#3
	JLS	.L401
	MOV	r0,#0
.L401:
	LJMP	r8
.LVL529:
.LM629:
	LD.w	r5,[r6+#12]
.LVL530:
.LM630:
	LSL	r7,#4
.LVL531:
.LBB208:
.LBB209:
.LM631:
	CLR	r5,#4
	CLR	r5,#5
.LVL532:
	ORL	r7,r7,r5
.LVL533:
.LBE209:
.LBE208:
.LM632:
	ST.w	[r6+#12],r7
.LM633:
	POP	{r6, r7, r8}
	.cfi_remember_state
	.cfi_def_cfa_offset 4
	POP	lr
	.cfi_def_cfa_offset 0
	JMP	lr
.LVL534:
.L403:
	.cfi_restore_state
.LM634:
	MOV	r0,#1
.LVL535:
	JMP	.L399
	.cfi_endproc
.LFE50:
	.size	EPWM_Pin_EPWMB_ShouDown_Status_Config, .-EPWM_Pin_EPWMB_ShouDown_Status_Config
	.section .text$EPWM_Get_Auto_ShowDown_Event_Status
	.type	.text$EPWM_Get_Auto_ShowDown_Event_Status$scode_local_51, @function
	.text$EPWM_Get_Auto_ShowDown_Event_Status$scode_local_51:
	.align	1
	.export	EPWM_Get_Auto_ShowDown_Event_Status
	.type	EPWM_Get_Auto_ShowDown_Event_Status, @function
EPWM_Get_Auto_ShowDown_Event_Status:
.LFB51:
.LM635:
	.cfi_startproc
.LVL536:
	PUSH	{r6, lr}
	.cfi_def_cfa_offset 8
	MOV	r6,r0
.LM636:
	LD	r5,#1073748480
	CMP	r0,r5
	JZ	.L409
.LM637:
	LD	r5,#1073746688
	CMP	r0,r5
	JZ	.L409
.LM638:
	LD	r5,#1073746816
	MOV	r0,#1
.LVL537:
	CMP	r6,r5
	JZ	.L406
	LD	r5,#1073753600
	CMP	r6,r5
	JZ	.L406
	MOV	r0,#0
.L406:
.LM639:
	LD	r5,#CHECK_RESTRICTION
	LJMP	r5
.LVL538:
.LM640:
	LD.w	r0,[r6+#12]
	MOV	r5,#8
	ANL	r0,r0,r5
.LM641:
	LSR	r0,#3
	POP	r6
	.cfi_remember_state
	.cfi_def_cfa_offset 4
.LVL539:
	POP	lr
	.cfi_def_cfa_offset 0
	JMP	lr
.LVL540:
.L409:
	.cfi_restore_state
.LM642:
	MOV	r0,#1
.LVL541:
	JMP	.L406
	.cfi_endproc
.LFE51:
	.size	EPWM_Get_Auto_ShowDown_Event_Status, .-EPWM_Get_Auto_ShowDown_Event_Status
	.section .text$EPWM_Claer_Auto_ShowDown_Event_Status
	.type	.text$EPWM_Claer_Auto_ShowDown_Event_Status$scode_local_52, @function
	.text$EPWM_Claer_Auto_ShowDown_Event_Status$scode_local_52:
	.align	1
	.export	EPWM_Claer_Auto_ShowDown_Event_Status
	.type	EPWM_Claer_Auto_ShowDown_Event_Status, @function
EPWM_Claer_Auto_ShowDown_Event_Status:
.LFB52:
.LM643:
	.cfi_startproc
.LVL542:
	PUSH	{r6, lr}
	.cfi_def_cfa_offset 8
	MOV	r6,r0
.LM644:
	LD	r5,#1073748480
	CMP	r0,r5
	JZ	.L415
.LM645:
	LD	r5,#1073746688
	CMP	r0,r5
	JZ	.L415
.LM646:
	LD	r5,#1073746816
	MOV	r0,#1
.LVL543:
	CMP	r6,r5
	JZ	.L412
	LD	r5,#1073753600
	CMP	r6,r5
	JZ	.L412
	MOV	r0,#0
.L412:
.LM647:
	LD	r5,#CHECK_RESTRICTION
	LJMP	r5
.LVL544:
.LM648:
	LD.w	r5,[r6+#12]
	CLR	r5,#3
	ST.w	[r6+#12],r5
.LM649:
	POP	r6
	.cfi_remember_state
	.cfi_def_cfa_offset 4
.LVL545:
	POP	lr
	.cfi_def_cfa_offset 0
	JMP	lr
.LVL546:
.L415:
	.cfi_restore_state
.LM650:
	MOV	r0,#1
.LVL547:
	LD	r5,#CHECK_RESTRICTION
	LJMP	r5
.LVL548:
.LM651:
	LD.w	r5,[r6+#12]
	CLR	r5,#3
	ST.w	[r6+#12],r5
.LM652:
	POP	r6
	.cfi_def_cfa_offset 4
.LVL549:
	POP	lr
	.cfi_def_cfa_offset 0
	JMP	lr
	.cfi_endproc
.LFE52:
	.size	EPWM_Claer_Auto_ShowDown_Event_Status, .-EPWM_Claer_Auto_ShowDown_Event_Status
	.section .text$EPWM_Auto_ShowDown_Source_Select
	.type	.text$EPWM_Auto_ShowDown_Source_Select$scode_local_53, @function
	.text$EPWM_Auto_ShowDown_Source_Select$scode_local_53:
	.align	1
	.export	EPWM_Auto_ShowDown_Source_Select
	.type	EPWM_Auto_ShowDown_Source_Select, @function
EPWM_Auto_ShowDown_Source_Select:
.LFB53:
.LM653:
	.cfi_startproc
.LVL550:
	PUSH	{r6, r7, r8, lr}
	.cfi_def_cfa_offset 16
	MOV	r6,r0
	MOV	r7,r1
.LVL551:
.LM654:
	LD	r5,#1073748480
	CMP	r0,r5
	JZ	.L422
.LM655:
	LD	r5,#1073746688
	CMP	r0,r5
	JZ	.L422
.LM656:
	LD	r5,#1073746816
	MOV	r0,#1
.LVL552:
	CMP	r6,r5
	JZ	.L418
	LD	r5,#1073753600
	CMP	r6,r5
	JZ	.L418
	MOV	r0,#0
.L418:
.LM657:
	LD	r5,#CHECK_RESTRICTION
	MOV	r8,r5
	LJMP	r5
.LVL553:
.LM658:
	MOV	r0,#1
	CMP	r7,#6
	JLS	.L420
	MOV	r0,#0
.L420:
	LJMP	r8
.LVL554:
.LM659:
	LD.w	r4,[r6+#12]
.LVL555:
.LBB210:
.LBB211:
.LM660:
	MOV	r5,#7
	NOT	r5,r5
	ANL	r5,r4,r5
	ORL	r7,r7,r5
.LVL556:
.LBE211:
.LBE210:
.LM661:
	ST.w	[r6+#12],r7
.LM662:
	POP	{r6, r7, r8}
	.cfi_remember_state
	.cfi_def_cfa_offset 4
	POP	lr
	.cfi_def_cfa_offset 0
	JMP	lr
.LVL557:
.L422:
	.cfi_restore_state
.LM663:
	MOV	r0,#1
.LVL558:
	JMP	.L418
	.cfi_endproc
.LFE53:
	.size	EPWM_Auto_ShowDown_Source_Select, .-EPWM_Auto_ShowDown_Source_Select
	.section .text$EPWM_Trigger_AD_Event_Mode_Select
	.type	.text$EPWM_Trigger_AD_Event_Mode_Select$scode_local_54, @function
	.text$EPWM_Trigger_AD_Event_Mode_Select$scode_local_54:
	.align	1
	.export	EPWM_Trigger_AD_Event_Mode_Select
	.type	EPWM_Trigger_AD_Event_Mode_Select, @function
EPWM_Trigger_AD_Event_Mode_Select:
.LFB54:
.LM664:
	.cfi_startproc
.LVL559:
	PUSH	{r6, r7, r8, r9, lr}
	.cfi_def_cfa_offset 20
	MOV	r6,r0
	MOV	r8,r1
	MOV	r9,r2
.LVL560:
.LM665:
	MOV	r0,#1
.LVL561:
	LD	r5,#1073748480
	CMP	r6,r5
	JZ	.L425
.LM666:
	LD	r5,#1073746688
	CMP	r6,r5
	JZ	.L425
.LM667:
	LD	r5,#1073746816
	CMP	r6,r5
	JZ	.L425
	LD	r5,#1073753600
	CMP	r6,r5
	JZ	.L425
	MOV	r0,#0
.L425:
.LM668:
	LD	r7,#CHECK_RESTRICTION
	LJMP	r7
.LVL562:
.LM669:
	MOV	r0,#1
	CMP	r8,r0
	JLS	.L427
	MOV	r0,#0
.L427:
	LJMP	r7
.LVL563:
.LM670:
	MOV	r0,#1
	CMP	r9,#2
	JLS	.L428
	MOV	r0,#0
.L428:
	LJMP	r7
.LVL564:
.LM671:
	CMP	r8,#1
	JZ	.L434
.LM672:
	CMP	r8,#0
	JNZ	.L424
.LVL565:
.LM673:
	LD.w	r5,[r6+#13]
.LVL566:
.LM674:
	LSL	r9,#8
.LVL567:
.LBB212:
.LBB213:
.LM675:
	CLR	r5,#8
	CLR	r5,#9
.LVL568:
	MOV	r4,r9
	ORL	r5,r4,r5
.LBE213:
.LBE212:
.LM676:
	ST.w	[r6+#13],r5
.LVL569:
.L424:
.LM677:
	POP	{r6, r7, r8, r9}
	.cfi_remember_state
	.cfi_def_cfa_offset 4
.LVL570:
	POP	lr
	.cfi_def_cfa_offset 0
	JMP	lr
.LVL571:
.L434:
	.cfi_restore_state
.LM678:
	LD.w	r5,[r6+#13]
.LVL572:
.LM679:
	LSL	r9,#24
.LVL573:
.LBB214:
.LBB215:
.LM680:
	CLR	r5,#24
	CLR	r5,#25
.LVL574:
	MOV	r4,r9
	ORL	r5,r4,r5
.LBE215:
.LBE214:
.LM681:
	ST.w	[r6+#13],r5
.LM682:
	POP	{r6, r7, r8, r9}
	.cfi_def_cfa_offset 4
.LVL575:
	POP	lr
	.cfi_def_cfa_offset 0
	JMP	lr
	.cfi_endproc
.LFE54:
	.size	EPWM_Trigger_AD_Event_Mode_Select, .-EPWM_Trigger_AD_Event_Mode_Select
	.section .text$EPWM_Get_Trigger_AD_Event_Single
	.type	.text$EPWM_Get_Trigger_AD_Event_Single$scode_local_55, @function
	.text$EPWM_Get_Trigger_AD_Event_Single$scode_local_55:
	.align	1
	.export	EPWM_Get_Trigger_AD_Event_Single
	.type	EPWM_Get_Trigger_AD_Event_Single, @function
EPWM_Get_Trigger_AD_Event_Single:
.LFB55:
.LM683:
	.cfi_startproc
.LVL576:
	PUSH	{r6, r7, r8, lr}
	.cfi_def_cfa_offset 16
	MOV	r6,r0
	MOV	r7,r1
.LVL577:
.LM684:
	MOV	r0,#1
.LVL578:
	LD	r5,#1073748480
	CMP	r6,r5
	JZ	.L436
.LM685:
	LD	r5,#1073746688
	CMP	r6,r5
	JZ	.L436
.LM686:
	LD	r5,#1073746816
	CMP	r6,r5
	JZ	.L436
	LD	r5,#1073753600
	CMP	r6,r5
	JZ	.L436
	MOV	r0,#0
.L436:
.LM687:
	LD	r5,#CHECK_RESTRICTION
	MOV	r8,r5
	LJMP	r5
.LVL579:
.LM688:
	MOV	r0,#1
	CMP	r7,r0
	JLS	.L438
	MOV	r0,#0
.L438:
	LJMP	r8
.LVL580:
.LM689:
	CMP	r7,#1
	JZ	.L445
.LM690:
	CMP	r7,#0
	JZ	.L446
.LM691:
	POP	{r6, r7, r8}
	.cfi_remember_state
	.cfi_def_cfa_offset 4
.LVL581:
	POP	lr
	.cfi_def_cfa_offset 0
	JMP	lr
.LVL582:
.L446:
	.cfi_restore_state
.LM692:
	LD.w	r0,[r6+#13]
	MOV	r5,#192
	ANL	r0,r0,r5
	LSR	r0,#6
.LM693:
	POP	{r6, r7, r8}
	.cfi_remember_state
	.cfi_def_cfa_offset 4
.LVL583:
	POP	lr
	.cfi_def_cfa_offset 0
	JMP	lr
.LVL584:
.L445:
	.cfi_restore_state
.LM694:
	LD.w	r0,[r6+#13]
	LD	r5,#12582912
	ANL	r0,r0,r5
	LSR	r0,#22
.LM695:
	POP	{r6, r7, r8}
	.cfi_def_cfa_offset 4
.LVL585:
	POP	lr
	.cfi_def_cfa_offset 0
	JMP	lr
	.cfi_endproc
.LFE55:
	.size	EPWM_Get_Trigger_AD_Event_Single, .-EPWM_Get_Trigger_AD_Event_Single
	.section .text$EPWM_Trigger_Event_Cycle_Select
	.type	.text$EPWM_Trigger_Event_Cycle_Select$scode_local_56, @function
	.text$EPWM_Trigger_Event_Cycle_Select$scode_local_56:
	.align	1
	.export	EPWM_Trigger_Event_Cycle_Select
	.type	EPWM_Trigger_Event_Cycle_Select, @function
EPWM_Trigger_Event_Cycle_Select:
.LFB56:
.LM696:
	.cfi_startproc
.LVL586:
	PUSH	{r6, r7, r8, r9, lr}
	.cfi_def_cfa_offset 20
	MOV	r6,r0
	MOV	r8,r1
	MOV	r9,r2
.LVL587:
.LM697:
	MOV	r0,#1
.LVL588:
	LD	r5,#1073748480
	CMP	r6,r5
	JZ	.L448
.LM698:
	LD	r5,#1073746688
	CMP	r6,r5
	JZ	.L448
.LM699:
	LD	r5,#1073746816
	CMP	r6,r5
	JZ	.L448
	LD	r5,#1073753600
	CMP	r6,r5
	JZ	.L448
	MOV	r0,#0
.L448:
.LM700:
	LD	r7,#CHECK_RESTRICTION
	LJMP	r7
.LVL589:
.LM701:
	MOV	r0,#1
	CMP	r8,r0
	JLS	.L450
	MOV	r0,#0
.L450:
	LJMP	r7
.LVL590:
.LM702:
	MOV	r0,#1
	CMP	r9,#3
	JLS	.L451
	MOV	r0,#0
.L451:
	LJMP	r7
.LVL591:
.LM703:
	CMP	r8,#1
	JZ	.L457
.LM704:
	CMP	r8,#0
	JNZ	.L447
.LVL592:
.LM705:
	LD.w	r5,[r6+#13]
.LVL593:
.LM706:
	LSL	r9,#4
.LVL594:
.LBB216:
.LBB217:
.LM707:
	CLR	r5,#4
	CLR	r5,#5
.LVL595:
	MOV	r4,r9
	ORL	r5,r4,r5
.LBE217:
.LBE216:
.LM708:
	ST.w	[r6+#13],r5
.LVL596:
.L447:
.LM709:
	POP	{r6, r7, r8, r9}
	.cfi_remember_state
	.cfi_def_cfa_offset 4
.LVL597:
	POP	lr
	.cfi_def_cfa_offset 0
	JMP	lr
.LVL598:
.L457:
	.cfi_restore_state
.LM710:
	LD.w	r5,[r6+#13]
.LVL599:
.LM711:
	LSL	r9,#20
.LVL600:
.LBB218:
.LBB219:
.LM712:
	CLR	r5,#20
	CLR	r5,#21
.LVL601:
	MOV	r4,r9
	ORL	r5,r4,r5
.LBE219:
.LBE218:
.LM713:
	ST.w	[r6+#13],r5
.LM714:
	POP	{r6, r7, r8, r9}
	.cfi_def_cfa_offset 4
.LVL602:
	POP	lr
	.cfi_def_cfa_offset 0
	JMP	lr
	.cfi_endproc
.LFE56:
	.size	EPWM_Trigger_Event_Cycle_Select, .-EPWM_Trigger_Event_Cycle_Select
	.section .text$EPWM_Software_Trigger_AD_Event_Enable
	.type	.text$EPWM_Software_Trigger_AD_Event_Enable$scode_local_57, @function
	.text$EPWM_Software_Trigger_AD_Event_Enable$scode_local_57:
	.align	1
	.export	EPWM_Software_Trigger_AD_Event_Enable
	.type	EPWM_Software_Trigger_AD_Event_Enable, @function
EPWM_Software_Trigger_AD_Event_Enable:
.LFB57:
.LM715:
	.cfi_startproc
.LVL603:
	PUSH	{r6, r7, r8, r9, lr}
	.cfi_def_cfa_offset 20
	MOV	r6,r0
	MOV	r8,r1
	MOV	r9,r2
.LVL604:
.LM716:
	MOV	r0,#1
.LVL605:
	LD	r5,#1073748480
	CMP	r6,r5
	JZ	.L459
.LM717:
	LD	r5,#1073746688
	CMP	r6,r5
	JZ	.L459
.LM718:
	LD	r5,#1073746816
	CMP	r6,r5
	JZ	.L459
	LD	r5,#1073753600
	CMP	r6,r5
	JZ	.L459
	MOV	r0,#0
.L459:
.LM719:
	LD	r7,#CHECK_RESTRICTION
	LJMP	r7
.LVL606:
.LM720:
	MOV	r0,#1
	CMP	r8,r0
	JLS	.L461
	MOV	r0,#0
.L461:
	LJMP	r7
.LVL607:
.LM721:
	MOV	r0,#1
	CMP	r9,r0
	JLS	.L462
	MOV	r0,#0
.L462:
	LJMP	r7
.LVL608:
.LM722:
	CMP	r8,#1
	JZ	.L468
.LM723:
	CMP	r8,#0
	JNZ	.L458
.LVL609:
.LM724:
	LD.w	r5,[r6+#13]
.LVL610:
.LM725:
	LSL	r9,#19
.LVL611:
.LBB220:
.LBB221:
.LM726:
	CLR	r5,#3
.LVL612:
	MOV	r4,r9
	ORL	r5,r4,r5
.LBE221:
.LBE220:
.LM727:
	ST.w	[r6+#13],r5
.LVL613:
.L458:
.LM728:
	POP	{r6, r7, r8, r9}
	.cfi_remember_state
	.cfi_def_cfa_offset 4
.LVL614:
	POP	lr
	.cfi_def_cfa_offset 0
	JMP	lr
.LVL615:
.L468:
	.cfi_restore_state
.LM729:
	LD.w	r5,[r6+#13]
.LVL616:
.LM730:
	LSL	r9,#20
.LVL617:
.LBB222:
.LBB223:
.LM731:
	CLR	r5,#19
.LVL618:
	MOV	r4,r9
	ORL	r5,r4,r5
.LBE223:
.LBE222:
.LM732:
	ST.w	[r6+#13],r5
.LM733:
	POP	{r6, r7, r8, r9}
	.cfi_def_cfa_offset 4
.LVL619:
	POP	lr
	.cfi_def_cfa_offset 0
	JMP	lr
	.cfi_endproc
.LFE57:
	.size	EPWM_Software_Trigger_AD_Event_Enable, .-EPWM_Software_Trigger_AD_Event_Enable
	.section .text$EPWM_Trigger_AD_Event_Select
	.type	.text$EPWM_Trigger_AD_Event_Select$scode_local_58, @function
	.text$EPWM_Trigger_AD_Event_Select$scode_local_58:
	.align	1
	.export	EPWM_Trigger_AD_Event_Select
	.type	EPWM_Trigger_AD_Event_Select, @function
EPWM_Trigger_AD_Event_Select:
.LFB58:
.LM734:
	.cfi_startproc
.LVL620:
	PUSH	{r6, r7, r8, r9, lr}
	.cfi_def_cfa_offset 20
	MOV	r6,r0
	MOV	r8,r1
	MOV	r9,r2
.LVL621:
.LM735:
	MOV	r0,#1
.LVL622:
	LD	r5,#1073748480
	CMP	r6,r5
	JZ	.L470
.LM736:
	LD	r5,#1073746688
	CMP	r6,r5
	JZ	.L470
.LM737:
	LD	r5,#1073746816
	CMP	r6,r5
	JZ	.L470
	LD	r5,#1073753600
	CMP	r6,r5
	JZ	.L470
	MOV	r0,#0
.L470:
.LM738:
	LD	r7,#CHECK_RESTRICTION
	LJMP	r7
.LVL623:
.LM739:
	MOV	r0,#1
	CMP	r8,r0
	JLS	.L472
	MOV	r0,#0
.L472:
	LJMP	r7
.LVL624:
.LM740:
	MOV	r0,#1
	CMP	r9,#3
	JLS	.L473
	MOV	r0,#0
.L473:
	LJMP	r7
.LVL625:
.LM741:
	CMP	r8,#1
	JZ	.L479
.LM742:
	CMP	r8,#0
	JNZ	.L469
.LVL626:
.LM743:
	LD.w	r5,[r6+#13]
.LVL627:
.LM744:
	ADD	r9,r9
.LVL628:
.LBB224:
.LBB225:
.LM745:
	CLR	r5,#1
	CLR	r5,#2
.LVL629:
	MOV	r4,r9
	ORL	r5,r4,r5
.LBE225:
.LBE224:
.LM746:
	ST.w	[r6+#13],r5
.LVL630:
.L469:
.LM747:
	POP	{r6, r7, r8, r9}
	.cfi_remember_state
	.cfi_def_cfa_offset 4
.LVL631:
	POP	lr
	.cfi_def_cfa_offset 0
	JMP	lr
.LVL632:
.L479:
	.cfi_restore_state
.LM748:
	LD.w	r5,[r6+#13]
.LVL633:
.LM749:
	LSL	r9,#17
.LVL634:
.LBB226:
.LBB227:
.LM750:
	CLR	r5,#17
	CLR	r5,#18
.LVL635:
	MOV	r4,r9
	ORL	r5,r4,r5
.LBE227:
.LBE226:
.LM751:
	ST.w	[r6+#13],r5
.LM752:
	POP	{r6, r7, r8, r9}
	.cfi_def_cfa_offset 4
.LVL636:
	POP	lr
	.cfi_def_cfa_offset 0
	JMP	lr
	.cfi_endproc
.LFE58:
	.size	EPWM_Trigger_AD_Event_Select, .-EPWM_Trigger_AD_Event_Select
	.section .text$EPWM_Trigger_AD_Event_Enable
	.type	.text$EPWM_Trigger_AD_Event_Enable$scode_local_59, @function
	.text$EPWM_Trigger_AD_Event_Enable$scode_local_59:
	.align	1
	.export	EPWM_Trigger_AD_Event_Enable
	.type	EPWM_Trigger_AD_Event_Enable, @function
EPWM_Trigger_AD_Event_Enable:
.LFB59:
.LM753:
	.cfi_startproc
.LVL637:
	PUSH	{r6, r7, r8, r9, lr}
	.cfi_def_cfa_offset 20
	MOV	r6,r0
	MOV	r8,r1
	MOV	r9,r2
.LVL638:
.LM754:
	MOV	r0,#1
.LVL639:
	LD	r5,#1073748480
	CMP	r6,r5
	JZ	.L481
.LM755:
	LD	r5,#1073746688
	CMP	r6,r5
	JZ	.L481
.LM756:
	LD	r5,#1073746816
	CMP	r6,r5
	JZ	.L481
	LD	r5,#1073753600
	CMP	r6,r5
	JZ	.L481
	MOV	r0,#0
.L481:
.LM757:
	LD	r7,#CHECK_RESTRICTION
	LJMP	r7
.LVL640:
.LM758:
	MOV	r0,#1
	CMP	r8,r0
	JLS	.L483
	MOV	r0,#0
.L483:
	LJMP	r7
.LVL641:
.LM759:
	MOV	r0,#1
	CMP	r9,r0
	JLS	.L484
	MOV	r0,#0
.L484:
	LJMP	r7
.LVL642:
.LM760:
	CMP	r8,#1
	JZ	.L490
.LM761:
	CMP	r8,#0
	JNZ	.L480
.LVL643:
.LM762:
	LD.w	r5,[r6+#13]
.LVL644:
.LBB228:
.LBB229:
.LM763:
	CLR	r5,#0
.LVL645:
	MOV	r4,r9
	ORL	r5,r4,r5
.LBE229:
.LBE228:
.LM764:
	ST.w	[r6+#13],r5
.LVL646:
.L480:
.LM765:
	POP	{r6, r7, r8, r9}
	.cfi_remember_state
	.cfi_def_cfa_offset 4
.LVL647:
	POP	lr
	.cfi_def_cfa_offset 0
	JMP	lr
.LVL648:
.L490:
	.cfi_restore_state
.LM766:
	LD.w	r5,[r6+#13]
.LVL649:
.LM767:
	LSL	r9,#16
.LVL650:
.LBB230:
.LBB231:
.LM768:
	CLR	r5,#16
.LVL651:
	MOV	r4,r9
	ORL	r5,r4,r5
.LBE231:
.LBE230:
.LM769:
	ST.w	[r6+#13],r5
.LM770:
	POP	{r6, r7, r8, r9}
	.cfi_def_cfa_offset 4
.LVL652:
	POP	lr
	.cfi_def_cfa_offset 0
	JMP	lr
	.cfi_endproc
.LFE59:
	.size	EPWM_Trigger_AD_Event_Enable, .-EPWM_Trigger_AD_Event_Enable
	.section .text$EPWM_INT_Enable
	.type	.text$EPWM_INT_Enable$scode_local_60, @function
	.text$EPWM_INT_Enable$scode_local_60:
	.align	1
	.export	EPWM_INT_Enable
	.type	EPWM_INT_Enable, @function
EPWM_INT_Enable:
.LFB60:
.LM771:
	.cfi_startproc
.LVL653:
	PUSH	{r6, r7, r8, r9, lr}
	.cfi_def_cfa_offset 20
	MOV	r6,r0
	MOV	r7,r1
	MOV	r9,r2
.LVL654:
.LM772:
	LD	r5,#1073748480
	CMP	r0,r5
	JZ	.L497
.LM773:
	LD	r5,#1073746688
	CMP	r0,r5
	JZ	.L497
.LM774:
	LD	r5,#1073746816
	MOV	r0,#1
.LVL655:
	CMP	r6,r5
	JZ	.L492
	LD	r5,#1073753600
	CMP	r6,r5
	JZ	.L492
	MOV	r0,#0
.L492:
.LM775:
	LD	r4,#CHECK_RESTRICTION
	MOV	r8,r4
	LJMP	r4
.LVL656:
.LM776:
	MOV	r0,#1
	CMP	r7,#8
	JLS	.L494
	MOV	r0,#0
.L494:
	LJMP	r8
.LVL657:
.LM777:
	MOV	r0,#1
	CMP	r9,r0
	JLS	.L495
	MOV	r0,#0
.L495:
	LJMP	r8
.LVL658:
.LM778:
	LD.w	r4,[r6+#14]
.LVL659:
.LM779:
	MOV	r5,#1
	LSL	r5,r5,r7
.LVL660:
.LM780:
	NOT	r5,r5
.LVL661:
.LBB232:
.LBB233:
.LM781:
	ANL	r5,r5,r4
.LVL662:
.LBE233:
.LBE232:
.LM782:
	LSL	r9,r7
.LVL663:
.LBB235:
.LBB234:
.LM783:
	MOV	r4,r9
.LVL664:
	ORL	r7,r5,r4
.LVL665:
.LBE234:
.LBE235:
.LM784:
	ST.w	[r6+#14],r7
.LM785:
	POP	{r6, r7, r8, r9}
	.cfi_remember_state
	.cfi_def_cfa_offset 4
.LVL666:
	POP	lr
	.cfi_def_cfa_offset 0
	JMP	lr
.LVL667:
.L497:
	.cfi_restore_state
.LM786:
	MOV	r0,#1
.LVL668:
	JMP	.L492
	.cfi_endproc
.LFE60:
	.size	EPWM_INT_Enable, .-EPWM_INT_Enable
	.section .text$EPWM_Get_INT_Flag
	.type	.text$EPWM_Get_INT_Flag$scode_local_61, @function
	.text$EPWM_Get_INT_Flag$scode_local_61:
	.align	1
	.export	EPWM_Get_INT_Flag
	.type	EPWM_Get_INT_Flag, @function
EPWM_Get_INT_Flag:
.LFB61:
.LM787:
	.cfi_startproc
.LVL669:
	PUSH	{r6, r7, r8, lr}
	.cfi_def_cfa_offset 16
	MOV	r6,r0
	MOV	r7,r1
.LVL670:
.LM788:
	LD	r5,#1073748480
	CMP	r0,r5
	JZ	.L504
.LM789:
	LD	r5,#1073746688
	CMP	r0,r5
	JZ	.L504
.LM790:
	LD	r5,#1073746816
	MOV	r0,#1
.LVL671:
	CMP	r6,r5
	JZ	.L500
	LD	r5,#1073753600
	CMP	r6,r5
	JZ	.L500
	MOV	r0,#0
.L500:
.LM791:
	LD	r5,#CHECK_RESTRICTION
	MOV	r8,r5
	LJMP	r5
.LVL672:
.LM792:
	MOV	r0,#1
	CMP	r7,#8
	JLS	.L502
	MOV	r0,#0
.L502:
	LJMP	r8
.LVL673:
.LM793:
	LD.w	r5,[r6+#15]
.LM794:
	MOV	r0,#1
	LSL	r0,r0,r7
.LVL674:
.LM795:
	ANL	r0,r0,r5
.LVL675:
.LM796:
	LSR	r0,r0,r7
	POP	{r6, r7, r8}
	.cfi_remember_state
	.cfi_def_cfa_offset 4
.LVL676:
	POP	lr
	.cfi_def_cfa_offset 0
	JMP	lr
.LVL677:
.L504:
	.cfi_restore_state
.LM797:
	MOV	r0,#1
.LVL678:
	JMP	.L500
	.cfi_endproc
.LFE61:
	.size	EPWM_Get_INT_Flag, .-EPWM_Get_INT_Flag
	.section .text$EPWM_Clear_INT_Flag
	.type	.text$EPWM_Clear_INT_Flag$scode_local_62, @function
	.text$EPWM_Clear_INT_Flag$scode_local_62:
	.align	1
	.export	EPWM_Clear_INT_Flag
	.type	EPWM_Clear_INT_Flag, @function
EPWM_Clear_INT_Flag:
.LFB62:
.LM798:
	.cfi_startproc
.LVL679:
	PUSH	{r6, r7, r8, lr}
	.cfi_def_cfa_offset 16
	MOV	r6,r0
	MOV	r7,r1
.LVL680:
.LM799:
	MOV	r0,#1
.LVL681:
	LD	r5,#1073748480
	CMP	r6,r5
	JZ	.L507
.LM800:
	LD	r5,#1073746688
	CMP	r6,r5
	JZ	.L507
.LM801:
	LD	r5,#1073746816
	CMP	r6,r5
	JZ	.L507
	LD	r5,#1073753600
	CMP	r6,r5
	JZ	.L507
	MOV	r0,#0
.L507:
.LM802:
	LD	r5,#CHECK_RESTRICTION
	MOV	r8,r5
	LJMP	r5
.LVL682:
.LM803:
	MOV	r0,#1
	CMP	r7,#8
	JLS	.L509
	MOV	r0,#0
.L509:
	LJMP	r8
.LVL683:
.LM804:
	MOV	r1,#1
	LSL	r1,r1,r7
.LVL684:
.LM805:
	LD.w	r5,[r6+#16]
	NOT	r4,r1
.LVL685:
.LBB236:
.LBB237:
.LM806:
	ANL	r5,r4,r5
.LVL686:
	ORL	r5,r5,r1
.LBE237:
.LBE236:
.LM807:
	ST.w	[r6+#16],r5
.L510:
.LM808:
	LD.w	r5,[r6+#15]
	ANL	r5,r1,r5
	JNZ	.L510
.LM809:
	LD.w	r5,[r6+#16]
.LVL687:
.LBB238:
.LBB239:
.LM810:
	ANL	r4,r4,r5
.LVL688:
.LBE239:
.LBE238:
.LM811:
	ST.w	[r6+#16],r4
.LM812:
	POP	{r6, r7, r8}
	.cfi_def_cfa_offset 4
.LVL689:
	POP	lr
	.cfi_def_cfa_offset 0
	JMP	lr
	.cfi_endproc
.LFE62:
	.size	EPWM_Clear_INT_Flag, .-EPWM_Clear_INT_Flag
	.section .text$EPWM_Trigger_DMA_Enable
	.type	.text$EPWM_Trigger_DMA_Enable$scode_local_63, @function
	.text$EPWM_Trigger_DMA_Enable$scode_local_63:
	.align	1
	.export	EPWM_Trigger_DMA_Enable
	.type	EPWM_Trigger_DMA_Enable, @function
EPWM_Trigger_DMA_Enable:
.LFB63:
.LM813:
	.cfi_startproc
.LVL690:
	PUSH	{r6, r7, r8, r9, lr}
	.cfi_def_cfa_offset 20
	MOV	r6,r0
	MOV	r7,r1
	MOV	r9,r2
.LVL691:
.LM814:
	LD	r5,#1073748480
	CMP	r0,r5
	JZ	.L521
.LM815:
	LD	r5,#1073746688
	CMP	r0,r5
	JZ	.L521
.LM816:
	LD	r5,#1073746816
	MOV	r0,#1
.LVL692:
	CMP	r6,r5
	JZ	.L516
	LD	r5,#1073753600
	CMP	r6,r5
	JZ	.L516
	MOV	r0,#0
.L516:
.LM817:
	LD	r4,#CHECK_RESTRICTION
	MOV	r8,r4
	LJMP	r4
.LVL693:
.LM818:
	MOV	r0,#1
	CMP	r7,#8
	JLS	.L518
	MOV	r0,#0
.L518:
	LJMP	r8
.LVL694:
.LM819:
	MOV	r0,#1
	CMP	r9,r0
	JLS	.L519
	MOV	r0,#0
.L519:
	LJMP	r8
.LVL695:
.LM820:
	LD.w	r4,[r6+#17]
.LVL696:
.LM821:
	MOV	r5,#1
	LSL	r5,r5,r7
.LVL697:
.LM822:
	NOT	r5,r5
.LVL698:
.LBB240:
.LBB241:
.LM823:
	ANL	r5,r5,r4
.LVL699:
.LBE241:
.LBE240:
.LM824:
	LSL	r9,r7
.LVL700:
.LBB243:
.LBB242:
.LM825:
	MOV	r4,r9
.LVL701:
	ORL	r7,r5,r4
.LVL702:
.LBE242:
.LBE243:
.LM826:
	ST.w	[r6+#17],r7
.LM827:
	POP	{r6, r7, r8, r9}
	.cfi_remember_state
	.cfi_def_cfa_offset 4
.LVL703:
	POP	lr
	.cfi_def_cfa_offset 0
	JMP	lr
.LVL704:
.L521:
	.cfi_restore_state
.LM828:
	MOV	r0,#1
.LVL705:
	JMP	.L516
	.cfi_endproc
.LFE63:
	.size	EPWM_Trigger_DMA_Enable, .-EPWM_Trigger_DMA_Enable
	.section .text$EPWM_Get_Trigger_DMA_Flag
	.type	.text$EPWM_Get_Trigger_DMA_Flag$scode_local_64, @function
	.text$EPWM_Get_Trigger_DMA_Flag$scode_local_64:
	.align	1
	.export	EPWM_Get_Trigger_DMA_Flag
	.type	EPWM_Get_Trigger_DMA_Flag, @function
EPWM_Get_Trigger_DMA_Flag:
.LFB64:
.LM829:
	.cfi_startproc
.LVL706:
	PUSH	{r6, r7, r8, lr}
	.cfi_def_cfa_offset 16
	MOV	r6,r0
	MOV	r7,r1
.LVL707:
.LM830:
	LD	r5,#1073748480
	CMP	r0,r5
	JZ	.L528
.LM831:
	LD	r5,#1073746688
	CMP	r0,r5
	JZ	.L528
.LM832:
	LD	r5,#1073746816
	MOV	r0,#1
.LVL708:
	CMP	r6,r5
	JZ	.L524
	LD	r5,#1073753600
	CMP	r6,r5
	JZ	.L524
	MOV	r0,#0
.L524:
.LM833:
	LD	r5,#CHECK_RESTRICTION
	MOV	r8,r5
	LJMP	r5
.LVL709:
.LM834:
	MOV	r0,#1
	CMP	r7,#8
	JLS	.L526
	MOV	r0,#0
.L526:
	LJMP	r8
.LVL710:
.LM835:
	LD.w	r5,[r6+#18]
.LM836:
	MOV	r0,#1
	LSL	r0,r0,r7
.LVL711:
.LM837:
	ANL	r0,r0,r5
.LVL712:
.LM838:
	LSR	r0,r0,r7
	POP	{r6, r7, r8}
	.cfi_remember_state
	.cfi_def_cfa_offset 4
.LVL713:
	POP	lr
	.cfi_def_cfa_offset 0
	JMP	lr
.LVL714:
.L528:
	.cfi_restore_state
.LM839:
	MOV	r0,#1
.LVL715:
	JMP	.L524
	.cfi_endproc
.LFE64:
	.size	EPWM_Get_Trigger_DMA_Flag, .-EPWM_Get_Trigger_DMA_Flag
	.section .text$EPWM_HRPWM_OUTPUTB_CONTRAL_Select
	.type	.text$EPWM_HRPWM_OUTPUTB_CONTRAL_Select$scode_local_65, @function
	.text$EPWM_HRPWM_OUTPUTB_CONTRAL_Select$scode_local_65:
	.align	1
	.export	EPWM_HRPWM_OUTPUTB_CONTRAL_Select
	.type	EPWM_HRPWM_OUTPUTB_CONTRAL_Select, @function
EPWM_HRPWM_OUTPUTB_CONTRAL_Select:
.LFB65:
.LM840:
	.cfi_startproc
.LVL716:
	PUSH	{r6, r7, r8, lr}
	.cfi_def_cfa_offset 16
	MOV	r6,r0
	MOV	r7,r1
.LVL717:
.LM841:
	LD	r5,#1073748480
	CMP	r0,r5
	JZ	.L535
.LM842:
	LD	r5,#1073746688
	CMP	r0,r5
	JZ	.L535
.LM843:
	LD	r5,#1073746816
	MOV	r0,#1
.LVL718:
	CMP	r6,r5
	JZ	.L531
	LD	r5,#1073753600
	CMP	r6,r5
	JZ	.L531
	MOV	r0,#0
.L531:
.LM844:
	LD	r5,#CHECK_RESTRICTION
	MOV	r8,r5
	LJMP	r5
.LVL719:
.LM845:
	MOV	r0,#1
	CMP	r7,r0
	JLS	.L533
	MOV	r0,#0
.L533:
	LJMP	r8
.LVL720:
.LM846:
	LD.w	r5,[r6+#20]
.LVL721:
.LM847:
	ADD	r7,r7,r7
.LVL722:
.LBB244:
.LBB245:
.LM848:
	CLR	r5,#1
.LVL723:
	ORL	r7,r7,r5
.LBE245:
.LBE244:
.LM849:
	ST.w	[r6+#20],r7
.LM850:
	POP	{r6, r7, r8}
	.cfi_remember_state
	.cfi_def_cfa_offset 4
	POP	lr
	.cfi_def_cfa_offset 0
	JMP	lr
.LVL724:
.L535:
	.cfi_restore_state
.LM851:
	MOV	r0,#1
.LVL725:
	JMP	.L531
	.cfi_endproc
.LFE65:
	.size	EPWM_HRPWM_OUTPUTB_CONTRAL_Select, .-EPWM_HRPWM_OUTPUTB_CONTRAL_Select
	.section .text$EPWM_HRPWM_Enable
	.type	.text$EPWM_HRPWM_Enable$scode_local_66, @function
	.text$EPWM_HRPWM_Enable$scode_local_66:
	.align	1
	.export	EPWM_HRPWM_Enable
	.type	EPWM_HRPWM_Enable, @function
EPWM_HRPWM_Enable:
.LFB66:
.LM852:
	.cfi_startproc
.LVL726:
	PUSH	{r6, r7, r8, lr}
	.cfi_def_cfa_offset 16
	MOV	r6,r0
	MOV	r7,r1
.LM853:
	LD	r5,#1073748480
	CMP	r0,r5
	JZ	.L542
.LM854:
	LD	r5,#1073746688
	CMP	r0,r5
	JZ	.L542
.LM855:
	LD	r5,#1073746816
	MOV	r0,#1
.LVL727:
	CMP	r6,r5
	JZ	.L538
	LD	r5,#1073753600
	CMP	r6,r5
	JZ	.L538
	MOV	r0,#0
.L538:
.LM856:
	LD	r5,#CHECK_RESTRICTION
	MOV	r8,r5
	LJMP	r5
.LVL728:
.LM857:
	MOV	r0,#1
	CMP	r7,r0
	JLS	.L540
	MOV	r0,#0
.L540:
	LJMP	r8
.LVL729:
.LM858:
	LD.w	r5,[r6+#20]
.LVL730:
.LBB246:
.LBB247:
.LM859:
	CLR	r5,#0
.LVL731:
	ORL	r7,r7,r5
.LVL732:
.LBE247:
.LBE246:
.LM860:
	ST.w	[r6+#20],r7
.LM861:
	POP	{r6, r7, r8}
	.cfi_remember_state
	.cfi_def_cfa_offset 4
	POP	lr
	.cfi_def_cfa_offset 0
	JMP	lr
.LVL733:
.L542:
	.cfi_restore_state
.LM862:
	MOV	r0,#1
.LVL734:
	JMP	.L538
	.cfi_endproc
.LFE66:
	.size	EPWM_HRPWM_Enable, .-EPWM_HRPWM_Enable
	.section .text$EPWM_8Bit_HRPWM_Duty_Cycle
	.type	.text$EPWM_8Bit_HRPWM_Duty_Cycle$scode_local_67, @function
	.text$EPWM_8Bit_HRPWM_Duty_Cycle$scode_local_67:
	.align	1
	.export	EPWM_8Bit_HRPWM_Duty_Cycle
	.type	EPWM_8Bit_HRPWM_Duty_Cycle, @function
EPWM_8Bit_HRPWM_Duty_Cycle:
.LFB67:
.LM863:
	.cfi_startproc
.LVL735:
	PUSH	{r6, r7, r8, lr}
	.cfi_def_cfa_offset 16
	MOV	r6,r0
	ZXT.b	r8,r1
.LM864:
	LD	r5,#1073748480
	CMP	r0,r5
	JZ	.L548
.LM865:
	LD	r5,#1073746688
	CMP	r0,r5
	JZ	.L548
.LM866:
	LD	r5,#1073746816
	MOV	r0,#1
.LVL736:
	CMP	r6,r5
	JZ	.L545
	LD	r5,#1073753600
	CMP	r6,r5
	JZ	.L545
	MOV	r0,#0
.L545:
.LM867:
	LD	r7,#CHECK_RESTRICTION
	LJMP	r7
.LVL737:
.LM868:
	MOV	r0,#1
	LJMP	r7
.LVL738:
.LM869:
	MOV	r5,r8
	ST.w	[r6+#21],r5
.LM870:
	POP	{r6, r7, r8}
	.cfi_remember_state
	.cfi_def_cfa_offset 4
.LVL739:
	POP	lr
	.cfi_def_cfa_offset 0
	JMP	lr
.LVL740:
.L548:
	.cfi_restore_state
.LM871:
	MOV	r0,#1
.LVL741:
	JMP	.L545
	.cfi_endproc
.LFE67:
	.size	EPWM_8Bit_HRPWM_Duty_Cycle, .-EPWM_8Bit_HRPWM_Duty_Cycle
	.section .text$EPWM_Get_Cap_Register_Current_Value
	.type	.text$EPWM_Get_Cap_Register_Current_Value$scode_local_68, @function
	.text$EPWM_Get_Cap_Register_Current_Value$scode_local_68:
	.align	1
	.export	EPWM_Get_Cap_Register_Current_Value
	.type	EPWM_Get_Cap_Register_Current_Value, @function
EPWM_Get_Cap_Register_Current_Value:
.LFB68:
.LM872:
	.cfi_startproc
.LVL742:
	PUSH	{r6, lr}
	.cfi_def_cfa_offset 8
	MOV	r6,r0
.LM873:
	LD	r5,#1073748480
	CMP	r0,r5
	JZ	.L554
.LM874:
	LD	r5,#1073746688
	CMP	r0,r5
	JZ	.L554
.LM875:
	LD	r5,#1073746816
	MOV	r0,#1
.LVL743:
	CMP	r6,r5
	JZ	.L551
	LD	r5,#1073753600
	CMP	r6,r5
	JZ	.L551
	MOV	r0,#0
.L551:
.LM876:
	LD	r5,#CHECK_RESTRICTION
	LJMP	r5
.LVL744:
.LM877:
	LD.w	r0,[r6+#22]
.LM878:
	POP	r6
	.cfi_remember_state
	.cfi_def_cfa_offset 4
.LVL745:
	POP	lr
	.cfi_def_cfa_offset 0
	JMP	lr
.LVL746:
.L554:
	.cfi_restore_state
.LM879:
	MOV	r0,#1
.LVL747:
	LD	r5,#CHECK_RESTRICTION
	LJMP	r5
.LVL748:
.LM880:
	LD.w	r0,[r6+#22]
.LM881:
	POP	r6
	.cfi_def_cfa_offset 4
.LVL749:
	POP	lr
	.cfi_def_cfa_offset 0
	JMP	lr
	.cfi_endproc
.LFE68:
	.size	EPWM_Get_Cap_Register_Current_Value, .-EPWM_Get_Cap_Register_Current_Value
	.section .text$EPWM_UDCTL_Updata_Enable
	.type	.text$EPWM_UDCTL_Updata_Enable$scode_local_69, @function
	.text$EPWM_UDCTL_Updata_Enable$scode_local_69:
	.align	1
	.export	EPWM_UDCTL_Updata_Enable
	.type	EPWM_UDCTL_Updata_Enable, @function
EPWM_UDCTL_Updata_Enable:
.LFB69:
.LM882:
	.cfi_startproc
.LVL750:
	PUSH	{r6, r7, r8, r9, lr}
	.cfi_def_cfa_offset 20
	MOV	r6,r0
	MOV	r9,r1
	MOV	r8,r2
.LVL751:
.LM883:
	LD	r5,#1073748480
	CMP	r0,r5
	JZ	.L562
.LM884:
	LD	r5,#1073746688
	CMP	r0,r5
	JZ	.L562
.LM885:
	LD	r5,#1073746816
	MOV	r0,#1
.LVL752:
	CMP	r6,r5
	JZ	.L557
	LD	r5,#1073753600
	CMP	r6,r5
	JZ	.L557
	MOV	r0,#0
.L557:
.LM886:
	LD	r7,#CHECK_RESTRICTION
	LJMP	r7
.LVL753:
.LM887:
	MOV	r0,#1
	CMP	r9,#8
	JLS	.L559
	MOV	r0,#0
.L559:
	LJMP	r7
.LVL754:
.LM888:
	MOV	r0,#1
	CMP	r8,r0
	JLS	.L560
	MOV	r0,#0
.L560:
	LJMP	r7
.LVL755:
.LM889:
	MOV	r5,#3
	MOV	r4,r9
	MULS	r5,r4,r5 ;
	NOP
.LVL756:
.LM890:
	LD.w	r4,[r6+#25]
.LVL757:
.LM891:
	MOV	r9,#1
.LVL758:
	LSL	r9,r5
.LVL759:
.LM892:
	NOT	r9,r9
.LVL760:
.LBB248:
.LBB249:
.LM893:
	ANL	r9,r4
.LVL761:
.LBE249:
.LBE248:
.LM894:
	LSL	r8,r5
.LVL762:
.LBB251:
.LBB250:
.LM895:
	MOV	r5,r9
.LVL763:
	ORL	r5,r8
.LBE250:
.LBE251:
.LM896:
	ST.w	[r6+#25],r5
.LM897:
	POP	{r6, r7, r8, r9}
	.cfi_remember_state
	.cfi_def_cfa_offset 4
.LVL764:
	POP	lr
	.cfi_def_cfa_offset 0
	JMP	lr
.LVL765:
.L562:
	.cfi_restore_state
.LM898:
	MOV	r0,#1
.LVL766:
	JMP	.L557
	.cfi_endproc
.LFE69:
	.size	EPWM_UDCTL_Updata_Enable, .-EPWM_UDCTL_Updata_Enable
	.section .text$EPWM_UDCTL_Register_Updata_Event_Select
	.type	.text$EPWM_UDCTL_Register_Updata_Event_Select$scode_local_70, @function
	.text$EPWM_UDCTL_Register_Updata_Event_Select$scode_local_70:
	.align	1
	.export	EPWM_UDCTL_Register_Updata_Event_Select
	.type	EPWM_UDCTL_Register_Updata_Event_Select, @function
EPWM_UDCTL_Register_Updata_Event_Select:
.LFB70:
.LM899:
	.cfi_startproc
.LVL767:
	PUSH	{r6, r7, r8, r9, lr}
	.cfi_def_cfa_offset 20
	MOV	r6,r0
	MOV	r9,r1
	MOV	r8,r2
.LVL768:
.LM900:
	LD	r5,#1073748480
	CMP	r0,r5
	JZ	.L570
.LM901:
	LD	r5,#1073746688
	CMP	r0,r5
	JZ	.L570
.LM902:
	LD	r5,#1073746816
	MOV	r0,#1
.LVL769:
	CMP	r6,r5
	JZ	.L565
	LD	r5,#1073753600
	CMP	r6,r5
	JZ	.L565
	MOV	r0,#0
.L565:
.LM903:
	LD	r7,#CHECK_RESTRICTION
	LJMP	r7
.LVL770:
.LM904:
	MOV	r0,#1
	CMP	r9,#8
	JLS	.L567
	MOV	r0,#0
.L567:
	LJMP	r7
.LVL771:
.LM905:
	MOV	r0,#1
	CMP	r8,#3
	JLS	.L568
	MOV	r0,#0
.L568:
	LJMP	r7
.LVL772:
.LM906:
	MOV	r5,#3
	MOV	r3,r9
	MULS	r4,r3,r5 ;
	NOP
	ADD	r4,r4,#1
	MOV	r9,r4
.LVL773:
.LM907:
	LD.w	r4,[r6+#25]
.LVL774:
.LM908:
	LSL	r5,r9
.LVL775:
.LM909:
	NOT	r5,r5
.LVL776:
.LBB252:
.LBB253:
.LM910:
	ANL	r5,r5,r4
.LVL777:
.LBE253:
.LBE252:
.LM911:
	LSL	r8,r9
.LVL778:
.LBB255:
.LBB254:
.LM912:
	ORL	r5,r8
.LBE254:
.LBE255:
.LM913:
	ST.w	[r6+#25],r5
.LM914:
	POP	{r6, r7, r8, r9}
	.cfi_remember_state
	.cfi_def_cfa_offset 4
.LVL779:
	POP	lr
	.cfi_def_cfa_offset 0
	JMP	lr
.LVL780:
.L570:
	.cfi_restore_state
.LM915:
	MOV	r0,#1
.LVL781:
	JMP	.L565
	.cfi_endproc
.LFE70:
	.size	EPWM_UDCTL_Register_Updata_Event_Select, .-EPWM_UDCTL_Register_Updata_Event_Select
	.section .text$EPWM_Global_Loading_Enable
	.type	.text$EPWM_Global_Loading_Enable$scode_local_71, @function
	.text$EPWM_Global_Loading_Enable$scode_local_71:
	.align	1
	.export	EPWM_Global_Loading_Enable
	.type	EPWM_Global_Loading_Enable, @function
EPWM_Global_Loading_Enable:
.LFB71:
.LM916:
	.cfi_startproc
.LVL782:
	PUSH	{r6, r7, r8, lr}
	.cfi_def_cfa_offset 16
	MOV	r6,r0
	MOV	r7,r1
.LVL783:
.LM917:
	LD	r5,#1073748480
	CMP	r0,r5
	JZ	.L577
.LM918:
	LD	r5,#1073746688
	CMP	r0,r5
	JZ	.L577
.LM919:
	LD	r5,#1073746816
	MOV	r0,#1
.LVL784:
	CMP	r6,r5
	JZ	.L573
	LD	r5,#1073753600
	CMP	r6,r5
	JZ	.L573
	MOV	r0,#0
.L573:
.LM920:
	LD	r5,#CHECK_RESTRICTION
	MOV	r8,r5
	LJMP	r5
.LVL785:
.LM921:
	MOV	r0,#1
	CMP	r7,r0
	JLS	.L575
	MOV	r0,#0
.L575:
	LJMP	r8
.LVL786:
.LM922:
	LD.w	r5,[r6+#25]
.LVL787:
.LM923:
	LSL	r7,#27
.LVL788:
.LBB256:
.LBB257:
.LM924:
	CLR	r5,#27
.LVL789:
	ORL	r7,r7,r5
.LVL790:
.LBE257:
.LBE256:
.LM925:
	ST.w	[r6+#25],r7
.LM926:
	POP	{r6, r7, r8}
	.cfi_remember_state
	.cfi_def_cfa_offset 4
	POP	lr
	.cfi_def_cfa_offset 0
	JMP	lr
.LVL791:
.L577:
	.cfi_restore_state
.LM927:
	MOV	r0,#1
.LVL792:
	JMP	.L573
	.cfi_endproc
.LFE71:
	.size	EPWM_Global_Loading_Enable, .-EPWM_Global_Loading_Enable
	.text	
.Letext0: