	.file	"kf32a9k1xxx_i2c.c"
	.text	
.Ltext0:
	.cfi_sections	.debug_frame
	.section .text$I2C_Reset
	.type	.text$I2C_Reset$scode_local_1, @function
	.text$I2C_Reset$scode_local_1:
	.align	1
	.export	I2C_Reset
	.type	I2C_Reset, @function
I2C_Reset:
.LFB1:
.LM1:
	.cfi_startproc
.LVL0:
	PUSH	{r6, lr}
	.cfi_def_cfa_offset 8
.LM2:
	LD	r5,#1073745152
	CMP	r0,r5
	JZ	.L2
.LM3:
	LD	r5,#1073745280
	CMP	r0,r5
	JZ	.L3
.LM4:
	LD	r5,#1073745408
	CMP	r0,r5
	JZ	.L4
	MOV	r6,#1
	LD	r5,#1073750912
	CMP	r0,r5
	JZ	.L5
	MOV	r6,#0
.L5:
	ZXT.b	r6,r6
	MOV	r0,r6
.LVL1:
	LD	r5,#CHECK_RESTRICTION
	LJMP	r5
.LVL2:
.LM5:
	CMP	r6,#0
	JNZ	.L11
.L1:
.LM6:
	POP	r6
	.cfi_remember_state
	.cfi_def_cfa_offset 4
	POP	lr
	.cfi_def_cfa_offset 0
	JMP	lr
.LVL3:
.L2:
	.cfi_restore_state
.LM7:
	MOV	r0,#1
.LVL4:
	LD	r5,#CHECK_RESTRICTION
	LJMP	r5
.LVL5:
.LM8:
	MOV	r0,#1
	LSL	r0,#26
	MOV	r1,#1
	LD	r6,#RST_CTL1_Peripheral_Reset_Enable
	LJMP	r6
.LVL6:
.LM9:
	MOV	r0,#1
	LSL	r0,#26
	MOV	r1,#0
	LJMP	r6
.LVL7:
.LM10:
	MOV	r0,#1
	LSL	r0,#26
	MOV	r1,#1
	LD	r5,#PCLK_CTL1_Peripheral_Clock_Enable
	LJMP	r5
.LVL8:
.LM11:
	POP	r6
	.cfi_remember_state
	.cfi_def_cfa_offset 4
	POP	lr
	.cfi_def_cfa_offset 0
	JMP	lr
.LVL9:
.L3:
	.cfi_restore_state
.LM12:
	MOV	r0,#1
.LVL10:
	LD	r5,#CHECK_RESTRICTION
	LJMP	r5
.LVL11:
.LM13:
	MOV	r0,#1
	LSL	r0,#27
	MOV	r1,#1
	LD	r6,#RST_CTL1_Peripheral_Reset_Enable
	LJMP	r6
.LVL12:
.LM14:
	MOV	r0,#1
	LSL	r0,#27
	MOV	r1,#0
	LJMP	r6
.LVL13:
.LM15:
	MOV	r0,#1
	LSL	r0,#27
	MOV	r1,#1
	LD	r5,#PCLK_CTL1_Peripheral_Clock_Enable
	LJMP	r5
.LVL14:
.LM16:
	POP	r6
	.cfi_remember_state
	.cfi_def_cfa_offset 4
	POP	lr
	.cfi_def_cfa_offset 0
	JMP	lr
.LVL15:
.L4:
	.cfi_restore_state
.LM17:
	MOV	r0,#1
.LVL16:
	LD	r5,#CHECK_RESTRICTION
	LJMP	r5
.LVL17:
.LM18:
	MOV	r0,#1
	LSL	r0,#28
	MOV	r1,#1
	LD	r6,#RST_CTL1_Peripheral_Reset_Enable
	LJMP	r6
.LVL18:
.LM19:
	MOV	r0,#1
	LSL	r0,#28
	MOV	r1,#0
	LJMP	r6
.LVL19:
.LM20:
	MOV	r0,#1
	LSL	r0,#28
	MOV	r1,#1
	LD	r5,#PCLK_CTL1_Peripheral_Clock_Enable
	LJMP	r5
.LVL20:
.LM21:
	POP	r6
	.cfi_remember_state
	.cfi_def_cfa_offset 4
	POP	lr
	.cfi_def_cfa_offset 0
	JMP	lr
.L11:
	.cfi_restore_state
.LM22:
	MOV	r0,#128
	MOV	r1,#1
	LD	r6,#RST_CTL3_Peripheral_Reset_Enable
	LJMP	r6
.LVL21:
.LM23:
	MOV	r0,#128
	MOV	r1,#0
	LJMP	r6
.LVL22:
.LM24:
	MOV	r0,#128
	MOV	r1,#1
	LD	r5,#PCLK_CTL3_Peripheral_Clock_Enable
	LJMP	r5
.LVL23:
	JMP	.L1
	.cfi_endproc
.LFE1:
	.size	I2C_Reset, .-I2C_Reset
	.section .text$I2C_Configuration
	.type	.text$I2C_Configuration$scode_local_2, @function
	.text$I2C_Configuration$scode_local_2:
	.align	1
	.export	I2C_Configuration
	.type	I2C_Configuration, @function
I2C_Configuration:
.LFB2:
.LM25:
	.cfi_startproc
.LVL24:
	PUSH	{r6, r7, r8, lr}
	.cfi_def_cfa_offset 16
	MOV	r7,r0
	MOV	r6,r1
.LVL25:
.LM26:
	MOV	r0,#1
.LVL26:
	LD	r5,#1073745152
	CMP	r7,r5
	JZ	.L13
.LM27:
	LD	r5,#1073745280
	CMP	r7,r5
	JZ	.L13
.LM28:
	LD	r5,#1073745408
	CMP	r7,r5
	JZ	.L13
	LD	r5,#1073750912
	CMP	r7,r5
	JZ	.L13
	MOV	r0,#0
.L13:
.LM29:
	LD	r2,#CHECK_RESTRICTION
	MOV	r8,r2
	LJMP	r2
.LVL27:
.LM30:
	LD.w	r5,[r6]
	MOV	r0,#1
	CMP	r5,#0
	JZ	.L15
.LM31:
	MOV	r4,#1
	LSL	r4,#24
	CMP	r5,r4
	JZ	.L15
	MOV	r0,#0
.L15:
.LM32:
	LJMP	r8
.LVL28:
.LM33:
	LD.w	r5,[r6+#1]
	MOV	r0,#1
	CMP	r5,#0
	JZ	.L17
.LM34:
	MOV	r4,#1
	LSL	r4,#16
	CMP	r5,r4
	JZ	.L17
.LM35:
	MOV	r4,#1
	LSL	r4,#17
	CMP	r5,r4
	JZ	.L17
	MOV	r0,#0
.L17:
.LM36:
	LJMP	r8
.LVL29:
.LM37:
	LD.w	r5,[r6+#2]
	MOV	r0,#1
	CMP	r5,#0
	JZ	.L19
.LM38:
	CMP	r5,#2
	JZ	.L19
	MOV	r0,#0
.L19:
.LM39:
	LJMP	r8
.LVL30:
.LM40:
	LD.w	r5,[r6+#3]
	MOV	r0,#1
	CMP	r5,#0
	JZ	.L21
.LM41:
	MOV	r4,#1
	LSL	r4,#25
	CMP	r5,r4
	JZ	.L21
	MOV	r0,#0
.L21:
.LM42:
	LJMP	r8
.LVL31:
.LM43:
	MOV	r0,#1
	LD.w	r5,[r6+#5]
	CMP	r5,r0
	JLS	.L23
	MOV	r0,#0
.L23:
	LJMP	r8
.LVL32:
.LM44:
	LD.w	r5,[r6+#6]
	MOV	r0,#1
	CMP	r5,#0
	JZ	.L24
.LM45:
	MOV	r4,#1
	LSL	r4,#13
	CMP	r5,r4
	JZ	.L24
	MOV	r0,#0
.L24:
.LM46:
	LJMP	r8
.LVL33:
.LM47:
	LD.w	r3,[r7]
.LVL34:
.LM48:
	LD.w	r4,[r6+#1]
	LD.w	r2,[r6]
	ORL	r5,r4,r2
.LM49:
	LD.w	r4,[r6+#2]
	ORL	r5,r5,r4
.LM50:
	LD.w	r2,[r6+#3]
	ORL	r5,r5,r2
.LM51:
	LD.w	r4,[r6+#6]
	ORL	r5,r5,r4
	LD.w	r4,[r6+#5]
	LSL	r4,#12
.LM52:
	ORL	r5,r5,r4
.LBB20:
.LBB21:
.LM53:
	LD	r4,#-50540547
	ANL	r4,r3,r4
	ORL	r5,r5,r4
.LBE21:
.LBE20:
.LM54:
	ST.w	[r7],r5
.LM55:
	LD.h	r5,[r6+#8]
	LSL	r5,#16
.LM56:
	LD.h	r4,[r6+#9]
	ORL	r5,r5,r4
.LVL35:
.LM57:
	LD.w	r4,[r7+#4]
.LVL36:
	ST.w	[r7+#4],r5
.LM58:
	POP	{r6, r7, r8}
	.cfi_def_cfa_offset 4
.LVL37:
	POP	lr
	.cfi_def_cfa_offset 0
	JMP	lr
	.cfi_endproc
.LFE2:
	.size	I2C_Configuration, .-I2C_Configuration
	.section .text$I2C_Struct_Init
	.type	.text$I2C_Struct_Init$scode_local_3, @function
	.text$I2C_Struct_Init$scode_local_3:
	.align	1
	.export	I2C_Struct_Init
	.type	I2C_Struct_Init, @function
I2C_Struct_Init:
.LFB3:
.LM59:
	.cfi_startproc
.LVL38:
.LM60:
	MOV	r5,#0
	ST.w	[r0],r5
.LM61:
	ST.w	[r0+#1],r5
.LM62:
	ST.w	[r0+#2],r5
.LM63:
	ST.w	[r0+#3],r5
.LM64:
	MOV	r4,#4
	ST.h	[r0+#8],r4
.LM65:
	ST.h	[r0+#9],r4
.LM66:
	ST.w	[r0+#5],r5
.LM67:
	ST.w	[r0+#6],r5
.LM68:
	JMP	lr
	.cfi_endproc
.LFE3:
	.size	I2C_Struct_Init, .-I2C_Struct_Init
	.section .text$I2C_Cmd
	.type	.text$I2C_Cmd$scode_local_4, @function
	.text$I2C_Cmd$scode_local_4:
	.align	1
	.export	I2C_Cmd
	.type	I2C_Cmd, @function
I2C_Cmd:
.LFB4:
.LM69:
	.cfi_startproc
.LVL39:
	PUSH	{r6, r7, r8, lr}
	.cfi_def_cfa_offset 16
	MOV	r6,r0
	MOV	r7,r1
.LM70:
	MOV	r0,#1
.LVL40:
	LD	r5,#1073745152
	CMP	r6,r5
	JZ	.L45
.LM71:
	LD	r5,#1073745280
	CMP	r6,r5
	JZ	.L45
.LM72:
	LD	r5,#1073745408
	CMP	r6,r5
	JZ	.L45
	LD	r5,#1073750912
	CMP	r6,r5
	JZ	.L45
	MOV	r0,#0
.L45:
.LM73:
	LD	r5,#CHECK_RESTRICTION
	MOV	r8,r5
	LJMP	r5
.LVL41:
.LM74:
	MOV	r0,#1
	CMP	r7,r0
	JLS	.L47
	MOV	r0,#0
.L47:
	LJMP	r8
.LVL42:
.LM75:
	CMP	r7,#0
	JNZ	.L53
.LM76:
// inline asm begin
	// 179 "../src/kf32a9k1xxx_i2c.c" 1
	CLR [r6], #0
	// 0 "" 2
.LM77:
// inline asm end
	POP	{r6, r7, r8}
	.cfi_remember_state
	.cfi_def_cfa_offset 4
.LVL43:
	POP	lr
	.cfi_def_cfa_offset 0
	JMP	lr
.LVL44:
.L53:
	.cfi_restore_state
.LM78:
// inline asm begin
	// 174 "../src/kf32a9k1xxx_i2c.c" 1
	SET [r6], #0
	// 0 "" 2
.LM79:
// inline asm end
	POP	{r6, r7, r8}
	.cfi_def_cfa_offset 4
.LVL45:
	POP	lr
	.cfi_def_cfa_offset 0
	JMP	lr
	.cfi_endproc
.LFE4:
	.size	I2C_Cmd, .-I2C_Cmd
	.section .text$I2C_Bufr_Address_Config
	.type	.text$I2C_Bufr_Address_Config$scode_local_5, @function
	.text$I2C_Bufr_Address_Config$scode_local_5:
	.align	1
	.export	I2C_Bufr_Address_Config
	.type	I2C_Bufr_Address_Config, @function
I2C_Bufr_Address_Config:
.LFB5:
.LM80:
	.cfi_startproc
.LVL46:
	PUSH	{r6, r7, r8, lr}
	.cfi_def_cfa_offset 16
	MOV	r6,r0
	MOV	r8,r1
.LM81:
	MOV	r0,#1
.LVL47:
	LD	r5,#1073745152
	CMP	r6,r5
	JZ	.L55
.LM82:
	LD	r5,#1073745280
	CMP	r6,r5
	JZ	.L55
.LM83:
	LD	r5,#1073745408
	CMP	r6,r5
	JZ	.L55
	LD	r5,#1073750912
	CMP	r6,r5
	JZ	.L55
	MOV	r0,#0
.L55:
.LM84:
	LD	r7,#CHECK_RESTRICTION
	LJMP	r7
.LVL48:
.LM85:
	MOV	r0,#1
	CMP	r8,#0
	JZ	.L57
.LM86:
	CMP	r8,#2
	JZ	.L58
	MOV	r0,#0
.L58:
	LJMP	r7
.LVL49:
.LM87:
// inline asm begin
	// 201 "../src/kf32a9k1xxx_i2c.c" 1
	SET [r6], #1
	// 0 "" 2
.LM88:
// inline asm end
	POP	{r6, r7, r8}
	.cfi_remember_state
	.cfi_def_cfa_offset 4
.LVL50:
	POP	lr
	.cfi_def_cfa_offset 0
	JMP	lr
.LVL51:
.L57:
	.cfi_restore_state
.LM89:
	LJMP	r7
.LVL52:
.LM90:
// inline asm begin
	// 206 "../src/kf32a9k1xxx_i2c.c" 1
	CLR [r6], #1
	// 0 "" 2
.LM91:
// inline asm end
	POP	{r6, r7, r8}
	.cfi_def_cfa_offset 4
.LVL53:
	POP	lr
	.cfi_def_cfa_offset 0
	JMP	lr
	.cfi_endproc
.LFE5:
	.size	I2C_Bufr_Address_Config, .-I2C_Bufr_Address_Config
	.section .text$I2C_Generate_START
	.type	.text$I2C_Generate_START$scode_local_6, @function
	.text$I2C_Generate_START$scode_local_6:
	.align	1
	.export	I2C_Generate_START
	.type	I2C_Generate_START, @function
I2C_Generate_START:
.LFB6:
.LM92:
	.cfi_startproc
.LVL54:
	PUSH	{r6, r7, r8, lr}
	.cfi_def_cfa_offset 16
	MOV	r6,r0
	MOV	r7,r1
.LM93:
	MOV	r0,#1
.LVL55:
	LD	r5,#1073745152
	CMP	r6,r5
	JZ	.L67
.LM94:
	LD	r5,#1073745280
	CMP	r6,r5
	JZ	.L67
.LM95:
	LD	r5,#1073745408
	CMP	r6,r5
	JZ	.L67
	LD	r5,#1073750912
	CMP	r6,r5
	JZ	.L67
	MOV	r0,#0
.L67:
.LM96:
	LD	r5,#CHECK_RESTRICTION
	MOV	r8,r5
	LJMP	r5
.LVL56:
.LM97:
	MOV	r0,#1
	CMP	r7,r0
	JLS	.L69
	MOV	r0,#0
.L69:
	LJMP	r8
.LVL57:
.LM98:
	CMP	r7,#0
	JNZ	.L75
.LM99:
// inline asm begin
	// 232 "../src/kf32a9k1xxx_i2c.c" 1
	CLR [r6], #8
	// 0 "" 2
.LM100:
// inline asm end
	POP	{r6, r7, r8}
	.cfi_remember_state
	.cfi_def_cfa_offset 4
.LVL58:
	POP	lr
	.cfi_def_cfa_offset 0
	JMP	lr
.LVL59:
.L75:
	.cfi_restore_state
.LM101:
// inline asm begin
	// 227 "../src/kf32a9k1xxx_i2c.c" 1
	SET [r6], #8
	// 0 "" 2
.LM102:
// inline asm end
	POP	{r6, r7, r8}
	.cfi_def_cfa_offset 4
.LVL60:
	POP	lr
	.cfi_def_cfa_offset 0
	JMP	lr
	.cfi_endproc
.LFE6:
	.size	I2C_Generate_START, .-I2C_Generate_START
	.section .text$I2C_Generate_STOP
	.type	.text$I2C_Generate_STOP$scode_local_7, @function
	.text$I2C_Generate_STOP$scode_local_7:
	.align	1
	.export	I2C_Generate_STOP
	.type	I2C_Generate_STOP, @function
I2C_Generate_STOP:
.LFB7:
.LM103:
	.cfi_startproc
.LVL61:
	PUSH	{r6, r7, r8, lr}
	.cfi_def_cfa_offset 16
	MOV	r6,r0
	MOV	r7,r1
.LM104:
	MOV	r0,#1
.LVL62:
	LD	r5,#1073745152
	CMP	r6,r5
	JZ	.L77
.LM105:
	LD	r5,#1073745280
	CMP	r6,r5
	JZ	.L77
.LM106:
	LD	r5,#1073745408
	CMP	r6,r5
	JZ	.L77
	LD	r5,#1073750912
	CMP	r6,r5
	JZ	.L77
	MOV	r0,#0
.L77:
.LM107:
	LD	r5,#CHECK_RESTRICTION
	MOV	r8,r5
	LJMP	r5
.LVL63:
.LM108:
	MOV	r0,#1
	CMP	r7,r0
	JLS	.L79
	MOV	r0,#0
.L79:
	LJMP	r8
.LVL64:
.LM109:
	CMP	r7,#0
	JNZ	.L85
.LM110:
// inline asm begin
	// 258 "../src/kf32a9k1xxx_i2c.c" 1
	CLR [r6], #10
	// 0 "" 2
.LM111:
// inline asm end
	POP	{r6, r7, r8}
	.cfi_remember_state
	.cfi_def_cfa_offset 4
.LVL65:
	POP	lr
	.cfi_def_cfa_offset 0
	JMP	lr
.LVL66:
.L85:
	.cfi_restore_state
.LM112:
// inline asm begin
	// 253 "../src/kf32a9k1xxx_i2c.c" 1
	SET [r6], #10
	// 0 "" 2
.LM113:
// inline asm end
	POP	{r6, r7, r8}
	.cfi_def_cfa_offset 4
.LVL67:
	POP	lr
	.cfi_def_cfa_offset 0
	JMP	lr
	.cfi_endproc
.LFE7:
	.size	I2C_Generate_STOP, .-I2C_Generate_STOP
	.section .text$I2C_Ack_Config
	.type	.text$I2C_Ack_Config$scode_local_8, @function
	.text$I2C_Ack_Config$scode_local_8:
	.align	1
	.export	I2C_Ack_Config
	.type	I2C_Ack_Config, @function
I2C_Ack_Config:
.LFB8:
.LM114:
	.cfi_startproc
.LVL68:
	PUSH	{r6, r7, r8, lr}
	.cfi_def_cfa_offset 16
	MOV	r6,r0
	MOV	r7,r1
.LM115:
	MOV	r0,#1
.LVL69:
	LD	r5,#1073745152
	CMP	r6,r5
	JZ	.L87
.LM116:
	LD	r5,#1073745280
	CMP	r6,r5
	JZ	.L87
.LM117:
	LD	r5,#1073745408
	CMP	r6,r5
	JZ	.L87
	LD	r5,#1073750912
	CMP	r6,r5
	JZ	.L87
	MOV	r0,#0
.L87:
.LM118:
	LD	r5,#CHECK_RESTRICTION
	MOV	r8,r5
	LJMP	r5
.LVL70:
.LM119:
	MOV	r0,#1
	CMP	r7,r0
	JLS	.L89
	MOV	r0,#0
.L89:
	LJMP	r8
.LVL71:
.LM120:
	CMP	r7,#0
	JNZ	.L95
.LM121:
// inline asm begin
	// 284 "../src/kf32a9k1xxx_i2c.c" 1
	CLR [r6], #12
	// 0 "" 2
.LM122:
// inline asm end
	POP	{r6, r7, r8}
	.cfi_remember_state
	.cfi_def_cfa_offset 4
.LVL72:
	POP	lr
	.cfi_def_cfa_offset 0
	JMP	lr
.LVL73:
.L95:
	.cfi_restore_state
.LM123:
// inline asm begin
	// 279 "../src/kf32a9k1xxx_i2c.c" 1
	SET [r6], #12
	// 0 "" 2
.LM124:
// inline asm end
	POP	{r6, r7, r8}
	.cfi_def_cfa_offset 4
.LVL74:
	POP	lr
	.cfi_def_cfa_offset 0
	JMP	lr
	.cfi_endproc
.LFE8:
	.size	I2C_Ack_Config, .-I2C_Ack_Config
	.section .text$I2C_Ack_DATA_Config
	.type	.text$I2C_Ack_DATA_Config$scode_local_9, @function
	.text$I2C_Ack_DATA_Config$scode_local_9:
	.align	1
	.export	I2C_Ack_DATA_Config
	.type	I2C_Ack_DATA_Config, @function
I2C_Ack_DATA_Config:
.LFB9:
.LM125:
	.cfi_startproc
.LVL75:
	PUSH	{r6, r7, r8, lr}
	.cfi_def_cfa_offset 16
	MOV	r6,r0
	MOV	r8,r1
.LM126:
	MOV	r0,#1
.LVL76:
	LD	r5,#1073745152
	CMP	r6,r5
	JZ	.L97
.LM127:
	LD	r5,#1073745280
	CMP	r6,r5
	JZ	.L97
.LM128:
	LD	r5,#1073745408
	CMP	r6,r5
	JZ	.L97
	LD	r5,#1073750912
	CMP	r6,r5
	JZ	.L97
	MOV	r0,#0
.L97:
.LM129:
	LD	r7,#CHECK_RESTRICTION
	LJMP	r7
.LVL77:
.LM130:
	MOV	r0,#1
	CMP	r8,#0
	JZ	.L99
.LM131:
	MOV	r5,#1
	LSL	r5,#13
	CMP	r8,r5
	JZ	.L100
	MOV	r0,#0
.L100:
	LJMP	r7
.LVL78:
.LM132:
// inline asm begin
	// 307 "../src/kf32a9k1xxx_i2c.c" 1
	SET [r6], #13
	// 0 "" 2
.LM133:
// inline asm end
	POP	{r6, r7, r8}
	.cfi_remember_state
	.cfi_def_cfa_offset 4
.LVL79:
	POP	lr
	.cfi_def_cfa_offset 0
	JMP	lr
.LVL80:
.L99:
	.cfi_restore_state
.LM134:
	LJMP	r7
.LVL81:
.LM135:
// inline asm begin
	// 312 "../src/kf32a9k1xxx_i2c.c" 1
	CLR [r6], #13
	// 0 "" 2
.LM136:
// inline asm end
	POP	{r6, r7, r8}
	.cfi_def_cfa_offset 4
.LVL82:
	POP	lr
	.cfi_def_cfa_offset 0
	JMP	lr
	.cfi_endproc
.LFE9:
	.size	I2C_Ack_DATA_Config, .-I2C_Ack_DATA_Config
	.section .text$I2C_Call_Cmd
	.type	.text$I2C_Call_Cmd$scode_local_10, @function
	.text$I2C_Call_Cmd$scode_local_10:
	.align	1
	.export	I2C_Call_Cmd
	.type	I2C_Call_Cmd, @function
I2C_Call_Cmd:
.LFB10:
.LM137:
	.cfi_startproc
.LVL83:
	PUSH	{r6, r7, r8, lr}
	.cfi_def_cfa_offset 16
	MOV	r6,r0
	MOV	r7,r1
.LM138:
	MOV	r0,#1
.LVL84:
	LD	r5,#1073745152
	CMP	r6,r5
	JZ	.L106
.LM139:
	LD	r5,#1073745280
	CMP	r6,r5
	JZ	.L106
.LM140:
	LD	r5,#1073745408
	CMP	r6,r5
	JZ	.L106
	LD	r5,#1073750912
	CMP	r6,r5
	JZ	.L106
	MOV	r0,#0
.L106:
.LM141:
	LD	r5,#CHECK_RESTRICTION
	MOV	r8,r5
	LJMP	r5
.LVL85:
.LM142:
	MOV	r0,#1
	CMP	r7,r0
	JLS	.L108
	MOV	r0,#0
.L108:
	LJMP	r8
.LVL86:
.LM143:
	CMP	r7,#0
	JNZ	.L114
.LM144:
// inline asm begin
	// 338 "../src/kf32a9k1xxx_i2c.c" 1
	CLR [r6], #14
	// 0 "" 2
.LM145:
// inline asm end
	POP	{r6, r7, r8}
	.cfi_remember_state
	.cfi_def_cfa_offset 4
.LVL87:
	POP	lr
	.cfi_def_cfa_offset 0
	JMP	lr
.LVL88:
.L114:
	.cfi_restore_state
.LM146:
// inline asm begin
	// 333 "../src/kf32a9k1xxx_i2c.c" 1
	SET [r6], #14
	// 0 "" 2
.LM147:
// inline asm end
	POP	{r6, r7, r8}
	.cfi_def_cfa_offset 4
.LVL89:
	POP	lr
	.cfi_def_cfa_offset 0
	JMP	lr
	.cfi_endproc
.LFE10:
	.size	I2C_Call_Cmd, .-I2C_Call_Cmd
	.section .text$I2C_Clock_Config
	.type	.text$I2C_Clock_Config$scode_local_11, @function
	.text$I2C_Clock_Config$scode_local_11:
	.align	1
	.export	I2C_Clock_Config
	.type	I2C_Clock_Config, @function
I2C_Clock_Config:
.LFB11:
.LM148:
	.cfi_startproc
.LVL90:
	PUSH	{r6, r7, r8, lr}
	.cfi_def_cfa_offset 16
	MOV	r6,r0
	MOV	r7,r1
.LM149:
	MOV	r0,#1
.LVL91:
	LD	r5,#1073745152
	CMP	r6,r5
	JZ	.L116
.LM150:
	LD	r5,#1073745280
	CMP	r6,r5
	JZ	.L116
.LM151:
	LD	r5,#1073745408
	CMP	r6,r5
	JZ	.L116
	LD	r5,#1073750912
	CMP	r6,r5
	JZ	.L116
	MOV	r0,#0
.L116:
.LM152:
	LD	r5,#CHECK_RESTRICTION
	MOV	r8,r5
	LJMP	r5
.LVL92:
.LM153:
	MOV	r0,#1
	CMP	r7,#0
	JZ	.L118
.LM154:
	MOV	r5,#1
	LSL	r5,#16
	CMP	r7,r5
	JZ	.L118
.LM155:
	MOV	r5,#1
	LSL	r5,#17
	CMP	r7,r5
	JZ	.L118
	MOV	r0,#0
.L118:
.LM156:
	LJMP	r8
.LVL93:
.LM157:
	LD.w	r5,[r6]
.LVL94:
.LBB22:
.LBB23:
.LM158:
	CLR	r5,#16
	CLR	r5,#17
.LVL95:
	ORL	r7,r7,r5
.LVL96:
.LBE23:
.LBE22:
.LM159:
	ST.w	[r6],r7
.LM160:
	POP	{r6, r7, r8}
	.cfi_def_cfa_offset 4
	POP	lr
	.cfi_def_cfa_offset 0
	JMP	lr
	.cfi_endproc
.LFE11:
	.size	I2C_Clock_Config, .-I2C_Clock_Config
	.section .text$I2C_MATCH_ADDRESS_Config
	.type	.text$I2C_MATCH_ADDRESS_Config$scode_local_12, @function
	.text$I2C_MATCH_ADDRESS_Config$scode_local_12:
	.align	1
	.export	I2C_MATCH_ADDRESS_Config
	.type	I2C_MATCH_ADDRESS_Config, @function
I2C_MATCH_ADDRESS_Config:
.LFB12:
.LM161:
	.cfi_startproc
.LVL97:
	PUSH	{r6, r7, r8, lr}
	.cfi_def_cfa_offset 16
	MOV	r6,r0
	MOV	r7,r1
.LM162:
	MOV	r0,#1
.LVL98:
	LD	r5,#1073745152
	CMP	r6,r5
	JZ	.L127
.LM163:
	LD	r5,#1073745280
	CMP	r6,r5
	JZ	.L127
.LM164:
	LD	r5,#1073745408
	CMP	r6,r5
	JZ	.L127
	LD	r5,#1073750912
	CMP	r6,r5
	JZ	.L127
	MOV	r0,#0
.L127:
.LM165:
	LD	r5,#CHECK_RESTRICTION
	MOV	r8,r5
	LJMP	r5
.LVL99:
.LM166:
	MOV	r0,#1
	CMP	r7,r0
	JLS	.L129
	MOV	r0,#0
.L129:
	LJMP	r8
.LVL100:
.LM167:
	CMP	r7,#0
	JNZ	.L135
.LM168:
// inline asm begin
	// 383 "../src/kf32a9k1xxx_i2c.c" 1
	CLR [r6], #20
	// 0 "" 2
.LM169:
// inline asm end
	POP	{r6, r7, r8}
	.cfi_remember_state
	.cfi_def_cfa_offset 4
.LVL101:
	POP	lr
	.cfi_def_cfa_offset 0
	JMP	lr
.LVL102:
.L135:
	.cfi_restore_state
.LM170:
// inline asm begin
	// 378 "../src/kf32a9k1xxx_i2c.c" 1
	SET [r6], #20
	// 0 "" 2
.LM171:
// inline asm end
	POP	{r6, r7, r8}
	.cfi_def_cfa_offset 4
.LVL103:
	POP	lr
	.cfi_def_cfa_offset 0
	JMP	lr
	.cfi_endproc
.LFE12:
	.size	I2C_MATCH_ADDRESS_Config, .-I2C_MATCH_ADDRESS_Config
	.section .text$I2C_SCL_Enable
	.type	.text$I2C_SCL_Enable$scode_local_13, @function
	.text$I2C_SCL_Enable$scode_local_13:
	.align	1
	.export	I2C_SCL_Enable
	.type	I2C_SCL_Enable, @function
I2C_SCL_Enable:
.LFB13:
.LM172:
	.cfi_startproc
.LVL104:
	PUSH	{r6, r7, r8, lr}
	.cfi_def_cfa_offset 16
	MOV	r6,r0
	MOV	r7,r1
.LM173:
	MOV	r0,#1
.LVL105:
	LD	r5,#1073745152
	CMP	r6,r5
	JZ	.L137
.LM174:
	LD	r5,#1073745280
	CMP	r6,r5
	JZ	.L137
.LM175:
	LD	r5,#1073745408
	CMP	r6,r5
	JZ	.L137
	LD	r5,#1073750912
	CMP	r6,r5
	JZ	.L137
	MOV	r0,#0
.L137:
.LM176:
	LD	r5,#CHECK_RESTRICTION
	MOV	r8,r5
	LJMP	r5
.LVL106:
.LM177:
	MOV	r0,#1
	CMP	r7,r0
	JLS	.L139
	MOV	r0,#0
.L139:
	LJMP	r8
.LVL107:
.LM178:
	CMP	r7,#0
	JNZ	.L145
.LM179:
// inline asm begin
	// 409 "../src/kf32a9k1xxx_i2c.c" 1
	CLR [r6], #21
	// 0 "" 2
.LM180:
// inline asm end
	POP	{r6, r7, r8}
	.cfi_remember_state
	.cfi_def_cfa_offset 4
.LVL108:
	POP	lr
	.cfi_def_cfa_offset 0
	JMP	lr
.LVL109:
.L145:
	.cfi_restore_state
.LM181:
// inline asm begin
	// 404 "../src/kf32a9k1xxx_i2c.c" 1
	SET [r6], #21
	// 0 "" 2
.LM182:
// inline asm end
	POP	{r6, r7, r8}
	.cfi_def_cfa_offset 4
.LVL110:
	POP	lr
	.cfi_def_cfa_offset 0
	JMP	lr
	.cfi_endproc
.LFE13:
	.size	I2C_SCL_Enable, .-I2C_SCL_Enable
	.section .text$I2C_NMENA_Enable
	.type	.text$I2C_NMENA_Enable$scode_local_14, @function
	.text$I2C_NMENA_Enable$scode_local_14:
	.align	1
	.export	I2C_NMENA_Enable
	.type	I2C_NMENA_Enable, @function
I2C_NMENA_Enable:
.LFB14:
.LM183:
	.cfi_startproc
.LVL111:
	PUSH	{r6, r7, r8, lr}
	.cfi_def_cfa_offset 16
	MOV	r6,r0
	MOV	r7,r1
.LM184:
	MOV	r0,#1
.LVL112:
	LD	r5,#1073745152
	CMP	r6,r5
	JZ	.L147
.LM185:
	LD	r5,#1073745280
	CMP	r6,r5
	JZ	.L147
.LM186:
	LD	r5,#1073745408
	CMP	r6,r5
	JZ	.L147
	LD	r5,#1073750912
	CMP	r6,r5
	JZ	.L147
	MOV	r0,#0
.L147:
.LM187:
	LD	r5,#CHECK_RESTRICTION
	MOV	r8,r5
	LJMP	r5
.LVL113:
.LM188:
	MOV	r0,#1
	CMP	r7,r0
	JLS	.L149
	MOV	r0,#0
.L149:
	LJMP	r8
.LVL114:
.LM189:
	CMP	r7,#0
	JNZ	.L155
.LM190:
// inline asm begin
	// 435 "../src/kf32a9k1xxx_i2c.c" 1
	CLR [r6], #22
	// 0 "" 2
.LM191:
// inline asm end
	POP	{r6, r7, r8}
	.cfi_remember_state
	.cfi_def_cfa_offset 4
.LVL115:
	POP	lr
	.cfi_def_cfa_offset 0
	JMP	lr
.LVL116:
.L155:
	.cfi_restore_state
.LM192:
// inline asm begin
	// 430 "../src/kf32a9k1xxx_i2c.c" 1
	SET [r6], #22
	// 0 "" 2
.LM193:
// inline asm end
	POP	{r6, r7, r8}
	.cfi_def_cfa_offset 4
.LVL117:
	POP	lr
	.cfi_def_cfa_offset 0
	JMP	lr
	.cfi_endproc
.LFE14:
	.size	I2C_NMENA_Enable, .-I2C_NMENA_Enable
	.section .text$I2C_SMBUS_Enable
	.type	.text$I2C_SMBUS_Enable$scode_local_15, @function
	.text$I2C_SMBUS_Enable$scode_local_15:
	.align	1
	.export	I2C_SMBUS_Enable
	.type	I2C_SMBUS_Enable, @function
I2C_SMBUS_Enable:
.LFB15:
.LM194:
	.cfi_startproc
.LVL118:
	PUSH	{r6, r7, r8, lr}
	.cfi_def_cfa_offset 16
	MOV	r6,r0
	MOV	r8,r1
.LM195:
	MOV	r0,#1
.LVL119:
	LD	r5,#1073745152
	CMP	r6,r5
	JZ	.L157
.LM196:
	LD	r5,#1073745280
	CMP	r6,r5
	JZ	.L157
.LM197:
	LD	r5,#1073745408
	CMP	r6,r5
	JZ	.L157
	LD	r5,#1073750912
	CMP	r6,r5
	JZ	.L157
	MOV	r0,#0
.L157:
.LM198:
	LD	r7,#CHECK_RESTRICTION
	LJMP	r7
.LVL120:
.LM199:
	MOV	r0,#1
	CMP	r8,#0
	JZ	.L159
.LM200:
	MOV	r5,#1
	LSL	r5,#24
	CMP	r8,r5
	JZ	.L160
	MOV	r0,#0
.L160:
	LJMP	r7
.LVL121:
.LM201:
// inline asm begin
	// 458 "../src/kf32a9k1xxx_i2c.c" 1
	SET [r6], #24
	// 0 "" 2
.LM202:
// inline asm end
	POP	{r6, r7, r8}
	.cfi_remember_state
	.cfi_def_cfa_offset 4
.LVL122:
	POP	lr
	.cfi_def_cfa_offset 0
	JMP	lr
.LVL123:
.L159:
	.cfi_restore_state
.LM203:
	LJMP	r7
.LVL124:
.LM204:
// inline asm begin
	// 463 "../src/kf32a9k1xxx_i2c.c" 1
	CLR [r6], #24
	// 0 "" 2
.LM205:
// inline asm end
	POP	{r6, r7, r8}
	.cfi_def_cfa_offset 4
.LVL125:
	POP	lr
	.cfi_def_cfa_offset 0
	JMP	lr
	.cfi_endproc
.LFE15:
	.size	I2C_SMBUS_Enable, .-I2C_SMBUS_Enable
	.section .text$I2C_SMBT_Config
	.type	.text$I2C_SMBT_Config$scode_local_16, @function
	.text$I2C_SMBT_Config$scode_local_16:
	.align	1
	.export	I2C_SMBT_Config
	.type	I2C_SMBT_Config, @function
I2C_SMBT_Config:
.LFB16:
.LM206:
	.cfi_startproc
.LVL126:
	PUSH	{r6, r7, r8, lr}
	.cfi_def_cfa_offset 16
	MOV	r6,r0
	MOV	r8,r1
.LM207:
	MOV	r0,#1
.LVL127:
	LD	r5,#1073745152
	CMP	r6,r5
	JZ	.L166
.LM208:
	LD	r5,#1073745280
	CMP	r6,r5
	JZ	.L166
.LM209:
	LD	r5,#1073745408
	CMP	r6,r5
	JZ	.L166
	LD	r5,#1073750912
	CMP	r6,r5
	JZ	.L166
	MOV	r0,#0
.L166:
.LM210:
	LD	r7,#CHECK_RESTRICTION
	LJMP	r7
.LVL128:
.LM211:
	MOV	r0,#1
	CMP	r8,#0
	JZ	.L168
.LM212:
	MOV	r5,#1
	LSL	r5,#25
	CMP	r8,r5
	JZ	.L169
	MOV	r0,#0
.L169:
	LJMP	r7
.LVL129:
.LM213:
// inline asm begin
	// 486 "../src/kf32a9k1xxx_i2c.c" 1
	SET [r6], #25
	// 0 "" 2
.LM214:
// inline asm end
	POP	{r6, r7, r8}
	.cfi_remember_state
	.cfi_def_cfa_offset 4
.LVL130:
	POP	lr
	.cfi_def_cfa_offset 0
	JMP	lr
.LVL131:
.L168:
	.cfi_restore_state
.LM215:
	LJMP	r7
.LVL132:
.LM216:
// inline asm begin
	// 491 "../src/kf32a9k1xxx_i2c.c" 1
	CLR [r6], #25
	// 0 "" 2
.LM217:
// inline asm end
	POP	{r6, r7, r8}
	.cfi_def_cfa_offset 4
.LVL133:
	POP	lr
	.cfi_def_cfa_offset 0
	JMP	lr
	.cfi_endproc
.LFE16:
	.size	I2C_SMBT_Config, .-I2C_SMBT_Config
	.section .text$I2C_SMBus_ALERT_Config
	.type	.text$I2C_SMBus_ALERT_Config$scode_local_17, @function
	.text$I2C_SMBus_ALERT_Config$scode_local_17:
	.align	1
	.export	I2C_SMBus_ALERT_Config
	.type	I2C_SMBus_ALERT_Config, @function
I2C_SMBus_ALERT_Config:
.LFB17:
.LM218:
	.cfi_startproc
.LVL134:
	PUSH	{r6, r7, r8, lr}
	.cfi_def_cfa_offset 16
	MOV	r6,r0
	MOV	r7,r1
.LM219:
	MOV	r0,#1
.LVL135:
	LD	r5,#1073745152
	CMP	r6,r5
	JZ	.L175
.LM220:
	LD	r5,#1073745280
	CMP	r6,r5
	JZ	.L175
.LM221:
	LD	r5,#1073745408
	CMP	r6,r5
	JZ	.L175
	LD	r5,#1073750912
	CMP	r6,r5
	JZ	.L175
	MOV	r0,#0
.L175:
.LM222:
	LD	r5,#CHECK_RESTRICTION
	MOV	r8,r5
	LJMP	r5
.LVL136:
.LM223:
	MOV	r0,#1
	CMP	r7,r0
	JLS	.L177
	MOV	r0,#0
.L177:
	LJMP	r8
.LVL137:
.LM224:
	CMP	r7,#0
	JNZ	.L183
.LM225:
// inline asm begin
	// 517 "../src/kf32a9k1xxx_i2c.c" 1
	CLR [r6], #27
	// 0 "" 2
.LM226:
// inline asm end
	POP	{r6, r7, r8}
	.cfi_remember_state
	.cfi_def_cfa_offset 4
.LVL138:
	POP	lr
	.cfi_def_cfa_offset 0
	JMP	lr
.LVL139:
.L183:
	.cfi_restore_state
.LM227:
// inline asm begin
	// 512 "../src/kf32a9k1xxx_i2c.c" 1
	SET [r6], #27
	// 0 "" 2
.LM228:
// inline asm end
	POP	{r6, r7, r8}
	.cfi_def_cfa_offset 4
.LVL140:
	POP	lr
	.cfi_def_cfa_offset 0
	JMP	lr
	.cfi_endproc
.LFE17:
	.size	I2C_SMBus_ALERT_Config, .-I2C_SMBus_ALERT_Config
	.section .text$I2C_SendData
	.type	.text$I2C_SendData$scode_local_18, @function
	.text$I2C_SendData$scode_local_18:
	.align	1
	.export	I2C_SendData
	.type	I2C_SendData, @function
I2C_SendData:
.LFB18:
.LM229:
	.cfi_startproc
.LVL141:
	PUSH	{r6, r7, r8, lr}
	.cfi_def_cfa_offset 16
	MOV	r6,r0
	MOV	r7,r1
.LM230:
	LD	r5,#1073745152
	CMP	r0,r5
	JZ	.L189
.LM231:
	LD	r5,#1073745280
	CMP	r0,r5
	JZ	.L189
.LM232:
	LD	r5,#1073745408
	MOV	r0,#1
.LVL142:
	CMP	r6,r5
	JZ	.L185
	LD	r5,#1073750912
	CMP	r6,r5
	JZ	.L185
	MOV	r0,#0
.L185:
.LM233:
	LD	r4,#CHECK_RESTRICTION
	MOV	r8,r4
	LJMP	r4
.LVL143:
.LM234:
	MOV	r4,#10
	LSR	r5,r7,r4
	MOV	r0,#1
	CMP	r5,#0
	JZ	.L187
	MOV	r0,#0
.L187:
	LJMP	r8
.LVL144:
.LM235:
	ST.w	[r6+#2],r7
.LM236:
	POP	{r6, r7, r8}
	.cfi_remember_state
	.cfi_def_cfa_offset 4
.LVL145:
	POP	lr
	.cfi_def_cfa_offset 0
	JMP	lr
.LVL146:
.L189:
	.cfi_restore_state
.LM237:
	MOV	r0,#1
.LVL147:
	JMP	.L185
	.cfi_endproc
.LFE18:
	.size	I2C_SendData, .-I2C_SendData
	.section .text$I2C_SendData8
	.type	.text$I2C_SendData8$scode_local_19, @function
	.text$I2C_SendData8$scode_local_19:
	.align	1
	.export	I2C_SendData8
	.type	I2C_SendData8, @function
I2C_SendData8:
.LFB19:
.LM238:
	.cfi_startproc
.LVL148:
	PUSH	{r6, r7, r8, lr}
	.cfi_def_cfa_offset 16
	MOV	r6,r0
	ZXT.b	r8,r1
.LM239:
	LD	r5,#1073745152
	CMP	r0,r5
	JZ	.L198
.LM240:
	LD	r5,#1073745280
	CMP	r0,r5
	JZ	.L198
.LM241:
	LD	r5,#1073745408
	MOV	r0,#1
.LVL149:
	CMP	r6,r5
	JZ	.L195
	LD	r5,#1073750912
	CMP	r6,r5
	JZ	.L195
	MOV	r0,#0
.L195:
.LM242:
	LD	r7,#CHECK_RESTRICTION
	LJMP	r7
.LVL150:
.LM243:
	MOV	r0,#1
	LJMP	r7
.LVL151:
.LM244:
	MOV	r5,r8
	ST.w	[r6+#2],r5
.LM245:
	POP	{r6, r7, r8}
	.cfi_remember_state
	.cfi_def_cfa_offset 4
.LVL152:
	POP	lr
	.cfi_def_cfa_offset 0
	JMP	lr
.LVL153:
.L198:
	.cfi_restore_state
.LM246:
	MOV	r0,#1
.LVL154:
	JMP	.L195
	.cfi_endproc
.LFE19:
	.size	I2C_SendData8, .-I2C_SendData8
	.section .text$I2C_ReceiveData
	.type	.text$I2C_ReceiveData$scode_local_20, @function
	.text$I2C_ReceiveData$scode_local_20:
	.align	1
	.export	I2C_ReceiveData
	.type	I2C_ReceiveData, @function
I2C_ReceiveData:
.LFB20:
.LM247:
	.cfi_startproc
.LVL155:
	PUSH	{r6, lr}
	.cfi_def_cfa_offset 8
	MOV	r6,r0
.LVL156:
.LM248:
	LD	r5,#1073745152
	CMP	r0,r5
	JZ	.L204
.LM249:
	LD	r5,#1073745280
	CMP	r0,r5
	JZ	.L204
.LM250:
	LD	r5,#1073745408
	MOV	r0,#1
.LVL157:
	CMP	r6,r5
	JZ	.L201
	LD	r5,#1073750912
	CMP	r6,r5
	JZ	.L201
	MOV	r0,#0
.L201:
.LM251:
	LD	r5,#CHECK_RESTRICTION
	LJMP	r5
.LVL158:
.LM252:
	LD.w	r0,[r6+#2]
.LVL159:
.LM253:
	LD	r5,#1023
	ANL	r0,r0,r5
.LVL160:
	POP	r6
	.cfi_remember_state
	.cfi_def_cfa_offset 4
.LVL161:
	POP	lr
	.cfi_def_cfa_offset 0
	JMP	lr
.LVL162:
.L204:
	.cfi_restore_state
.LM254:
	MOV	r0,#1
.LVL163:
	LD	r5,#CHECK_RESTRICTION
	LJMP	r5
.LVL164:
.LM255:
	LD.w	r0,[r6+#2]
.LVL165:
.LM256:
	LD	r5,#1023
	ANL	r0,r0,r5
.LVL166:
	POP	r6
	.cfi_def_cfa_offset 4
.LVL167:
	POP	lr
	.cfi_def_cfa_offset 0
	JMP	lr
	.cfi_endproc
.LFE20:
	.size	I2C_ReceiveData, .-I2C_ReceiveData
	.section .text$I2C_ARP_Enable
	.type	.text$I2C_ARP_Enable$scode_local_21, @function
	.text$I2C_ARP_Enable$scode_local_21:
	.align	1
	.export	I2C_ARP_Enable
	.type	I2C_ARP_Enable, @function
I2C_ARP_Enable:
.LFB21:
.LM257:
	.cfi_startproc
.LVL168:
	PUSH	{r6, r7, r8, lr}
	.cfi_def_cfa_offset 16
	MOV	r6,r0
	MOV	r7,r1
.LM258:
	MOV	r0,#1
.LVL169:
	LD	r5,#1073745152
	CMP	r6,r5
	JZ	.L207
.LM259:
	LD	r5,#1073745280
	CMP	r6,r5
	JZ	.L207
.LM260:
	LD	r5,#1073745408
	CMP	r6,r5
	JZ	.L207
	LD	r5,#1073750912
	CMP	r6,r5
	JZ	.L207
	MOV	r0,#0
.L207:
.LM261:
	LD	r5,#CHECK_RESTRICTION
	MOV	r8,r5
	LJMP	r5
.LVL170:
.LM262:
	MOV	r0,#1
	CMP	r7,r0
	JLS	.L209
	MOV	r0,#0
.L209:
	LJMP	r8
.LVL171:
.LM263:
	CMP	r7,#0
	JNZ	.L215
.LM264:
// inline asm begin
	// 597 "../src/kf32a9k1xxx_i2c.c" 1
	CLR [r6], #26
	// 0 "" 2
.LM265:
// inline asm end
	POP	{r6, r7, r8}
	.cfi_remember_state
	.cfi_def_cfa_offset 4
.LVL172:
	POP	lr
	.cfi_def_cfa_offset 0
	JMP	lr
.LVL173:
.L215:
	.cfi_restore_state
.LM266:
// inline asm begin
	// 592 "../src/kf32a9k1xxx_i2c.c" 1
	SET [r6], #26
	// 0 "" 2
.LM267:
// inline asm end
	POP	{r6, r7, r8}
	.cfi_def_cfa_offset 4
.LVL174:
	POP	lr
	.cfi_def_cfa_offset 0
	JMP	lr
	.cfi_endproc
.LFE21:
	.size	I2C_ARP_Enable, .-I2C_ARP_Enable
	.section .text$I2C_ADDR_Config
	.type	.text$I2C_ADDR_Config$scode_local_22, @function
	.text$I2C_ADDR_Config$scode_local_22:
	.align	1
	.export	I2C_ADDR_Config
	.type	I2C_ADDR_Config, @function
I2C_ADDR_Config:
.LFB22:
.LM268:
	.cfi_startproc
.LVL175:
	PUSH	{r6, r7, r8, r9, lr}
	.cfi_def_cfa_offset 20
	MOV	r6,r0
	MOV	r8,r1
	MOV	r9,r2
.LVL176:
.LM269:
	MOV	r0,#1
.LVL177:
	LD	r5,#1073745152
	CMP	r6,r5
	JZ	.L217
.LM270:
	LD	r5,#1073745280
	CMP	r6,r5
	JZ	.L217
.LM271:
	LD	r5,#1073745408
	CMP	r6,r5
	JZ	.L217
	LD	r5,#1073750912
	CMP	r6,r5
	JZ	.L217
	MOV	r0,#0
.L217:
.LM272:
	LD	r7,#CHECK_RESTRICTION
	LJMP	r7
.LVL178:
.LM273:
	MOV	r0,#1
	CMP	r8,#3
	JLS	.L219
	MOV	r0,#0
.L219:
	LJMP	r7
.LVL179:
.LM274:
	MOV	r5,r9
	LSR	r5,#10
	MOV	r0,#1
	CMP	r5,#0
	JZ	.L220
	MOV	r0,#0
.L220:
	LJMP	r7
.LVL180:
.LM275:
	CMP	r8,#0
	JZ	.L229
.LM276:
	ADD	r6,#16
.LVL181:
	LSL	r8,#2
.LVL182:
	ADD	r6,r8
.LVL183:
.LM277:
	LD.w	r4,[r6]
.LVL184:
.LBB24:
.LBB25:
.LM278:
	LD	r5,#-1024
	ANL	r5,r4,r5
	ORL	r5,r9
.LBE25:
.LBE24:
.LM279:
	ST.w	[r6],r5
.LM280:
	POP	{r6, r7, r8, r9}
	.cfi_remember_state
	.cfi_def_cfa_offset 4
.LVL185:
	POP	lr
	.cfi_def_cfa_offset 0
	JMP	lr
.LVL186:
.L229:
	.cfi_restore_state
.LM281:
	ADD	r6,#12
.LVL187:
.LM282:
	LD.w	r4,[r6]
.LVL188:
.LBB27:
.LBB26:
.LM283:
	LD	r5,#-1024
	ANL	r5,r4,r5
	ORL	r5,r9
.LBE26:
.LBE27:
.LM284:
	ST.w	[r6],r5
.LM285:
	POP	{r6, r7, r8, r9}
	.cfi_def_cfa_offset 4
.LVL189:
	POP	lr
	.cfi_def_cfa_offset 0
	JMP	lr
	.cfi_endproc
.LFE22:
	.size	I2C_ADDR_Config, .-I2C_ADDR_Config
	.section .text$I2C_MSK_Config
	.type	.text$I2C_MSK_Config$scode_local_23, @function
	.text$I2C_MSK_Config$scode_local_23:
	.align	1
	.export	I2C_MSK_Config
	.type	I2C_MSK_Config, @function
I2C_MSK_Config:
.LFB23:
.LM286:
	.cfi_startproc
.LVL190:
	PUSH	{r6, r7, r8, r9, lr}
	.cfi_def_cfa_offset 20
	MOV	r6,r0
	MOV	r8,r1
	MOV	r9,r2
.LVL191:
.LM287:
	MOV	r0,#1
.LVL192:
	LD	r5,#1073745152
	CMP	r6,r5
	JZ	.L231
.LM288:
	LD	r5,#1073745280
	CMP	r6,r5
	JZ	.L231
.LM289:
	LD	r5,#1073745408
	CMP	r6,r5
	JZ	.L231
	LD	r5,#1073750912
	CMP	r6,r5
	JZ	.L231
	MOV	r0,#0
.L231:
.LM290:
	LD	r7,#CHECK_RESTRICTION
	LJMP	r7
.LVL193:
.LM291:
	MOV	r0,#1
	CMP	r8,#3
	JLS	.L233
	MOV	r0,#0
.L233:
	LJMP	r7
.LVL194:
.LM292:
	MOV	r5,r9
	LSR	r5,#10
	MOV	r0,#1
	CMP	r5,#0
	JZ	.L234
	MOV	r0,#0
.L234:
	LJMP	r7
.LVL195:
.LM293:
	LSL	r9,#16
.LVL196:
.LM294:
	CMP	r8,#0
	JZ	.L243
.LM295:
	ADD	r6,#16
.LVL197:
	LSL	r8,#2
.LVL198:
	ADD	r6,r8
.LVL199:
.LM296:
	LD.w	r4,[r6]
.LVL200:
.LBB28:
.LBB29:
.LM297:
	LD	r5,#-67043329
	ANL	r5,r4,r5
	ORL	r5,r9
.LBE29:
.LBE28:
.LM298:
	ST.w	[r6],r5
.LM299:
	POP	{r6, r7, r8, r9}
	.cfi_remember_state
	.cfi_def_cfa_offset 4
.LVL201:
	POP	lr
	.cfi_def_cfa_offset 0
	JMP	lr
.LVL202:
.L243:
	.cfi_restore_state
.LM300:
	ADD	r6,#12
.LVL203:
.LM301:
	LD.w	r4,[r6]
.LVL204:
.LBB31:
.LBB30:
.LM302:
	LD	r5,#-67043329
	ANL	r5,r4,r5
	ORL	r5,r9
.LBE30:
.LBE31:
.LM303:
	ST.w	[r6],r5
.LM304:
	POP	{r6, r7, r8, r9}
	.cfi_def_cfa_offset 4
.LVL205:
	POP	lr
	.cfi_def_cfa_offset 0
	JMP	lr
	.cfi_endproc
.LFE23:
	.size	I2C_MSK_Config, .-I2C_MSK_Config
	.section .text$I2C_BRGH_Config
	.type	.text$I2C_BRGH_Config$scode_local_24, @function
	.text$I2C_BRGH_Config$scode_local_24:
	.align	1
	.export	I2C_BRGH_Config
	.type	I2C_BRGH_Config, @function
I2C_BRGH_Config:
.LFB24:
.LM305:
	.cfi_startproc
.LVL206:
	PUSH	{r6, r7, lr}
	.cfi_def_cfa_offset 12
	MOV	r6,r0
	ZXT.h	r7,r1
.LVL207:
.LM306:
	LD	r5,#1073745152
	CMP	r0,r5
	JZ	.L248
.LM307:
	LD	r5,#1073745280
	CMP	r0,r5
	JZ	.L248
.LM308:
	LD	r5,#1073745408
	MOV	r0,#1
.LVL208:
	CMP	r6,r5
	JZ	.L245
	LD	r5,#1073750912
	CMP	r6,r5
	JZ	.L245
	MOV	r0,#0
.L245:
.LM309:
	LD	r5,#CHECK_RESTRICTION
	LJMP	r5
.LVL209:
.LM310:
	LD.w	r4,[r6+#4]
.LVL210:
.LBB32:
.LBB33:
.LM311:
	LD	r5,#-65536
	ANL	r5,r4,r5
	ORL	r7,r7,r5
.LVL211:
.LBE33:
.LBE32:
.LM312:
	ST.w	[r6+#4],r7
.LM313:
	POP	{r6, r7}
	.cfi_remember_state
	.cfi_def_cfa_offset 4
	POP	lr
	.cfi_def_cfa_offset 0
	JMP	lr
.LVL212:
.L248:
	.cfi_restore_state
.LM314:
	MOV	r0,#1
.LVL213:
	JMP	.L245
	.cfi_endproc
.LFE24:
	.size	I2C_BRGH_Config, .-I2C_BRGH_Config
	.section .text$I2C_BRGL_Config
	.type	.text$I2C_BRGL_Config$scode_local_25, @function
	.text$I2C_BRGL_Config$scode_local_25:
	.align	1
	.export	I2C_BRGL_Config
	.type	I2C_BRGL_Config, @function
I2C_BRGL_Config:
.LFB25:
.LM315:
	.cfi_startproc
.LVL214:
	PUSH	{r6, r7, lr}
	.cfi_def_cfa_offset 12
	MOV	r6,r0
	ZXT.h	r7,r1
.LVL215:
.LM316:
	LD	r5,#1073745152
	CMP	r0,r5
	JZ	.L254
.LM317:
	LD	r5,#1073745280
	CMP	r0,r5
	JZ	.L254
.LM318:
	LD	r5,#1073745408
	MOV	r0,#1
.LVL216:
	CMP	r6,r5
	JZ	.L251
	LD	r5,#1073750912
	CMP	r6,r5
	JZ	.L251
	MOV	r0,#0
.L251:
.LM319:
	LD	r5,#CHECK_RESTRICTION
	LJMP	r5
.LVL217:
.LM320:
	LD.w	r5,[r6+#4]
.LVL218:
.LM321:
	LSL	r7,#16
.LVL219:
.LBB34:
.LBB35:
.LM322:
	ZXT.h	r5,r5
.LVL220:
	ORL	r7,r7,r5
.LBE35:
.LBE34:
.LM323:
	ST.w	[r6+#4],r7
.LM324:
	POP	{r6, r7}
	.cfi_remember_state
	.cfi_def_cfa_offset 4
	POP	lr
	.cfi_def_cfa_offset 0
	JMP	lr
.LVL221:
.L254:
	.cfi_restore_state
.LM325:
	MOV	r0,#1
.LVL222:
	JMP	.L251
	.cfi_endproc
.LFE25:
	.size	I2C_BRGL_Config, .-I2C_BRGL_Config
	.section .text$I2C_CLOCK_Div_Config
	.type	.text$I2C_CLOCK_Div_Config$scode_local_26, @function
	.text$I2C_CLOCK_Div_Config$scode_local_26:
	.align	1
	.export	I2C_CLOCK_Div_Config
	.type	I2C_CLOCK_Div_Config, @function
I2C_CLOCK_Div_Config:
.LFB26:
.LM326:
	.cfi_startproc
.LVL223:
	PUSH	{r6, r7, r8, lr}
	.cfi_def_cfa_offset 16
	MOV	r6,r0
	MOV	r7,r1
.LVL224:
.LM327:
	LD	r5,#1073745152
	CMP	r0,r5
	JZ	.L261
.LM328:
	LD	r5,#1073745280
	CMP	r0,r5
	JZ	.L261
.LM329:
	LD	r5,#1073745408
	MOV	r0,#1
.LVL225:
	CMP	r6,r5
	JZ	.L257
	LD	r5,#1073750912
	CMP	r6,r5
	JZ	.L257
	MOV	r0,#0
.L257:
.LM330:
	LD	r5,#CHECK_RESTRICTION
	MOV	r8,r5
	LJMP	r5
.LVL226:
.LM331:
	MOV	r0,#1
	CMP	r7,#3
	JLS	.L259
	MOV	r0,#0
.L259:
	LJMP	r8
.LVL227:
.LM332:
	LD.w	r5,[r6]
.LVL228:
.LM333:
	LSL	r7,#18
.LVL229:
.LBB36:
.LBB37:
.LM334:
	CLR	r5,#18
	CLR	r5,#19
.LVL230:
	ORL	r7,r7,r5
.LVL231:
.LBE37:
.LBE36:
.LM335:
	ST.w	[r6],r7
.LM336:
	POP	{r6, r7, r8}
	.cfi_remember_state
	.cfi_def_cfa_offset 4
	POP	lr
	.cfi_def_cfa_offset 0
	JMP	lr
.LVL232:
.L261:
	.cfi_restore_state
.LM337:
	MOV	r0,#1
.LVL233:
	JMP	.L257
	.cfi_endproc
.LFE26:
	.size	I2C_CLOCK_Div_Config, .-I2C_CLOCK_Div_Config
	.section .text$I2C_Keep_Data_Time_Config
	.type	.text$I2C_Keep_Data_Time_Config$scode_local_27, @function
	.text$I2C_Keep_Data_Time_Config$scode_local_27:
	.align	1
	.export	I2C_Keep_Data_Time_Config
	.type	I2C_Keep_Data_Time_Config, @function
I2C_Keep_Data_Time_Config:
.LFB27:
.LM338:
	.cfi_startproc
.LVL234:
	PUSH	{r6, r7, r8, lr}
	.cfi_def_cfa_offset 16
	MOV	r6,r0
	MOV	r7,r1
.LVL235:
.LM339:
	LD	r5,#1073745152
	CMP	r0,r5
	JZ	.L268
.LM340:
	LD	r5,#1073745280
	CMP	r0,r5
	JZ	.L268
.LM341:
	LD	r5,#1073745408
	MOV	r0,#1
.LVL236:
	CMP	r6,r5
	JZ	.L264
	LD	r5,#1073750912
	CMP	r6,r5
	JZ	.L264
	MOV	r0,#0
.L264:
.LM342:
	LD	r5,#CHECK_RESTRICTION
	MOV	r8,r5
	LJMP	r5
.LVL237:
.LM343:
	MOV	r0,#1
	CMP	r7,#15
	JLS	.L266
	MOV	r0,#0
.L266:
	LJMP	r8
.LVL238:
.LM344:
	LD.w	r4,[r6]
.LVL239:
.LM345:
	LSL	r7,#2
.LVL240:
.LBB38:
.LBB39:
.LM346:
	MOV	r5,#60
	NOT	r5,r5
	ANL	r5,r4,r5
	ORL	r7,r7,r5
.LVL241:
.LBE39:
.LBE38:
.LM347:
	ST.w	[r6],r7
.LM348:
	POP	{r6, r7, r8}
	.cfi_remember_state
	.cfi_def_cfa_offset 4
	POP	lr
	.cfi_def_cfa_offset 0
	JMP	lr
.LVL242:
.L268:
	.cfi_restore_state
.LM349:
	MOV	r0,#1
.LVL243:
	JMP	.L264
	.cfi_endproc
.LFE27:
	.size	I2C_Keep_Data_Time_Config, .-I2C_Keep_Data_Time_Config
	.section .text$I2C_Start_INT_Enable
	.type	.text$I2C_Start_INT_Enable$scode_local_28, @function
	.text$I2C_Start_INT_Enable$scode_local_28:
	.align	1
	.export	I2C_Start_INT_Enable
	.type	I2C_Start_INT_Enable, @function
I2C_Start_INT_Enable:
.LFB28:
.LM350:
	.cfi_startproc
.LVL244:
	PUSH	{r6, r7, r8, lr}
	.cfi_def_cfa_offset 16
	MOV	r6,r0
	MOV	r7,r1
.LM351:
	MOV	r0,#1
.LVL245:
	LD	r5,#1073745152
	CMP	r6,r5
	JZ	.L271
.LM352:
	LD	r5,#1073745280
	CMP	r6,r5
	JZ	.L271
.LM353:
	LD	r5,#1073745408
	CMP	r6,r5
	JZ	.L271
	LD	r5,#1073750912
	CMP	r6,r5
	JZ	.L271
	MOV	r0,#0
.L271:
.LM354:
	LD	r5,#CHECK_RESTRICTION
	MOV	r8,r5
	LJMP	r5
.LVL246:
.LM355:
	MOV	r0,#1
	CMP	r7,r0
	JLS	.L273
	MOV	r0,#0
.L273:
	LJMP	r8
.LVL247:
.LM356:
	ADD	r6,#32
.LVL248:
.LM357:
	CMP	r7,#0
	JNZ	.L279
.LM358:
// inline asm begin
	// 782 "../src/kf32a9k1xxx_i2c.c" 1
	CLR [r6], #0
	// 0 "" 2
.LM359:
// inline asm end
	POP	{r6, r7, r8}
	.cfi_remember_state
	.cfi_def_cfa_offset 4
.LVL249:
	POP	lr
	.cfi_def_cfa_offset 0
	JMP	lr
.LVL250:
.L279:
	.cfi_restore_state
.LM360:
// inline asm begin
	// 777 "../src/kf32a9k1xxx_i2c.c" 1
	SET [r6], #0
	// 0 "" 2
.LM361:
// inline asm end
	POP	{r6, r7, r8}
	.cfi_def_cfa_offset 4
.LVL251:
	POP	lr
	.cfi_def_cfa_offset 0
	JMP	lr
	.cfi_endproc
.LFE28:
	.size	I2C_Start_INT_Enable, .-I2C_Start_INT_Enable
	.section .text$I2C_Stop_INT_Enable
	.type	.text$I2C_Stop_INT_Enable$scode_local_29, @function
	.text$I2C_Stop_INT_Enable$scode_local_29:
	.align	1
	.export	I2C_Stop_INT_Enable
	.type	I2C_Stop_INT_Enable, @function
I2C_Stop_INT_Enable:
.LFB29:
.LM362:
	.cfi_startproc
.LVL252:
	PUSH	{r6, r7, r8, lr}
	.cfi_def_cfa_offset 16
	MOV	r6,r0
	MOV	r7,r1
.LM363:
	MOV	r0,#1
.LVL253:
	LD	r5,#1073745152
	CMP	r6,r5
	JZ	.L281
.LM364:
	LD	r5,#1073745280
	CMP	r6,r5
	JZ	.L281
.LM365:
	LD	r5,#1073745408
	CMP	r6,r5
	JZ	.L281
	LD	r5,#1073750912
	CMP	r6,r5
	JZ	.L281
	MOV	r0,#0
.L281:
.LM366:
	LD	r5,#CHECK_RESTRICTION
	MOV	r8,r5
	LJMP	r5
.LVL254:
.LM367:
	MOV	r0,#1
	CMP	r7,r0
	JLS	.L283
	MOV	r0,#0
.L283:
	LJMP	r8
.LVL255:
.LM368:
	ADD	r6,#32
.LVL256:
.LM369:
	CMP	r7,#0
	JNZ	.L289
.LM370:
// inline asm begin
	// 808 "../src/kf32a9k1xxx_i2c.c" 1
	CLR [r6], #1
	// 0 "" 2
.LM371:
// inline asm end
	POP	{r6, r7, r8}
	.cfi_remember_state
	.cfi_def_cfa_offset 4
.LVL257:
	POP	lr
	.cfi_def_cfa_offset 0
	JMP	lr
.LVL258:
.L289:
	.cfi_restore_state
.LM372:
// inline asm begin
	// 803 "../src/kf32a9k1xxx_i2c.c" 1
	SET [r6], #1
	// 0 "" 2
.LM373:
// inline asm end
	POP	{r6, r7, r8}
	.cfi_def_cfa_offset 4
.LVL259:
	POP	lr
	.cfi_def_cfa_offset 0
	JMP	lr
	.cfi_endproc
.LFE29:
	.size	I2C_Stop_INT_Enable, .-I2C_Stop_INT_Enable
	.section .text$I2C_Ack_Fail_INT_Enable
	.type	.text$I2C_Ack_Fail_INT_Enable$scode_local_30, @function
	.text$I2C_Ack_Fail_INT_Enable$scode_local_30:
	.align	1
	.export	I2C_Ack_Fail_INT_Enable
	.type	I2C_Ack_Fail_INT_Enable, @function
I2C_Ack_Fail_INT_Enable:
.LFB30:
.LM374:
	.cfi_startproc
.LVL260:
	PUSH	{r6, r7, r8, lr}
	.cfi_def_cfa_offset 16
	MOV	r6,r0
	MOV	r7,r1
.LM375:
	MOV	r0,#1
.LVL261:
	LD	r5,#1073745152
	CMP	r6,r5
	JZ	.L291
.LM376:
	LD	r5,#1073745280
	CMP	r6,r5
	JZ	.L291
.LM377:
	LD	r5,#1073745408
	CMP	r6,r5
	JZ	.L291
	LD	r5,#1073750912
	CMP	r6,r5
	JZ	.L291
	MOV	r0,#0
.L291:
.LM378:
	LD	r5,#CHECK_RESTRICTION
	MOV	r8,r5
	LJMP	r5
.LVL262:
.LM379:
	MOV	r0,#1
	CMP	r7,r0
	JLS	.L293
	MOV	r0,#0
.L293:
	LJMP	r8
.LVL263:
.LM380:
	ADD	r6,#32
.LVL264:
.LM381:
	CMP	r7,#0
	JNZ	.L299
.LM382:
// inline asm begin
	// 834 "../src/kf32a9k1xxx_i2c.c" 1
	CLR [r6], #5
	// 0 "" 2
.LM383:
// inline asm end
	POP	{r6, r7, r8}
	.cfi_remember_state
	.cfi_def_cfa_offset 4
.LVL265:
	POP	lr
	.cfi_def_cfa_offset 0
	JMP	lr
.LVL266:
.L299:
	.cfi_restore_state
.LM384:
// inline asm begin
	// 829 "../src/kf32a9k1xxx_i2c.c" 1
	SET [r6], #5
	// 0 "" 2
.LM385:
// inline asm end
	POP	{r6, r7, r8}
	.cfi_def_cfa_offset 4
.LVL267:
	POP	lr
	.cfi_def_cfa_offset 0
	JMP	lr
	.cfi_endproc
.LFE30:
	.size	I2C_Ack_Fail_INT_Enable, .-I2C_Ack_Fail_INT_Enable
	.section .text$I2C_Arbitration_Lost_INT_Enable
	.type	.text$I2C_Arbitration_Lost_INT_Enable$scode_local_31, @function
	.text$I2C_Arbitration_Lost_INT_Enable$scode_local_31:
	.align	1
	.export	I2C_Arbitration_Lost_INT_Enable
	.type	I2C_Arbitration_Lost_INT_Enable, @function
I2C_Arbitration_Lost_INT_Enable:
.LFB31:
.LM386:
	.cfi_startproc
.LVL268:
	PUSH	{r6, r7, r8, lr}
	.cfi_def_cfa_offset 16
	MOV	r6,r0
	MOV	r7,r1
.LM387:
	MOV	r0,#1
.LVL269:
	LD	r5,#1073745152
	CMP	r6,r5
	JZ	.L301
.LM388:
	LD	r5,#1073745280
	CMP	r6,r5
	JZ	.L301
.LM389:
	LD	r5,#1073745408
	CMP	r6,r5
	JZ	.L301
	LD	r5,#1073750912
	CMP	r6,r5
	JZ	.L301
	MOV	r0,#0
.L301:
.LM390:
	LD	r5,#CHECK_RESTRICTION
	MOV	r8,r5
	LJMP	r5
.LVL270:
.LM391:
	MOV	r0,#1
	CMP	r7,r0
	JLS	.L303
	MOV	r0,#0
.L303:
	LJMP	r8
.LVL271:
.LM392:
	ADD	r6,#32
.LVL272:
.LM393:
	CMP	r7,#0
	JNZ	.L309
.LM394:
// inline asm begin
	// 860 "../src/kf32a9k1xxx_i2c.c" 1
	CLR [r6], #6
	// 0 "" 2
.LM395:
// inline asm end
	POP	{r6, r7, r8}
	.cfi_remember_state
	.cfi_def_cfa_offset 4
.LVL273:
	POP	lr
	.cfi_def_cfa_offset 0
	JMP	lr
.LVL274:
.L309:
	.cfi_restore_state
.LM396:
// inline asm begin
	// 855 "../src/kf32a9k1xxx_i2c.c" 1
	SET [r6], #6
	// 0 "" 2
.LM397:
// inline asm end
	POP	{r6, r7, r8}
	.cfi_def_cfa_offset 4
.LVL275:
	POP	lr
	.cfi_def_cfa_offset 0
	JMP	lr
	.cfi_endproc
.LFE31:
	.size	I2C_Arbitration_Lost_INT_Enable, .-I2C_Arbitration_Lost_INT_Enable
	.section .text$I2C_SMBus_Alert_INT_Enable
	.type	.text$I2C_SMBus_Alert_INT_Enable$scode_local_32, @function
	.text$I2C_SMBus_Alert_INT_Enable$scode_local_32:
	.align	1
	.export	I2C_SMBus_Alert_INT_Enable
	.type	I2C_SMBus_Alert_INT_Enable, @function
I2C_SMBus_Alert_INT_Enable:
.LFB32:
.LM398:
	.cfi_startproc
.LVL276:
	PUSH	{r6, r7, r8, lr}
	.cfi_def_cfa_offset 16
	MOV	r6,r0
	MOV	r7,r1
.LM399:
	MOV	r0,#1
.LVL277:
	LD	r5,#1073745152
	CMP	r6,r5
	JZ	.L311
.LM400:
	LD	r5,#1073745280
	CMP	r6,r5
	JZ	.L311
.LM401:
	LD	r5,#1073745408
	CMP	r6,r5
	JZ	.L311
	LD	r5,#1073750912
	CMP	r6,r5
	JZ	.L311
	MOV	r0,#0
.L311:
.LM402:
	LD	r5,#CHECK_RESTRICTION
	MOV	r8,r5
	LJMP	r5
.LVL278:
.LM403:
	MOV	r0,#1
	CMP	r7,r0
	JLS	.L313
	MOV	r0,#0
.L313:
	LJMP	r8
.LVL279:
.LM404:
	ADD	r6,#32
.LVL280:
.LM405:
	CMP	r7,#0
	JNZ	.L319
.LM406:
// inline asm begin
	// 886 "../src/kf32a9k1xxx_i2c.c" 1
	CLR [r6], #8
	// 0 "" 2
.LM407:
// inline asm end
	POP	{r6, r7, r8}
	.cfi_remember_state
	.cfi_def_cfa_offset 4
.LVL281:
	POP	lr
	.cfi_def_cfa_offset 0
	JMP	lr
.LVL282:
.L319:
	.cfi_restore_state
.LM408:
// inline asm begin
	// 881 "../src/kf32a9k1xxx_i2c.c" 1
	SET [r6], #8
	// 0 "" 2
.LM409:
// inline asm end
	POP	{r6, r7, r8}
	.cfi_def_cfa_offset 4
.LVL283:
	POP	lr
	.cfi_def_cfa_offset 0
	JMP	lr
	.cfi_endproc
.LFE32:
	.size	I2C_SMBus_Alert_INT_Enable, .-I2C_SMBus_Alert_INT_Enable
	.section .text$I2C_SMBus_HostHead_INT_Enable
	.type	.text$I2C_SMBus_HostHead_INT_Enable$scode_local_33, @function
	.text$I2C_SMBus_HostHead_INT_Enable$scode_local_33:
	.align	1
	.export	I2C_SMBus_HostHead_INT_Enable
	.type	I2C_SMBus_HostHead_INT_Enable, @function
I2C_SMBus_HostHead_INT_Enable:
.LFB33:
.LM410:
	.cfi_startproc
.LVL284:
	PUSH	{r6, r7, r8, lr}
	.cfi_def_cfa_offset 16
	MOV	r6,r0
	MOV	r7,r1
.LM411:
	MOV	r0,#1
.LVL285:
	LD	r5,#1073745152
	CMP	r6,r5
	JZ	.L321
.LM412:
	LD	r5,#1073745280
	CMP	r6,r5
	JZ	.L321
.LM413:
	LD	r5,#1073745408
	CMP	r6,r5
	JZ	.L321
	LD	r5,#1073750912
	CMP	r6,r5
	JZ	.L321
	MOV	r0,#0
.L321:
.LM414:
	LD	r5,#CHECK_RESTRICTION
	MOV	r8,r5
	LJMP	r5
.LVL286:
.LM415:
	MOV	r0,#1
	CMP	r7,r0
	JLS	.L323
	MOV	r0,#0
.L323:
	LJMP	r8
.LVL287:
.LM416:
	ADD	r6,#32
.LVL288:
.LM417:
	CMP	r7,#0
	JNZ	.L329
.LM418:
// inline asm begin
	// 912 "../src/kf32a9k1xxx_i2c.c" 1
	CLR [r6], #9
	// 0 "" 2
.LM419:
// inline asm end
	POP	{r6, r7, r8}
	.cfi_remember_state
	.cfi_def_cfa_offset 4
.LVL289:
	POP	lr
	.cfi_def_cfa_offset 0
	JMP	lr
.LVL290:
.L329:
	.cfi_restore_state
.LM420:
// inline asm begin
	// 907 "../src/kf32a9k1xxx_i2c.c" 1
	SET [r6], #9
	// 0 "" 2
.LM421:
// inline asm end
	POP	{r6, r7, r8}
	.cfi_def_cfa_offset 4
.LVL291:
	POP	lr
	.cfi_def_cfa_offset 0
	JMP	lr
	.cfi_endproc
.LFE33:
	.size	I2C_SMBus_HostHead_INT_Enable, .-I2C_SMBus_HostHead_INT_Enable
	.section .text$I2C_SMBus_Device_Defaultaddress_INT_Enable
	.type	.text$I2C_SMBus_Device_Defaultaddress_INT_Enable$scode_local_34, @function
	.text$I2C_SMBus_Device_Defaultaddress_INT_Enable$scode_local_34:
	.align	1
	.export	I2C_SMBus_Device_Defaultaddress_INT_Enable
	.type	I2C_SMBus_Device_Defaultaddress_INT_Enable, @function
I2C_SMBus_Device_Defaultaddress_INT_Enable:
.LFB34:
.LM422:
	.cfi_startproc
.LVL292:
	PUSH	{r6, r7, r8, lr}
	.cfi_def_cfa_offset 16
	MOV	r6,r0
	MOV	r7,r1
.LM423:
	MOV	r0,#1
.LVL293:
	LD	r5,#1073745152
	CMP	r6,r5
	JZ	.L331
.LM424:
	LD	r5,#1073745280
	CMP	r6,r5
	JZ	.L331
.LM425:
	LD	r5,#1073745408
	CMP	r6,r5
	JZ	.L331
	LD	r5,#1073750912
	CMP	r6,r5
	JZ	.L331
	MOV	r0,#0
.L331:
.LM426:
	LD	r5,#CHECK_RESTRICTION
	MOV	r8,r5
	LJMP	r5
.LVL294:
.LM427:
	MOV	r0,#1
	CMP	r7,r0
	JLS	.L333
	MOV	r0,#0
.L333:
	LJMP	r8
.LVL295:
.LM428:
	ADD	r6,#32
.LVL296:
.LM429:
	CMP	r7,#0
	JNZ	.L339
.LM430:
// inline asm begin
	// 939 "../src/kf32a9k1xxx_i2c.c" 1
	CLR [r6], #10
	// 0 "" 2
.LM431:
// inline asm end
	POP	{r6, r7, r8}
	.cfi_remember_state
	.cfi_def_cfa_offset 4
.LVL297:
	POP	lr
	.cfi_def_cfa_offset 0
	JMP	lr
.LVL298:
.L339:
	.cfi_restore_state
.LM432:
// inline asm begin
	// 934 "../src/kf32a9k1xxx_i2c.c" 1
	SET [r6], #10
	// 0 "" 2
.LM433:
// inline asm end
	POP	{r6, r7, r8}
	.cfi_def_cfa_offset 4
.LVL299:
	POP	lr
	.cfi_def_cfa_offset 0
	JMP	lr
	.cfi_endproc
.LFE34:
	.size	I2C_SMBus_Device_Defaultaddress_INT_Enable, .-I2C_SMBus_Device_Defaultaddress_INT_Enable
	.section .text$I2C_ISIE_INT_Enable
	.type	.text$I2C_ISIE_INT_Enable$scode_local_35, @function
	.text$I2C_ISIE_INT_Enable$scode_local_35:
	.align	1
	.export	I2C_ISIE_INT_Enable
	.type	I2C_ISIE_INT_Enable, @function
I2C_ISIE_INT_Enable:
.LFB35:
.LM434:
	.cfi_startproc
.LVL300:
	PUSH	{r6, r7, r8, lr}
	.cfi_def_cfa_offset 16
	MOV	r6,r0
	MOV	r7,r1
.LM435:
	MOV	r0,#1
.LVL301:
	LD	r5,#1073745152
	CMP	r6,r5
	JZ	.L341
.LM436:
	LD	r5,#1073745280
	CMP	r6,r5
	JZ	.L341
.LM437:
	LD	r5,#1073745408
	CMP	r6,r5
	JZ	.L341
	LD	r5,#1073750912
	CMP	r6,r5
	JZ	.L341
	MOV	r0,#0
.L341:
.LM438:
	LD	r5,#CHECK_RESTRICTION
	MOV	r8,r5
	LJMP	r5
.LVL302:
.LM439:
	MOV	r0,#1
	CMP	r7,r0
	JLS	.L343
	MOV	r0,#0
.L343:
	LJMP	r8
.LVL303:
.LM440:
	ADD	r6,#32
.LVL304:
.LM441:
	CMP	r7,#0
	JNZ	.L349
.LM442:
// inline asm begin
	// 965 "../src/kf32a9k1xxx_i2c.c" 1
	CLR [r6], #11
	// 0 "" 2
.LM443:
// inline asm end
	POP	{r6, r7, r8}
	.cfi_remember_state
	.cfi_def_cfa_offset 4
.LVL305:
	POP	lr
	.cfi_def_cfa_offset 0
	JMP	lr
.LVL306:
.L349:
	.cfi_restore_state
.LM444:
// inline asm begin
	// 960 "../src/kf32a9k1xxx_i2c.c" 1
	SET [r6], #11
	// 0 "" 2
.LM445:
// inline asm end
	POP	{r6, r7, r8}
	.cfi_def_cfa_offset 4
.LVL307:
	POP	lr
	.cfi_def_cfa_offset 0
	JMP	lr
	.cfi_endproc
.LFE35:
	.size	I2C_ISIE_INT_Enable, .-I2C_ISIE_INT_Enable
	.section .text$I2C_Receive_DMA_INT_Enable
	.type	.text$I2C_Receive_DMA_INT_Enable$scode_local_36, @function
	.text$I2C_Receive_DMA_INT_Enable$scode_local_36:
	.align	1
	.export	I2C_Receive_DMA_INT_Enable
	.type	I2C_Receive_DMA_INT_Enable, @function
I2C_Receive_DMA_INT_Enable:
.LFB36:
.LM446:
	.cfi_startproc
.LVL308:
	PUSH	{r6, r7, r8, lr}
	.cfi_def_cfa_offset 16
	MOV	r6,r0
	MOV	r7,r1
.LM447:
	MOV	r0,#1
.LVL309:
	LD	r5,#1073745152
	CMP	r6,r5
	JZ	.L351
.LM448:
	LD	r5,#1073745280
	CMP	r6,r5
	JZ	.L351
.LM449:
	LD	r5,#1073745408
	CMP	r6,r5
	JZ	.L351
	LD	r5,#1073750912
	CMP	r6,r5
	JZ	.L351
	MOV	r0,#0
.L351:
.LM450:
	LD	r5,#CHECK_RESTRICTION
	MOV	r8,r5
	LJMP	r5
.LVL310:
.LM451:
	MOV	r0,#1
	CMP	r7,r0
	JLS	.L353
	MOV	r0,#0
.L353:
	LJMP	r8
.LVL311:
.LM452:
	ADD	r6,#32
.LVL312:
.LM453:
	CMP	r7,#0
	JNZ	.L359
.LM454:
// inline asm begin
	// 991 "../src/kf32a9k1xxx_i2c.c" 1
	CLR [r6], #16
	// 0 "" 2
.LM455:
// inline asm end
	POP	{r6, r7, r8}
	.cfi_remember_state
	.cfi_def_cfa_offset 4
.LVL313:
	POP	lr
	.cfi_def_cfa_offset 0
	JMP	lr
.LVL314:
.L359:
	.cfi_restore_state
.LM456:
// inline asm begin
	// 986 "../src/kf32a9k1xxx_i2c.c" 1
	SET [r6], #16
	// 0 "" 2
.LM457:
// inline asm end
	POP	{r6, r7, r8}
	.cfi_def_cfa_offset 4
.LVL315:
	POP	lr
	.cfi_def_cfa_offset 0
	JMP	lr
	.cfi_endproc
.LFE36:
	.size	I2C_Receive_DMA_INT_Enable, .-I2C_Receive_DMA_INT_Enable
	.section .text$I2C_Transmit_DMA_INT_Enable
	.type	.text$I2C_Transmit_DMA_INT_Enable$scode_local_37, @function
	.text$I2C_Transmit_DMA_INT_Enable$scode_local_37:
	.align	1
	.export	I2C_Transmit_DMA_INT_Enable
	.type	I2C_Transmit_DMA_INT_Enable, @function
I2C_Transmit_DMA_INT_Enable:
.LFB37:
.LM458:
	.cfi_startproc
.LVL316:
	PUSH	{r6, r7, r8, lr}
	.cfi_def_cfa_offset 16
	MOV	r6,r0
	MOV	r7,r1
.LM459:
	MOV	r0,#1
.LVL317:
	LD	r5,#1073745152
	CMP	r6,r5
	JZ	.L361
.LM460:
	LD	r5,#1073745280
	CMP	r6,r5
	JZ	.L361
.LM461:
	LD	r5,#1073745408
	CMP	r6,r5
	JZ	.L361
	LD	r5,#1073750912
	CMP	r6,r5
	JZ	.L361
	MOV	r0,#0
.L361:
.LM462:
	LD	r5,#CHECK_RESTRICTION
	MOV	r8,r5
	LJMP	r5
.LVL318:
.LM463:
	MOV	r0,#1
	CMP	r7,r0
	JLS	.L363
	MOV	r0,#0
.L363:
	LJMP	r8
.LVL319:
.LM464:
	ADD	r6,#32
.LVL320:
.LM465:
	CMP	r7,#0
	JNZ	.L369
.LM466:
// inline asm begin
	// 1017 "../src/kf32a9k1xxx_i2c.c" 1
	CLR [r6], #17
	// 0 "" 2
.LM467:
// inline asm end
	POP	{r6, r7, r8}
	.cfi_remember_state
	.cfi_def_cfa_offset 4
.LVL321:
	POP	lr
	.cfi_def_cfa_offset 0
	JMP	lr
.LVL322:
.L369:
	.cfi_restore_state
.LM468:
// inline asm begin
	// 1012 "../src/kf32a9k1xxx_i2c.c" 1
	SET [r6], #17
	// 0 "" 2
.LM469:
// inline asm end
	POP	{r6, r7, r8}
	.cfi_def_cfa_offset 4
.LVL323:
	POP	lr
	.cfi_def_cfa_offset 0
	JMP	lr
	.cfi_endproc
.LFE37:
	.size	I2C_Transmit_DMA_INT_Enable, .-I2C_Transmit_DMA_INT_Enable
	.section .text$I2C_Bus_Error_INT_Enable
	.type	.text$I2C_Bus_Error_INT_Enable$scode_local_38, @function
	.text$I2C_Bus_Error_INT_Enable$scode_local_38:
	.align	1
	.export	I2C_Bus_Error_INT_Enable
	.type	I2C_Bus_Error_INT_Enable, @function
I2C_Bus_Error_INT_Enable:
.LFB38:
.LM470:
	.cfi_startproc
.LVL324:
	PUSH	{r6, r7, r8, lr}
	.cfi_def_cfa_offset 16
	MOV	r6,r0
	MOV	r7,r1
.LM471:
	MOV	r0,#1
.LVL325:
	LD	r5,#1073745152
	CMP	r6,r5
	JZ	.L371
.LM472:
	LD	r5,#1073745280
	CMP	r6,r5
	JZ	.L371
.LM473:
	LD	r5,#1073745408
	CMP	r6,r5
	JZ	.L371
	LD	r5,#1073750912
	CMP	r6,r5
	JZ	.L371
	MOV	r0,#0
.L371:
.LM474:
	LD	r5,#CHECK_RESTRICTION
	MOV	r8,r5
	LJMP	r5
.LVL326:
.LM475:
	MOV	r0,#1
	CMP	r7,r0
	JLS	.L373
	MOV	r0,#0
.L373:
	LJMP	r8
.LVL327:
.LM476:
	ADD	r6,#32
.LVL328:
.LM477:
	CMP	r7,#0
	JNZ	.L379
.LM478:
// inline asm begin
	// 1043 "../src/kf32a9k1xxx_i2c.c" 1
	CLR [r6], #18
	// 0 "" 2
.LM479:
// inline asm end
	POP	{r6, r7, r8}
	.cfi_remember_state
	.cfi_def_cfa_offset 4
.LVL329:
	POP	lr
	.cfi_def_cfa_offset 0
	JMP	lr
.LVL330:
.L379:
	.cfi_restore_state
.LM480:
// inline asm begin
	// 1038 "../src/kf32a9k1xxx_i2c.c" 1
	SET [r6], #18
	// 0 "" 2
.LM481:
// inline asm end
	POP	{r6, r7, r8}
	.cfi_def_cfa_offset 4
.LVL331:
	POP	lr
	.cfi_def_cfa_offset 0
	JMP	lr
	.cfi_endproc
.LFE38:
	.size	I2C_Bus_Error_INT_Enable, .-I2C_Bus_Error_INT_Enable
	.section .text$I2C_Get_Start_Flag
	.type	.text$I2C_Get_Start_Flag$scode_local_39, @function
	.text$I2C_Get_Start_Flag$scode_local_39:
	.align	1
	.export	I2C_Get_Start_Flag
	.type	I2C_Get_Start_Flag, @function
I2C_Get_Start_Flag:
.LFB39:
.LM482:
	.cfi_startproc
.LVL332:
	PUSH	{r6, lr}
	.cfi_def_cfa_offset 8
	MOV	r6,r0
.LM483:
	MOV	r0,#1
.LVL333:
	LD	r5,#1073745152
	CMP	r6,r5
	JZ	.L381
.LM484:
	LD	r5,#1073745280
	CMP	r6,r5
	JZ	.L381
.LM485:
	LD	r5,#1073745408
	CMP	r6,r5
	JZ	.L381
	LD	r5,#1073750912
	CMP	r6,r5
	JZ	.L381
	MOV	r0,#0
.L381:
.LM486:
	LD	r5,#CHECK_RESTRICTION
	LJMP	r5
.LVL334:
.LM487:
	LD.w	r0,[r6+#1]
.LM488:
	MOV	r5,#1
	ANL	r0,r0,r5
	POP	r6
	.cfi_def_cfa_offset 4
.LVL335:
	POP	lr
	.cfi_def_cfa_offset 0
	JMP	lr
	.cfi_endproc
.LFE39:
	.size	I2C_Get_Start_Flag, .-I2C_Get_Start_Flag
	.section .text$I2C_Clear_Start_Flag
	.type	.text$I2C_Clear_Start_Flag$scode_local_40, @function
	.text$I2C_Clear_Start_Flag$scode_local_40:
	.align	1
	.export	I2C_Clear_Start_Flag
	.type	I2C_Clear_Start_Flag, @function
I2C_Clear_Start_Flag:
.LFB40:
.LM489:
	.cfi_startproc
.LVL336:
	PUSH	{r6, lr}
	.cfi_def_cfa_offset 8
	MOV	r6,r0
.LM490:
	MOV	r0,#1
.LVL337:
	LD	r5,#1073745152
	CMP	r6,r5
	JZ	.L387
.LM491:
	LD	r5,#1073745280
	CMP	r6,r5
	JZ	.L387
.LM492:
	LD	r5,#1073745408
	CMP	r6,r5
	JZ	.L387
	LD	r5,#1073750912
	CMP	r6,r5
	JZ	.L387
	MOV	r0,#0
.L387:
.LM493:
	LD	r5,#CHECK_RESTRICTION
	LJMP	r5
.LVL338:
.LM494:
	LD.w	r5,[r6+#1]
	MOV	r4,#1
	ANL	r5,r5,r4
	JZ	.L386
	ADD	r3,r6,#4
.L390:
.LM495:
// inline asm begin
	// 1087 "../src/kf32a9k1xxx_i2c.c" 1
	CLR [r3], #0
	// 0 "" 2
.LM496:
// inline asm end
	LD.w	r5,[r6+#1]
	ANL	r5,r5,r4
	JNZ	.L390
.L386:
.LM497:
	POP	r6
	.cfi_def_cfa_offset 4
.LVL339:
	POP	lr
	.cfi_def_cfa_offset 0
	JMP	lr
	.cfi_endproc
.LFE40:
	.size	I2C_Clear_Start_Flag, .-I2C_Clear_Start_Flag
	.section .text$I2C_Get_Stop_Flag
	.type	.text$I2C_Get_Stop_Flag$scode_local_41, @function
	.text$I2C_Get_Stop_Flag$scode_local_41:
	.align	1
	.export	I2C_Get_Stop_Flag
	.type	I2C_Get_Stop_Flag, @function
I2C_Get_Stop_Flag:
.LFB41:
.LM498:
	.cfi_startproc
.LVL340:
	PUSH	{r6, lr}
	.cfi_def_cfa_offset 8
	MOV	r6,r0
.LM499:
	MOV	r0,#1
.LVL341:
	LD	r5,#1073745152
	CMP	r6,r5
	JZ	.L399
.LM500:
	LD	r5,#1073745280
	CMP	r6,r5
	JZ	.L399
.LM501:
	LD	r5,#1073745408
	CMP	r6,r5
	JZ	.L399
	LD	r5,#1073750912
	CMP	r6,r5
	JZ	.L399
	MOV	r0,#0
.L399:
.LM502:
	LD	r5,#CHECK_RESTRICTION
	LJMP	r5
.LVL342:
.LM503:
	LD.w	r0,[r6+#1]
	LSR	r0,#1
.LM504:
	MOV	r5,#1
	ANL	r0,r0,r5
	POP	r6
	.cfi_def_cfa_offset 4
.LVL343:
	POP	lr
	.cfi_def_cfa_offset 0
	JMP	lr
	.cfi_endproc
.LFE41:
	.size	I2C_Get_Stop_Flag, .-I2C_Get_Stop_Flag
	.section .text$I2C_Clear_Stop_Flag
	.type	.text$I2C_Clear_Stop_Flag$scode_local_42, @function
	.text$I2C_Clear_Stop_Flag$scode_local_42:
	.align	1
	.export	I2C_Clear_Stop_Flag
	.type	I2C_Clear_Stop_Flag, @function
I2C_Clear_Stop_Flag:
.LFB42:
.LM505:
	.cfi_startproc
.LVL344:
	PUSH	{r6, lr}
	.cfi_def_cfa_offset 8
	MOV	r6,r0
.LM506:
	MOV	r0,#1
.LVL345:
	LD	r5,#1073745152
	CMP	r6,r5
	JZ	.L405
.LM507:
	LD	r5,#1073745280
	CMP	r6,r5
	JZ	.L405
.LM508:
	LD	r5,#1073745408
	CMP	r6,r5
	JZ	.L405
	LD	r5,#1073750912
	CMP	r6,r5
	JZ	.L405
	MOV	r0,#0
.L405:
.LM509:
	LD	r5,#CHECK_RESTRICTION
	LJMP	r5
.LVL346:
.LM510:
	LD.w	r5,[r6+#1]
	MOV	r4,#2
	ANL	r5,r5,r4
	JZ	.L404
	ADD	r3,r6,#4
.L408:
.LM511:
// inline asm begin
	// 1130 "../src/kf32a9k1xxx_i2c.c" 1
	CLR [r3], #1
	// 0 "" 2
.LM512:
// inline asm end
	LD.w	r5,[r6+#1]
	ANL	r5,r5,r4
	JNZ	.L408
.L404:
.LM513:
	POP	r6
	.cfi_def_cfa_offset 4
.LVL347:
	POP	lr
	.cfi_def_cfa_offset 0
	JMP	lr
	.cfi_endproc
.LFE42:
	.size	I2C_Clear_Stop_Flag, .-I2C_Clear_Stop_Flag
	.section .text$I2C_Get_Address_Match_Flag
	.type	.text$I2C_Get_Address_Match_Flag$scode_local_43, @function
	.text$I2C_Get_Address_Match_Flag$scode_local_43:
	.align	1
	.export	I2C_Get_Address_Match_Flag
	.type	I2C_Get_Address_Match_Flag, @function
I2C_Get_Address_Match_Flag:
.LFB43:
.LM514:
	.cfi_startproc
.LVL348:
	PUSH	{r6, lr}
	.cfi_def_cfa_offset 8
	MOV	r6,r0
.LM515:
	MOV	r0,#1
.LVL349:
	LD	r5,#1073745152
	CMP	r6,r5
	JZ	.L417
.LM516:
	LD	r5,#1073745280
	CMP	r6,r5
	JZ	.L417
.LM517:
	LD	r5,#1073745408
	CMP	r6,r5
	JZ	.L417
	LD	r5,#1073750912
	CMP	r6,r5
	JZ	.L417
	MOV	r0,#0
.L417:
.LM518:
	LD	r5,#CHECK_RESTRICTION
	LJMP	r5
.LVL350:
.LM519:
	LD.w	r0,[r6+#1]
	LSR	r0,#2
.LM520:
	MOV	r5,#1
	ANL	r0,r0,r5
	POP	r6
	.cfi_def_cfa_offset 4
.LVL351:
	POP	lr
	.cfi_def_cfa_offset 0
	JMP	lr
	.cfi_endproc
.LFE43:
	.size	I2C_Get_Address_Match_Flag, .-I2C_Get_Address_Match_Flag
	.section .text$I2C_Get_HighAddress_Flag
	.type	.text$I2C_Get_HighAddress_Flag$scode_local_44, @function
	.text$I2C_Get_HighAddress_Flag$scode_local_44:
	.align	1
	.export	I2C_Get_HighAddress_Flag
	.type	I2C_Get_HighAddress_Flag, @function
I2C_Get_HighAddress_Flag:
.LFB44:
.LM521:
	.cfi_startproc
.LVL352:
	PUSH	{r6, lr}
	.cfi_def_cfa_offset 8
	MOV	r6,r0
.LM522:
	MOV	r0,#1
.LVL353:
	LD	r5,#1073745152
	CMP	r6,r5
	JZ	.L423
.LM523:
	LD	r5,#1073745280
	CMP	r6,r5
	JZ	.L423
.LM524:
	LD	r5,#1073745408
	CMP	r6,r5
	JZ	.L423
	LD	r5,#1073750912
	CMP	r6,r5
	JZ	.L423
	MOV	r0,#0
.L423:
.LM525:
	LD	r5,#CHECK_RESTRICTION
	LJMP	r5
.LVL354:
.LM526:
	LD.w	r0,[r6+#1]
	LSR	r0,#3
.LM527:
	MOV	r5,#1
	ANL	r0,r0,r5
	POP	r6
	.cfi_def_cfa_offset 4
.LVL355:
	POP	lr
	.cfi_def_cfa_offset 0
	JMP	lr
	.cfi_endproc
.LFE44:
	.size	I2C_Get_HighAddress_Flag, .-I2C_Get_HighAddress_Flag
	.section .text$I2C_Get_Data_Flag
	.type	.text$I2C_Get_Data_Flag$scode_local_45, @function
	.text$I2C_Get_Data_Flag$scode_local_45:
	.align	1
	.export	I2C_Get_Data_Flag
	.type	I2C_Get_Data_Flag, @function
I2C_Get_Data_Flag:
.LFB45:
.LM528:
	.cfi_startproc
.LVL356:
	PUSH	{r6, lr}
	.cfi_def_cfa_offset 8
	MOV	r6,r0
.LM529:
	MOV	r0,#1
.LVL357:
	LD	r5,#1073745152
	CMP	r6,r5
	JZ	.L429
.LM530:
	LD	r5,#1073745280
	CMP	r6,r5
	JZ	.L429
.LM531:
	LD	r5,#1073745408
	CMP	r6,r5
	JZ	.L429
	LD	r5,#1073750912
	CMP	r6,r5
	JZ	.L429
	MOV	r0,#0
.L429:
.LM532:
	LD	r5,#CHECK_RESTRICTION
	LJMP	r5
.LVL358:
.LM533:
	LD.w	r0,[r6+#1]
	LSR	r0,#4
.LM534:
	MOV	r5,#1
	ANL	r0,r0,r5
	POP	r6
	.cfi_def_cfa_offset 4
.LVL359:
	POP	lr
	.cfi_def_cfa_offset 0
	JMP	lr
	.cfi_endproc
.LFE45:
	.size	I2C_Get_Data_Flag, .-I2C_Get_Data_Flag
	.section .text$I2C_Get_Ack_Fail_Flag
	.type	.text$I2C_Get_Ack_Fail_Flag$scode_local_46, @function
	.text$I2C_Get_Ack_Fail_Flag$scode_local_46:
	.align	1
	.export	I2C_Get_Ack_Fail_Flag
	.type	I2C_Get_Ack_Fail_Flag, @function
I2C_Get_Ack_Fail_Flag:
.LFB46:
.LM535:
	.cfi_startproc
.LVL360:
	PUSH	{r6, lr}
	.cfi_def_cfa_offset 8
	MOV	r6,r0
.LM536:
	MOV	r0,#1
.LVL361:
	LD	r5,#1073745152
	CMP	r6,r5
	JZ	.L435
.LM537:
	LD	r5,#1073745280
	CMP	r6,r5
	JZ	.L435
.LM538:
	LD	r5,#1073745408
	CMP	r6,r5
	JZ	.L435
	LD	r5,#1073750912
	CMP	r6,r5
	JZ	.L435
	MOV	r0,#0
.L435:
.LM539:
	LD	r5,#CHECK_RESTRICTION
	LJMP	r5
.LVL362:
.LM540:
	LD.w	r0,[r6+#1]
	LSR	r0,#5
.LM541:
	MOV	r5,#1
	ANL	r0,r0,r5
	POP	r6
	.cfi_def_cfa_offset 4
.LVL363:
	POP	lr
	.cfi_def_cfa_offset 0
	JMP	lr
	.cfi_endproc
.LFE46:
	.size	I2C_Get_Ack_Fail_Flag, .-I2C_Get_Ack_Fail_Flag
	.section .text$I2C_Clear_Ack_Fail_Flag
	.type	.text$I2C_Clear_Ack_Fail_Flag$scode_local_47, @function
	.text$I2C_Clear_Ack_Fail_Flag$scode_local_47:
	.align	1
	.export	I2C_Clear_Ack_Fail_Flag
	.type	I2C_Clear_Ack_Fail_Flag, @function
I2C_Clear_Ack_Fail_Flag:
.LFB47:
.LM542:
	.cfi_startproc
.LVL364:
	PUSH	{r6, lr}
	.cfi_def_cfa_offset 8
	MOV	r6,r0
.LM543:
	MOV	r0,#1
.LVL365:
	LD	r5,#1073745152
	CMP	r6,r5
	JZ	.L441
.LM544:
	LD	r5,#1073745280
	CMP	r6,r5
	JZ	.L441
.LM545:
	LD	r5,#1073745408
	CMP	r6,r5
	JZ	.L441
	LD	r5,#1073750912
	CMP	r6,r5
	JZ	.L441
	MOV	r0,#0
.L441:
.LM546:
	LD	r5,#CHECK_RESTRICTION
	LJMP	r5
.LVL366:
.LM547:
	LD.w	r5,[r6+#1]
	MOV	r4,#32
	ANL	r5,r5,r4
	JZ	.L440
	ADD	r3,r6,#4
.L444:
.LM548:
// inline asm begin
	// 1248 "../src/kf32a9k1xxx_i2c.c" 1
	CLR [r3], #5
	// 0 "" 2
.LM549:
// inline asm end
	LD.w	r5,[r6+#1]
	ANL	r5,r5,r4
	JNZ	.L444
.L440:
.LM550:
	POP	r6
	.cfi_def_cfa_offset 4
.LVL367:
	POP	lr
	.cfi_def_cfa_offset 0
	JMP	lr
	.cfi_endproc
.LFE47:
	.size	I2C_Clear_Ack_Fail_Flag, .-I2C_Clear_Ack_Fail_Flag
	.section .text$I2C_Get_Arbitration_Lost_Flag
	.type	.text$I2C_Get_Arbitration_Lost_Flag$scode_local_48, @function
	.text$I2C_Get_Arbitration_Lost_Flag$scode_local_48:
	.align	1
	.export	I2C_Get_Arbitration_Lost_Flag
	.type	I2C_Get_Arbitration_Lost_Flag, @function
I2C_Get_Arbitration_Lost_Flag:
.LFB48:
.LM551:
	.cfi_startproc
.LVL368:
	PUSH	{r6, lr}
	.cfi_def_cfa_offset 8
	MOV	r6,r0
.LM552:
	MOV	r0,#1
.LVL369:
	LD	r5,#1073745152
	CMP	r6,r5
	JZ	.L453
.LM553:
	LD	r5,#1073745280
	CMP	r6,r5
	JZ	.L453
.LM554:
	LD	r5,#1073745408
	CMP	r6,r5
	JZ	.L453
	LD	r5,#1073750912
	CMP	r6,r5
	JZ	.L453
	MOV	r0,#0
.L453:
.LM555:
	LD	r5,#CHECK_RESTRICTION
	LJMP	r5
.LVL370:
.LM556:
	LD.w	r0,[r6+#1]
	LSR	r0,#6
.LM557:
	MOV	r5,#1
	ANL	r0,r0,r5
	POP	r6
	.cfi_def_cfa_offset 4
.LVL371:
	POP	lr
	.cfi_def_cfa_offset 0
	JMP	lr
	.cfi_endproc
.LFE48:
	.size	I2C_Get_Arbitration_Lost_Flag, .-I2C_Get_Arbitration_Lost_Flag
	.section .text$I2C_Clear_Arbitration_Lost_Flag
	.type	.text$I2C_Clear_Arbitration_Lost_Flag$scode_local_49, @function
	.text$I2C_Clear_Arbitration_Lost_Flag$scode_local_49:
	.align	1
	.export	I2C_Clear_Arbitration_Lost_Flag
	.type	I2C_Clear_Arbitration_Lost_Flag, @function
I2C_Clear_Arbitration_Lost_Flag:
.LFB49:
.LM558:
	.cfi_startproc
.LVL372:
	PUSH	{r6, lr}
	.cfi_def_cfa_offset 8
	MOV	r6,r0
.LM559:
	MOV	r0,#1
.LVL373:
	LD	r5,#1073745152
	CMP	r6,r5
	JZ	.L459
.LM560:
	LD	r5,#1073745280
	CMP	r6,r5
	JZ	.L459
.LM561:
	LD	r5,#1073745408
	CMP	r6,r5
	JZ	.L459
	LD	r5,#1073750912
	CMP	r6,r5
	JZ	.L459
	MOV	r0,#0
.L459:
.LM562:
	LD	r5,#CHECK_RESTRICTION
	LJMP	r5
.LVL374:
.LM563:
	LD.w	r5,[r6+#1]
	MOV	r4,#64
	ANL	r5,r5,r4
	JZ	.L458
	ADD	r3,r6,#4
.L462:
.LM564:
// inline asm begin
	// 1291 "../src/kf32a9k1xxx_i2c.c" 1
	CLR [r3], #6
	// 0 "" 2
.LM565:
// inline asm end
	LD.w	r5,[r6+#1]
	ANL	r5,r5,r4
	JNZ	.L462
.L458:
.LM566:
	POP	r6
	.cfi_def_cfa_offset 4
.LVL375:
	POP	lr
	.cfi_def_cfa_offset 0
	JMP	lr
	.cfi_endproc
.LFE49:
	.size	I2C_Clear_Arbitration_Lost_Flag, .-I2C_Clear_Arbitration_Lost_Flag
	.section .text$I2C_Get_Write_Read_Flag
	.type	.text$I2C_Get_Write_Read_Flag$scode_local_50, @function
	.text$I2C_Get_Write_Read_Flag$scode_local_50:
	.align	1
	.export	I2C_Get_Write_Read_Flag
	.type	I2C_Get_Write_Read_Flag, @function
I2C_Get_Write_Read_Flag:
.LFB50:
.LM567:
	.cfi_startproc
.LVL376:
	PUSH	{r6, lr}
	.cfi_def_cfa_offset 8
	MOV	r6,r0
.LM568:
	MOV	r0,#1
.LVL377:
	LD	r5,#1073745152
	CMP	r6,r5
	JZ	.L471
.LM569:
	LD	r5,#1073745280
	CMP	r6,r5
	JZ	.L471
.LM570:
	LD	r5,#1073745408
	CMP	r6,r5
	JZ	.L471
	LD	r5,#1073750912
	CMP	r6,r5
	JZ	.L471
	MOV	r0,#0
.L471:
.LM571:
	LD	r5,#CHECK_RESTRICTION
	LJMP	r5
.LVL378:
.LM572:
	LD.w	r0,[r6+#1]
	LSR	r0,#7
.LM573:
	MOV	r5,#1
	ANL	r0,r0,r5
	POP	r6
	.cfi_def_cfa_offset 4
.LVL379:
	POP	lr
	.cfi_def_cfa_offset 0
	JMP	lr
	.cfi_endproc
.LFE50:
	.size	I2C_Get_Write_Read_Flag, .-I2C_Get_Write_Read_Flag
	.section .text$I2C_Get_SMBus_Alert_Flag
	.type	.text$I2C_Get_SMBus_Alert_Flag$scode_local_51, @function
	.text$I2C_Get_SMBus_Alert_Flag$scode_local_51:
	.align	1
	.export	I2C_Get_SMBus_Alert_Flag
	.type	I2C_Get_SMBus_Alert_Flag, @function
I2C_Get_SMBus_Alert_Flag:
.LFB51:
.LM574:
	.cfi_startproc
.LVL380:
	PUSH	{r6, lr}
	.cfi_def_cfa_offset 8
	MOV	r6,r0
.LM575:
	MOV	r0,#1
.LVL381:
	LD	r5,#1073745152
	CMP	r6,r5
	JZ	.L477
.LM576:
	LD	r5,#1073745280
	CMP	r6,r5
	JZ	.L477
.LM577:
	LD	r5,#1073745408
	CMP	r6,r5
	JZ	.L477
	LD	r5,#1073750912
	CMP	r6,r5
	JZ	.L477
	MOV	r0,#0
.L477:
.LM578:
	LD	r5,#CHECK_RESTRICTION
	LJMP	r5
.LVL382:
.LM579:
	LD.w	r0,[r6+#1]
	LSR	r0,#8
.LM580:
	MOV	r5,#1
	ANL	r0,r0,r5
	POP	r6
	.cfi_def_cfa_offset 4
.LVL383:
	POP	lr
	.cfi_def_cfa_offset 0
	JMP	lr
	.cfi_endproc
.LFE51:
	.size	I2C_Get_SMBus_Alert_Flag, .-I2C_Get_SMBus_Alert_Flag
	.section .text$I2C_Clear_SMBus_Alert_Flag
	.type	.text$I2C_Clear_SMBus_Alert_Flag$scode_local_52, @function
	.text$I2C_Clear_SMBus_Alert_Flag$scode_local_52:
	.align	1
	.export	I2C_Clear_SMBus_Alert_Flag
	.type	I2C_Clear_SMBus_Alert_Flag, @function
I2C_Clear_SMBus_Alert_Flag:
.LFB52:
.LM581:
	.cfi_startproc
.LVL384:
	PUSH	{r6, lr}
	.cfi_def_cfa_offset 8
	MOV	r6,r0
.LM582:
	MOV	r0,#1
.LVL385:
	LD	r5,#1073745152
	CMP	r6,r5
	JZ	.L483
.LM583:
	LD	r5,#1073745280
	CMP	r6,r5
	JZ	.L483
.LM584:
	LD	r5,#1073745408
	CMP	r6,r5
	JZ	.L483
	LD	r5,#1073750912
	CMP	r6,r5
	JZ	.L483
	MOV	r0,#0
.L483:
.LM585:
	LD	r5,#CHECK_RESTRICTION
	LJMP	r5
.LVL386:
.LM586:
	LD.w	r5,[r6+#1]
	MOV	r4,#255
	ADD	r4,r4,#1
	ANL	r5,r5,r4
	JZ	.L482
	ADD	r3,r6,#4
.L486:
.LM587:
// inline asm begin
	// 1359 "../src/kf32a9k1xxx_i2c.c" 1
	CLR [r3], #8
	// 0 "" 2
.LM588:
// inline asm end
	LD.w	r5,[r6+#1]
	ANL	r5,r5,r4
	JNZ	.L486
.L482:
.LM589:
	POP	r6
	.cfi_def_cfa_offset 4
.LVL387:
	POP	lr
	.cfi_def_cfa_offset 0
	JMP	lr
	.cfi_endproc
.LFE52:
	.size	I2C_Clear_SMBus_Alert_Flag, .-I2C_Clear_SMBus_Alert_Flag
	.section .text$I2C_Get_SMBus_Host_Header_Flag
	.type	.text$I2C_Get_SMBus_Host_Header_Flag$scode_local_53, @function
	.text$I2C_Get_SMBus_Host_Header_Flag$scode_local_53:
	.align	1
	.export	I2C_Get_SMBus_Host_Header_Flag
	.type	I2C_Get_SMBus_Host_Header_Flag, @function
I2C_Get_SMBus_Host_Header_Flag:
.LFB53:
.LM590:
	.cfi_startproc
.LVL388:
	PUSH	{r6, lr}
	.cfi_def_cfa_offset 8
	MOV	r6,r0
.LM591:
	MOV	r0,#1
.LVL389:
	LD	r5,#1073745152
	CMP	r6,r5
	JZ	.L495
.LM592:
	LD	r5,#1073745280
	CMP	r6,r5
	JZ	.L495
.LM593:
	LD	r5,#1073745408
	CMP	r6,r5
	JZ	.L495
	LD	r5,#1073750912
	CMP	r6,r5
	JZ	.L495
	MOV	r0,#0
.L495:
.LM594:
	LD	r5,#CHECK_RESTRICTION
	LJMP	r5
.LVL390:
.LM595:
	LD.w	r0,[r6+#1]
	LSR	r0,#9
.LM596:
	MOV	r5,#1
	ANL	r0,r0,r5
	POP	r6
	.cfi_def_cfa_offset 4
.LVL391:
	POP	lr
	.cfi_def_cfa_offset 0
	JMP	lr
	.cfi_endproc
.LFE53:
	.size	I2C_Get_SMBus_Host_Header_Flag, .-I2C_Get_SMBus_Host_Header_Flag
	.section .text$I2C_Clear_SMBus_Host_Header_Flag
	.type	.text$I2C_Clear_SMBus_Host_Header_Flag$scode_local_54, @function
	.text$I2C_Clear_SMBus_Host_Header_Flag$scode_local_54:
	.align	1
	.export	I2C_Clear_SMBus_Host_Header_Flag
	.type	I2C_Clear_SMBus_Host_Header_Flag, @function
I2C_Clear_SMBus_Host_Header_Flag:
.LFB54:
.LM597:
	.cfi_startproc
.LVL392:
	PUSH	{r6, lr}
	.cfi_def_cfa_offset 8
	MOV	r6,r0
.LM598:
	MOV	r0,#1
.LVL393:
	LD	r5,#1073745152
	CMP	r6,r5
	JZ	.L501
.LM599:
	LD	r5,#1073745280
	CMP	r6,r5
	JZ	.L501
.LM600:
	LD	r5,#1073745408
	CMP	r6,r5
	JZ	.L501
	LD	r5,#1073750912
	CMP	r6,r5
	JZ	.L501
	MOV	r0,#0
.L501:
.LM601:
	LD	r5,#CHECK_RESTRICTION
	LJMP	r5
.LVL394:
.LM602:
	LD.w	r5,[r6+#1]
	MOV	r4,#1
	LSL	r4,#9
	ANL	r5,r5,r4
	JZ	.L500
	ADD	r3,r6,#4
.L504:
.LM603:
// inline asm begin
	// 1402 "../src/kf32a9k1xxx_i2c.c" 1
	CLR [r3], #9
	// 0 "" 2
.LM604:
// inline asm end
	LD.w	r5,[r6+#1]
	ANL	r5,r5,r4
	JNZ	.L504
.L500:
.LM605:
	POP	r6
	.cfi_def_cfa_offset 4
.LVL395:
	POP	lr
	.cfi_def_cfa_offset 0
	JMP	lr
	.cfi_endproc
.LFE54:
	.size	I2C_Clear_SMBus_Host_Header_Flag, .-I2C_Clear_SMBus_Host_Header_Flag
	.section .text$I2C_Get_SMBus_Device_Default_Flag
	.type	.text$I2C_Get_SMBus_Device_Default_Flag$scode_local_55, @function
	.text$I2C_Get_SMBus_Device_Default_Flag$scode_local_55:
	.align	1
	.export	I2C_Get_SMBus_Device_Default_Flag
	.type	I2C_Get_SMBus_Device_Default_Flag, @function
I2C_Get_SMBus_Device_Default_Flag:
.LFB55:
.LM606:
	.cfi_startproc
.LVL396:
	PUSH	{r6, lr}
	.cfi_def_cfa_offset 8
	MOV	r6,r0
.LM607:
	MOV	r0,#1
.LVL397:
	LD	r5,#1073745152
	CMP	r6,r5
	JZ	.L513
.LM608:
	LD	r5,#1073745280
	CMP	r6,r5
	JZ	.L513
.LM609:
	LD	r5,#1073745408
	CMP	r6,r5
	JZ	.L513
	LD	r5,#1073750912
	CMP	r6,r5
	JZ	.L513
	MOV	r0,#0
.L513:
.LM610:
	LD	r5,#CHECK_RESTRICTION
	LJMP	r5
.LVL398:
.LM611:
	LD.w	r0,[r6+#1]
	LSR	r0,#10
.LM612:
	MOV	r5,#1
	ANL	r0,r0,r5
	POP	r6
	.cfi_def_cfa_offset 4
.LVL399:
	POP	lr
	.cfi_def_cfa_offset 0
	JMP	lr
	.cfi_endproc
.LFE55:
	.size	I2C_Get_SMBus_Device_Default_Flag, .-I2C_Get_SMBus_Device_Default_Flag
	.section .text$I2C_Clear_SMBus_Device_Default_Flag
	.type	.text$I2C_Clear_SMBus_Device_Default_Flag$scode_local_56, @function
	.text$I2C_Clear_SMBus_Device_Default_Flag$scode_local_56:
	.align	1
	.export	I2C_Clear_SMBus_Device_Default_Flag
	.type	I2C_Clear_SMBus_Device_Default_Flag, @function
I2C_Clear_SMBus_Device_Default_Flag:
.LFB56:
.LM613:
	.cfi_startproc
.LVL400:
	PUSH	{r6, lr}
	.cfi_def_cfa_offset 8
	MOV	r6,r0
.LM614:
	MOV	r0,#1
.LVL401:
	LD	r5,#1073745152
	CMP	r6,r5
	JZ	.L519
.LM615:
	LD	r5,#1073745280
	CMP	r6,r5
	JZ	.L519
.LM616:
	LD	r5,#1073745408
	CMP	r6,r5
	JZ	.L519
	LD	r5,#1073750912
	CMP	r6,r5
	JZ	.L519
	MOV	r0,#0
.L519:
.LM617:
	LD	r5,#CHECK_RESTRICTION
	LJMP	r5
.LVL402:
.LM618:
	LD.w	r5,[r6+#1]
	MOV	r4,#1
	LSL	r4,#10
	ANL	r5,r5,r4
	JZ	.L518
	ADD	r3,r6,#4
.L522:
.LM619:
// inline asm begin
	// 1445 "../src/kf32a9k1xxx_i2c.c" 1
	CLR [r3], #10
	// 0 "" 2
.LM620:
// inline asm end
	LD.w	r5,[r6+#1]
	ANL	r5,r5,r4
	JNZ	.L522
.L518:
.LM621:
	POP	r6
	.cfi_def_cfa_offset 4
.LVL403:
	POP	lr
	.cfi_def_cfa_offset 0
	JMP	lr
	.cfi_endproc
.LFE56:
	.size	I2C_Clear_SMBus_Device_Default_Flag, .-I2C_Clear_SMBus_Device_Default_Flag
	.section .text$I2C_Get_INTERRUPT_Flag
	.type	.text$I2C_Get_INTERRUPT_Flag$scode_local_57, @function
	.text$I2C_Get_INTERRUPT_Flag$scode_local_57:
	.align	1
	.export	I2C_Get_INTERRUPT_Flag
	.type	I2C_Get_INTERRUPT_Flag, @function
I2C_Get_INTERRUPT_Flag:
.LFB57:
.LM622:
	.cfi_startproc
.LVL404:
	PUSH	{r6, lr}
	.cfi_def_cfa_offset 8
	MOV	r6,r0
.LM623:
	MOV	r0,#1
.LVL405:
	LD	r5,#1073745152
	CMP	r6,r5
	JZ	.L531
.LM624:
	LD	r5,#1073745280
	CMP	r6,r5
	JZ	.L531
.LM625:
	LD	r5,#1073745408
	CMP	r6,r5
	JZ	.L531
	LD	r5,#1073750912
	CMP	r6,r5
	JZ	.L531
	MOV	r0,#0
.L531:
.LM626:
	LD	r5,#CHECK_RESTRICTION
	LJMP	r5
.LVL406:
.LM627:
	LD.w	r0,[r6+#1]
	LSR	r0,#11
.LM628:
	MOV	r5,#1
	ANL	r0,r0,r5
	POP	r6
	.cfi_def_cfa_offset 4
.LVL407:
	POP	lr
	.cfi_def_cfa_offset 0
	JMP	lr
	.cfi_endproc
.LFE57:
	.size	I2C_Get_INTERRUPT_Flag, .-I2C_Get_INTERRUPT_Flag
	.section .text$I2C_Clear_INTERRUPT_Flag
	.type	.text$I2C_Clear_INTERRUPT_Flag$scode_local_58, @function
	.text$I2C_Clear_INTERRUPT_Flag$scode_local_58:
	.align	1
	.export	I2C_Clear_INTERRUPT_Flag
	.type	I2C_Clear_INTERRUPT_Flag, @function
I2C_Clear_INTERRUPT_Flag:
.LFB58:
.LM629:
	.cfi_startproc
.LVL408:
	PUSH	{r6, lr}
	.cfi_def_cfa_offset 8
	MOV	r6,r0
.LM630:
	MOV	r0,#1
.LVL409:
	LD	r5,#1073745152
	CMP	r6,r5
	JZ	.L537
.LM631:
	LD	r5,#1073745280
	CMP	r6,r5
	JZ	.L537
.LM632:
	LD	r5,#1073745408
	CMP	r6,r5
	JZ	.L537
	LD	r5,#1073750912
	CMP	r6,r5
	JZ	.L537
	MOV	r0,#0
.L537:
.LM633:
	LD	r5,#CHECK_RESTRICTION
	LJMP	r5
.LVL410:
.LM634:
	LD.w	r5,[r6+#1]
	MOV	r4,#1
	LSL	r4,#11
	ANL	r5,r5,r4
	JZ	.L536
	ADD	r3,r6,#4
.L540:
.LM635:
// inline asm begin
	// 1488 "../src/kf32a9k1xxx_i2c.c" 1
	CLR [r3], #11
	// 0 "" 2
.LM636:
// inline asm end
	LD.w	r5,[r6+#1]
	ANL	r5,r5,r4
	JNZ	.L540
.L536:
.LM637:
	POP	r6
	.cfi_def_cfa_offset 4
.LVL411:
	POP	lr
	.cfi_def_cfa_offset 0
	JMP	lr
	.cfi_endproc
.LFE58:
	.size	I2C_Clear_INTERRUPT_Flag, .-I2C_Clear_INTERRUPT_Flag
	.section .text$I2C_Get_Receive_Buff_Flag
	.type	.text$I2C_Get_Receive_Buff_Flag$scode_local_59, @function
	.text$I2C_Get_Receive_Buff_Flag$scode_local_59:
	.align	1
	.export	I2C_Get_Receive_Buff_Flag
	.type	I2C_Get_Receive_Buff_Flag, @function
I2C_Get_Receive_Buff_Flag:
.LFB59:
.LM638:
	.cfi_startproc
.LVL412:
	PUSH	{r6, lr}
	.cfi_def_cfa_offset 8
	MOV	r6,r0
.LM639:
	MOV	r0,#1
.LVL413:
	LD	r5,#1073745152
	CMP	r6,r5
	JZ	.L549
.LM640:
	LD	r5,#1073745280
	CMP	r6,r5
	JZ	.L549
.LM641:
	LD	r5,#1073745408
	CMP	r6,r5
	JZ	.L549
	LD	r5,#1073750912
	CMP	r6,r5
	JZ	.L549
	MOV	r0,#0
.L549:
.LM642:
	LD	r5,#CHECK_RESTRICTION
	LJMP	r5
.LVL414:
.LM643:
	LD.w	r0,[r6+#1]
	LSR	r0,#12
.LM644:
	MOV	r5,#1
	ANL	r0,r0,r5
	POP	r6
	.cfi_def_cfa_offset 4
.LVL415:
	POP	lr
	.cfi_def_cfa_offset 0
	JMP	lr
	.cfi_endproc
.LFE59:
	.size	I2C_Get_Receive_Buff_Flag, .-I2C_Get_Receive_Buff_Flag
	.section .text$I2C_Get_Transmit_Buff_Flag
	.type	.text$I2C_Get_Transmit_Buff_Flag$scode_local_60, @function
	.text$I2C_Get_Transmit_Buff_Flag$scode_local_60:
	.align	1
	.export	I2C_Get_Transmit_Buff_Flag
	.type	I2C_Get_Transmit_Buff_Flag, @function
I2C_Get_Transmit_Buff_Flag:
.LFB60:
.LM645:
	.cfi_startproc
.LVL416:
	PUSH	{r6, lr}
	.cfi_def_cfa_offset 8
	MOV	r6,r0
.LM646:
	MOV	r0,#1
.LVL417:
	LD	r5,#1073745152
	CMP	r6,r5
	JZ	.L555
.LM647:
	LD	r5,#1073745280
	CMP	r6,r5
	JZ	.L555
.LM648:
	LD	r5,#1073745408
	CMP	r6,r5
	JZ	.L555
	LD	r5,#1073750912
	CMP	r6,r5
	JZ	.L555
	MOV	r0,#0
.L555:
.LM649:
	LD	r5,#CHECK_RESTRICTION
	LJMP	r5
.LVL418:
.LM650:
	LD.w	r0,[r6+#1]
	LSR	r0,#13
.LM651:
	MOV	r5,#1
	ANL	r0,r0,r5
	POP	r6
	.cfi_def_cfa_offset 4
.LVL419:
	POP	lr
	.cfi_def_cfa_offset 0
	JMP	lr
	.cfi_endproc
.LFE60:
	.size	I2C_Get_Transmit_Buff_Flag, .-I2C_Get_Transmit_Buff_Flag
	.section .text$I2C_Get_Receive_DMA_Flag
	.type	.text$I2C_Get_Receive_DMA_Flag$scode_local_61, @function
	.text$I2C_Get_Receive_DMA_Flag$scode_local_61:
	.align	1
	.export	I2C_Get_Receive_DMA_Flag
	.type	I2C_Get_Receive_DMA_Flag, @function
I2C_Get_Receive_DMA_Flag:
.LFB61:
.LM652:
	.cfi_startproc
.LVL420:
	PUSH	{r6, lr}
	.cfi_def_cfa_offset 8
	MOV	r6,r0
.LM653:
	MOV	r0,#1
.LVL421:
	LD	r5,#1073745152
	CMP	r6,r5
	JZ	.L561
.LM654:
	LD	r5,#1073745280
	CMP	r6,r5
	JZ	.L561
.LM655:
	LD	r5,#1073745408
	CMP	r6,r5
	JZ	.L561
	LD	r5,#1073750912
	CMP	r6,r5
	JZ	.L561
	MOV	r0,#0
.L561:
.LM656:
	LD	r5,#CHECK_RESTRICTION
	LJMP	r5
.LVL422:
.LM657:
	LD.w	r0,[r6+#1]
	LSR	r0,#16
.LM658:
	MOV	r5,#1
	ANL	r0,r0,r5
	POP	r6
	.cfi_def_cfa_offset 4
.LVL423:
	POP	lr
	.cfi_def_cfa_offset 0
	JMP	lr
	.cfi_endproc
.LFE61:
	.size	I2C_Get_Receive_DMA_Flag, .-I2C_Get_Receive_DMA_Flag
	.section .text$I2C_Get_Transmit_DMA_Flag
	.type	.text$I2C_Get_Transmit_DMA_Flag$scode_local_62, @function
	.text$I2C_Get_Transmit_DMA_Flag$scode_local_62:
	.align	1
	.export	I2C_Get_Transmit_DMA_Flag
	.type	I2C_Get_Transmit_DMA_Flag, @function
I2C_Get_Transmit_DMA_Flag:
.LFB62:
.LM659:
	.cfi_startproc
.LVL424:
	PUSH	{r6, lr}
	.cfi_def_cfa_offset 8
	MOV	r6,r0
.LM660:
	MOV	r0,#1
.LVL425:
	LD	r5,#1073745152
	CMP	r6,r5
	JZ	.L567
.LM661:
	LD	r5,#1073745280
	CMP	r6,r5
	JZ	.L567
.LM662:
	LD	r5,#1073745408
	CMP	r6,r5
	JZ	.L567
	LD	r5,#1073750912
	CMP	r6,r5
	JZ	.L567
	MOV	r0,#0
.L567:
.LM663:
	LD	r5,#CHECK_RESTRICTION
	LJMP	r5
.LVL426:
.LM664:
	LD.w	r0,[r6+#1]
	LSR	r0,#17
.LM665:
	MOV	r5,#1
	ANL	r0,r0,r5
	POP	r6
	.cfi_def_cfa_offset 4
.LVL427:
	POP	lr
	.cfi_def_cfa_offset 0
	JMP	lr
	.cfi_endproc
.LFE62:
	.size	I2C_Get_Transmit_DMA_Flag, .-I2C_Get_Transmit_DMA_Flag
	.section .text$I2C_Get_Bus_Error_Flag
	.type	.text$I2C_Get_Bus_Error_Flag$scode_local_63, @function
	.text$I2C_Get_Bus_Error_Flag$scode_local_63:
	.align	1
	.export	I2C_Get_Bus_Error_Flag
	.type	I2C_Get_Bus_Error_Flag, @function
I2C_Get_Bus_Error_Flag:
.LFB63:
.LM666:
	.cfi_startproc
.LVL428:
	PUSH	{r6, lr}
	.cfi_def_cfa_offset 8
	MOV	r6,r0
.LM667:
	MOV	r0,#1
.LVL429:
	LD	r5,#1073745152
	CMP	r6,r5
	JZ	.L573
.LM668:
	LD	r5,#1073745280
	CMP	r6,r5
	JZ	.L573
.LM669:
	LD	r5,#1073745408
	CMP	r6,r5
	JZ	.L573
	LD	r5,#1073750912
	CMP	r6,r5
	JZ	.L573
	MOV	r0,#0
.L573:
.LM670:
	LD	r5,#CHECK_RESTRICTION
	LJMP	r5
.LVL430:
.LM671:
	LD.w	r0,[r6+#1]
	LSR	r0,#18
.LM672:
	MOV	r5,#1
	ANL	r0,r0,r5
	POP	r6
	.cfi_def_cfa_offset 4
.LVL431:
	POP	lr
	.cfi_def_cfa_offset 0
	JMP	lr
	.cfi_endproc
.LFE63:
	.size	I2C_Get_Bus_Error_Flag, .-I2C_Get_Bus_Error_Flag
	.text	
.Letext0: