	.file	"kf32a9k1xxx_ecfgl.c"
	.text	
.Ltext0:
	.cfi_sections	.debug_frame
	.section .text$ECFGL_Reset
	.type	.text$ECFGL_Reset$scode_local_1, @function
	.text$ECFGL_Reset$scode_local_1:
	.align	1
	.export	ECFGL_Reset
	.type	ECFGL_Reset, @function
ECFGL_Reset:
.LFB1:
.LM1:
	.cfi_startproc
	PUSH	{r6, r7, lr}
	.cfi_def_cfa_offset 12
.LM2:
	MOV	r6,#1
	LSL	r6,#26
	MOV	r0,r6
	MOV	r1,#1
	LD	r7,#RST_CTL3_Peripheral_Reset_Enable
	LJMP	r7
.LVL0:
.LM3:
	MOV	r0,r6
	MOV	r1,#0
	LJMP	r7
.LVL1:
.LM4:
	MOV	r0,r6
	MOV	r1,#1
	LD	r5,#PCLK_CTL3_Peripheral_Clock_Enable
	LJMP	r5
.LVL2:
.LM5:
	POP	{r6, r7}
	.cfi_def_cfa_offset 4
	POP	lr
	.cfi_def_cfa_offset 0
	JMP	lr
	.cfi_endproc
.LFE1:
	.size	ECFGL_Reset, .-ECFGL_Reset
	.section .text$ECFGL_Output_Enable
	.type	.text$ECFGL_Output_Enable$scode_local_2, @function
	.text$ECFGL_Output_Enable$scode_local_2:
	.align	1
	.export	ECFGL_Output_Enable
	.type	ECFGL_Output_Enable, @function
ECFGL_Output_Enable:
.LFB2:
.LM6:
	.cfi_startproc
.LVL3:
	PUSH	{r6, r7, r8, lr}
	.cfi_def_cfa_offset 16
	MOV	r7,r0
	MOV	r6,r1
.LVL4:
.LM7:
	MOV	r0,#1
.LVL5:
	CMP	r7,#15
	JLS	.L3
	MOV	r0,#0
.L3:
	LD	r5,#CHECK_RESTRICTION
	MOV	r8,r5
	LJMP	r5
.LVL6:
.LM8:
	MOV	r0,#1
	CMP	r6,r0
	JLS	.L4
	MOV	r0,#0
.L4:
	LJMP	r8
.LVL7:
.LM9:
	LD	r5,#1073752704
	LSL	r7,#2
.LVL8:
	LD.w	r4,[r5+r7]
.LVL9:
.LBB34:
.LBB35:
.LM10:
	CLR	r4,#12
.LVL10:
.LBE35:
.LBE34:
.LM11:
	LSL	r6,#12
.LVL11:
.LBB37:
.LBB36:
.LM12:
	ORL	r6,r4,r6
.LVL12:
.LBE36:
.LBE37:
.LM13:
	ST.w	[r5+r7],r6
.LM14:
	POP	{r6, r7, r8}
	.cfi_def_cfa_offset 4
	POP	lr
	.cfi_def_cfa_offset 0
	JMP	lr
	.cfi_endproc
.LFE2:
	.size	ECFGL_Output_Enable, .-ECFGL_Output_Enable
	.section .text$ECFGL_Function_Select
	.type	.text$ECFGL_Function_Select$scode_local_3, @function
	.text$ECFGL_Function_Select$scode_local_3:
	.align	1
	.export	ECFGL_Function_Select
	.type	ECFGL_Function_Select, @function
ECFGL_Function_Select:
.LFB3:
.LM15:
	.cfi_startproc
.LVL13:
	PUSH	{r6, r7, r8, lr}
	.cfi_def_cfa_offset 16
	MOV	r7,r0
	MOV	r6,r1
.LVL14:
.LM16:
	MOV	r0,#1
.LVL15:
	CMP	r7,#15
	JLS	.L7
	MOV	r0,#0
.L7:
	LD	r5,#CHECK_RESTRICTION
	MOV	r8,r5
	LJMP	r5
.LVL16:
.LM17:
	MOV	r0,#1
	CMP	r6,#15
	JLS	.L8
	MOV	r0,#0
.L8:
	LJMP	r8
.LVL17:
.LM18:
	LD	r5,#1073752704
	LSL	r7,#2
.LVL18:
	LD.w	r3,[r5+r7]
.LVL19:
.LBB38:
.LBB39:
.LM19:
	LD	r4,#-3841
	ANL	r4,r3,r4
.LBE39:
.LBE38:
.LM20:
	LSL	r6,#8
.LVL20:
.LBB41:
.LBB40:
.LM21:
	ORL	r6,r4,r6
.LVL21:
.LBE40:
.LBE41:
.LM22:
	ST.w	[r5+r7],r6
.LM23:
	POP	{r6, r7, r8}
	.cfi_def_cfa_offset 4
	POP	lr
	.cfi_def_cfa_offset 0
	JMP	lr
	.cfi_endproc
.LFE3:
	.size	ECFGL_Function_Select, .-ECFGL_Function_Select
	.section .text$ECFGL_MUX4IN_Select
	.type	.text$ECFGL_MUX4IN_Select$scode_local_4, @function
	.text$ECFGL_MUX4IN_Select$scode_local_4:
	.align	1
	.export	ECFGL_MUX4IN_Select
	.type	ECFGL_MUX4IN_Select, @function
ECFGL_MUX4IN_Select:
.LFB4:
.LM24:
	.cfi_startproc
.LVL22:
	PUSH	{r6, r7, r8, lr}
	.cfi_def_cfa_offset 16
	MOV	r7,r0
	MOV	r6,r1
.LVL23:
.LM25:
	MOV	r0,#1
.LVL24:
	CMP	r7,#15
	JLS	.L10
	MOV	r0,#0
.L10:
	LD	r5,#CHECK_RESTRICTION
	MOV	r8,r5
	LJMP	r5
.LVL25:
.LM26:
	MOV	r0,#1
	CMP	r6,r0
	JLS	.L11
	MOV	r0,#0
.L11:
	LJMP	r8
.LVL26:
.LM27:
	LD	r5,#1073752704
	LSL	r7,#2
.LVL27:
	LD.w	r4,[r5+r7]
.LVL28:
.LBB42:
.LBB43:
.LM28:
	CLR	r4,#6
.LVL29:
.LBE43:
.LBE42:
.LM29:
	LSL	r6,#6
.LVL30:
.LBB45:
.LBB44:
.LM30:
	ORL	r6,r4,r6
.LVL31:
.LBE44:
.LBE45:
.LM31:
	ST.w	[r5+r7],r6
.LM32:
	POP	{r6, r7, r8}
	.cfi_def_cfa_offset 4
	POP	lr
	.cfi_def_cfa_offset 0
	JMP	lr
	.cfi_endproc
.LFE4:
	.size	ECFGL_MUX4IN_Select, .-ECFGL_MUX4IN_Select
	.section .text$ECFGL_MUX3IN_Select
	.type	.text$ECFGL_MUX3IN_Select$scode_local_5, @function
	.text$ECFGL_MUX3IN_Select$scode_local_5:
	.align	1
	.export	ECFGL_MUX3IN_Select
	.type	ECFGL_MUX3IN_Select, @function
ECFGL_MUX3IN_Select:
.LFB5:
.LM33:
	.cfi_startproc
.LVL32:
	PUSH	{r6, r7, r8, lr}
	.cfi_def_cfa_offset 16
	MOV	r7,r0
	MOV	r6,r1
.LVL33:
.LM34:
	MOV	r0,#1
.LVL34:
	CMP	r7,#15
	JLS	.L13
	MOV	r0,#0
.L13:
	LD	r5,#CHECK_RESTRICTION
	MOV	r8,r5
	LJMP	r5
.LVL35:
.LM35:
	MOV	r0,#1
	CMP	r6,r0
	JLS	.L14
	MOV	r0,#0
.L14:
	LJMP	r8
.LVL36:
.LM36:
	LD	r5,#1073752704
	LSL	r7,#2
.LVL37:
	LD.w	r4,[r5+r7]
.LVL38:
.LBB46:
.LBB47:
.LM37:
	CLR	r4,#5
.LVL39:
.LBE47:
.LBE46:
.LM38:
	LSL	r6,#5
.LVL40:
.LBB49:
.LBB48:
.LM39:
	ORL	r6,r4,r6
.LVL41:
.LBE48:
.LBE49:
.LM40:
	ST.w	[r5+r7],r6
.LM41:
	POP	{r6, r7, r8}
	.cfi_def_cfa_offset 4
	POP	lr
	.cfi_def_cfa_offset 0
	JMP	lr
	.cfi_endproc
.LFE5:
	.size	ECFGL_MUX3IN_Select, .-ECFGL_MUX3IN_Select
	.section .text$ECFGL_MUX2IN_Select
	.type	.text$ECFGL_MUX2IN_Select$scode_local_6, @function
	.text$ECFGL_MUX2IN_Select$scode_local_6:
	.align	1
	.export	ECFGL_MUX2IN_Select
	.type	ECFGL_MUX2IN_Select, @function
ECFGL_MUX2IN_Select:
.LFB6:
.LM42:
	.cfi_startproc
.LVL42:
	PUSH	{r6, r7, r8, lr}
	.cfi_def_cfa_offset 16
	MOV	r7,r0
	MOV	r6,r1
.LVL43:
.LM43:
	MOV	r0,#1
.LVL44:
	CMP	r7,#15
	JLS	.L16
	MOV	r0,#0
.L16:
	LD	r5,#CHECK_RESTRICTION
	MOV	r8,r5
	LJMP	r5
.LVL45:
.LM44:
	MOV	r0,#1
	CMP	r6,r0
	JLS	.L17
	MOV	r0,#0
.L17:
	LJMP	r8
.LVL46:
.LM45:
	LD	r5,#1073752704
	LSL	r7,#2
.LVL47:
	LD.w	r4,[r5+r7]
.LVL48:
.LBB50:
.LBB51:
.LM46:
	CLR	r4,#4
.LVL49:
.LBE51:
.LBE50:
.LM47:
	LSL	r6,#4
.LVL50:
.LBB53:
.LBB52:
.LM48:
	ORL	r6,r4,r6
.LVL51:
.LBE52:
.LBE53:
.LM49:
	ST.w	[r5+r7],r6
.LM50:
	POP	{r6, r7, r8}
	.cfi_def_cfa_offset 4
	POP	lr
	.cfi_def_cfa_offset 0
	JMP	lr
	.cfi_endproc
.LFE6:
	.size	ECFGL_MUX2IN_Select, .-ECFGL_MUX2IN_Select
	.section .text$ECFGL_MUX1IN_Select
	.type	.text$ECFGL_MUX1IN_Select$scode_local_7, @function
	.text$ECFGL_MUX1IN_Select$scode_local_7:
	.align	1
	.export	ECFGL_MUX1IN_Select
	.type	ECFGL_MUX1IN_Select, @function
ECFGL_MUX1IN_Select:
.LFB7:
.LM51:
	.cfi_startproc
.LVL52:
	PUSH	{r6, r7, r8, lr}
	.cfi_def_cfa_offset 16
	MOV	r7,r0
	MOV	r6,r1
.LVL53:
.LM52:
	MOV	r0,#1
.LVL54:
	CMP	r7,#15
	JLS	.L19
	MOV	r0,#0
.L19:
	LD	r5,#CHECK_RESTRICTION
	MOV	r8,r5
	LJMP	r5
.LVL55:
.LM53:
	MOV	r0,#1
	CMP	r6,#3
	JLS	.L20
	MOV	r0,#0
.L20:
	LJMP	r8
.LVL56:
.LM54:
	LD	r5,#1073752704
	LSL	r7,#2
.LVL57:
	LD.w	r4,[r5+r7]
.LVL58:
.LBB54:
.LBB55:
.LM55:
	CLR	r4,#2
	CLR	r4,#3
.LVL59:
.LBE55:
.LBE54:
.LM56:
	LSL	r6,#2
.LVL60:
.LBB57:
.LBB56:
.LM57:
	ORL	r6,r4,r6
.LVL61:
.LBE56:
.LBE57:
.LM58:
	ST.w	[r5+r7],r6
.LM59:
	POP	{r6, r7, r8}
	.cfi_def_cfa_offset 4
	POP	lr
	.cfi_def_cfa_offset 0
	JMP	lr
	.cfi_endproc
.LFE7:
	.size	ECFGL_MUX1IN_Select, .-ECFGL_MUX1IN_Select
	.section .text$ECFGL_MUX0IN_Select
	.type	.text$ECFGL_MUX0IN_Select$scode_local_8, @function
	.text$ECFGL_MUX0IN_Select$scode_local_8:
	.align	1
	.export	ECFGL_MUX0IN_Select
	.type	ECFGL_MUX0IN_Select, @function
ECFGL_MUX0IN_Select:
.LFB8:
.LM60:
	.cfi_startproc
.LVL62:
	PUSH	{r6, r7, r8, lr}
	.cfi_def_cfa_offset 16
	MOV	r7,r0
	MOV	r6,r1
.LVL63:
.LM61:
	MOV	r0,#1
.LVL64:
	CMP	r7,#15
	JLS	.L22
	MOV	r0,#0
.L22:
	LD	r5,#CHECK_RESTRICTION
	MOV	r8,r5
	LJMP	r5
.LVL65:
.LM62:
	MOV	r0,#1
	CMP	r6,#3
	JLS	.L23
	MOV	r0,#0
.L23:
	LJMP	r8
.LVL66:
.LM63:
	LD	r5,#1073752704
	LSL	r7,#2
.LVL67:
	LD.w	r4,[r5+r7]
.LVL68:
.LBB58:
.LBB59:
.LM64:
	CLR	r4,#0
	CLR	r4,#1
.LVL69:
	ORL	r6,r4,r6
.LVL70:
.LBE59:
.LBE58:
.LM65:
	ST.w	[r5+r7],r6
.LM66:
	POP	{r6, r7, r8}
	.cfi_def_cfa_offset 4
	POP	lr
	.cfi_def_cfa_offset 0
	JMP	lr
	.cfi_endproc
.LFE8:
	.size	ECFGL_MUX0IN_Select, .-ECFGL_MUX0IN_Select
	.section .text$ECFGL_MUX2IN_Software_Bit_Select
	.type	.text$ECFGL_MUX2IN_Software_Bit_Select$scode_local_9, @function
	.text$ECFGL_MUX2IN_Software_Bit_Select$scode_local_9:
	.align	1
	.export	ECFGL_MUX2IN_Software_Bit_Select
	.type	ECFGL_MUX2IN_Software_Bit_Select, @function
ECFGL_MUX2IN_Software_Bit_Select:
.LFB9:
.LM67:
	.cfi_startproc
.LVL71:
	PUSH	{r6, r7, r8, lr}
	.cfi_def_cfa_offset 16
	MOV	r6,r0
	MOV	r7,r1
.LVL72:
.LM68:
	MOV	r0,#1
.LVL73:
	CMP	r6,#15
	JLS	.L25
	MOV	r0,#0
.L25:
	LD	r5,#CHECK_RESTRICTION
	MOV	r8,r5
	LJMP	r5
.LVL74:
.LM69:
	MOV	r0,#1
	CMP	r7,r0
	JLS	.L26
	MOV	r0,#0
.L26:
	LJMP	r8
.LVL75:
.LM70:
	LD	r5,#1073752704
	LD.w	r3,[r5+#16]
.LVL76:
.LM71:
	MOV	r4,#1
	LSL	r4,r4,r6
.LVL77:
.LM72:
	NOT	r4,r4
.LVL78:
.LBB60:
.LBB61:
.LM73:
	ANL	r4,r4,r3
.LVL79:
.LBE61:
.LBE60:
.LM74:
	LSL	r7,r7,r6
.LVL80:
.LBB63:
.LBB62:
.LM75:
	ORL	r6,r4,r7
.LVL81:
.LBE62:
.LBE63:
.LM76:
	ST.w	[r5+#16],r6
.LM77:
	POP	{r6, r7, r8}
	.cfi_def_cfa_offset 4
.LVL82:
	POP	lr
	.cfi_def_cfa_offset 0
	JMP	lr
	.cfi_endproc
.LFE9:
	.size	ECFGL_MUX2IN_Software_Bit_Select, .-ECFGL_MUX2IN_Software_Bit_Select
	.section .text$ECFGL_Fliter_Clock_Div_Select
	.type	.text$ECFGL_Fliter_Clock_Div_Select$scode_local_10, @function
	.text$ECFGL_Fliter_Clock_Div_Select$scode_local_10:
	.align	1
	.export	ECFGL_Fliter_Clock_Div_Select
	.type	ECFGL_Fliter_Clock_Div_Select, @function
ECFGL_Fliter_Clock_Div_Select:
.LFB10:
.LM78:
	.cfi_startproc
.LVL83:
	PUSH	{r6, lr}
	.cfi_def_cfa_offset 8
	MOV	r6,r0
.LVL84:
.LM79:
	MOV	r0,#1
.LVL85:
	CMP	r6,#4
	JLS	.L28
	MOV	r0,#0
.L28:
	LD	r5,#CHECK_RESTRICTION
	LJMP	r5
.LVL86:
.LM80:
	LD	r5,#1073752704
	LD.w	r3,[r5+#17]
.LVL87:
.LM81:
	LSL	r6,#4
.LVL88:
.LBB64:
.LBB65:
.LM82:
	MOV	r4,#112
	NOT	r4,r4
	ANL	r4,r3,r4
	ORL	r6,r6,r4
.LVL89:
.LBE65:
.LBE64:
.LM83:
	ST.w	[r5+#17],r6
.LM84:
	POP	r6
	.cfi_def_cfa_offset 4
	POP	lr
	.cfi_def_cfa_offset 0
	JMP	lr
	.cfi_endproc
.LFE10:
	.size	ECFGL_Fliter_Clock_Div_Select, .-ECFGL_Fliter_Clock_Div_Select
	.section .text$ECFGL_Fliter_Clock_Select
	.type	.text$ECFGL_Fliter_Clock_Select$scode_local_11, @function
	.text$ECFGL_Fliter_Clock_Select$scode_local_11:
	.align	1
	.export	ECFGL_Fliter_Clock_Select
	.type	ECFGL_Fliter_Clock_Select, @function
ECFGL_Fliter_Clock_Select:
.LFB11:
.LM85:
	.cfi_startproc
.LVL90:
	PUSH	{r6, lr}
	.cfi_def_cfa_offset 8
	MOV	r6,r0
.LM86:
	MOV	r0,#1
.LVL91:
	CMP	r6,#4
	JLS	.L30
	MOV	r0,#0
.L30:
	LD	r5,#CHECK_RESTRICTION
	LJMP	r5
.LVL92:
.LM87:
	LD	r5,#1073752704
	LD.w	r3,[r5+#17]
.LVL93:
.LBB66:
.LBB67:
.LM88:
	MOV	r4,#7
	NOT	r4,r4
	ANL	r4,r3,r4
	ORL	r6,r6,r4
.LVL94:
.LBE67:
.LBE66:
.LM89:
	ST.w	[r5+#17],r6
.LM90:
	POP	r6
	.cfi_def_cfa_offset 4
	POP	lr
	.cfi_def_cfa_offset 0
	JMP	lr
	.cfi_endproc
.LFE11:
	.size	ECFGL_Fliter_Clock_Select, .-ECFGL_Fliter_Clock_Select
	.section .text$ECFGLx_Clear_INT_Flag
	.type	.text$ECFGLx_Clear_INT_Flag$scode_local_12, @function
	.text$ECFGLx_Clear_INT_Flag$scode_local_12:
	.align	1
	.export	ECFGLx_Clear_INT_Flag
	.type	ECFGLx_Clear_INT_Flag, @function
ECFGLx_Clear_INT_Flag:
.LFB12:
.LM91:
	.cfi_startproc
.LVL95:
	PUSH	{r6, lr}
	.cfi_def_cfa_offset 8
	MOV	r6,r0
.LVL96:
.LM92:
	MOV	r0,#1
.LVL97:
	CMP	r6,#15
	JLS	.L32
	MOV	r0,#0
.L32:
	LD	r5,#CHECK_RESTRICTION
	LJMP	r5
.LVL98:
.LM93:
	MOV	r0,#1
	LSL	r0,r0,r6
.LVL99:
.LM94:
	LD	r3,#1073752704
	LD.w	r5,[r3+#18]
	NOT	r2,r0
.LVL100:
.LBB68:
.LBB69:
.LM95:
	ANL	r5,r2,r5
.LVL101:
	ORL	r5,r5,r0
.LBE69:
.LBE68:
.LM96:
	ST.w	[r3+#18],r5
.L33:
.LM97:
	LD	r4,#1073752704
	LD.w	r5,[r3+#19]
	ANL	r5,r0,r5
	JNZ	.L33
.LM98:
	LD.w	r5,[r4+#18]
.LVL102:
.LBB70:
.LBB71:
.LM99:
	ANL	r2,r2,r5
.LVL103:
.LBE71:
.LBE70:
.LM100:
	ST.w	[r4+#18],r2
.LM101:
	POP	r6
	.cfi_def_cfa_offset 4
.LVL104:
	POP	lr
	.cfi_def_cfa_offset 0
	JMP	lr
	.cfi_endproc
.LFE12:
	.size	ECFGLx_Clear_INT_Flag, .-ECFGLx_Clear_INT_Flag
	.section .text$ECFGLx_Get_INT_Flag
	.type	.text$ECFGLx_Get_INT_Flag$scode_local_13, @function
	.text$ECFGLx_Get_INT_Flag$scode_local_13:
	.align	1
	.export	ECFGLx_Get_INT_Flag
	.type	ECFGLx_Get_INT_Flag, @function
ECFGLx_Get_INT_Flag:
.LFB13:
.LM102:
	.cfi_startproc
.LVL105:
	PUSH	{r6, lr}
	.cfi_def_cfa_offset 8
	MOV	r6,r0
.LVL106:
.LM103:
	MOV	r0,#1
.LVL107:
	CMP	r6,#15
	JLS	.L36
	MOV	r0,#0
.L36:
	LD	r5,#CHECK_RESTRICTION
	LJMP	r5
.LVL108:
.LM104:
	LD	r5,#1073752704
	LD.w	r5,[r5+#19]
.LM105:
	MOV	r0,#1
	LSL	r0,r0,r6
.LVL109:
.LM106:
	ANL	r0,r0,r5
.LVL110:
.LM107:
	LSR	r0,r0,r6
	POP	r6
	.cfi_def_cfa_offset 4
.LVL111:
	POP	lr
	.cfi_def_cfa_offset 0
	JMP	lr
	.cfi_endproc
.LFE13:
	.size	ECFGLx_Get_INT_Flag, .-ECFGLx_Get_INT_Flag
	.section .text$ECFGLx_Rise_INT_Enable
	.type	.text$ECFGLx_Rise_INT_Enable$scode_local_14, @function
	.text$ECFGLx_Rise_INT_Enable$scode_local_14:
	.align	1
	.export	ECFGLx_Rise_INT_Enable
	.type	ECFGLx_Rise_INT_Enable, @function
ECFGLx_Rise_INT_Enable:
.LFB14:
.LM108:
	.cfi_startproc
.LVL112:
	PUSH	{r6, r7, r8, lr}
	.cfi_def_cfa_offset 16
	MOV	r6,r0
	MOV	r7,r1
.LVL113:
.LM109:
	MOV	r0,#1
.LVL114:
	CMP	r6,#15
	JLS	.L38
	MOV	r0,#0
.L38:
	LD	r5,#CHECK_RESTRICTION
	MOV	r8,r5
	LJMP	r5
.LVL115:
.LM110:
	MOV	r0,#1
	CMP	r7,r0
	JLS	.L39
	MOV	r0,#0
.L39:
	LJMP	r8
.LVL116:
.LM111:
	LD	r5,#1073752704
	LD.w	r3,[r5+#20]
.LVL117:
.LM112:
	MOV	r4,#1
	LSL	r4,r4,r6
.LVL118:
.LM113:
	NOT	r4,r4
.LVL119:
.LBB72:
.LBB73:
.LM114:
	ANL	r4,r4,r3
.LVL120:
.LBE73:
.LBE72:
.LM115:
	LSL	r7,r7,r6
.LVL121:
.LBB75:
.LBB74:
.LM116:
	ORL	r6,r4,r7
.LVL122:
.LBE74:
.LBE75:
.LM117:
	ST.w	[r5+#20],r6
.LM118:
	POP	{r6, r7, r8}
	.cfi_def_cfa_offset 4
.LVL123:
	POP	lr
	.cfi_def_cfa_offset 0
	JMP	lr
	.cfi_endproc
.LFE14:
	.size	ECFGLx_Rise_INT_Enable, .-ECFGLx_Rise_INT_Enable
	.section .text$ECFGLx_Fall_INT_Enable
	.type	.text$ECFGLx_Fall_INT_Enable$scode_local_15, @function
	.text$ECFGLx_Fall_INT_Enable$scode_local_15:
	.align	1
	.export	ECFGLx_Fall_INT_Enable
	.type	ECFGLx_Fall_INT_Enable, @function
ECFGLx_Fall_INT_Enable:
.LFB15:
.LM119:
	.cfi_startproc
.LVL124:
	PUSH	{r6, r7, r8, lr}
	.cfi_def_cfa_offset 16
	MOV	r6,r0
	MOV	r7,r1
.LVL125:
.LM120:
	MOV	r0,#1
.LVL126:
	CMP	r6,#15
	JLS	.L41
	MOV	r0,#0
.L41:
	LD	r5,#CHECK_RESTRICTION
	MOV	r8,r5
	LJMP	r5
.LVL127:
.LM121:
	MOV	r0,#1
	CMP	r7,r0
	JLS	.L42
	MOV	r0,#0
.L42:
	LJMP	r8
.LVL128:
.LM122:
	LD	r5,#1073752704
	LD.w	r3,[r5+#21]
.LVL129:
.LM123:
	MOV	r4,#1
	LSL	r4,r4,r6
.LVL130:
.LM124:
	NOT	r4,r4
.LVL131:
.LBB76:
.LBB77:
.LM125:
	ANL	r4,r4,r3
.LVL132:
.LBE77:
.LBE76:
.LM126:
	LSL	r7,r7,r6
.LVL133:
.LBB79:
.LBB78:
.LM127:
	ORL	r6,r4,r7
.LVL134:
.LBE78:
.LBE79:
.LM128:
	ST.w	[r5+#21],r6
.LM129:
	POP	{r6, r7, r8}
	.cfi_def_cfa_offset 4
.LVL135:
	POP	lr
	.cfi_def_cfa_offset 0
	JMP	lr
	.cfi_endproc
.LFE15:
	.size	ECFGLx_Fall_INT_Enable, .-ECFGLx_Fall_INT_Enable
	.section .text$ECFGLx_Trigger_ADC_Enable
	.type	.text$ECFGLx_Trigger_ADC_Enable$scode_local_16, @function
	.text$ECFGLx_Trigger_ADC_Enable$scode_local_16:
	.align	1
	.export	ECFGLx_Trigger_ADC_Enable
	.type	ECFGLx_Trigger_ADC_Enable, @function
ECFGLx_Trigger_ADC_Enable:
.LFB16:
.LM130:
	.cfi_startproc
.LVL136:
	PUSH	{r6, lr}
	.cfi_def_cfa_offset 8
	MOV	r6,r0
.LVL137:
.LM131:
	MOV	r0,#1
.LVL138:
	CMP	r6,r0
	JLS	.L44
	MOV	r0,#0
.L44:
	LD	r5,#CHECK_RESTRICTION
	LJMP	r5
.LVL139:
.LM132:
	LD	r5,#1073752704
	LD.w	r4,[r5+#22]
.LVL140:
.LM133:
	LSL	r6,#4
.LVL141:
.LBB80:
.LBB81:
.LM134:
	CLR	r4,#4
.LVL142:
	ORL	r6,r6,r4
.LVL143:
.LBE81:
.LBE80:
.LM135:
	ST.w	[r5+#22],r6
.LM136:
	POP	r6
	.cfi_def_cfa_offset 4
	POP	lr
	.cfi_def_cfa_offset 0
	JMP	lr
	.cfi_endproc
.LFE16:
	.size	ECFGLx_Trigger_ADC_Enable, .-ECFGLx_Trigger_ADC_Enable
	.section .text$ECFGLx_Trigger_ADC_Source_Select
	.type	.text$ECFGLx_Trigger_ADC_Source_Select$scode_local_17, @function
	.text$ECFGLx_Trigger_ADC_Source_Select$scode_local_17:
	.align	1
	.export	ECFGLx_Trigger_ADC_Source_Select
	.type	ECFGLx_Trigger_ADC_Source_Select, @function
ECFGLx_Trigger_ADC_Source_Select:
.LFB17:
.LM137:
	.cfi_startproc
.LVL144:
	PUSH	{r6, lr}
	.cfi_def_cfa_offset 8
	MOV	r6,r0
.LM138:
	MOV	r0,#1
.LVL145:
	CMP	r6,#15
	JLS	.L46
	MOV	r0,#0
.L46:
	LD	r5,#CHECK_RESTRICTION
	LJMP	r5
.LVL146:
.LM139:
	LD	r5,#1073752704
	LD.w	r3,[r5+#22]
.LVL147:
.LBB82:
.LBB83:
.LM140:
	MOV	r4,#15
	NOT	r4,r4
	ANL	r4,r3,r4
	ORL	r6,r6,r4
.LVL148:
.LBE83:
.LBE82:
.LM141:
	ST.w	[r5+#22],r6
.LM142:
	POP	r6
	.cfi_def_cfa_offset 4
	POP	lr
	.cfi_def_cfa_offset 0
	JMP	lr
	.cfi_endproc
.LFE17:
	.size	ECFGLx_Trigger_ADC_Source_Select, .-ECFGLx_Trigger_ADC_Source_Select
	.section .text$ECFGLx_Get_ECFGLx_Output_Status
	.type	.text$ECFGLx_Get_ECFGLx_Output_Status$scode_local_18, @function
	.text$ECFGLx_Get_ECFGLx_Output_Status$scode_local_18:
	.align	1
	.export	ECFGLx_Get_ECFGLx_Output_Status
	.type	ECFGLx_Get_ECFGLx_Output_Status, @function
ECFGLx_Get_ECFGLx_Output_Status:
.LFB18:
.LM143:
	.cfi_startproc
.LVL149:
	PUSH	{r6, lr}
	.cfi_def_cfa_offset 8
	MOV	r6,r0
.LVL150:
.LM144:
	MOV	r0,#1
.LVL151:
	CMP	r6,#15
	JLS	.L48
	MOV	r0,#0
.L48:
	LD	r5,#CHECK_RESTRICTION
	LJMP	r5
.LVL152:
.LM145:
	LD	r5,#1073752704
	LD.w	r5,[r5+#23]
.LM146:
	MOV	r0,#1
	LSL	r0,r0,r6
.LVL153:
.LM147:
	ANL	r0,r0,r5
.LVL154:
.LM148:
	LSR	r0,r0,r6
	POP	r6
	.cfi_def_cfa_offset 4
.LVL155:
	POP	lr
	.cfi_def_cfa_offset 0
	JMP	lr
	.cfi_endproc
.LFE18:
	.size	ECFGLx_Get_ECFGLx_Output_Status, .-ECFGLx_Get_ECFGLx_Output_Status
	.text	
.Letext0: