	.file	"kf32a9k1xxx_gtim.c"
	.text	
.Ltext0:
	.cfi_sections	.debug_frame
	.section .text$GPTIM_Reset
	.type	.text$GPTIM_Reset$scode_local_1, @function
	.text$GPTIM_Reset$scode_local_1:
	.align	1
	.export	GPTIM_Reset
	.type	GPTIM_Reset, @function
GPTIM_Reset:
.LFB1:
.LM1:
	.cfi_startproc
.LVL0:
	PUSH	{r6, lr}
	.cfi_def_cfa_offset 8
.LM2:
	LD	r5,#1073744000
	CMP	r0,r5
	JZ	.L2
.LM3:
	LD	r5,#1073742080
	CMP	r0,r5
	JZ	.L3
.LM4:
	LD	r5,#1073742208
	CMP	r0,r5
	JZ	.L4
	LD	r5,#1073742336
	CMP	r0,r5
	JZ	.L5
	LD	r5,#1073742464
	CMP	r0,r5
	JZ	.L6
	LD	r5,#1073748608
	CMP	r0,r5
	JZ	.L7
	LD	r5,#1073748736
	CMP	r0,r5
	JZ	.L8
	MOV	r6,#1
	LD	r5,#1073748992
	CMP	r0,r5
	JZ	.L9
	MOV	r6,#0
.L9:
	ZXT.b	r6,r6
	MOV	r0,r6
.LVL1:
	LD	r5,#CHECK_RESTRICTION
	LJMP	r5
.LVL2:
.LM5:
	CMP	r6,#0
	JNZ	.L15
.L1:
.LM6:
	POP	r6
	.cfi_remember_state
	.cfi_def_cfa_offset 4
	POP	lr
	.cfi_def_cfa_offset 0
	JMP	lr
.LVL3:
.L6:
	.cfi_restore_state
.LM7:
	MOV	r0,#1
.LVL4:
	LD	r5,#CHECK_RESTRICTION
	LJMP	r5
.LVL5:
.LM8:
	MOV	r0,#32
	MOV	r1,#1
	LD	r6,#RST_CTL1_Peripheral_Reset_Enable
	LJMP	r6
.LVL6:
.LM9:
	MOV	r0,#32
	MOV	r1,#0
	LJMP	r6
.LVL7:
.LM10:
	MOV	r0,#32
	MOV	r1,#1
	LD	r5,#PCLK_CTL1_Peripheral_Clock_Enable
	LJMP	r5
.LVL8:
	JMP	.L1
.LVL9:
.L2:
.LM11:
	MOV	r0,#1
.LVL10:
	LD	r5,#CHECK_RESTRICTION
	LJMP	r5
.LVL11:
.LM12:
	MOV	r0,#1
	LSL	r0,#17
	MOV	r1,#1
	LD	r6,#RST_CTL1_Peripheral_Reset_Enable
	LJMP	r6
.LVL12:
.LM13:
	MOV	r0,#1
	LSL	r0,#17
	MOV	r1,#0
	LJMP	r6
.LVL13:
.LM14:
	MOV	r0,#1
	LSL	r0,#17
	MOV	r1,#1
	LD	r5,#PCLK_CTL1_Peripheral_Clock_Enable
	LJMP	r5
.LVL14:
.LM15:
	POP	r6
	.cfi_remember_state
	.cfi_def_cfa_offset 4
	POP	lr
	.cfi_def_cfa_offset 0
	JMP	lr
.LVL15:
.L3:
	.cfi_restore_state
.LM16:
	MOV	r0,#1
.LVL16:
	LD	r5,#CHECK_RESTRICTION
	LJMP	r5
.LVL17:
.LM17:
	MOV	r0,#4
	MOV	r1,#1
	LD	r6,#RST_CTL1_Peripheral_Reset_Enable
	LJMP	r6
.LVL18:
.LM18:
	MOV	r0,#4
	MOV	r1,#0
	LJMP	r6
.LVL19:
.LM19:
	MOV	r0,#4
	MOV	r1,#1
	LD	r5,#PCLK_CTL1_Peripheral_Clock_Enable
	LJMP	r5
.LVL20:
.LM20:
	POP	r6
	.cfi_remember_state
	.cfi_def_cfa_offset 4
	POP	lr
	.cfi_def_cfa_offset 0
	JMP	lr
.LVL21:
.L4:
	.cfi_restore_state
.LM21:
	MOV	r0,#1
.LVL22:
	LD	r5,#CHECK_RESTRICTION
	LJMP	r5
.LVL23:
.LM22:
	MOV	r0,#8
	MOV	r1,#1
	LD	r6,#RST_CTL1_Peripheral_Reset_Enable
	LJMP	r6
.LVL24:
.LM23:
	MOV	r0,#8
	MOV	r1,#0
	LJMP	r6
.LVL25:
.LM24:
	MOV	r0,#8
	MOV	r1,#1
	LD	r5,#PCLK_CTL1_Peripheral_Clock_Enable
	LJMP	r5
.LVL26:
.LM25:
	POP	r6
	.cfi_remember_state
	.cfi_def_cfa_offset 4
	POP	lr
	.cfi_def_cfa_offset 0
	JMP	lr
.LVL27:
.L5:
	.cfi_restore_state
.LM26:
	MOV	r0,#1
.LVL28:
	LD	r5,#CHECK_RESTRICTION
	LJMP	r5
.LVL29:
.LM27:
	MOV	r0,#16
	MOV	r1,#1
	LD	r6,#RST_CTL1_Peripheral_Reset_Enable
	LJMP	r6
.LVL30:
.LM28:
	MOV	r0,#16
	MOV	r1,#0
	LJMP	r6
.LVL31:
.LM29:
	MOV	r0,#16
	MOV	r1,#1
	LD	r5,#PCLK_CTL1_Peripheral_Clock_Enable
	LJMP	r5
.LVL32:
	JMP	.L1
.L15:
.LM30:
	MOV	r0,#1
	LSL	r0,#24
	MOV	r1,#1
	LD	r6,#RST_CTL2_Peripheral_Reset_Enable
	LJMP	r6
.LVL33:
.LM31:
	MOV	r0,#1
	LSL	r0,#24
	MOV	r1,#0
	LJMP	r6
.LVL34:
.LM32:
	MOV	r0,#1
	LSL	r0,#24
	MOV	r1,#1
	LD	r5,#PCLK_CTL2_Peripheral_Clock_Enable
	LJMP	r5
.LVL35:
	JMP	.L1
.LVL36:
.L7:
.LM33:
	MOV	r0,#1
.LVL37:
	LD	r5,#CHECK_RESTRICTION
	LJMP	r5
.LVL38:
.LM34:
	MOV	r0,#1
	LSL	r0,#21
	MOV	r1,#1
	LD	r6,#RST_CTL2_Peripheral_Reset_Enable
	LJMP	r6
.LVL39:
.LM35:
	MOV	r0,#1
	LSL	r0,#21
	MOV	r1,#0
	LJMP	r6
.LVL40:
.LM36:
	MOV	r0,#1
	LSL	r0,#21
	MOV	r1,#1
	LD	r5,#PCLK_CTL2_Peripheral_Clock_Enable
	LJMP	r5
.LVL41:
	JMP	.L1
.LVL42:
.L8:
.LM37:
	MOV	r0,#1
.LVL43:
	LD	r5,#CHECK_RESTRICTION
	LJMP	r5
.LVL44:
.LM38:
	MOV	r0,#1
	LSL	r0,#22
	MOV	r1,#1
	LD	r6,#RST_CTL2_Peripheral_Reset_Enable
	LJMP	r6
.LVL45:
.LM39:
	MOV	r0,#1
	LSL	r0,#22
	MOV	r1,#0
	LJMP	r6
.LVL46:
.LM40:
	MOV	r0,#1
	LSL	r0,#22
	MOV	r1,#1
	LD	r5,#PCLK_CTL2_Peripheral_Clock_Enable
	LJMP	r5
.LVL47:
	JMP	.L1
	.cfi_endproc
.LFE1:
	.size	GPTIM_Reset, .-GPTIM_Reset
	.section .text$GPTIM_Configuration
	.type	.text$GPTIM_Configuration$scode_local_2, @function
	.text$GPTIM_Configuration$scode_local_2:
	.align	1
	.export	GPTIM_Configuration
	.type	GPTIM_Configuration, @function
GPTIM_Configuration:
.LFB2:
.LM41:
	.cfi_startproc
.LVL48:
	PUSH	{r6, r7, r8, lr}
	.cfi_def_cfa_offset 16
	MOV	r7,r0
	MOV	r6,r1
.LVL49:
.LM42:
	MOV	r0,#1
.LVL50:
	LD	r5,#1073744000
	CMP	r7,r5
	JZ	.L17
.LM43:
	LD	r5,#1073742080
	CMP	r7,r5
	JZ	.L17
.LM44:
	LD	r5,#1073742208
	CMP	r7,r5
	JZ	.L17
	LD	r5,#1073742336
	CMP	r7,r5
	JZ	.L17
	LD	r5,#1073742464
	CMP	r7,r5
	JZ	.L17
	LD	r5,#1073748608
	CMP	r7,r5
	JZ	.L17
	LD	r5,#1073748736
	CMP	r7,r5
	JZ	.L17
	LD	r5,#1073748992
	CMP	r7,r5
	JZ	.L17
	MOV	r0,#0
.L17:
.LM45:
	LD	r2,#CHECK_RESTRICTION
	MOV	r8,r2
	LJMP	r2
.LVL51:
.LM46:
	LD.h	r5,[r6+#6]
	MOV	r0,#1
	CMP	r5,#0
	JZ	.L19
.LM47:
	MOV	r4,#1
	LSL	r4,#10
	CMP	r5,r4
	JZ	.L19
.LM48:
	MOV	r4,#255
	ADD	r4,r4,#1
	CMP	r5,r4
	JZ	.L19
	MOV	r4,#1
	LSL	r4,#9
	CMP	r5,r4
	JZ	.L19
	LD	r0,#768
	XRL	r0,r5,r0
	SUB	r0,r0,#1
	LSR	r0,#31
.L19:
.LM49:
	LJMP	r8
.LVL52:
.LM50:
	LD.h	r5,[r6+#7]
	MOV	r0,#1
	CMP	r5,#0
	JZ	.L20
.LM51:
	CMP	r5,#32
	JZ	.L20
.LM52:
	MOV	r0,#64
	XRL	r0,r5,r0
	SUB	r0,r0,#1
	LSR	r0,#31
.L20:
.LM53:
	LJMP	r8
.LVL53:
.LM54:
	LD.h	r5,[r6+#8]
	MOV	r0,#1
	CMP	r5,#0
	JZ	.L21
.LM55:
	MOV	r0,#2
	XRL	r0,r5,r0
	SUB	r0,r0,#1
	LSR	r0,#31
.L21:
.LM56:
	LJMP	r8
.LVL54:
.LM57:
	LD.h	r5,[r6+#9]
	MOV	r0,#1
	CMP	r5,#0
	JZ	.L22
.LM58:
	CMP	r5,#4
	JZ	.L22
.LM59:
	CMP	r5,#8
	JZ	.L22
	CMP	r5,#12
	JZ	.L22
	CMP	r5,#16
	JZ	.L22
	CMP	r5,#20
	JZ	.L22
	CMP	r5,#24
	JZ	.L22
	MOV	r0,#28
	XRL	r0,r5,r0
	SUB	r0,r0,#1
	LSR	r0,#31
.L22:
.LM60:
	LJMP	r8
.LVL55:
.LM61:
	LD.h	r5,[r6+#10]
	MOV	r0,#1
	CMP	r5,#0
	JZ	.L23
.LM62:
	MOV	r4,#128
	CMP	r5,r4
	JZ	.L23
.LM63:
	MOV	r4,#160
	CMP	r5,r4
	JZ	.L23
	MOV	r4,#192
	CMP	r5,r4
	JZ	.L23
	MOV	r0,#224
	XRL	r0,r5,r0
	SUB	r0,r0,#1
	LSR	r0,#31
.L23:
.LM64:
	LJMP	r8
.LVL56:
.LM65:
	LD.h	r5,[r6+#11]
	MOV	r0,#1
	CMP	r5,#0
	JZ	.L24
.LM66:
	MOV	r0,#8
	XRL	r0,r5,r0
	SUB	r0,r0,#1
	LSR	r0,#31
.L24:
.LM67:
	LJMP	r8
.LVL57:
.LM68:
	MOV	r0,#1
	LD.h	r5,[r6+#12]
	CMP	r5,r0
	JLS	.L25
	MOV	r0,#0
.L25:
	LJMP	r8
.LVL58:
.LM69:
	LD	r5,#1073748992
	CMP	r7,r5
	JZ	.L67
.LM70:
	LD.h	r5,[r6]
	ST.w	[r7],r5
.LM71:
	LD.h	r5,[r6+#2]
	ST.w	[r7+#4],r5
.LM72:
	LD.h	r5,[r6+#4]
	ST.w	[r7+#3],r5
.L27:
.LVL59:
.LM73:
	LD.w	r3,[r7+#1]
.LVL60:
.LM74:
	LD.h	r5,[r6+#7]
	LD.h	r2,[r6+#6]
	ORL	r4,r5,r2
	LD.h	r5,[r6+#8]
	ORL	r4,r4,r5
	LD.h	r2,[r6+#11]
	ORL	r4,r4,r2
.LM75:
	ZXT.h	r4,r4
.LBB42:
.LBB43:
.LM76:
	LD	r5,#-1899
	ANL	r5,r3,r5
	ORL	r5,r4,r5
.LBE43:
.LBE42:
.LM77:
	ST.w	[r7+#1],r5
.LVL61:
.LM78:
	LD.w	r3,[r7+#2]
.LVL62:
.LM79:
	LD.h	r5,[r6+#10]
	LD.h	r2,[r6+#9]
	ORL	r4,r5,r2
	ZXT.h	r4,r4
.LM80:
	LD.h	r5,[r6+#12]
	LSL	r5,#12
.LM81:
	ORL	r5,r4,r5
.LBB44:
.LBB45:
.LM82:
	LD	r4,#-4349
	ANL	r4,r3,r4
	ORL	r5,r5,r4
.LBE45:
.LBE44:
.LM83:
	ST.w	[r7+#2],r5
.LM84:
	POP	{r6, r7, r8}
	.cfi_remember_state
	.cfi_def_cfa_offset 4
.LVL63:
	POP	lr
	.cfi_def_cfa_offset 0
	JMP	lr
.LVL64:
.L67:
	.cfi_restore_state
.LM85:
	LD.w	r5,[r6]
	ST.w	[r7],r5
.LM86:
	LD.w	r5,[r6+#1]
	ST.w	[r7+#4],r5
.LM87:
	LD.w	r2,[r6+#2]
	ST.w	[r7+#3],r2
	JMP	.L27
	.cfi_endproc
.LFE2:
	.size	GPTIM_Configuration, .-GPTIM_Configuration
	.section .text$GPTIM_Struct_Init
	.type	.text$GPTIM_Struct_Init$scode_local_3, @function
	.text$GPTIM_Struct_Init$scode_local_3:
	.align	1
	.export	GPTIM_Struct_Init
	.type	GPTIM_Struct_Init, @function
GPTIM_Struct_Init:
.LFB3:
.LM88:
	.cfi_startproc
.LVL65:
.LM89:
	MOV	r5,#0
	ST.w	[r0],r5
.LM90:
	NOT	r4,r5
	ST.w	[r0+#1],r4
.LM91:
	ST.w	[r0+#2],r5
.LM92:
	MOV	r4,#1
	LSL	r4,#10
	ST.h	[r0+#6],r4
.LM93:
	ST.h	[r0+#7],r5
.LM94:
	ST.h	[r0+#8],r5
.LM95:
	ST.h	[r0+#9],r5
.LM96:
	ST.h	[r0+#10],r5
.LM97:
	ST.h	[r0+#11],r5
.LM98:
	ST.h	[r0+#12],r5
.LM99:
	JMP	lr
	.cfi_endproc
.LFE3:
	.size	GPTIM_Struct_Init, .-GPTIM_Struct_Init
	.section .text$GPTIM_Cmd
	.type	.text$GPTIM_Cmd$scode_local_4, @function
	.text$GPTIM_Cmd$scode_local_4:
	.align	1
	.export	GPTIM_Cmd
	.type	GPTIM_Cmd, @function
GPTIM_Cmd:
.LFB4:
.LM100:
	.cfi_startproc
.LVL66:
	PUSH	{r6, r7, r8, lr}
	.cfi_def_cfa_offset 16
	MOV	r6,r0
	MOV	r7,r1
.LM101:
	MOV	r0,#1
.LVL67:
	LD	r5,#1073744000
	CMP	r6,r5
	JZ	.L70
.LM102:
	LD	r5,#1073742080
	CMP	r6,r5
	JZ	.L70
.LM103:
	LD	r5,#1073742208
	CMP	r6,r5
	JZ	.L70
	LD	r5,#1073742336
	CMP	r6,r5
	JZ	.L70
	LD	r5,#1073742464
	CMP	r6,r5
	JZ	.L70
	LD	r5,#1073748608
	CMP	r6,r5
	JZ	.L70
	LD	r5,#1073748736
	CMP	r6,r5
	JZ	.L70
	LD	r5,#1073748992
	CMP	r6,r5
	JZ	.L70
	MOV	r0,#0
.L70:
.LM104:
	LD	r5,#CHECK_RESTRICTION
	MOV	r8,r5
	LJMP	r5
.LVL68:
.LM105:
	MOV	r0,#1
	CMP	r7,r0
	JLS	.L72
	MOV	r0,#0
.L72:
	LJMP	r8
.LVL69:
.LM106:
	ADD	r6,r6,#4
.LVL70:
.LM107:
	CMP	r7,#0
	JNZ	.L82
.LM108:
// inline asm begin
	// 248 "../src/kf32a9k1xxx_gtim.c" 1
	CLR [r6], #0
	// 0 "" 2
.LM109:
// inline asm end
	POP	{r6, r7, r8}
	.cfi_remember_state
	.cfi_def_cfa_offset 4
.LVL71:
	POP	lr
	.cfi_def_cfa_offset 0
	JMP	lr
.LVL72:
.L82:
	.cfi_restore_state
.LM110:
// inline asm begin
	// 243 "../src/kf32a9k1xxx_gtim.c" 1
	SET [r6], #0
	// 0 "" 2
.LM111:
// inline asm end
	POP	{r6, r7, r8}
	.cfi_def_cfa_offset 4
.LVL73:
	POP	lr
	.cfi_def_cfa_offset 0
	JMP	lr
	.cfi_endproc
.LFE4:
	.size	GPTIM_Cmd, .-GPTIM_Cmd
	.section .text$GPTIM_Set_Counter
	.type	.text$GPTIM_Set_Counter$scode_local_5, @function
	.text$GPTIM_Set_Counter$scode_local_5:
	.align	1
	.export	GPTIM_Set_Counter
	.type	GPTIM_Set_Counter, @function
GPTIM_Set_Counter:
.LFB5:
.LM112:
	.cfi_startproc
.LVL74:
	PUSH	{r6, r7, r8, lr}
	.cfi_def_cfa_offset 16
	MOV	r6,r0
	MOV	r7,r1
.LM113:
	LD	r5,#1073744000
	CMP	r0,r5
	JZ	.L85
.LM114:
	LD	r5,#1073742080
	CMP	r0,r5
	JZ	.L85
.LM115:
	LD	r5,#1073742208
	CMP	r0,r5
	JZ	.L85
	LD	r5,#1073742336
	CMP	r0,r5
	JZ	.L85
	LD	r5,#1073742464
	CMP	r0,r5
	JZ	.L85
	LD	r5,#1073748608
	CMP	r0,r5
	JZ	.L85
	LD	r5,#1073748736
	CMP	r0,r5
	JZ	.L85
	MOV	r8,#1
	LD	r5,#1073748992
	CMP	r0,r5
	JZ	.L86
	MOV	r8,#0
.L86:
	ZXT.b	r8,r8
	MOV	r0,r8
.LVL75:
	LD	r5,#CHECK_RESTRICTION
	LJMP	r5
.LVL76:
.LM116:
	CMP	r8,#0
	JZ	.L87
.LM117:
	LD	r5,#1073748992
	ST.w	[r5],r7
.LM118:
	POP	{r6, r7, r8}
	.cfi_remember_state
	.cfi_def_cfa_offset 4
.LVL77:
	POP	lr
	.cfi_def_cfa_offset 0
	JMP	lr
.LVL78:
.L85:
	.cfi_restore_state
.LM119:
	MOV	r0,#1
.LVL79:
	LD	r5,#CHECK_RESTRICTION
	LJMP	r5
.LVL80:
.L87:
.LM120:
	ZXT.h	r7,r7
.LVL81:
	ST.w	[r6],r7
.LM121:
	POP	{r6, r7, r8}
	.cfi_def_cfa_offset 4
	POP	lr
	.cfi_def_cfa_offset 0
	JMP	lr
	.cfi_endproc
.LFE5:
	.size	GPTIM_Set_Counter, .-GPTIM_Set_Counter
	.section .text$GPTIM_Set_Period
	.type	.text$GPTIM_Set_Period$scode_local_6, @function
	.text$GPTIM_Set_Period$scode_local_6:
	.align	1
	.export	GPTIM_Set_Period
	.type	GPTIM_Set_Period, @function
GPTIM_Set_Period:
.LFB6:
.LM122:
	.cfi_startproc
.LVL82:
	PUSH	{r6, r7, r8, lr}
	.cfi_def_cfa_offset 16
	MOV	r6,r0
	MOV	r7,r1
.LM123:
	LD	r5,#1073744000
	CMP	r0,r5
	JZ	.L94
.LM124:
	LD	r5,#1073742080
	CMP	r0,r5
	JZ	.L94
.LM125:
	LD	r5,#1073742208
	CMP	r0,r5
	JZ	.L94
	LD	r5,#1073742336
	CMP	r0,r5
	JZ	.L94
	LD	r5,#1073742464
	CMP	r0,r5
	JZ	.L94
	LD	r5,#1073748608
	CMP	r0,r5
	JZ	.L94
	LD	r5,#1073748736
	CMP	r0,r5
	JZ	.L94
	MOV	r8,#1
	LD	r5,#1073748992
	CMP	r0,r5
	JZ	.L95
	MOV	r8,#0
.L95:
	ZXT.b	r8,r8
	MOV	r0,r8
.LVL83:
	LD	r5,#CHECK_RESTRICTION
	LJMP	r5
.LVL84:
.LM126:
	CMP	r8,#0
	JZ	.L96
.LM127:
	LD	r5,#1073748992
	ST.w	[r5+#4],r7
.LM128:
	POP	{r6, r7, r8}
	.cfi_remember_state
	.cfi_def_cfa_offset 4
.LVL85:
	POP	lr
	.cfi_def_cfa_offset 0
	JMP	lr
.LVL86:
.L94:
	.cfi_restore_state
.LM129:
	MOV	r0,#1
.LVL87:
	LD	r5,#CHECK_RESTRICTION
	LJMP	r5
.LVL88:
.L96:
.LM130:
	ZXT.h	r7,r7
.LVL89:
	ST.w	[r6+#4],r7
.LM131:
	POP	{r6, r7, r8}
	.cfi_def_cfa_offset 4
	POP	lr
	.cfi_def_cfa_offset 0
	JMP	lr
	.cfi_endproc
.LFE6:
	.size	GPTIM_Set_Period, .-GPTIM_Set_Period
	.section .text$GPTIM_Set_Prescaler
	.type	.text$GPTIM_Set_Prescaler$scode_local_7, @function
	.text$GPTIM_Set_Prescaler$scode_local_7:
	.align	1
	.export	GPTIM_Set_Prescaler
	.type	GPTIM_Set_Prescaler, @function
GPTIM_Set_Prescaler:
.LFB7:
.LM132:
	.cfi_startproc
.LVL90:
	PUSH	{r6, r7, r8, lr}
	.cfi_def_cfa_offset 16
	MOV	r6,r0
	MOV	r7,r1
.LM133:
	LD	r5,#1073744000
	CMP	r0,r5
	JZ	.L103
.LM134:
	LD	r5,#1073742080
	CMP	r0,r5
	JZ	.L103
.LM135:
	LD	r5,#1073742208
	CMP	r0,r5
	JZ	.L103
	LD	r5,#1073742336
	CMP	r0,r5
	JZ	.L103
	LD	r5,#1073742464
	CMP	r0,r5
	JZ	.L103
	LD	r5,#1073748608
	CMP	r0,r5
	JZ	.L103
	LD	r5,#1073748736
	CMP	r0,r5
	JZ	.L103
	MOV	r8,#1
	LD	r5,#1073748992
	CMP	r0,r5
	JZ	.L104
	MOV	r8,#0
.L104:
	ZXT.b	r8,r8
	MOV	r0,r8
.LVL91:
	LD	r5,#CHECK_RESTRICTION
	LJMP	r5
.LVL92:
.LM136:
	CMP	r8,#0
	JZ	.L105
.LM137:
	LD	r5,#1073748992
	ST.w	[r5+#3],r7
.LM138:
	POP	{r6, r7, r8}
	.cfi_remember_state
	.cfi_def_cfa_offset 4
.LVL93:
	POP	lr
	.cfi_def_cfa_offset 0
	JMP	lr
.LVL94:
.L103:
	.cfi_restore_state
.LM139:
	MOV	r0,#1
.LVL95:
	LD	r5,#CHECK_RESTRICTION
	LJMP	r5
.LVL96:
.L105:
.LM140:
	ZXT.h	r7,r7
.LVL97:
	ST.w	[r6+#3],r7
.LM141:
	POP	{r6, r7, r8}
	.cfi_def_cfa_offset 4
	POP	lr
	.cfi_def_cfa_offset 0
	JMP	lr
	.cfi_endproc
.LFE7:
	.size	GPTIM_Set_Prescaler, .-GPTIM_Set_Prescaler
	.section .text$GPTIM_Counter_Mode_Config
	.type	.text$GPTIM_Counter_Mode_Config$scode_local_8, @function
	.text$GPTIM_Counter_Mode_Config$scode_local_8:
	.align	1
	.export	GPTIM_Counter_Mode_Config
	.type	GPTIM_Counter_Mode_Config, @function
GPTIM_Counter_Mode_Config:
.LFB8:
.LM142:
	.cfi_startproc
.LVL98:
	PUSH	{r6, r7, r8, lr}
	.cfi_def_cfa_offset 16
	MOV	r6,r0
	MOV	r7,r1
.LM143:
	MOV	r0,#1
.LVL99:
	LD	r5,#1073744000
	CMP	r6,r5
	JZ	.L111
.LM144:
	LD	r5,#1073742080
	CMP	r6,r5
	JZ	.L111
.LM145:
	LD	r5,#1073742208
	CMP	r6,r5
	JZ	.L111
	LD	r5,#1073742336
	CMP	r6,r5
	JZ	.L111
	LD	r5,#1073742464
	CMP	r6,r5
	JZ	.L111
	LD	r5,#1073748608
	CMP	r6,r5
	JZ	.L111
	LD	r5,#1073748736
	CMP	r6,r5
	JZ	.L111
	LD	r5,#1073748992
	CMP	r6,r5
	JZ	.L111
	MOV	r0,#0
.L111:
.LM146:
	LD	r5,#CHECK_RESTRICTION
	MOV	r8,r5
	LJMP	r5
.LVL100:
.LM147:
	MOV	r0,#1
	CMP	r7,#0
	JZ	.L113
.LM148:
	MOV	r5,#1
	LSL	r5,#10
	CMP	r7,r5
	JZ	.L113
.LM149:
	MOV	r5,#255
	ADD	r5,r5,#1
	CMP	r7,r5
	JZ	.L113
	MOV	r5,#1
	LSL	r5,#9
	CMP	r7,r5
	JZ	.L113
	LD	r5,#768
	CMP	r7,r5
	JZ	.L113
	MOV	r0,#0
.L113:
.LM150:
	LJMP	r8
.LVL101:
.LM151:
	LD.w	r4,[r6+#1]
.LVL102:
.LBB46:
.LBB47:
.LM152:
	LD	r5,#-1793
	ANL	r5,r4,r5
	ORL	r7,r7,r5
.LVL103:
.LBE47:
.LBE46:
.LM153:
	ST.w	[r6+#1],r7
.LM154:
	POP	{r6, r7, r8}
	.cfi_def_cfa_offset 4
	POP	lr
	.cfi_def_cfa_offset 0
	JMP	lr
	.cfi_endproc
.LFE8:
	.size	GPTIM_Counter_Mode_Config, .-GPTIM_Counter_Mode_Config
	.section .text$GPTIM_Clock_Config
	.type	.text$GPTIM_Clock_Config$scode_local_9, @function
	.text$GPTIM_Clock_Config$scode_local_9:
	.align	1
	.export	GPTIM_Clock_Config
	.type	GPTIM_Clock_Config, @function
GPTIM_Clock_Config:
.LFB9:
.LM155:
	.cfi_startproc
.LVL104:
	PUSH	{r6, r7, r8, lr}
	.cfi_def_cfa_offset 16
	MOV	r6,r0
	MOV	r7,r1
.LM156:
	MOV	r0,#1
.LVL105:
	LD	r5,#1073744000
	CMP	r6,r5
	JZ	.L128
.LM157:
	LD	r5,#1073742080
	CMP	r6,r5
	JZ	.L128
.LM158:
	LD	r5,#1073742208
	CMP	r6,r5
	JZ	.L128
	LD	r5,#1073742336
	CMP	r6,r5
	JZ	.L128
	LD	r5,#1073742464
	CMP	r6,r5
	JZ	.L128
	LD	r5,#1073748608
	CMP	r6,r5
	JZ	.L128
	LD	r5,#1073748736
	CMP	r6,r5
	JZ	.L128
	LD	r5,#1073748992
	CMP	r6,r5
	JZ	.L128
	MOV	r0,#0
.L128:
.LM159:
	LD	r5,#CHECK_RESTRICTION
	MOV	r8,r5
	LJMP	r5
.LVL106:
.LM160:
	MOV	r0,#1
	CMP	r7,#0
	JZ	.L130
.LM161:
	CMP	r7,#32
	JZ	.L130
.LM162:
	CMP	r7,#64
	JZ	.L130
	MOV	r0,#0
.L130:
.LM163:
	LJMP	r8
.LVL107:
.LM164:
	LD.w	r5,[r6+#1]
.LVL108:
.LBB48:
.LBB49:
.LM165:
	CLR	r5,#5
	CLR	r5,#6
.LVL109:
	ORL	r7,r7,r5
.LVL110:
.LBE49:
.LBE48:
.LM166:
	ST.w	[r6+#1],r7
.LM167:
	POP	{r6, r7, r8}
	.cfi_def_cfa_offset 4
	POP	lr
	.cfi_def_cfa_offset 0
	JMP	lr
	.cfi_endproc
.LFE9:
	.size	GPTIM_Clock_Config, .-GPTIM_Clock_Config
	.section .text$GPTIM_External_Pulse_Sync_Config
	.type	.text$GPTIM_External_Pulse_Sync_Config$scode_local_10, @function
	.text$GPTIM_External_Pulse_Sync_Config$scode_local_10:
	.align	1
	.export	GPTIM_External_Pulse_Sync_Config
	.type	GPTIM_External_Pulse_Sync_Config, @function
GPTIM_External_Pulse_Sync_Config:
.LFB10:
.LM168:
	.cfi_startproc
.LVL111:
	PUSH	{r6, r7, r8, lr}
	.cfi_def_cfa_offset 16
	MOV	r6,r0
	MOV	r8,r1
.LM169:
	MOV	r0,#1
.LVL112:
	LD	r5,#1073744000
	CMP	r6,r5
	JZ	.L147
.LM170:
	LD	r5,#1073742080
	CMP	r6,r5
	JZ	.L147
.LM171:
	LD	r5,#1073742208
	CMP	r6,r5
	JZ	.L147
	LD	r5,#1073742336
	CMP	r6,r5
	JZ	.L147
	LD	r5,#1073742464
	CMP	r6,r5
	JZ	.L147
	LD	r5,#1073748608
	CMP	r6,r5
	JZ	.L147
	LD	r5,#1073748736
	CMP	r6,r5
	JZ	.L147
	LD	r5,#1073748992
	CMP	r6,r5
	JZ	.L147
	MOV	r0,#0
.L147:
.LM172:
	LD	r7,#CHECK_RESTRICTION
	LJMP	r7
.LVL113:
.LM173:
	MOV	r0,#1
	CMP	r8,#0
	JZ	.L149
.LM174:
	CMP	r8,#8
	JZ	.L150
	MOV	r0,#0
.L150:
	LJMP	r7
.LVL114:
.LM175:
	ADD	r6,r6,#4
.LVL115:
// inline asm begin
	// 404 "../src/kf32a9k1xxx_gtim.c" 1
	SET [r6], #3
	// 0 "" 2
.LM176:
// inline asm end
	POP	{r6, r7, r8}
	.cfi_remember_state
	.cfi_def_cfa_offset 4
.LVL116:
	POP	lr
	.cfi_def_cfa_offset 0
	JMP	lr
.LVL117:
.L149:
	.cfi_restore_state
.LM177:
	LJMP	r7
.LVL118:
.LM178:
	ADD	r6,r6,#4
.LVL119:
// inline asm begin
	// 409 "../src/kf32a9k1xxx_gtim.c" 1
	CLR [r6], #3
	// 0 "" 2
.LM179:
// inline asm end
	POP	{r6, r7, r8}
	.cfi_def_cfa_offset 4
.LVL120:
	POP	lr
	.cfi_def_cfa_offset 0
	JMP	lr
	.cfi_endproc
.LFE10:
	.size	GPTIM_External_Pulse_Sync_Config, .-GPTIM_External_Pulse_Sync_Config
	.section .text$GPTIM_Work_Mode_Config
	.type	.text$GPTIM_Work_Mode_Config$scode_local_11, @function
	.text$GPTIM_Work_Mode_Config$scode_local_11:
	.align	1
	.export	GPTIM_Work_Mode_Config
	.type	GPTIM_Work_Mode_Config, @function
GPTIM_Work_Mode_Config:
.LFB11:
.LM180:
	.cfi_startproc
.LVL121:
	PUSH	{r6, r7, r8, lr}
	.cfi_def_cfa_offset 16
	MOV	r6,r0
	MOV	r8,r1
.LM181:
	MOV	r0,#1
.LVL122:
	LD	r5,#1073744000
	CMP	r6,r5
	JZ	.L163
.LM182:
	LD	r5,#1073742080
	CMP	r6,r5
	JZ	.L163
.LM183:
	LD	r5,#1073742208
	CMP	r6,r5
	JZ	.L163
	LD	r5,#1073742336
	CMP	r6,r5
	JZ	.L163
	LD	r5,#1073742464
	CMP	r6,r5
	JZ	.L163
	LD	r5,#1073748608
	CMP	r6,r5
	JZ	.L163
	LD	r5,#1073748736
	CMP	r6,r5
	JZ	.L163
	LD	r5,#1073748992
	CMP	r6,r5
	JZ	.L163
	MOV	r0,#0
.L163:
.LM184:
	LD	r7,#CHECK_RESTRICTION
	LJMP	r7
.LVL123:
.LM185:
	MOV	r0,#1
	CMP	r8,#0
	JZ	.L165
.LM186:
	CMP	r8,#2
	JZ	.L166
	MOV	r0,#0
.L166:
	LJMP	r7
.LVL124:
.LM187:
	ADD	r6,r6,#4
.LVL125:
// inline asm begin
	// 435 "../src/kf32a9k1xxx_gtim.c" 1
	SET [r6], #1
	// 0 "" 2
.LM188:
// inline asm end
	POP	{r6, r7, r8}
	.cfi_remember_state
	.cfi_def_cfa_offset 4
.LVL126:
	POP	lr
	.cfi_def_cfa_offset 0
	JMP	lr
.LVL127:
.L165:
	.cfi_restore_state
.LM189:
	LJMP	r7
.LVL128:
.LM190:
	ADD	r6,r6,#4
.LVL129:
// inline asm begin
	// 440 "../src/kf32a9k1xxx_gtim.c" 1
	CLR [r6], #1
	// 0 "" 2
.LM191:
// inline asm end
	POP	{r6, r7, r8}
	.cfi_def_cfa_offset 4
.LVL130:
	POP	lr
	.cfi_def_cfa_offset 0
	JMP	lr
	.cfi_endproc
.LFE11:
	.size	GPTIM_Work_Mode_Config, .-GPTIM_Work_Mode_Config
	.section .text$GPTIM_Updata_Immediately_Config
	.type	.text$GPTIM_Updata_Immediately_Config$scode_local_12, @function
	.text$GPTIM_Updata_Immediately_Config$scode_local_12:
	.align	1
	.export	GPTIM_Updata_Immediately_Config
	.type	GPTIM_Updata_Immediately_Config, @function
GPTIM_Updata_Immediately_Config:
.LFB12:
.LM192:
	.cfi_startproc
.LVL131:
	PUSH	{r6, r7, r8, lr}
	.cfi_def_cfa_offset 16
	MOV	r6,r0
	MOV	r7,r1
.LM193:
	MOV	r0,#1
.LVL132:
	LD	r5,#1073744000
	CMP	r6,r5
	JZ	.L179
.LM194:
	LD	r5,#1073742080
	CMP	r6,r5
	JZ	.L179
.LM195:
	LD	r5,#1073742208
	CMP	r6,r5
	JZ	.L179
	LD	r5,#1073742336
	CMP	r6,r5
	JZ	.L179
	LD	r5,#1073742464
	CMP	r6,r5
	JZ	.L179
	LD	r5,#1073748608
	CMP	r6,r5
	JZ	.L179
	LD	r5,#1073748736
	CMP	r6,r5
	JZ	.L179
	LD	r5,#1073748992
	CMP	r6,r5
	JZ	.L179
	MOV	r0,#0
.L179:
.LM196:
	LD	r5,#CHECK_RESTRICTION
	MOV	r8,r5
	LJMP	r5
.LVL133:
.LM197:
	MOV	r0,#1
	CMP	r7,r0
	JLS	.L181
	MOV	r0,#0
.L181:
	LJMP	r8
.LVL134:
.LM198:
	ADD	r6,#8
.LVL135:
.LM199:
	CMP	r7,#0
	JNZ	.L191
.LM200:
// inline asm begin
	// 470 "../src/kf32a9k1xxx_gtim.c" 1
	CLR [r6], #13
	// 0 "" 2
.LM201:
// inline asm end
	POP	{r6, r7, r8}
	.cfi_remember_state
	.cfi_def_cfa_offset 4
.LVL136:
	POP	lr
	.cfi_def_cfa_offset 0
	JMP	lr
.LVL137:
.L191:
	.cfi_restore_state
.LM202:
// inline asm begin
	// 465 "../src/kf32a9k1xxx_gtim.c" 1
	SET [r6], #13
	// 0 "" 2
.LM203:
// inline asm end
	POP	{r6, r7, r8}
	.cfi_def_cfa_offset 4
.LVL138:
	POP	lr
	.cfi_def_cfa_offset 0
	JMP	lr
	.cfi_endproc
.LFE12:
	.size	GPTIM_Updata_Immediately_Config, .-GPTIM_Updata_Immediately_Config
	.section .text$GPTIM_Master_Slave_Snyc_Config
	.type	.text$GPTIM_Master_Slave_Snyc_Config$scode_local_13, @function
	.text$GPTIM_Master_Slave_Snyc_Config$scode_local_13:
	.align	1
	.export	GPTIM_Master_Slave_Snyc_Config
	.type	GPTIM_Master_Slave_Snyc_Config, @function
GPTIM_Master_Slave_Snyc_Config:
.LFB13:
.LM204:
	.cfi_startproc
.LVL139:
	PUSH	{r6, r7, r8, lr}
	.cfi_def_cfa_offset 16
	MOV	r6,r0
	MOV	r7,r1
.LM205:
	MOV	r0,#1
.LVL140:
	LD	r5,#1073744000
	CMP	r6,r5
	JZ	.L193
.LM206:
	LD	r5,#1073742080
	CMP	r6,r5
	JZ	.L193
.LM207:
	LD	r5,#1073742208
	CMP	r6,r5
	JZ	.L193
	LD	r5,#1073742336
	CMP	r6,r5
	JZ	.L193
	LD	r5,#1073742464
	CMP	r6,r5
	JZ	.L193
	LD	r5,#1073748608
	CMP	r6,r5
	JZ	.L193
	LD	r5,#1073748736
	CMP	r6,r5
	JZ	.L193
	LD	r5,#1073748992
	CMP	r6,r5
	JZ	.L193
	MOV	r0,#0
.L193:
.LM208:
	LD	r5,#CHECK_RESTRICTION
	MOV	r8,r5
	LJMP	r5
.LVL141:
.LM209:
	MOV	r0,#1
	CMP	r7,r0
	JLS	.L195
	MOV	r0,#0
.L195:
	LJMP	r8
.LVL142:
.LM210:
	ADD	r6,#8
.LVL143:
.LM211:
	CMP	r7,#0
	JNZ	.L205
.LM212:
// inline asm begin
	// 500 "../src/kf32a9k1xxx_gtim.c" 1
	CLR [r6], #12
	// 0 "" 2
.LM213:
// inline asm end
	POP	{r6, r7, r8}
	.cfi_remember_state
	.cfi_def_cfa_offset 4
.LVL144:
	POP	lr
	.cfi_def_cfa_offset 0
	JMP	lr
.LVL145:
.L205:
	.cfi_restore_state
.LM214:
// inline asm begin
	// 495 "../src/kf32a9k1xxx_gtim.c" 1
	SET [r6], #12
	// 0 "" 2
.LM215:
// inline asm end
	POP	{r6, r7, r8}
	.cfi_def_cfa_offset 4
.LVL146:
	POP	lr
	.cfi_def_cfa_offset 0
	JMP	lr
	.cfi_endproc
.LFE13:
	.size	GPTIM_Master_Slave_Snyc_Config, .-GPTIM_Master_Slave_Snyc_Config
	.section .text$GPTIM_Trigger_Select_Config
	.type	.text$GPTIM_Trigger_Select_Config$scode_local_14, @function
	.text$GPTIM_Trigger_Select_Config$scode_local_14:
	.align	1
	.export	GPTIM_Trigger_Select_Config
	.type	GPTIM_Trigger_Select_Config, @function
GPTIM_Trigger_Select_Config:
.LFB14:
.LM216:
	.cfi_startproc
.LVL147:
	PUSH	{r6, r7, r8, lr}
	.cfi_def_cfa_offset 16
	MOV	r6,r0
	MOV	r7,r1
.LM217:
	LD	r5,#1073744000
	CMP	r0,r5
	JZ	.L215
.LM218:
	LD	r5,#1073742080
	CMP	r0,r5
	JZ	.L215
.LM219:
	LD	r5,#1073742208
	CMP	r0,r5
	JZ	.L215
	LD	r5,#1073742336
	CMP	r0,r5
	JZ	.L215
	LD	r5,#1073742464
	CMP	r0,r5
	JZ	.L215
	LD	r5,#1073748608
	CMP	r0,r5
	JZ	.L215
	LD	r5,#1073748736
	MOV	r0,#1
.LVL148:
	CMP	r6,r5
	JZ	.L207
	LD	r5,#1073748992
	CMP	r6,r5
	JZ	.L207
	MOV	r0,#0
.L207:
.LM220:
	LD	r5,#CHECK_RESTRICTION
	MOV	r8,r5
	LJMP	r5
.LVL149:
.LM221:
	LD	r5,#-3841
	ANL	r5,r7,r5
	MOV	r0,#1
	CMP	r5,#0
	JZ	.L209
	MOV	r0,#0
.L209:
	LJMP	r8
.LVL150:
.LM222:
	LD.w	r4,[r6+#2]
.LVL151:
.LBB50:
.LBB51:
.LM223:
	LD	r5,#-3841
	ANL	r5,r4,r5
	ORL	r7,r7,r5
.LVL152:
.LBE51:
.LBE50:
.LM224:
	ST.w	[r6+#2],r7
.LM225:
	POP	{r6, r7, r8}
	.cfi_remember_state
	.cfi_def_cfa_offset 4
	POP	lr
	.cfi_def_cfa_offset 0
	JMP	lr
.LVL153:
.L215:
	.cfi_restore_state
.LM226:
	MOV	r0,#1
.LVL154:
	JMP	.L207
	.cfi_endproc
.LFE14:
	.size	GPTIM_Trigger_Select_Config, .-GPTIM_Trigger_Select_Config
	.section .text$GPTIM_Slave_Mode_Config
	.type	.text$GPTIM_Slave_Mode_Config$scode_local_15, @function
	.text$GPTIM_Slave_Mode_Config$scode_local_15:
	.align	1
	.export	GPTIM_Slave_Mode_Config
	.type	GPTIM_Slave_Mode_Config, @function
GPTIM_Slave_Mode_Config:
.LFB15:
.LM227:
	.cfi_startproc
.LVL155:
	PUSH	{r6, r7, r8, lr}
	.cfi_def_cfa_offset 16
	MOV	r6,r0
	MOV	r7,r1
.LM228:
	MOV	r0,#1
.LVL156:
	LD	r5,#1073744000
	CMP	r6,r5
	JZ	.L221
.LM229:
	LD	r5,#1073742080
	CMP	r6,r5
	JZ	.L221
.LM230:
	LD	r5,#1073742208
	CMP	r6,r5
	JZ	.L221
	LD	r5,#1073742336
	CMP	r6,r5
	JZ	.L221
	LD	r5,#1073742464
	CMP	r6,r5
	JZ	.L221
	LD	r5,#1073748608
	CMP	r6,r5
	JZ	.L221
	LD	r5,#1073748736
	CMP	r6,r5
	JZ	.L221
	LD	r5,#1073748992
	CMP	r6,r5
	JZ	.L221
	MOV	r0,#0
.L221:
.LM231:
	LD	r5,#CHECK_RESTRICTION
	MOV	r8,r5
	LJMP	r5
.LVL157:
.LM232:
	MOV	r0,#1
	CMP	r7,#0
	JZ	.L223
.LM233:
	MOV	r5,#128
	CMP	r7,r5
	JZ	.L223
.LM234:
	MOV	r5,#160
	CMP	r7,r5
	JZ	.L223
	MOV	r5,#192
	CMP	r7,r5
	JZ	.L223
	MOV	r5,#224
	CMP	r7,r5
	JZ	.L223
	MOV	r0,#0
.L223:
.LM235:
	LJMP	r8
.LVL158:
.LM236:
	LD.w	r4,[r6+#2]
.LVL159:
.LBB52:
.LBB53:
.LM237:
	MOV	r5,#224
	NOT	r5,r5
	ANL	r5,r4,r5
	ORL	r7,r7,r5
.LVL160:
.LBE53:
.LBE52:
.LM238:
	ST.w	[r6+#2],r7
.LM239:
	POP	{r6, r7, r8}
	.cfi_def_cfa_offset 4
	POP	lr
	.cfi_def_cfa_offset 0
	JMP	lr
	.cfi_endproc
.LFE15:
	.size	GPTIM_Slave_Mode_Config, .-GPTIM_Slave_Mode_Config
	.section .text$GPTIM_Master_Mode_Config
	.type	.text$GPTIM_Master_Mode_Config$scode_local_16, @function
	.text$GPTIM_Master_Mode_Config$scode_local_16:
	.align	1
	.export	GPTIM_Master_Mode_Config
	.type	GPTIM_Master_Mode_Config, @function
GPTIM_Master_Mode_Config:
.LFB16:
.LM240:
	.cfi_startproc
.LVL161:
	PUSH	{r6, r7, r8, lr}
	.cfi_def_cfa_offset 16
	MOV	r6,r0
	MOV	r7,r1
.LM241:
	MOV	r0,#1
.LVL162:
	LD	r5,#1073744000
	CMP	r6,r5
	JZ	.L238
.LM242:
	LD	r5,#1073742080
	CMP	r6,r5
	JZ	.L238
.LM243:
	LD	r5,#1073742208
	CMP	r6,r5
	JZ	.L238
	LD	r5,#1073742336
	CMP	r6,r5
	JZ	.L238
	LD	r5,#1073742464
	CMP	r6,r5
	JZ	.L238
	LD	r5,#1073748608
	CMP	r6,r5
	JZ	.L238
	LD	r5,#1073748736
	CMP	r6,r5
	JZ	.L238
	LD	r5,#1073748992
	CMP	r6,r5
	JZ	.L238
	MOV	r0,#0
.L238:
.LM244:
	LD	r5,#CHECK_RESTRICTION
	MOV	r8,r5
	LJMP	r5
.LVL163:
.LM245:
	MOV	r0,#1
	CMP	r7,#0
	JZ	.L240
.LM246:
	CMP	r7,#4
	JZ	.L240
.LM247:
	CMP	r7,#8
	JZ	.L240
	CMP	r7,#12
	JZ	.L240
	CMP	r7,#16
	JZ	.L240
	CMP	r7,#20
	JZ	.L240
	CMP	r7,#24
	JZ	.L240
	CMP	r7,#28
	JZ	.L240
	MOV	r0,#0
.L240:
.LM248:
	LJMP	r8
.LVL164:
.LM249:
	LD.w	r4,[r6+#2]
.LVL165:
.LBB54:
.LBB55:
.LM250:
	MOV	r5,#28
	NOT	r5,r5
	ANL	r5,r4,r5
	ORL	r7,r7,r5
.LVL166:
.LBE55:
.LBE54:
.LM251:
	ST.w	[r6+#2],r7
.LM252:
	POP	{r6, r7, r8}
	.cfi_def_cfa_offset 4
	POP	lr
	.cfi_def_cfa_offset 0
	JMP	lr
	.cfi_endproc
.LFE16:
	.size	GPTIM_Master_Mode_Config, .-GPTIM_Master_Mode_Config
	.section .text$GPTIM_Updata_Rising_Edge_Config
	.type	.text$GPTIM_Updata_Rising_Edge_Config$scode_local_17, @function
	.text$GPTIM_Updata_Rising_Edge_Config$scode_local_17:
	.align	1
	.export	GPTIM_Updata_Rising_Edge_Config
	.type	GPTIM_Updata_Rising_Edge_Config, @function
GPTIM_Updata_Rising_Edge_Config:
.LFB17:
.LM253:
	.cfi_startproc
.LVL167:
	PUSH	{r6, r7, r8, lr}
	.cfi_def_cfa_offset 16
	MOV	r6,r0
	MOV	r7,r1
.LM254:
	MOV	r0,#1
.LVL168:
	LD	r5,#1073744000
	CMP	r6,r5
	JZ	.L267
.LM255:
	LD	r5,#1073742080
	CMP	r6,r5
	JZ	.L267
.LM256:
	LD	r5,#1073742208
	CMP	r6,r5
	JZ	.L267
	LD	r5,#1073742336
	CMP	r6,r5
	JZ	.L267
	LD	r5,#1073742464
	CMP	r6,r5
	JZ	.L267
	LD	r5,#1073748608
	CMP	r6,r5
	JZ	.L267
	LD	r5,#1073748736
	CMP	r6,r5
	JZ	.L267
	LD	r5,#1073748992
	CMP	r6,r5
	JZ	.L267
	MOV	r0,#0
.L267:
.LM257:
	LD	r5,#CHECK_RESTRICTION
	MOV	r8,r5
	LJMP	r5
.LVL169:
.LM258:
	MOV	r0,#1
	CMP	r7,r0
	JLS	.L269
	MOV	r0,#0
.L269:
	LJMP	r8
.LVL170:
.LM259:
	ADD	r6,#8
.LVL171:
.LM260:
	CMP	r7,#0
	JNZ	.L279
.LM261:
// inline asm begin
	// 628 "../src/kf32a9k1xxx_gtim.c" 1
	CLR [r6], #1
	// 0 "" 2
.LM262:
// inline asm end
	POP	{r6, r7, r8}
	.cfi_remember_state
	.cfi_def_cfa_offset 4
.LVL172:
	POP	lr
	.cfi_def_cfa_offset 0
	JMP	lr
.LVL173:
.L279:
	.cfi_restore_state
.LM263:
// inline asm begin
	// 623 "../src/kf32a9k1xxx_gtim.c" 1
	SET [r6], #1
	// 0 "" 2
.LM264:
// inline asm end
	POP	{r6, r7, r8}
	.cfi_def_cfa_offset 4
.LVL174:
	POP	lr
	.cfi_def_cfa_offset 0
	JMP	lr
	.cfi_endproc
.LFE17:
	.size	GPTIM_Updata_Rising_Edge_Config, .-GPTIM_Updata_Rising_Edge_Config
	.section .text$GPTIM_Updata_Enable
	.type	.text$GPTIM_Updata_Enable$scode_local_18, @function
	.text$GPTIM_Updata_Enable$scode_local_18:
	.align	1
	.export	GPTIM_Updata_Enable
	.type	GPTIM_Updata_Enable, @function
GPTIM_Updata_Enable:
.LFB18:
.LM265:
	.cfi_startproc
.LVL175:
	PUSH	{r6, r7, r8, lr}
	.cfi_def_cfa_offset 16
	MOV	r6,r0
	MOV	r7,r1
.LM266:
	MOV	r0,#1
.LVL176:
	LD	r5,#1073744000
	CMP	r6,r5
	JZ	.L281
.LM267:
	LD	r5,#1073742080
	CMP	r6,r5
	JZ	.L281
.LM268:
	LD	r5,#1073742208
	CMP	r6,r5
	JZ	.L281
	LD	r5,#1073742336
	CMP	r6,r5
	JZ	.L281
	LD	r5,#1073742464
	CMP	r6,r5
	JZ	.L281
	LD	r5,#1073748608
	CMP	r6,r5
	JZ	.L281
	LD	r5,#1073748736
	CMP	r6,r5
	JZ	.L281
	LD	r5,#1073748992
	CMP	r6,r5
	JZ	.L281
	MOV	r0,#0
.L281:
.LM269:
	LD	r5,#CHECK_RESTRICTION
	MOV	r8,r5
	LJMP	r5
.LVL177:
.LM270:
	MOV	r0,#1
	CMP	r7,r0
	JLS	.L283
	MOV	r0,#0
.L283:
	LJMP	r8
.LVL178:
.LM271:
	ADD	r6,#8
.LVL179:
.LM272:
	CMP	r7,#0
	JNZ	.L293
.LM273:
// inline asm begin
	// 659 "../src/kf32a9k1xxx_gtim.c" 1
	CLR [r6], #0
	// 0 "" 2
.LM274:
// inline asm end
	POP	{r6, r7, r8}
	.cfi_remember_state
	.cfi_def_cfa_offset 4
.LVL180:
	POP	lr
	.cfi_def_cfa_offset 0
	JMP	lr
.LVL181:
.L293:
	.cfi_restore_state
.LM275:
// inline asm begin
	// 654 "../src/kf32a9k1xxx_gtim.c" 1
	SET [r6], #0
	// 0 "" 2
.LM276:
// inline asm end
	POP	{r6, r7, r8}
	.cfi_def_cfa_offset 4
.LVL182:
	POP	lr
	.cfi_def_cfa_offset 0
	JMP	lr
	.cfi_endproc
.LFE18:
	.size	GPTIM_Updata_Enable, .-GPTIM_Updata_Enable
	.section .text$GPTIM_Trigger_DMA_Enable
	.type	.text$GPTIM_Trigger_DMA_Enable$scode_local_19, @function
	.text$GPTIM_Trigger_DMA_Enable$scode_local_19:
	.align	1
	.export	GPTIM_Trigger_DMA_Enable
	.type	GPTIM_Trigger_DMA_Enable, @function
GPTIM_Trigger_DMA_Enable:
.LFB19:
.LM277:
	.cfi_startproc
.LVL183:
	PUSH	{r6, r7, r8, lr}
	.cfi_def_cfa_offset 16
	MOV	r6,r0
	MOV	r7,r1
.LM278:
	MOV	r0,#1
.LVL184:
	LD	r5,#1073744000
	CMP	r6,r5
	JZ	.L295
.LM279:
	LD	r5,#1073742080
	CMP	r6,r5
	JZ	.L295
.LM280:
	LD	r5,#1073742208
	CMP	r6,r5
	JZ	.L295
	LD	r5,#1073742336
	CMP	r6,r5
	JZ	.L295
	LD	r5,#1073742464
	CMP	r6,r5
	JZ	.L295
	LD	r5,#1073748608
	CMP	r6,r5
	JZ	.L295
	LD	r5,#1073748736
	CMP	r6,r5
	JZ	.L295
	LD	r5,#1073748992
	CMP	r6,r5
	JZ	.L295
	MOV	r0,#0
.L295:
.LM281:
	LD	r5,#CHECK_RESTRICTION
	MOV	r8,r5
	LJMP	r5
.LVL185:
.LM282:
	MOV	r0,#1
	CMP	r7,r0
	JLS	.L297
	MOV	r0,#0
.L297:
	LJMP	r8
.LVL186:
.LM283:
	ADD	r6,#88
.LVL187:
.LM284:
	CMP	r7,#0
	JNZ	.L307
.LM285:
// inline asm begin
	// 690 "../src/kf32a9k1xxx_gtim.c" 1
	CLR [r6], #11
	// 0 "" 2
.LM286:
// inline asm end
	POP	{r6, r7, r8}
	.cfi_remember_state
	.cfi_def_cfa_offset 4
.LVL188:
	POP	lr
	.cfi_def_cfa_offset 0
	JMP	lr
.LVL189:
.L307:
	.cfi_restore_state
.LM287:
// inline asm begin
	// 685 "../src/kf32a9k1xxx_gtim.c" 1
	SET [r6], #11
	// 0 "" 2
.LM288:
// inline asm end
	POP	{r6, r7, r8}
	.cfi_def_cfa_offset 4
.LVL190:
	POP	lr
	.cfi_def_cfa_offset 0
	JMP	lr
	.cfi_endproc
.LFE19:
	.size	GPTIM_Trigger_DMA_Enable, .-GPTIM_Trigger_DMA_Enable
	.section .text$GPTIM_Updata_DMA_Enable
	.type	.text$GPTIM_Updata_DMA_Enable$scode_local_20, @function
	.text$GPTIM_Updata_DMA_Enable$scode_local_20:
	.align	1
	.export	GPTIM_Updata_DMA_Enable
	.type	GPTIM_Updata_DMA_Enable, @function
GPTIM_Updata_DMA_Enable:
.LFB20:
.LM289:
	.cfi_startproc
.LVL191:
	PUSH	{r6, r7, r8, lr}
	.cfi_def_cfa_offset 16
	MOV	r6,r0
	MOV	r7,r1
.LM290:
	MOV	r0,#1
.LVL192:
	LD	r5,#1073744000
	CMP	r6,r5
	JZ	.L309
.LM291:
	LD	r5,#1073742080
	CMP	r6,r5
	JZ	.L309
.LM292:
	LD	r5,#1073742208
	CMP	r6,r5
	JZ	.L309
	LD	r5,#1073742336
	CMP	r6,r5
	JZ	.L309
	LD	r5,#1073742464
	CMP	r6,r5
	JZ	.L309
	LD	r5,#1073748608
	CMP	r6,r5
	JZ	.L309
	LD	r5,#1073748736
	CMP	r6,r5
	JZ	.L309
	LD	r5,#1073748992
	CMP	r6,r5
	JZ	.L309
	MOV	r0,#0
.L309:
.LM293:
	LD	r5,#CHECK_RESTRICTION
	MOV	r8,r5
	LJMP	r5
.LVL193:
.LM294:
	MOV	r0,#1
	CMP	r7,r0
	JLS	.L311
	MOV	r0,#0
.L311:
	LJMP	r8
.LVL194:
.LM295:
	ADD	r6,#88
.LVL195:
.LM296:
	CMP	r7,#0
	JNZ	.L321
.LM297:
// inline asm begin
	// 721 "../src/kf32a9k1xxx_gtim.c" 1
	CLR [r6], #6
	// 0 "" 2
.LM298:
// inline asm end
	POP	{r6, r7, r8}
	.cfi_remember_state
	.cfi_def_cfa_offset 4
.LVL196:
	POP	lr
	.cfi_def_cfa_offset 0
	JMP	lr
.LVL197:
.L321:
	.cfi_restore_state
.LM299:
// inline asm begin
	// 716 "../src/kf32a9k1xxx_gtim.c" 1
	SET [r6], #6
	// 0 "" 2
.LM300:
// inline asm end
	POP	{r6, r7, r8}
	.cfi_def_cfa_offset 4
.LVL198:
	POP	lr
	.cfi_def_cfa_offset 0
	JMP	lr
	.cfi_endproc
.LFE20:
	.size	GPTIM_Updata_DMA_Enable, .-GPTIM_Updata_DMA_Enable
	.section .text$GPTIM_Updata_INT_Enable
	.type	.text$GPTIM_Updata_INT_Enable$scode_local_21, @function
	.text$GPTIM_Updata_INT_Enable$scode_local_21:
	.align	1
	.export	GPTIM_Updata_INT_Enable
	.type	GPTIM_Updata_INT_Enable, @function
GPTIM_Updata_INT_Enable:
.LFB21:
.LM301:
	.cfi_startproc
.LVL199:
	PUSH	{r6, r7, r8, lr}
	.cfi_def_cfa_offset 16
	MOV	r6,r0
	MOV	r7,r1
.LM302:
	MOV	r0,#1
.LVL200:
	LD	r5,#1073744000
	CMP	r6,r5
	JZ	.L323
.LM303:
	LD	r5,#1073742080
	CMP	r6,r5
	JZ	.L323
.LM304:
	LD	r5,#1073742208
	CMP	r6,r5
	JZ	.L323
	LD	r5,#1073742336
	CMP	r6,r5
	JZ	.L323
	LD	r5,#1073742464
	CMP	r6,r5
	JZ	.L323
	LD	r5,#1073748608
	CMP	r6,r5
	JZ	.L323
	LD	r5,#1073748736
	CMP	r6,r5
	JZ	.L323
	LD	r5,#1073748992
	CMP	r6,r5
	JZ	.L323
	MOV	r0,#0
.L323:
.LM305:
	LD	r5,#CHECK_RESTRICTION
	MOV	r8,r5
	LJMP	r5
.LVL201:
.LM306:
	MOV	r0,#1
	CMP	r7,r0
	JLS	.L325
	MOV	r0,#0
.L325:
	LJMP	r8
.LVL202:
.LM307:
	ADD	r6,#88
.LVL203:
.LM308:
	CMP	r7,#0
	JNZ	.L335
.LM309:
// inline asm begin
	// 753 "../src/kf32a9k1xxx_gtim.c" 1
	CLR [r6], #5
	// 0 "" 2
.LM310:
// inline asm end
	POP	{r6, r7, r8}
	.cfi_remember_state
	.cfi_def_cfa_offset 4
.LVL204:
	POP	lr
	.cfi_def_cfa_offset 0
	JMP	lr
.LVL205:
.L335:
	.cfi_restore_state
.LM311:
// inline asm begin
	// 748 "../src/kf32a9k1xxx_gtim.c" 1
	SET [r6], #5
	// 0 "" 2
.LM312:
// inline asm end
	POP	{r6, r7, r8}
	.cfi_def_cfa_offset 4
.LVL206:
	POP	lr
	.cfi_def_cfa_offset 0
	JMP	lr
	.cfi_endproc
.LFE21:
	.size	GPTIM_Updata_INT_Enable, .-GPTIM_Updata_INT_Enable
	.section .text$GPTIM_Trigger_INT_Enable
	.type	.text$GPTIM_Trigger_INT_Enable$scode_local_22, @function
	.text$GPTIM_Trigger_INT_Enable$scode_local_22:
	.align	1
	.export	GPTIM_Trigger_INT_Enable
	.type	GPTIM_Trigger_INT_Enable, @function
GPTIM_Trigger_INT_Enable:
.LFB22:
.LM313:
	.cfi_startproc
.LVL207:
	PUSH	{r6, r7, r8, lr}
	.cfi_def_cfa_offset 16
	MOV	r6,r0
	MOV	r7,r1
.LM314:
	MOV	r0,#1
.LVL208:
	LD	r5,#1073744000
	CMP	r6,r5
	JZ	.L337
.LM315:
	LD	r5,#1073742080
	CMP	r6,r5
	JZ	.L337
.LM316:
	LD	r5,#1073742208
	CMP	r6,r5
	JZ	.L337
	LD	r5,#1073742336
	CMP	r6,r5
	JZ	.L337
	LD	r5,#1073742464
	CMP	r6,r5
	JZ	.L337
	LD	r5,#1073748608
	CMP	r6,r5
	JZ	.L337
	LD	r5,#1073748736
	CMP	r6,r5
	JZ	.L337
	LD	r5,#1073748992
	CMP	r6,r5
	JZ	.L337
	MOV	r0,#0
.L337:
.LM317:
	LD	r5,#CHECK_RESTRICTION
	MOV	r8,r5
	LJMP	r5
.LVL209:
.LM318:
	MOV	r0,#1
	CMP	r7,r0
	JLS	.L339
	MOV	r0,#0
.L339:
	LJMP	r8
.LVL210:
.LM319:
	ADD	r6,#88
.LVL211:
.LM320:
	CMP	r7,#0
	JNZ	.L349
.LM321:
// inline asm begin
	// 784 "../src/kf32a9k1xxx_gtim.c" 1
	CLR [r6], #4
	// 0 "" 2
.LM322:
// inline asm end
	POP	{r6, r7, r8}
	.cfi_remember_state
	.cfi_def_cfa_offset 4
.LVL212:
	POP	lr
	.cfi_def_cfa_offset 0
	JMP	lr
.LVL213:
.L349:
	.cfi_restore_state
.LM323:
// inline asm begin
	// 779 "../src/kf32a9k1xxx_gtim.c" 1
	SET [r6], #4
	// 0 "" 2
.LM324:
// inline asm end
	POP	{r6, r7, r8}
	.cfi_def_cfa_offset 4
.LVL214:
	POP	lr
	.cfi_def_cfa_offset 0
	JMP	lr
	.cfi_endproc
.LFE22:
	.size	GPTIM_Trigger_INT_Enable, .-GPTIM_Trigger_INT_Enable
	.section .text$GPTIM_Generate_Trigger_Config
	.type	.text$GPTIM_Generate_Trigger_Config$scode_local_23, @function
	.text$GPTIM_Generate_Trigger_Config$scode_local_23:
	.align	1
	.export	GPTIM_Generate_Trigger_Config
	.type	GPTIM_Generate_Trigger_Config, @function
GPTIM_Generate_Trigger_Config:
.LFB23:
.LM325:
	.cfi_startproc
.LVL215:
	PUSH	{r6, r7, r8, lr}
	.cfi_def_cfa_offset 16
	MOV	r6,r0
	MOV	r7,r1
.LM326:
	MOV	r0,#1
.LVL216:
	LD	r5,#1073744000
	CMP	r6,r5
	JZ	.L351
.LM327:
	LD	r5,#1073742080
	CMP	r6,r5
	JZ	.L351
.LM328:
	LD	r5,#1073742208
	CMP	r6,r5
	JZ	.L351
	LD	r5,#1073742336
	CMP	r6,r5
	JZ	.L351
	LD	r5,#1073742464
	CMP	r6,r5
	JZ	.L351
	LD	r5,#1073748608
	CMP	r6,r5
	JZ	.L351
	LD	r5,#1073748736
	CMP	r6,r5
	JZ	.L351
	LD	r5,#1073748992
	CMP	r6,r5
	JZ	.L351
	MOV	r0,#0
.L351:
.LM329:
	LD	r5,#CHECK_RESTRICTION
	MOV	r8,r5
	LJMP	r5
.LVL217:
.LM330:
	MOV	r0,#1
	CMP	r7,r0
	JLS	.L353
	MOV	r0,#0
.L353:
	LJMP	r8
.LVL218:
.LM331:
	ADD	r6,#92
.LVL219:
.LM332:
	CMP	r7,#0
	JNZ	.L363
.LM333:
// inline asm begin
	// 815 "../src/kf32a9k1xxx_gtim.c" 1
	CLR [r6], #5
	// 0 "" 2
.LM334:
// inline asm end
	POP	{r6, r7, r8}
	.cfi_remember_state
	.cfi_def_cfa_offset 4
.LVL220:
	POP	lr
	.cfi_def_cfa_offset 0
	JMP	lr
.LVL221:
.L363:
	.cfi_restore_state
.LM335:
// inline asm begin
	// 810 "../src/kf32a9k1xxx_gtim.c" 1
	SET [r6], #5
	// 0 "" 2
.LM336:
// inline asm end
	POP	{r6, r7, r8}
	.cfi_def_cfa_offset 4
.LVL222:
	POP	lr
	.cfi_def_cfa_offset 0
	JMP	lr
	.cfi_endproc
.LFE23:
	.size	GPTIM_Generate_Trigger_Config, .-GPTIM_Generate_Trigger_Config
	.section .text$GPTIM_Get_Direction
	.type	.text$GPTIM_Get_Direction$scode_local_24, @function
	.text$GPTIM_Get_Direction$scode_local_24:
	.align	1
	.export	GPTIM_Get_Direction
	.type	GPTIM_Get_Direction, @function
GPTIM_Get_Direction:
.LFB24:
.LM337:
	.cfi_startproc
.LVL223:
	PUSH	{r6, lr}
	.cfi_def_cfa_offset 8
	MOV	r6,r0
.LM338:
	MOV	r0,#1
.LVL224:
	LD	r5,#1073744000
	CMP	r6,r5
	JZ	.L365
.LM339:
	LD	r5,#1073742080
	CMP	r6,r5
	JZ	.L365
.LM340:
	LD	r5,#1073742208
	CMP	r6,r5
	JZ	.L365
	LD	r5,#1073742336
	CMP	r6,r5
	JZ	.L365
	LD	r5,#1073742464
	CMP	r6,r5
	JZ	.L365
	LD	r5,#1073748608
	CMP	r6,r5
	JZ	.L365
	LD	r5,#1073748736
	CMP	r6,r5
	JZ	.L365
	LD	r5,#1073748992
	CMP	r6,r5
	JZ	.L365
	MOV	r0,#0
.L365:
.LM341:
	LD	r5,#CHECK_RESTRICTION
	LJMP	r5
.LVL225:
.LM342:
	LD.w	r0,[r6+#1]
	LSR	r0,#7
.LM343:
	MOV	r5,#1
	ANL	r0,r0,r5
	POP	r6
	.cfi_def_cfa_offset 4
.LVL226:
	POP	lr
	.cfi_def_cfa_offset 0
	JMP	lr
	.cfi_endproc
.LFE24:
	.size	GPTIM_Get_Direction, .-GPTIM_Get_Direction
	.section .text$GPTIM_Get_Counter
	.type	.text$GPTIM_Get_Counter$scode_local_25, @function
	.text$GPTIM_Get_Counter$scode_local_25:
	.align	1
	.export	GPTIM_Get_Counter
	.type	GPTIM_Get_Counter, @function
GPTIM_Get_Counter:
.LFB25:
.LM344:
	.cfi_startproc
.LVL227:
	PUSH	{r6, r7, lr}
	.cfi_def_cfa_offset 12
	MOV	r6,r0
.LVL228:
.LM345:
	LD	r5,#1073744000
	CMP	r0,r5
	JZ	.L376
.LM346:
	LD	r5,#1073742080
	CMP	r0,r5
	JZ	.L376
.LM347:
	LD	r5,#1073742208
	CMP	r0,r5
	JZ	.L376
	LD	r5,#1073742336
	CMP	r0,r5
	JZ	.L376
	LD	r5,#1073742464
	CMP	r0,r5
	JZ	.L376
	LD	r5,#1073748608
	CMP	r0,r5
	JZ	.L376
	LD	r5,#1073748736
	CMP	r0,r5
	JZ	.L376
	MOV	r7,#1
	LD	r5,#1073748992
	CMP	r0,r5
	JZ	.L377
	MOV	r7,#0
.L377:
	ZXT.b	r7,r7
	MOV	r0,r7
.LVL229:
	LD	r5,#CHECK_RESTRICTION
	LJMP	r5
.LVL230:
.LM348:
	CMP	r7,#0
	JZ	.L378
.LM349:
	LD	r5,#1073748992
	LD.w	r0,[r5]
.LVL231:
.LM350:
	POP	{r6, r7}
	.cfi_remember_state
	.cfi_def_cfa_offset 4
	POP	lr
	.cfi_def_cfa_offset 0
	JMP	lr
.LVL232:
.L376:
	.cfi_restore_state
.LM351:
	MOV	r0,#1
.LVL233:
	LD	r5,#CHECK_RESTRICTION
	LJMP	r5
.LVL234:
.L378:
.LM352:
	LD.w	r0,[r6]
	ZXT.h	r0,r0
.LVL235:
.LM353:
	POP	{r6, r7}
	.cfi_def_cfa_offset 4
	POP	lr
	.cfi_def_cfa_offset 0
	JMP	lr
	.cfi_endproc
.LFE25:
	.size	GPTIM_Get_Counter, .-GPTIM_Get_Counter
	.section .text$GPTIM_Get_Period
	.type	.text$GPTIM_Get_Period$scode_local_26, @function
	.text$GPTIM_Get_Period$scode_local_26:
	.align	1
	.export	GPTIM_Get_Period
	.type	GPTIM_Get_Period, @function
GPTIM_Get_Period:
.LFB26:
.LM354:
	.cfi_startproc
.LVL236:
	PUSH	{r6, r7, lr}
	.cfi_def_cfa_offset 12
	MOV	r6,r0
.LVL237:
.LM355:
	LD	r5,#1073744000
	CMP	r0,r5
	JZ	.L386
.LM356:
	LD	r5,#1073742080
	CMP	r0,r5
	JZ	.L386
.LM357:
	LD	r5,#1073742208
	CMP	r0,r5
	JZ	.L386
	LD	r5,#1073742336
	CMP	r0,r5
	JZ	.L386
	LD	r5,#1073742464
	CMP	r0,r5
	JZ	.L386
	LD	r5,#1073748608
	CMP	r0,r5
	JZ	.L386
	LD	r5,#1073748736
	CMP	r0,r5
	JZ	.L386
	MOV	r7,#1
	LD	r5,#1073748992
	CMP	r0,r5
	JZ	.L387
	MOV	r7,#0
.L387:
	ZXT.b	r7,r7
	MOV	r0,r7
.LVL238:
	LD	r5,#CHECK_RESTRICTION
	LJMP	r5
.LVL239:
.LM358:
	CMP	r7,#0
	JZ	.L388
.LM359:
	LD	r5,#1073748992
	LD.w	r0,[r5+#4]
.LVL240:
.LM360:
	POP	{r6, r7}
	.cfi_remember_state
	.cfi_def_cfa_offset 4
	POP	lr
	.cfi_def_cfa_offset 0
	JMP	lr
.LVL241:
.L386:
	.cfi_restore_state
.LM361:
	MOV	r0,#1
.LVL242:
	LD	r5,#CHECK_RESTRICTION
	LJMP	r5
.LVL243:
.L388:
.LM362:
	LD.w	r0,[r6+#4]
	ZXT.h	r0,r0
.LVL244:
.LM363:
	POP	{r6, r7}
	.cfi_def_cfa_offset 4
	POP	lr
	.cfi_def_cfa_offset 0
	JMP	lr
	.cfi_endproc
.LFE26:
	.size	GPTIM_Get_Period, .-GPTIM_Get_Period
	.section .text$GPTIM_Get_Prescaler
	.type	.text$GPTIM_Get_Prescaler$scode_local_27, @function
	.text$GPTIM_Get_Prescaler$scode_local_27:
	.align	1
	.export	GPTIM_Get_Prescaler
	.type	GPTIM_Get_Prescaler, @function
GPTIM_Get_Prescaler:
.LFB27:
.LM364:
	.cfi_startproc
.LVL245:
	PUSH	{r6, r7, lr}
	.cfi_def_cfa_offset 12
	MOV	r6,r0
.LVL246:
.LM365:
	LD	r5,#1073744000
	CMP	r0,r5
	JZ	.L396
.LM366:
	LD	r5,#1073742080
	CMP	r0,r5
	JZ	.L396
.LM367:
	LD	r5,#1073742208
	CMP	r0,r5
	JZ	.L396
	LD	r5,#1073742336
	CMP	r0,r5
	JZ	.L396
	LD	r5,#1073742464
	CMP	r0,r5
	JZ	.L396
	LD	r5,#1073748608
	CMP	r0,r5
	JZ	.L396
	LD	r5,#1073748736
	CMP	r0,r5
	JZ	.L396
	MOV	r7,#1
	LD	r5,#1073748992
	CMP	r0,r5
	JZ	.L397
	MOV	r7,#0
.L397:
	ZXT.b	r7,r7
	MOV	r0,r7
.LVL247:
	LD	r5,#CHECK_RESTRICTION
	LJMP	r5
.LVL248:
.LM368:
	CMP	r7,#0
	JZ	.L398
.LM369:
	LD	r5,#1073748992
	LD.w	r0,[r5+#3]
.LVL249:
.LM370:
	POP	{r6, r7}
	.cfi_remember_state
	.cfi_def_cfa_offset 4
	POP	lr
	.cfi_def_cfa_offset 0
	JMP	lr
.LVL250:
.L396:
	.cfi_restore_state
.LM371:
	MOV	r0,#1
.LVL251:
	LD	r5,#CHECK_RESTRICTION
	LJMP	r5
.LVL252:
.L398:
.LM372:
	LD.w	r0,[r6+#3]
	ZXT.h	r0,r0
.LVL253:
.LM373:
	POP	{r6, r7}
	.cfi_def_cfa_offset 4
	POP	lr
	.cfi_def_cfa_offset 0
	JMP	lr
	.cfi_endproc
.LFE27:
	.size	GPTIM_Get_Prescaler, .-GPTIM_Get_Prescaler
	.section .text$GPTIM_Overflow_INT_Enable
	.type	.text$GPTIM_Overflow_INT_Enable$scode_local_28, @function
	.text$GPTIM_Overflow_INT_Enable$scode_local_28:
	.align	1
	.export	GPTIM_Overflow_INT_Enable
	.type	GPTIM_Overflow_INT_Enable, @function
GPTIM_Overflow_INT_Enable:
.LFB28:
.LM374:
	.cfi_startproc
.LVL254:
	PUSH	{r6, r7, r8, lr}
	.cfi_def_cfa_offset 16
	MOV	r6,r0
	MOV	r7,r1
.LM375:
	MOV	r0,#1
.LVL255:
	LD	r5,#1073744000
	CMP	r6,r5
	JZ	.L405
.LM376:
	LD	r5,#1073742080
	CMP	r6,r5
	JZ	.L405
.LM377:
	LD	r5,#1073742208
	CMP	r6,r5
	JZ	.L405
	LD	r5,#1073742336
	CMP	r6,r5
	JZ	.L405
	LD	r5,#1073742464
	CMP	r6,r5
	JZ	.L405
	LD	r5,#1073748608
	CMP	r6,r5
	JZ	.L405
	LD	r5,#1073748736
	CMP	r6,r5
	JZ	.L405
	LD	r5,#1073748992
	CMP	r6,r5
	JZ	.L405
	MOV	r0,#0
.L405:
.LM378:
	LD	r5,#CHECK_RESTRICTION
	MOV	r8,r5
	LJMP	r5
.LVL256:
.LM379:
	MOV	r0,#1
	CMP	r7,r0
	JLS	.L407
	MOV	r0,#0
.L407:
	LJMP	r8
.LVL257:
.LM380:
	ADD	r6,r6,#4
.LVL258:
.LM381:
	CMP	r7,#0
	JNZ	.L417
.LM382:
// inline asm begin
	// 963 "../src/kf32a9k1xxx_gtim.c" 1
	CLR [r6], #12
	// 0 "" 2
.LM383:
// inline asm end
	POP	{r6, r7, r8}
	.cfi_remember_state
	.cfi_def_cfa_offset 4
.LVL259:
	POP	lr
	.cfi_def_cfa_offset 0
	JMP	lr
.LVL260:
.L417:
	.cfi_restore_state
.LM384:
// inline asm begin
	// 958 "../src/kf32a9k1xxx_gtim.c" 1
	SET [r6], #12
	// 0 "" 2
.LM385:
// inline asm end
	POP	{r6, r7, r8}
	.cfi_def_cfa_offset 4
.LVL261:
	POP	lr
	.cfi_def_cfa_offset 0
	JMP	lr
	.cfi_endproc
.LFE28:
	.size	GPTIM_Overflow_INT_Enable, .-GPTIM_Overflow_INT_Enable
	.section .text$GPTIM_Clear_Overflow_INT_Flag
	.type	.text$GPTIM_Clear_Overflow_INT_Flag$scode_local_29, @function
	.text$GPTIM_Clear_Overflow_INT_Flag$scode_local_29:
	.align	1
	.export	GPTIM_Clear_Overflow_INT_Flag
	.type	GPTIM_Clear_Overflow_INT_Flag, @function
GPTIM_Clear_Overflow_INT_Flag:
.LFB29:
.LM386:
	.cfi_startproc
.LVL262:
	PUSH	{r6, lr}
	.cfi_def_cfa_offset 8
	MOV	r6,r0
.LM387:
	MOV	r0,#1
.LVL263:
	LD	r5,#1073744000
	CMP	r6,r5
	JZ	.L419
.LM388:
	LD	r5,#1073742080
	CMP	r6,r5
	JZ	.L419
.LM389:
	LD	r5,#1073742208
	CMP	r6,r5
	JZ	.L419
	LD	r5,#1073742336
	CMP	r6,r5
	JZ	.L419
	LD	r5,#1073742464
	CMP	r6,r5
	JZ	.L419
	LD	r5,#1073748608
	CMP	r6,r5
	JZ	.L419
	LD	r5,#1073748736
	CMP	r6,r5
	JZ	.L419
	LD	r5,#1073748992
	CMP	r6,r5
	JZ	.L419
	MOV	r0,#0
.L419:
.LM390:
	LD	r5,#CHECK_RESTRICTION
	LJMP	r5
.LVL264:
.LM391:
	MOV	r5,#48
	ADD	r3,r6,r5
// inline asm begin
	// 983 "../src/kf32a9k1xxx_gtim.c" 1
	SET [r3], #6
	// 0 "" 2
.LM392:
// inline asm end
	MOV	r4,#1
	LSL	r4,#13
.L421:
.LM393:
	LD.w	r5,[r6+#1]
	ANL	r5,r5,r4
	JNZ	.L421
.LM394:
// inline asm begin
	// 985 "../src/kf32a9k1xxx_gtim.c" 1
	CLR [r3], #6
	// 0 "" 2
.LM395:
// inline asm end
	POP	r6
	.cfi_def_cfa_offset 4
.LVL265:
	POP	lr
	.cfi_def_cfa_offset 0
	JMP	lr
	.cfi_endproc
.LFE29:
	.size	GPTIM_Clear_Overflow_INT_Flag, .-GPTIM_Clear_Overflow_INT_Flag
	.section .text$GPTIM_Clear_Updata_INT_Flag
	.type	.text$GPTIM_Clear_Updata_INT_Flag$scode_local_30, @function
	.text$GPTIM_Clear_Updata_INT_Flag$scode_local_30:
	.align	1
	.export	GPTIM_Clear_Updata_INT_Flag
	.type	GPTIM_Clear_Updata_INT_Flag, @function
GPTIM_Clear_Updata_INT_Flag:
.LFB30:
.LM396:
	.cfi_startproc
.LVL266:
	PUSH	{r6, lr}
	.cfi_def_cfa_offset 8
	MOV	r6,r0
.LM397:
	MOV	r0,#1
.LVL267:
	LD	r5,#1073744000
	CMP	r6,r5
	JZ	.L431
.LM398:
	LD	r5,#1073742080
	CMP	r6,r5
	JZ	.L431
.LM399:
	LD	r5,#1073742208
	CMP	r6,r5
	JZ	.L431
	LD	r5,#1073742336
	CMP	r6,r5
	JZ	.L431
	LD	r5,#1073742464
	CMP	r6,r5
	JZ	.L431
	LD	r5,#1073748608
	CMP	r6,r5
	JZ	.L431
	LD	r5,#1073748736
	CMP	r6,r5
	JZ	.L431
	LD	r5,#1073748992
	CMP	r6,r5
	JZ	.L431
	MOV	r0,#0
.L431:
.LM400:
	LD	r5,#CHECK_RESTRICTION
	LJMP	r5
.LVL268:
.LM401:
	MOV	r5,#48
	ADD	r3,r6,r5
// inline asm begin
	// 1005 "../src/kf32a9k1xxx_gtim.c" 1
	SET [r3], #5
	// 0 "" 2
.LM402:
// inline asm end
	MOV	r4,#1
	LSL	r4,#11
.L433:
.LM403:
	LD.w	r5,[r6+#23]
	ANL	r5,r5,r4
	JNZ	.L433
.LM404:
// inline asm begin
	// 1007 "../src/kf32a9k1xxx_gtim.c" 1
	CLR [r3], #5
	// 0 "" 2
.LM405:
// inline asm end
	POP	r6
	.cfi_def_cfa_offset 4
.LVL269:
	POP	lr
	.cfi_def_cfa_offset 0
	JMP	lr
	.cfi_endproc
.LFE30:
	.size	GPTIM_Clear_Updata_INT_Flag, .-GPTIM_Clear_Updata_INT_Flag
	.section .text$GPTIM_Clear_Trigger_INT_Flag
	.type	.text$GPTIM_Clear_Trigger_INT_Flag$scode_local_31, @function
	.text$GPTIM_Clear_Trigger_INT_Flag$scode_local_31:
	.align	1
	.export	GPTIM_Clear_Trigger_INT_Flag
	.type	GPTIM_Clear_Trigger_INT_Flag, @function
GPTIM_Clear_Trigger_INT_Flag:
.LFB31:
.LM406:
	.cfi_startproc
.LVL270:
	PUSH	{r6, lr}
	.cfi_def_cfa_offset 8
	MOV	r6,r0
.LM407:
	MOV	r0,#1
.LVL271:
	LD	r5,#1073744000
	CMP	r6,r5
	JZ	.L443
.LM408:
	LD	r5,#1073742080
	CMP	r6,r5
	JZ	.L443
.LM409:
	LD	r5,#1073742208
	CMP	r6,r5
	JZ	.L443
	LD	r5,#1073742336
	CMP	r6,r5
	JZ	.L443
	LD	r5,#1073742464
	CMP	r6,r5
	JZ	.L443
	LD	r5,#1073748608
	CMP	r6,r5
	JZ	.L443
	LD	r5,#1073748736
	CMP	r6,r5
	JZ	.L443
	LD	r5,#1073748992
	CMP	r6,r5
	JZ	.L443
	MOV	r0,#0
.L443:
.LM410:
	LD	r5,#CHECK_RESTRICTION
	LJMP	r5
.LVL272:
.LM411:
	MOV	r5,#48
	ADD	r3,r6,r5
// inline asm begin
	// 1026 "../src/kf32a9k1xxx_gtim.c" 1
	SET [r3], #4
	// 0 "" 2
.LM412:
// inline asm end
	MOV	r4,#1
	LSL	r4,#10
.L445:
.LM413:
	LD.w	r5,[r6+#23]
	ANL	r5,r5,r4
	JNZ	.L445
.LM414:
// inline asm begin
	// 1028 "../src/kf32a9k1xxx_gtim.c" 1
	CLR [r3], #4
	// 0 "" 2
.LM415:
// inline asm end
	POP	r6
	.cfi_def_cfa_offset 4
.LVL273:
	POP	lr
	.cfi_def_cfa_offset 0
	JMP	lr
	.cfi_endproc
.LFE31:
	.size	GPTIM_Clear_Trigger_INT_Flag, .-GPTIM_Clear_Trigger_INT_Flag
	.section .text$GPTIM_Get_Overflow_INT_Flag
	.type	.text$GPTIM_Get_Overflow_INT_Flag$scode_local_32, @function
	.text$GPTIM_Get_Overflow_INT_Flag$scode_local_32:
	.align	1
	.export	GPTIM_Get_Overflow_INT_Flag
	.type	GPTIM_Get_Overflow_INT_Flag, @function
GPTIM_Get_Overflow_INT_Flag:
.LFB32:
.LM416:
	.cfi_startproc
.LVL274:
	PUSH	{r6, lr}
	.cfi_def_cfa_offset 8
	MOV	r6,r0
.LM417:
	MOV	r0,#1
.LVL275:
	LD	r5,#1073744000
	CMP	r6,r5
	JZ	.L455
.LM418:
	LD	r5,#1073742080
	CMP	r6,r5
	JZ	.L455
.LM419:
	LD	r5,#1073742208
	CMP	r6,r5
	JZ	.L455
	LD	r5,#1073742336
	CMP	r6,r5
	JZ	.L455
	LD	r5,#1073742464
	CMP	r6,r5
	JZ	.L455
	LD	r5,#1073748608
	CMP	r6,r5
	JZ	.L455
	LD	r5,#1073748736
	CMP	r6,r5
	JZ	.L455
	LD	r5,#1073748992
	CMP	r6,r5
	JZ	.L455
	MOV	r0,#0
.L455:
.LM420:
	LD	r5,#CHECK_RESTRICTION
	LJMP	r5
.LVL276:
.LM421:
	LD.w	r0,[r6+#1]
	LSR	r0,#13
.LM422:
	MOV	r5,#1
	ANL	r0,r0,r5
	POP	r6
	.cfi_def_cfa_offset 4
.LVL277:
	POP	lr
	.cfi_def_cfa_offset 0
	JMP	lr
	.cfi_endproc
.LFE32:
	.size	GPTIM_Get_Overflow_INT_Flag, .-GPTIM_Get_Overflow_INT_Flag
	.section .text$GPTIM_Get_Updata_INT_Flag
	.type	.text$GPTIM_Get_Updata_INT_Flag$scode_local_33, @function
	.text$GPTIM_Get_Updata_INT_Flag$scode_local_33:
	.align	1
	.export	GPTIM_Get_Updata_INT_Flag
	.type	GPTIM_Get_Updata_INT_Flag, @function
GPTIM_Get_Updata_INT_Flag:
.LFB33:
.LM423:
	.cfi_startproc
.LVL278:
	PUSH	{r6, lr}
	.cfi_def_cfa_offset 8
	MOV	r6,r0
.LM424:
	MOV	r0,#1
.LVL279:
	LD	r5,#1073744000
	CMP	r6,r5
	JZ	.L465
.LM425:
	LD	r5,#1073742080
	CMP	r6,r5
	JZ	.L465
.LM426:
	LD	r5,#1073742208
	CMP	r6,r5
	JZ	.L465
	LD	r5,#1073742336
	CMP	r6,r5
	JZ	.L465
	LD	r5,#1073742464
	CMP	r6,r5
	JZ	.L465
	LD	r5,#1073748608
	CMP	r6,r5
	JZ	.L465
	LD	r5,#1073748736
	CMP	r6,r5
	JZ	.L465
	LD	r5,#1073748992
	CMP	r6,r5
	JZ	.L465
	MOV	r0,#0
.L465:
.LM427:
	LD	r5,#CHECK_RESTRICTION
	LJMP	r5
.LVL280:
.LM428:
	LD.w	r0,[r6+#23]
	LSR	r0,#11
.LM429:
	MOV	r5,#1
	ANL	r0,r0,r5
	POP	r6
	.cfi_def_cfa_offset 4
.LVL281:
	POP	lr
	.cfi_def_cfa_offset 0
	JMP	lr
	.cfi_endproc
.LFE33:
	.size	GPTIM_Get_Updata_INT_Flag, .-GPTIM_Get_Updata_INT_Flag
	.section .text$GPTIM_Get_Trigger_INT_Flag
	.type	.text$GPTIM_Get_Trigger_INT_Flag$scode_local_34, @function
	.text$GPTIM_Get_Trigger_INT_Flag$scode_local_34:
	.align	1
	.export	GPTIM_Get_Trigger_INT_Flag
	.type	GPTIM_Get_Trigger_INT_Flag, @function
GPTIM_Get_Trigger_INT_Flag:
.LFB34:
.LM430:
	.cfi_startproc
.LVL282:
	PUSH	{r6, lr}
	.cfi_def_cfa_offset 8
	MOV	r6,r0
.LM431:
	MOV	r0,#1
.LVL283:
	LD	r5,#1073744000
	CMP	r6,r5
	JZ	.L475
.LM432:
	LD	r5,#1073742080
	CMP	r6,r5
	JZ	.L475
.LM433:
	LD	r5,#1073742208
	CMP	r6,r5
	JZ	.L475
	LD	r5,#1073742336
	CMP	r6,r5
	JZ	.L475
	LD	r5,#1073742464
	CMP	r6,r5
	JZ	.L475
	LD	r5,#1073748608
	CMP	r6,r5
	JZ	.L475
	LD	r5,#1073748736
	CMP	r6,r5
	JZ	.L475
	LD	r5,#1073748992
	CMP	r6,r5
	JZ	.L475
	MOV	r0,#0
.L475:
.LM434:
	LD	r5,#CHECK_RESTRICTION
	LJMP	r5
.LVL284:
.LM435:
	LD.w	r0,[r6+#23]
	LSR	r0,#10
.LM436:
	MOV	r5,#1
	ANL	r0,r0,r5
	POP	r6
	.cfi_def_cfa_offset 4
.LVL285:
	POP	lr
	.cfi_def_cfa_offset 0
	JMP	lr
	.cfi_endproc
.LFE34:
	.size	GPTIM_Get_Trigger_INT_Flag, .-GPTIM_Get_Trigger_INT_Flag
	.section .text$GPTIM_Get_Updata_DMA_INT_Flag
	.type	.text$GPTIM_Get_Updata_DMA_INT_Flag$scode_local_35, @function
	.text$GPTIM_Get_Updata_DMA_INT_Flag$scode_local_35:
	.align	1
	.export	GPTIM_Get_Updata_DMA_INT_Flag
	.type	GPTIM_Get_Updata_DMA_INT_Flag, @function
GPTIM_Get_Updata_DMA_INT_Flag:
.LFB35:
.LM437:
	.cfi_startproc
.LVL286:
	PUSH	{r6, lr}
	.cfi_def_cfa_offset 8
	MOV	r6,r0
.LM438:
	MOV	r0,#1
.LVL287:
	LD	r5,#1073744000
	CMP	r6,r5
	JZ	.L485
.LM439:
	LD	r5,#1073742080
	CMP	r6,r5
	JZ	.L485
.LM440:
	LD	r5,#1073742208
	CMP	r6,r5
	JZ	.L485
	LD	r5,#1073742336
	CMP	r6,r5
	JZ	.L485
	LD	r5,#1073742464
	CMP	r6,r5
	JZ	.L485
	LD	r5,#1073748608
	CMP	r6,r5
	JZ	.L485
	LD	r5,#1073748736
	CMP	r6,r5
	JZ	.L485
	LD	r5,#1073748992
	CMP	r6,r5
	JZ	.L485
	MOV	r0,#0
.L485:
.LM441:
	LD	r5,#CHECK_RESTRICTION
	LJMP	r5
.LVL288:
.LM442:
	LD.w	r0,[r6+#13]
	LSR	r0,#5
.LM443:
	MOV	r5,#1
	ANL	r0,r0,r5
	POP	r6
	.cfi_def_cfa_offset 4
.LVL289:
	POP	lr
	.cfi_def_cfa_offset 0
	JMP	lr
	.cfi_endproc
.LFE35:
	.size	GPTIM_Get_Updata_DMA_INT_Flag, .-GPTIM_Get_Updata_DMA_INT_Flag
	.section .text$GPTIM_Get_Trigger_DMA_INT_Flag
	.type	.text$GPTIM_Get_Trigger_DMA_INT_Flag$scode_local_36, @function
	.text$GPTIM_Get_Trigger_DMA_INT_Flag$scode_local_36:
	.align	1
	.export	GPTIM_Get_Trigger_DMA_INT_Flag
	.type	GPTIM_Get_Trigger_DMA_INT_Flag, @function
GPTIM_Get_Trigger_DMA_INT_Flag:
.LFB36:
.LM444:
	.cfi_startproc
.LVL290:
	PUSH	{r6, lr}
	.cfi_def_cfa_offset 8
	MOV	r6,r0
.LM445:
	MOV	r0,#1
.LVL291:
	LD	r5,#1073744000
	CMP	r6,r5
	JZ	.L495
.LM446:
	LD	r5,#1073742080
	CMP	r6,r5
	JZ	.L495
.LM447:
	LD	r5,#1073742208
	CMP	r6,r5
	JZ	.L495
	LD	r5,#1073742336
	CMP	r6,r5
	JZ	.L495
	LD	r5,#1073742464
	CMP	r6,r5
	JZ	.L495
	LD	r5,#1073748608
	CMP	r6,r5
	JZ	.L495
	LD	r5,#1073748736
	CMP	r6,r5
	JZ	.L495
	LD	r5,#1073748992
	CMP	r6,r5
	JZ	.L495
	MOV	r0,#0
.L495:
.LM448:
	LD	r5,#CHECK_RESTRICTION
	LJMP	r5
.LVL292:
.LM449:
	LD.w	r0,[r6+#13]
	LSR	r0,#4
.LM450:
	MOV	r5,#1
	ANL	r0,r0,r5
	POP	r6
	.cfi_def_cfa_offset 4
.LVL293:
	POP	lr
	.cfi_def_cfa_offset 0
	JMP	lr
	.cfi_endproc
.LFE36:
	.size	GPTIM_Get_Trigger_DMA_INT_Flag, .-GPTIM_Get_Trigger_DMA_INT_Flag
	.section .text$CCP_Compare_Configuration
	.type	.text$CCP_Compare_Configuration$scode_local_37, @function
	.text$CCP_Compare_Configuration$scode_local_37:
	.align	1
	.export	CCP_Compare_Configuration
	.type	CCP_Compare_Configuration, @function
CCP_Compare_Configuration:
.LFB37:
.LM451:
	.cfi_startproc
.LVL294:
	PUSH	{r6, r7, r8, lr}
	.cfi_def_cfa_offset 16
	MOV	r6,r0
	MOV	r7,r1
.LVL295:
.LM452:
	MOV	r0,#1
.LVL296:
	LD	r5,#1073744000
	CMP	r6,r5
	JZ	.L505
.LM453:
	LD	r5,#1073742080
	CMP	r6,r5
	JZ	.L505
.LM454:
	LD	r5,#1073742208
	CMP	r6,r5
	JZ	.L505
	LD	r5,#1073742336
	CMP	r6,r5
	JZ	.L505
	LD	r5,#1073742464
	CMP	r6,r5
	JZ	.L505
	LD	r5,#1073748608
	CMP	r6,r5
	JZ	.L505
	LD	r5,#1073748736
	CMP	r6,r5
	JZ	.L505
	LD	r5,#1073748992
	CMP	r6,r5
	JZ	.L505
	MOV	r0,#0
.L505:
.LM455:
	LD	r5,#CHECK_RESTRICTION
	MOV	r8,r5
	LJMP	r5
.LVL297:
.LM456:
	LD.h	r0,[r7]
	LSR	r0,#2
	SUB	r0,r0,#1
	LSR	r0,#31
	LJMP	r8
.LVL298:
.LM457:
	LD.h	r5,[r7+#1]
	MOV	r0,#1
	CMP	r5,#0
	JZ	.L507
.LM458:
	CMP	r5,#2
	JZ	.L507
.LM459:
	CMP	r5,#8
	JZ	.L507
	CMP	r5,#9
	JZ	.L507
	CMP	r5,#10
	JZ	.L507
	MOV	r0,#11
	XRL	r0,r5,r0
	SUB	r0,r0,#1
	LSR	r0,#31
.L507:
.LM460:
	LJMP	r8
.LVL299:
.LM461:
	LDP.h	r5,[r7]	<<	#2
.LVL300:
.LM462:
	LD.w	r3,[r6+#16]
.LVL301:
.LM463:
	MOV	r4,#15
	LSL	r4,r4,r5
.LM464:
	NOT	r4,r4
.LVL302:
.LBB56:
.LBB57:
.LM465:
	ANL	r4,r4,r3
.LVL303:
.LBE57:
.LBE56:
.LM466:
	LD.h	r3,[r7+#1]
.LVL304:
.LM467:
	LSL	r3,r3,r5
.LVL305:
.LBB59:
.LBB58:
.LM468:
	ORL	r4,r4,r3
.LBE58:
.LBE59:
.LM469:
	ST.w	[r6+#16],r4
.LVL306:
.LM470:
	ADD	r5,r6,r5
.LVL307:
.LM471:
	LD	r4,#1073748992
	CMP	r6,r4
	JZ	.L527
.LM472:
	LD.h	r4,[r7+#2]
	ST.w	[r5+#17],r4
.LM473:
	POP	{r6, r7, r8}
	.cfi_remember_state
	.cfi_def_cfa_offset 4
.LVL308:
	POP	lr
	.cfi_def_cfa_offset 0
	JMP	lr
.LVL309:
.L527:
	.cfi_restore_state
.LM474:
	LD.w	r4,[r7+#1]
	ST.w	[r5+#17],r4
.LM475:
	POP	{r6, r7, r8}
	.cfi_def_cfa_offset 4
.LVL310:
	POP	lr
	.cfi_def_cfa_offset 0
	JMP	lr
	.cfi_endproc
.LFE37:
	.size	CCP_Compare_Configuration, .-CCP_Compare_Configuration
	.section .text$CCP_Compare_Struct_Init
	.type	.text$CCP_Compare_Struct_Init$scode_local_38, @function
	.text$CCP_Compare_Struct_Init$scode_local_38:
	.align	1
	.export	CCP_Compare_Struct_Init
	.type	CCP_Compare_Struct_Init, @function
CCP_Compare_Struct_Init:
.LFB38:
.LM476:
	.cfi_startproc
.LVL311:
.LM477:
	MOV	r5,#0
	ST.h	[r0],r5
.LM478:
	ST.h	[r0+#1],r5
.LM479:
	MOV	r5,#0
	ST.w	[r0+#1],r5
.LM480:
	JMP	lr
	.cfi_endproc
.LFE38:
	.size	CCP_Compare_Struct_Init, .-CCP_Compare_Struct_Init
	.section .text$CCP_Capture_Configuration
	.type	.text$CCP_Capture_Configuration$scode_local_39, @function
	.text$CCP_Capture_Configuration$scode_local_39:
	.align	1
	.export	CCP_Capture_Configuration
	.type	CCP_Capture_Configuration, @function
CCP_Capture_Configuration:
.LFB39:
.LM481:
	.cfi_startproc
.LVL312:
	PUSH	{r6, r7, r8, lr}
	.cfi_def_cfa_offset 16
	MOV	r6,r0
	MOV	r7,r1
.LVL313:
.LM482:
	MOV	r0,#1
.LVL314:
	LD	r5,#1073744000
	CMP	r6,r5
	JZ	.L530
.LM483:
	LD	r5,#1073742080
	CMP	r6,r5
	JZ	.L530
.LM484:
	LD	r5,#1073742208
	CMP	r6,r5
	JZ	.L530
	LD	r5,#1073742336
	CMP	r6,r5
	JZ	.L530
	LD	r5,#1073742464
	CMP	r6,r5
	JZ	.L530
	LD	r5,#1073748608
	CMP	r6,r5
	JZ	.L530
	LD	r5,#1073748736
	CMP	r6,r5
	JZ	.L530
	LD	r5,#1073748992
	CMP	r6,r5
	JZ	.L530
	MOV	r0,#0
.L530:
.LM485:
	LD	r4,#CHECK_RESTRICTION
	MOV	r8,r4
	LJMP	r4
.LVL315:
.LM486:
	LD.h	r0,[r7]
	LSR	r0,#2
	SUB	r0,r0,#1
	LSR	r0,#31
	LJMP	r8
.LVL316:
.LM487:
	LD.h	r5,[r7+#1]
	MOV	r0,#1
	CMP	r5,#0
	JZ	.L532
.LM488:
	CMP	r5,#5
	JZ	.L532
.LM489:
	CMP	r5,#4
	JZ	.L532
	CMP	r5,#6
	JZ	.L532
	MOV	r0,#7
	XRL	r0,r5,r0
	SUB	r0,r0,#1
	LSR	r0,#31
.L532:
.LM490:
	LJMP	r8
.LVL317:
.LM491:
	MOV	r0,#1
	LD.w	r5,[r7+#1]
	CMP	r5,r0
	JLS	.L533
	MOV	r0,#0
.L533:
	LJMP	r8
.LVL318:
.LM492:
	MOV	r0,#1
	LD.w	r5,[r7+#2]
	CMP	r5,r0
	JLS	.L534
	MOV	r0,#0
.L534:
	LJMP	r8
.LVL319:
.LM493:
	MOV	r0,#1
	LD.w	r5,[r7+#3]
	CMP	r5,r0
	JLS	.L535
	MOV	r0,#0
.L535:
	LJMP	r8
.LVL320:
.LM494:
	LDP.h	r5,[r7]	<<	#2
.LVL321:
.LM495:
	LD.w	r3,[r6+#16]
.LVL322:
.LM496:
	MOV	r4,#15
	LSL	r4,r4,r5
.LM497:
	NOT	r4,r4
.LVL323:
.LBB60:
.LBB61:
.LM498:
	ANL	r4,r4,r3
.LVL324:
.LBE61:
.LBE60:
.LM499:
	LD.h	r3,[r7+#1]
.LVL325:
.LM500:
	LSL	r5,r3,r5
.LVL326:
.LBB63:
.LBB62:
.LM501:
	ORL	r5,r4,r5
.LVL327:
.LBE62:
.LBE63:
.LM502:
	ST.w	[r6+#16],r5
.LM503:
	LD.w	r5,[r6+#21]
.LVL328:
.LBB64:
.LBB65:
.LM504:
	CLR	r5,#15
.LVL329:
	LD.w	r4,[r7+#3]
	ORL	r5,r5,r4
.LBE65:
.LBE64:
.LM505:
	ST.w	[r6+#21],r5
.LVL330:
.LM506:
	LD.w	r4,[r6+#22]
.LVL331:
.LM507:
	LD.w	r3,[r7+#2]
	LSL	r3,#13
.LM508:
	LD.w	r5,[r7+#1]
	LSL	r5,#14
	ORL	r5,r3,r5
.LVL332:
.LBB66:
.LBB67:
.LM509:
	CLR	r4,#13
	CLR	r4,#14
.LVL333:
	ORL	r5,r5,r4
.LVL334:
.LBE67:
.LBE66:
.LM510:
	ST.w	[r6+#22],r5
.LM511:
	POP	{r6, r7, r8}
	.cfi_def_cfa_offset 4
.LVL335:
	POP	lr
	.cfi_def_cfa_offset 0
	JMP	lr
	.cfi_endproc
.LFE39:
	.size	CCP_Capture_Configuration, .-CCP_Capture_Configuration
	.section .text$CCP_Capture_Struct_Init
	.type	.text$CCP_Capture_Struct_Init$scode_local_40, @function
	.text$CCP_Capture_Struct_Init$scode_local_40:
	.align	1
	.export	CCP_Capture_Struct_Init
	.type	CCP_Capture_Struct_Init, @function
CCP_Capture_Struct_Init:
.LFB40:
.LM512:
	.cfi_startproc
.LVL336:
.LM513:
	MOV	r5,#0
	ST.h	[r0],r5
.LM514:
	ST.h	[r0+#1],r5
.LM515:
	MOV	r5,#0
	ST.w	[r0+#1],r5
.LM516:
	ST.w	[r0+#2],r5
.LM517:
	ST.w	[r0+#3],r5
.LM518:
	JMP	lr
	.cfi_endproc
.LFE40:
	.size	CCP_Capture_Struct_Init, .-CCP_Capture_Struct_Init
	.section .text$CCP_PWM_Configuration
	.type	.text$CCP_PWM_Configuration$scode_local_41, @function
	.text$CCP_PWM_Configuration$scode_local_41:
	.align	1
	.export	CCP_PWM_Configuration
	.type	CCP_PWM_Configuration, @function
CCP_PWM_Configuration:
.LFB41:
.LM519:
	.cfi_startproc
.LVL337:
	PUSH	{r6, r7, r8, lr}
	.cfi_def_cfa_offset 16
	MOV	r6,r0
	MOV	r7,r1
.LVL338:
.LM520:
	MOV	r0,#1
.LVL339:
	LD	r5,#1073744000
	CMP	r6,r5
	JZ	.L553
.LM521:
	LD	r5,#1073742080
	CMP	r6,r5
	JZ	.L553
.LM522:
	LD	r5,#1073742208
	CMP	r6,r5
	JZ	.L553
	LD	r5,#1073742336
	CMP	r6,r5
	JZ	.L553
	LD	r5,#1073742464
	CMP	r6,r5
	JZ	.L553
	LD	r5,#1073748608
	CMP	r6,r5
	JZ	.L553
	LD	r5,#1073748736
	CMP	r6,r5
	JZ	.L553
	LD	r5,#1073748992
	CMP	r6,r5
	JZ	.L553
	MOV	r0,#0
.L553:
.LM523:
	LD	r3,#CHECK_RESTRICTION
	MOV	r8,r3
	LJMP	r3
.LVL340:
.LM524:
	LD.h	r0,[r7]
	LSR	r0,#2
	SUB	r0,r0,#1
	LSR	r0,#31
	LJMP	r8
.LVL341:
.LM525:
	LD.h	r5,[r7+#1]
	MOV	r0,#1
	CMP	r5,#0
	JZ	.L555
.LM526:
	MOV	r0,#12
	XRL	r0,r5,r0
	SUB	r0,r0,#1
	LSR	r0,#31
.L555:
.LM527:
	LJMP	r8
.LVL342:
.LM528:
	LD.w	r5,[r7+#2]
	LSR	r5,#2
	MOV	r0,#1
	CMP	r5,#0
	JZ	.L556
	MOV	r0,#0
.L556:
	LJMP	r8
.LVL343:
.LM529:
	MOV	r0,#1
	LD.w	r5,[r7+#3]
	CMP	r5,r0
	JLS	.L557
	MOV	r0,#0
.L557:
	LJMP	r8
.LVL344:
.LM530:
	MOV	r0,#1
	LD.w	r5,[r7+#4]
	CMP	r5,r0
	JLS	.L558
	MOV	r0,#0
.L558:
	LJMP	r8
.LVL345:
.LM531:
	LD.h	r5,[r7]
	MOV	r3,#2
	LSL	r4,r5,r3
.LVL346:
.LM532:
	LD.w	r2,[r6+#16]
.LVL347:
.LM533:
	MOV	r3,#15
	LSL	r3,r3,r4
.LM534:
	NOT	r3,r3
.LVL348:
.LBB68:
.LBB69:
.LM535:
	ANL	r3,r3,r2
.LVL349:
.LBE69:
.LBE68:
.LM536:
	LD.h	r2,[r7+#1]
.LVL350:
.LM537:
	LSL	r2,r2,r4
.LVL351:
.LBB71:
.LBB70:
.LM538:
	ORL	r3,r3,r2
.LBE70:
.LBE71:
.LM539:
	ST.w	[r6+#16],r3
.LVL352:
.LM540:
	ADD	r4,r6,r4
.LVL353:
.LM541:
	LD	r3,#1073748992
	CMP	r6,r3
	JZ	.L573
.LM542:
	LD.h	r3,[r7+#2]
	ST.w	[r4+#17],r3
.L560:
.LM543:
	ADD	r5,r5,r5
.LVL354:
.LM544:
	LD.w	r3,[r6+#21]
.LVL355:
.LM545:
	MOV	r4,#3
.LVL356:
	LSL	r4,r4,r5
.LM546:
	NOT	r4,r4
.LVL357:
.LBB72:
.LBB73:
.LM547:
	ANL	r4,r4,r3
.LVL358:
.LBE73:
.LBE72:
.LM548:
	LD.w	r3,[r7+#2]
.LVL359:
	LSL	r5,r3,r5
.LVL360:
.LBB75:
.LBB74:
.LM549:
	ORL	r5,r4,r5
.LVL361:
.LBE74:
.LBE75:
.LM550:
	ST.w	[r6+#21],r5
.LVL362:
.LM551:
	LD.w	r4,[r6+#22]
.LVL363:
.LM552:
	LD.w	r3,[r7+#4]
	LSL	r3,#15
.LM553:
	LD.w	r5,[r7+#3]
	LSL	r5,#12
	ORL	r5,r3,r5
.LVL364:
.LBB76:
.LBB77:
.LM554:
	CLR	r4,#12
	CLR	r4,#15
.LVL365:
	ORL	r5,r5,r4
.LVL366:
.LBE77:
.LBE76:
.LM555:
	ST.w	[r6+#22],r5
.LM556:
	POP	{r6, r7, r8}
	.cfi_remember_state
	.cfi_def_cfa_offset 4
.LVL367:
	POP	lr
	.cfi_def_cfa_offset 0
	JMP	lr
.LVL368:
.L573:
	.cfi_restore_state
.LM557:
	LD.w	r3,[r7+#1]
	ST.w	[r4+#17],r3
	JMP	.L560
	.cfi_endproc
.LFE41:
	.size	CCP_PWM_Configuration, .-CCP_PWM_Configuration
	.section .text$CCP_PWM_Struct_Init
	.type	.text$CCP_PWM_Struct_Init$scode_local_42, @function
	.text$CCP_PWM_Struct_Init$scode_local_42:
	.align	1
	.export	CCP_PWM_Struct_Init
	.type	CCP_PWM_Struct_Init, @function
CCP_PWM_Struct_Init:
.LFB42:
.LM558:
	.cfi_startproc
.LVL369:
.LM559:
	MOV	r5,#0
	ST.h	[r0],r5
.LM560:
	ST.h	[r0+#1],r5
.LM561:
	MOV	r5,#0
	ST.w	[r0+#1],r5
.LM562:
	ST.w	[r0+#2],r5
.LM563:
	ST.w	[r0+#3],r5
.LM564:
	ST.w	[r0+#4],r5
.LM565:
	JMP	lr
	.cfi_endproc
.LFE42:
	.size	CCP_PWM_Struct_Init, .-CCP_PWM_Struct_Init
	.section .text$CCP_Capture_Mode_Config
	.type	.text$CCP_Capture_Mode_Config$scode_local_43, @function
	.text$CCP_Capture_Mode_Config$scode_local_43:
	.align	1
	.export	CCP_Capture_Mode_Config
	.type	CCP_Capture_Mode_Config, @function
CCP_Capture_Mode_Config:
.LFB43:
.LM566:
	.cfi_startproc
.LVL370:
	PUSH	{r6, r7, r8, r9, lr}
	.cfi_def_cfa_offset 20
	MOV	r6,r0
	MOV	r9,r1
	MOV	r7,r2
.LVL371:
.LM567:
	MOV	r0,#1
.LVL372:
	LD	r5,#1073744000
	CMP	r6,r5
	JZ	.L576
.LM568:
	LD	r5,#1073742080
	CMP	r6,r5
	JZ	.L576
.LM569:
	LD	r5,#1073742208
	CMP	r6,r5
	JZ	.L576
	LD	r5,#1073742336
	CMP	r6,r5
	JZ	.L576
	LD	r5,#1073742464
	CMP	r6,r5
	JZ	.L576
	LD	r5,#1073748608
	CMP	r6,r5
	JZ	.L576
	LD	r5,#1073748736
	CMP	r6,r5
	JZ	.L576
	LD	r5,#1073748992
	CMP	r6,r5
	JZ	.L576
	MOV	r0,#0
.L576:
.LM570:
	LD	r4,#CHECK_RESTRICTION
	MOV	r8,r4
	LJMP	r4
.LVL373:
.LM571:
	MOV	r5,r9
	LSR	r5,#2
	MOV	r0,#1
	CMP	r5,#0
	JZ	.L578
	MOV	r0,#0
.L578:
	LJMP	r8
.LVL374:
.LM572:
	MOV	r0,#1
	CMP	r7,#0
	JZ	.L579
.LM573:
	CMP	r7,#5
	JZ	.L579
.LM574:
	CMP	r7,#4
	JZ	.L579
	CMP	r7,#6
	JZ	.L579
	CMP	r7,#7
	JZ	.L579
	MOV	r0,#0
.L579:
.LM575:
	LJMP	r8
.LVL375:
.LM576:
	LSL	r9,#2
.LVL376:
.LM577:
	LD.w	r4,[r6+#16]
.LVL377:
.LM578:
	MOV	r5,#15
	LSL	r5,r9
.LM579:
	NOT	r5,r5
.LVL378:
.LBB78:
.LBB79:
.LM580:
	ANL	r5,r5,r4
.LVL379:
.LBE79:
.LBE78:
.LM581:
	LSL	r7,r9
.LVL380:
.LBB81:
.LBB80:
.LM582:
	ORL	r7,r5,r7
.LVL381:
.LBE80:
.LBE81:
.LM583:
	ST.w	[r6+#16],r7
.LM584:
	POP	{r6, r7, r8, r9}
	.cfi_def_cfa_offset 4
.LVL382:
	POP	lr
	.cfi_def_cfa_offset 0
	JMP	lr
	.cfi_endproc
.LFE43:
	.size	CCP_Capture_Mode_Config, .-CCP_Capture_Mode_Config
	.section .text$CCP_Compare_Mode_Config
	.type	.text$CCP_Compare_Mode_Config$scode_local_44, @function
	.text$CCP_Compare_Mode_Config$scode_local_44:
	.align	1
	.export	CCP_Compare_Mode_Config
	.type	CCP_Compare_Mode_Config, @function
CCP_Compare_Mode_Config:
.LFB44:
.LM585:
	.cfi_startproc
.LVL383:
	PUSH	{r6, r7, r8, r9, lr}
	.cfi_def_cfa_offset 20
	MOV	r6,r0
	MOV	r9,r1
	MOV	r7,r2
.LVL384:
.LM586:
	MOV	r0,#1
.LVL385:
	LD	r5,#1073744000
	CMP	r6,r5
	JZ	.L603
.LM587:
	LD	r5,#1073742080
	CMP	r6,r5
	JZ	.L603
.LM588:
	LD	r5,#1073742208
	CMP	r6,r5
	JZ	.L603
	LD	r5,#1073742336
	CMP	r6,r5
	JZ	.L603
	LD	r5,#1073742464
	CMP	r6,r5
	JZ	.L603
	LD	r5,#1073748608
	CMP	r6,r5
	JZ	.L603
	LD	r5,#1073748736
	CMP	r6,r5
	JZ	.L603
	LD	r5,#1073748992
	CMP	r6,r5
	JZ	.L603
	MOV	r0,#0
.L603:
.LM589:
	LD	r4,#CHECK_RESTRICTION
	MOV	r8,r4
	LJMP	r4
.LVL386:
.LM590:
	MOV	r5,r9
	LSR	r5,#2
	MOV	r0,#1
	CMP	r5,#0
	JZ	.L605
	MOV	r0,#0
.L605:
	LJMP	r8
.LVL387:
.LM591:
	MOV	r0,#1
	CMP	r7,#0
	JZ	.L606
.LM592:
	CMP	r7,#2
	JZ	.L606
.LM593:
	CMP	r7,#8
	JZ	.L606
	CMP	r7,#9
	JZ	.L606
	CMP	r7,#10
	JZ	.L606
	CMP	r7,#11
	JZ	.L606
	MOV	r0,#0
.L606:
.LM594:
	LJMP	r8
.LVL388:
.LM595:
	LSL	r9,#2
.LVL389:
.LM596:
	LD.w	r4,[r6+#16]
.LVL390:
.LM597:
	MOV	r5,#15
	LSL	r5,r9
.LM598:
	NOT	r5,r5
.LVL391:
.LBB82:
.LBB83:
.LM599:
	ANL	r5,r5,r4
.LVL392:
.LBE83:
.LBE82:
.LM600:
	LSL	r7,r9
.LVL393:
.LBB85:
.LBB84:
.LM601:
	ORL	r7,r5,r7
.LVL394:
.LBE84:
.LBE85:
.LM602:
	ST.w	[r6+#16],r7
.LM603:
	POP	{r6, r7, r8, r9}
	.cfi_def_cfa_offset 4
.LVL395:
	POP	lr
	.cfi_def_cfa_offset 0
	JMP	lr
	.cfi_endproc
.LFE44:
	.size	CCP_Compare_Mode_Config, .-CCP_Compare_Mode_Config
	.section .text$CCP_PWM_Mode_Config
	.type	.text$CCP_PWM_Mode_Config$scode_local_45, @function
	.text$CCP_PWM_Mode_Config$scode_local_45:
	.align	1
	.export	CCP_PWM_Mode_Config
	.type	CCP_PWM_Mode_Config, @function
CCP_PWM_Mode_Config:
.LFB45:
.LM604:
	.cfi_startproc
.LVL396:
	PUSH	{r6, r7, r8, r9, lr}
	.cfi_def_cfa_offset 20
	MOV	r6,r0
	MOV	r9,r1
	MOV	r8,r2
.LVL397:
.LM605:
	MOV	r0,#1
.LVL398:
	LD	r5,#1073744000
	CMP	r6,r5
	JZ	.L632
.LM606:
	LD	r5,#1073742080
	CMP	r6,r5
	JZ	.L632
.LM607:
	LD	r5,#1073742208
	CMP	r6,r5
	JZ	.L632
	LD	r5,#1073742336
	CMP	r6,r5
	JZ	.L632
	LD	r5,#1073742464
	CMP	r6,r5
	JZ	.L632
	LD	r5,#1073748608
	CMP	r6,r5
	JZ	.L632
	LD	r5,#1073748736
	CMP	r6,r5
	JZ	.L632
	LD	r5,#1073748992
	CMP	r6,r5
	JZ	.L632
	MOV	r0,#0
.L632:
.LM608:
	LD	r7,#CHECK_RESTRICTION
	LJMP	r7
.LVL399:
.LM609:
	MOV	r5,r9
	LSR	r5,#2
	MOV	r0,#1
	CMP	r5,#0
	JZ	.L634
	MOV	r0,#0
.L634:
	LJMP	r7
.LVL400:
.LM610:
	MOV	r0,#1
	CMP	r8,#0
	JZ	.L635
.LM611:
	CMP	r8,#12
	JZ	.L635
	MOV	r0,#0
.L635:
.LM612:
	LJMP	r7
.LVL401:
.LM613:
	LSL	r9,#2
.LVL402:
.LM614:
	LD.w	r4,[r6+#16]
.LVL403:
.LM615:
	MOV	r5,#15
	LSL	r5,r9
.LM616:
	NOT	r5,r5
.LVL404:
.LBB86:
.LBB87:
.LM617:
	ANL	r5,r5,r4
.LVL405:
.LBE87:
.LBE86:
.LM618:
	MOV	r4,r8
.LVL406:
	LSL	r4,r9
.LVL407:
.LBB89:
.LBB88:
.LM619:
	ORL	r5,r5,r4
.LBE88:
.LBE89:
.LM620:
	ST.w	[r6+#16],r5
.LM621:
	POP	{r6, r7, r8, r9}
	.cfi_def_cfa_offset 4
.LVL408:
	POP	lr
	.cfi_def_cfa_offset 0
	JMP	lr
	.cfi_endproc
.LFE45:
	.size	CCP_PWM_Mode_Config, .-CCP_PWM_Mode_Config
	.section .text$CCP_Get_Capture_Result
	.type	.text$CCP_Get_Capture_Result$scode_local_46, @function
	.text$CCP_Get_Capture_Result$scode_local_46:
	.align	1
	.export	CCP_Get_Capture_Result
	.type	CCP_Get_Capture_Result, @function
CCP_Get_Capture_Result:
.LFB46:
.LM622:
	.cfi_startproc
.LVL409:
	PUSH	{r6, r7, r8, r9, lr}
	.cfi_def_cfa_offset 20
	MOV	r6,r0
	MOV	r7,r1
.LVL410:
.LM623:
	LD	r5,#1073744000
	CMP	r0,r5
	JZ	.L653
.LM624:
	LD	r5,#1073742080
	CMP	r0,r5
	JZ	.L654
.LM625:
	LD	r5,#1073742208
	CMP	r0,r5
	JZ	.L654
	LD	r5,#1073742336
	CMP	r0,r5
	JZ	.L654
	LD	r5,#1073742464
	CMP	r0,r5
	JZ	.L654
	LD	r5,#1073748608
	CMP	r0,r5
	JZ	.L654
	LD	r5,#1073748736
	CMP	r0,r5
	JZ	.L654
	MOV	r9,#1
	LD	r5,#1073748992
	CMP	r0,r5
	JZ	.L655
	MOV	r9,#0
.L655:
	ZXT.b	r9,r9
	MOV	r0,r9
.LVL411:
	LD	r4,#CHECK_RESTRICTION
	MOV	r8,r4
	LJMP	r4
.LVL412:
.LM626:
	MOV	r4,#2
	LSR	r5,r7,r4
	MOV	r0,#1
	CMP	r5,#0
	JNZ	.L674
	LJMP	r8
.LVL413:
.LM627:
	ADD	r6,#32
.LVL414:
	LSL	r7,#2
.LVL415:
	ADD	r5,r6,r7
.LVL416:
.LM628:
	CMP	r9,#0
	JZ	.L657
.LVL417:
.L676:
.LM629:
	LD.w	r0,[r6+r7]
.LM630:
	POP	{r6, r7, r8, r9}
	.cfi_remember_state
	.cfi_def_cfa_offset 4
	POP	lr
	.cfi_def_cfa_offset 0
	JMP	lr
.LVL418:
.L654:
	.cfi_restore_state
.LM631:
	MOV	r0,#1
.LVL419:
	LD	r5,#CHECK_RESTRICTION
	MOV	r8,r5
	LJMP	r5
.LVL420:
.LM632:
	MOV	r4,#2
	LSR	r5,r7,r4
	MOV	r0,#1
	CMP	r5,#0
	JNZ	.L675
.L660:
	LJMP	r8
.LVL421:
.LM633:
	ADD	r6,#32
.LVL422:
	LSL	r7,#2
.LVL423:
	ADD	r5,r6,r7
.LVL424:
.L657:
.LM634:
	LD.w	r0,[r5]
	ZXT.h	r0,r0
.LM635:
	POP	{r6, r7, r8, r9}
	.cfi_remember_state
	.cfi_def_cfa_offset 4
	POP	lr
	.cfi_def_cfa_offset 0
	JMP	lr
.LVL425:
.L675:
	.cfi_restore_state
.LM636:
	MOV	r0,#0
	JMP	.L660
.L674:
.LM637:
	MOV	r0,#0
	LJMP	r8
.LVL426:
.LM638:
	ADD	r6,#32
.LVL427:
	LSL	r7,#2
.LVL428:
	ADD	r5,r6,r7
.LVL429:
.LM639:
	CMP	r9,#0
	JZ	.L657
	JMP	.L676
.LVL430:
.L653:
.LM640:
	MOV	r0,#1
.LVL431:
	LD	r5,#CHECK_RESTRICTION
	MOV	r8,r5
	LJMP	r5
.LVL432:
.LM641:
	MOV	r4,#2
	LSR	r5,r7,r4
	MOV	r0,#1
	CMP	r5,#0
	JZ	.L659
	MOV	r0,#0
.L659:
	LJMP	r8
.LVL433:
.LM642:
	LSL	r7,#2
.LVL434:
	LD	r5,#1073744032
	ADD	r5,r7,r5
.LVL435:
	JMP	.L657
	.cfi_endproc
.LFE46:
	.size	CCP_Get_Capture_Result, .-CCP_Get_Capture_Result
	.section .text$CCP_Set_Compare_Result
	.type	.text$CCP_Set_Compare_Result$scode_local_47, @function
	.text$CCP_Set_Compare_Result$scode_local_47:
	.align	1
	.export	CCP_Set_Compare_Result
	.type	CCP_Set_Compare_Result, @function
CCP_Set_Compare_Result:
.LFB47:
.LM643:
	.cfi_startproc
.LVL436:
	PUSH	{r6, r7, r8, r9, r10, lr}
	.cfi_def_cfa_offset 24
	MOV	r6,r0
	MOV	r7,r1
	MOV	r9,r2
.LVL437:
.LM644:
	LD	r5,#1073744000
	CMP	r0,r5
	JZ	.L678
.LM645:
	LD	r5,#1073742080
	CMP	r0,r5
	JZ	.L679
.LM646:
	LD	r5,#1073742208
	CMP	r0,r5
	JZ	.L679
	LD	r5,#1073742336
	CMP	r0,r5
	JZ	.L679
	LD	r5,#1073742464
	CMP	r0,r5
	JZ	.L679
	LD	r5,#1073748608
	CMP	r0,r5
	JZ	.L679
	LD	r5,#1073748736
	CMP	r0,r5
	JZ	.L679
	MOV	r10,#1
	LD	r5,#1073748992
	CMP	r0,r5
	JZ	.L680
	MOV	r10,#0
.L680:
	ZXT.b	r10,r10
	MOV	r0,r10
.LVL438:
	LD	r4,#CHECK_RESTRICTION
	MOV	r8,r4
	LJMP	r4
.LVL439:
.LM647:
	MOV	r4,#2
	LSR	r5,r7,r4
	MOV	r0,#1
	CMP	r5,#0
	JNZ	.L698
	LJMP	r8
.LVL440:
.LM648:
	ADD	r6,#68
.LVL441:
	LSL	r7,#2
.LVL442:
	ADD	r5,r6,r7
.LVL443:
.LM649:
	CMP	r10,#0
	JZ	.L682
.LVL444:
.L700:
.LM650:
	//++++
	PUSH r6
	ADD r6,r7 
	ST.W [r6],r9
	POP r6
	//replace_ST.x [r6+r7],r9
.LM651:
	POP	{r6, r7, r8, r9, r10}
	.cfi_remember_state
	.cfi_def_cfa_offset 4
.LVL445:
	POP	lr
	.cfi_def_cfa_offset 0
	JMP	lr
.LVL446:
.L679:
	.cfi_restore_state
.LM652:
	MOV	r0,#1
.LVL447:
	LD	r5,#CHECK_RESTRICTION
	MOV	r8,r5
	LJMP	r5
.LVL448:
.LM653:
	MOV	r4,#2
	LSR	r5,r7,r4
	MOV	r0,#1
	CMP	r5,#0
	JNZ	.L699
.L685:
	LJMP	r8
.LVL449:
.LM654:
	ADD	r6,#68
.LVL450:
	LSL	r7,#2
.LVL451:
	ADD	r5,r6,r7
.LVL452:
.L682:
.LM655:
	ZXT.h	r9,r9
.LVL453:
	ST.w	[r5],r9
.LM656:
	POP	{r6, r7, r8, r9, r10}
	.cfi_remember_state
	.cfi_def_cfa_offset 4
	POP	lr
	.cfi_def_cfa_offset 0
	JMP	lr
.LVL454:
.L699:
	.cfi_restore_state
.LM657:
	MOV	r0,#0
	JMP	.L685
.L698:
.LM658:
	MOV	r0,#0
	LJMP	r8
.LVL455:
.LM659:
	ADD	r6,#68
.LVL456:
	LSL	r7,#2
.LVL457:
	ADD	r5,r6,r7
.LVL458:
.LM660:
	CMP	r10,#0
	JZ	.L682
	JMP	.L700
.LVL459:
.L678:
.LM661:
	MOV	r0,#1
.LVL460:
	LD	r5,#CHECK_RESTRICTION
	MOV	r8,r5
	LJMP	r5
.LVL461:
.LM662:
	MOV	r4,#2
	LSR	r5,r7,r4
	MOV	r0,#1
	CMP	r5,#0
	JZ	.L684
	MOV	r0,#0
.L684:
	LJMP	r8
.LVL462:
.LM663:
	LSL	r7,#2
.LVL463:
	LD	r5,#1073744068
	ADD	r5,r7,r5
.LVL464:
	JMP	.L682
	.cfi_endproc
.LFE47:
	.size	CCP_Set_Compare_Result, .-CCP_Set_Compare_Result
	.section .text$CCP_Get_Compare_Result
	.type	.text$CCP_Get_Compare_Result$scode_local_48, @function
	.text$CCP_Get_Compare_Result$scode_local_48:
	.align	1
	.export	CCP_Get_Compare_Result
	.type	CCP_Get_Compare_Result, @function
CCP_Get_Compare_Result:
.LFB48:
.LM664:
	.cfi_startproc
.LVL465:
	PUSH	{r6, r7, r8, r9, lr}
	.cfi_def_cfa_offset 20
	MOV	r6,r0
	MOV	r7,r1
.LVL466:
.LM665:
	LD	r5,#1073744000
	CMP	r0,r5
	JZ	.L702
.LM666:
	LD	r5,#1073742080
	CMP	r0,r5
	JZ	.L703
.LM667:
	LD	r5,#1073742208
	CMP	r0,r5
	JZ	.L703
	LD	r5,#1073742336
	CMP	r0,r5
	JZ	.L703
	LD	r5,#1073742464
	CMP	r0,r5
	JZ	.L703
	LD	r5,#1073748608
	CMP	r0,r5
	JZ	.L703
	LD	r5,#1073748736
	CMP	r0,r5
	JZ	.L703
	MOV	r9,#1
	LD	r5,#1073748992
	CMP	r0,r5
	JZ	.L704
	MOV	r9,#0
.L704:
	ZXT.b	r9,r9
	MOV	r0,r9
.LVL467:
	LD	r4,#CHECK_RESTRICTION
	MOV	r8,r4
	LJMP	r4
.LVL468:
.LM668:
	MOV	r4,#2
	LSR	r5,r7,r4
	MOV	r0,#1
	CMP	r5,#0
	JNZ	.L723
	LJMP	r8
.LVL469:
.LM669:
	ADD	r6,#68
.LVL470:
	LSL	r7,#2
.LVL471:
	ADD	r5,r6,r7
.LVL472:
.LM670:
	CMP	r9,#0
	JZ	.L706
.LVL473:
.L725:
.LM671:
	LD.w	r0,[r6+r7]
.LM672:
	POP	{r6, r7, r8, r9}
	.cfi_remember_state
	.cfi_def_cfa_offset 4
	POP	lr
	.cfi_def_cfa_offset 0
	JMP	lr
.LVL474:
.L703:
	.cfi_restore_state
.LM673:
	MOV	r0,#1
.LVL475:
	LD	r5,#CHECK_RESTRICTION
	MOV	r8,r5
	LJMP	r5
.LVL476:
.LM674:
	MOV	r4,#2
	LSR	r5,r7,r4
	MOV	r0,#1
	CMP	r5,#0
	JNZ	.L724
.L709:
	LJMP	r8
.LVL477:
.LM675:
	ADD	r6,#68
.LVL478:
	LSL	r7,#2
.LVL479:
	ADD	r5,r6,r7
.LVL480:
.L706:
.LM676:
	LD.w	r0,[r5]
	ZXT.h	r0,r0
.LM677:
	POP	{r6, r7, r8, r9}
	.cfi_remember_state
	.cfi_def_cfa_offset 4
	POP	lr
	.cfi_def_cfa_offset 0
	JMP	lr
.LVL481:
.L724:
	.cfi_restore_state
.LM678:
	MOV	r0,#0
	JMP	.L709
.L723:
.LM679:
	MOV	r0,#0
	LJMP	r8
.LVL482:
.LM680:
	ADD	r6,#68
.LVL483:
	LSL	r7,#2
.LVL484:
	ADD	r5,r6,r7
.LVL485:
.LM681:
	CMP	r9,#0
	JZ	.L706
	JMP	.L725
.LVL486:
.L702:
.LM682:
	MOV	r0,#1
.LVL487:
	LD	r5,#CHECK_RESTRICTION
	MOV	r8,r5
	LJMP	r5
.LVL488:
.LM683:
	MOV	r4,#2
	LSR	r5,r7,r4
	MOV	r0,#1
	CMP	r5,#0
	JZ	.L708
	MOV	r0,#0
.L708:
	LJMP	r8
.LVL489:
.LM684:
	LSL	r7,#2
.LVL490:
	LD	r5,#1073744068
	ADD	r5,r7,r5
.LVL491:
	JMP	.L706
	.cfi_endproc
.LFE48:
	.size	CCP_Get_Compare_Result, .-CCP_Get_Compare_Result
	.section .text$CCP_Compare_PWM_Signal_Clear
	.type	.text$CCP_Compare_PWM_Signal_Clear$scode_local_49, @function
	.text$CCP_Compare_PWM_Signal_Clear$scode_local_49:
	.align	1
	.export	CCP_Compare_PWM_Signal_Clear
	.type	CCP_Compare_PWM_Signal_Clear, @function
CCP_Compare_PWM_Signal_Clear:
.LFB49:
.LM685:
	.cfi_startproc
.LVL492:
	PUSH	{r6, r7, r8, r9, lr}
	.cfi_def_cfa_offset 20
	MOV	r6,r0
	MOV	r7,r1
	MOV	r9,r2
.LM686:
	LD	r5,#1073744000
	CMP	r0,r5
	JZ	.L736
.LM687:
	LD	r5,#1073742080
	CMP	r0,r5
	JZ	.L736
.LM688:
	LD	r5,#1073742208
	CMP	r0,r5
	JZ	.L736
	LD	r5,#1073742336
	CMP	r0,r5
	JZ	.L736
	LD	r5,#1073742464
	CMP	r0,r5
	JZ	.L736
	LD	r5,#1073748608
	CMP	r0,r5
	JZ	.L736
	LD	r5,#1073748736
	MOV	r0,#1
.LVL493:
	CMP	r6,r5
	JZ	.L727
	LD	r5,#1073748992
	CMP	r6,r5
	JZ	.L727
	MOV	r0,#0
.L727:
.LM689:
	LD	r4,#CHECK_RESTRICTION
	MOV	r8,r4
	LJMP	r4
.LVL494:
.LM690:
	MOV	r4,#2
	LSR	r5,r7,r4
	MOV	r0,#1
	CMP	r5,#0
	JZ	.L729
	MOV	r0,#0
.L729:
	LJMP	r8
.LVL495:
.LM691:
	MOV	r0,#1
	CMP	r9,r0
	JLS	.L730
	MOV	r0,#0
.L730:
	LJMP	r8
.LVL496:
.LM692:
	LD.w	r4,[r6+#21]
.LVL497:
.LM693:
	MOV	r5,#1
	LSL	r5,#12
	LSL	r5,r5,r7
.LM694:
	NOT	r5,r5
.LBB90:
.LBB91:
.LM695:
	ANL	r5,r5,r4
.LBE91:
.LBE90:
.LM696:
	ADD	r7,#12
.LVL498:
.LM697:
	LSL	r9,r7
.LVL499:
.LBB93:
.LBB92:
.LM698:
	MOV	r4,r9
.LVL500:
	ORL	r7,r5,r4
.LBE92:
.LBE93:
.LM699:
	ST.w	[r6+#21],r7
.LM700:
	POP	{r6, r7, r8, r9}
	.cfi_remember_state
	.cfi_def_cfa_offset 4
.LVL501:
	POP	lr
	.cfi_def_cfa_offset 0
	JMP	lr
.LVL502:
.L736:
	.cfi_restore_state
.LM701:
	MOV	r0,#1
.LVL503:
	JMP	.L727
	.cfi_endproc
.LFE49:
	.size	CCP_Compare_PWM_Signal_Clear, .-CCP_Compare_PWM_Signal_Clear
	.section .text$CCP_Compare_Check_Config
	.type	.text$CCP_Compare_Check_Config$scode_local_50, @function
	.text$CCP_Compare_Check_Config$scode_local_50:
	.align	1
	.export	CCP_Compare_Check_Config
	.type	CCP_Compare_Check_Config, @function
CCP_Compare_Check_Config:
.LFB50:
.LM702:
	.cfi_startproc
.LVL504:
	PUSH	{r6, r7, r8, lr}
	.cfi_def_cfa_offset 16
	MOV	r6,r0
	MOV	r7,r1
.LM703:
	MOV	r0,#1
.LVL505:
	LD	r5,#1073744000
	CMP	r6,r5
	JZ	.L742
.LM704:
	LD	r5,#1073742080
	CMP	r6,r5
	JZ	.L742
.LM705:
	LD	r5,#1073742208
	CMP	r6,r5
	JZ	.L742
	LD	r5,#1073742336
	CMP	r6,r5
	JZ	.L742
	LD	r5,#1073742464
	CMP	r6,r5
	JZ	.L742
	LD	r5,#1073748608
	CMP	r6,r5
	JZ	.L742
	LD	r5,#1073748736
	CMP	r6,r5
	JZ	.L742
	LD	r5,#1073748992
	CMP	r6,r5
	JZ	.L742
	MOV	r0,#0
.L742:
.LM706:
	LD	r5,#CHECK_RESTRICTION
	MOV	r8,r5
	LJMP	r5
.LVL506:
.LM707:
	MOV	r0,#1
	CMP	r7,#0
	JZ	.L744
.LM708:
	MOV	r5,#1
	LSL	r5,#10
	CMP	r7,r5
	JZ	.L744
.LM709:
	MOV	r5,#1
	LSL	r5,#11
	CMP	r7,r5
	JZ	.L744
	MOV	r0,#0
.L744:
.LM710:
	LJMP	r8
.LVL507:
.LM711:
	LD.w	r5,[r6+#21]
.LVL508:
.LBB94:
.LBB95:
.LM712:
	CLR	r5,#10
	CLR	r5,#11
.LVL509:
	ORL	r7,r7,r5
.LVL510:
.LBE95:
.LBE94:
.LM713:
	ST.w	[r6+#21],r7
.LM714:
	POP	{r6, r7, r8}
	.cfi_def_cfa_offset 4
	POP	lr
	.cfi_def_cfa_offset 0
	JMP	lr
	.cfi_endproc
.LFE50:
	.size	CCP_Compare_Check_Config, .-CCP_Compare_Check_Config
	.section .text$CCP_Channel_Output_Control
	.type	.text$CCP_Channel_Output_Control$scode_local_51, @function
	.text$CCP_Channel_Output_Control$scode_local_51:
	.align	1
	.export	CCP_Channel_Output_Control
	.type	CCP_Channel_Output_Control, @function
CCP_Channel_Output_Control:
.LFB51:
.LM715:
	.cfi_startproc
.LVL511:
	PUSH	{r6, r7, r8, r9, lr}
	.cfi_def_cfa_offset 20
	MOV	r6,r0
	MOV	r7,r1
	MOV	r9,r2
.LVL512:
.LM716:
	LD	r5,#1073744000
	CMP	r0,r5
	JZ	.L766
.LM717:
	LD	r5,#1073742080
	CMP	r0,r5
	JZ	.L766
.LM718:
	LD	r5,#1073742208
	CMP	r0,r5
	JZ	.L766
	LD	r5,#1073742336
	CMP	r0,r5
	JZ	.L766
	LD	r5,#1073742464
	CMP	r0,r5
	JZ	.L766
	LD	r5,#1073748608
	CMP	r0,r5
	JZ	.L766
	LD	r5,#1073748736
	MOV	r0,#1
.LVL513:
	CMP	r6,r5
	JZ	.L757
	LD	r5,#1073748992
	CMP	r6,r5
	JZ	.L757
	MOV	r0,#0
.L757:
.LM719:
	LD	r4,#CHECK_RESTRICTION
	MOV	r8,r4
	LJMP	r4
.LVL514:
.LM720:
	MOV	r4,#2
	LSR	r5,r7,r4
	MOV	r0,#1
	CMP	r5,#0
	JZ	.L759
	MOV	r0,#0
.L759:
	LJMP	r8
.LVL515:
.LM721:
	MOV	r5,r9
	LSR	r5,#2
	MOV	r0,#1
	CMP	r5,#0
	JZ	.L760
	MOV	r0,#0
.L760:
	LJMP	r8
.LVL516:
.LM722:
	ADD	r7,r7,r7
.LVL517:
.LM723:
	LD.w	r4,[r6+#21]
.LVL518:
.LM724:
	MOV	r5,#3
	LSL	r5,r5,r7
.LM725:
	NOT	r5,r5
.LVL519:
.LBB96:
.LBB97:
.LM726:
	ANL	r5,r5,r4
.LVL520:
.LBE97:
.LBE96:
.LM727:
	MOV	r4,r9
.LVL521:
	LSL	r7,r4,r7
.LVL522:
.LBB99:
.LBB98:
.LM728:
	ORL	r7,r5,r7
.LVL523:
.LBE98:
.LBE99:
.LM729:
	ST.w	[r6+#21],r7
.LM730:
	POP	{r6, r7, r8, r9}
	.cfi_remember_state
	.cfi_def_cfa_offset 4
.LVL524:
	POP	lr
	.cfi_def_cfa_offset 0
	JMP	lr
.LVL525:
.L766:
	.cfi_restore_state
.LM731:
	MOV	r0,#1
.LVL526:
	JMP	.L757
	.cfi_endproc
.LFE51:
	.size	CCP_Channel_Output_Control, .-CCP_Channel_Output_Control
	.section .text$CCP_Single_Pulse_Shut_Enable
	.type	.text$CCP_Single_Pulse_Shut_Enable$scode_local_52, @function
	.text$CCP_Single_Pulse_Shut_Enable$scode_local_52:
	.align	1
	.export	CCP_Single_Pulse_Shut_Enable
	.type	CCP_Single_Pulse_Shut_Enable, @function
CCP_Single_Pulse_Shut_Enable:
.LFB52:
.LM732:
	.cfi_startproc
.LVL527:
	PUSH	{r6, r7, r8, lr}
	.cfi_def_cfa_offset 16
	MOV	r6,r0
	MOV	r7,r1
.LM733:
	MOV	r0,#1
.LVL528:
	LD	r5,#1073744000
	CMP	r6,r5
	JZ	.L775
.LM734:
	LD	r5,#1073742080
	CMP	r6,r5
	JZ	.L775
.LM735:
	LD	r5,#1073742208
	CMP	r6,r5
	JZ	.L775
	LD	r5,#1073742336
	CMP	r6,r5
	JZ	.L775
	LD	r5,#1073742464
	CMP	r6,r5
	JZ	.L775
	LD	r5,#1073748608
	CMP	r6,r5
	JZ	.L775
	LD	r5,#1073748736
	CMP	r6,r5
	JZ	.L775
	LD	r5,#1073748992
	CMP	r6,r5
	JZ	.L775
	MOV	r0,#0
.L775:
.LM736:
	LD	r5,#CHECK_RESTRICTION
	MOV	r8,r5
	LJMP	r5
.LVL529:
.LM737:
	MOV	r0,#1
	CMP	r7,r0
	JLS	.L777
	MOV	r0,#0
.L777:
	LJMP	r8
.LVL530:
.LM738:
	ADD	r6,#88
.LVL531:
.LM739:
	CMP	r7,#0
	JNZ	.L787
.LM740:
// inline asm begin
	// 1735 "../src/kf32a9k1xxx_gtim.c" 1
	CLR [r6], #15
	// 0 "" 2
.LM741:
// inline asm end
	POP	{r6, r7, r8}
	.cfi_remember_state
	.cfi_def_cfa_offset 4
.LVL532:
	POP	lr
	.cfi_def_cfa_offset 0
	JMP	lr
.LVL533:
.L787:
	.cfi_restore_state
.LM742:
// inline asm begin
	// 1730 "../src/kf32a9k1xxx_gtim.c" 1
	SET [r6], #15
	// 0 "" 2
.LM743:
// inline asm end
	POP	{r6, r7, r8}
	.cfi_def_cfa_offset 4
.LVL534:
	POP	lr
	.cfi_def_cfa_offset 0
	JMP	lr
	.cfi_endproc
.LFE52:
	.size	CCP_Single_Pulse_Shut_Enable, .-CCP_Single_Pulse_Shut_Enable
	.section .text$CCP_Single_Pulse_Enable
	.type	.text$CCP_Single_Pulse_Enable$scode_local_53, @function
	.text$CCP_Single_Pulse_Enable$scode_local_53:
	.align	1
	.export	CCP_Single_Pulse_Enable
	.type	CCP_Single_Pulse_Enable, @function
CCP_Single_Pulse_Enable:
.LFB53:
.LM744:
	.cfi_startproc
.LVL535:
	PUSH	{r6, r7, r8, lr}
	.cfi_def_cfa_offset 16
	MOV	r6,r0
	MOV	r7,r1
.LM745:
	MOV	r0,#1
.LVL536:
	LD	r5,#1073744000
	CMP	r6,r5
	JZ	.L789
.LM746:
	LD	r5,#1073742080
	CMP	r6,r5
	JZ	.L789
.LM747:
	LD	r5,#1073742208
	CMP	r6,r5
	JZ	.L789
	LD	r5,#1073742336
	CMP	r6,r5
	JZ	.L789
	LD	r5,#1073742464
	CMP	r6,r5
	JZ	.L789
	LD	r5,#1073748608
	CMP	r6,r5
	JZ	.L789
	LD	r5,#1073748736
	CMP	r6,r5
	JZ	.L789
	LD	r5,#1073748992
	CMP	r6,r5
	JZ	.L789
	MOV	r0,#0
.L789:
.LM748:
	LD	r5,#CHECK_RESTRICTION
	MOV	r8,r5
	LJMP	r5
.LVL537:
.LM749:
	MOV	r0,#1
	CMP	r7,r0
	JLS	.L791
	MOV	r0,#0
.L791:
	LJMP	r8
.LVL538:
.LM750:
	ADD	r6,#88
.LVL539:
.LM751:
	CMP	r7,#0
	JNZ	.L801
.LM752:
// inline asm begin
	// 1766 "../src/kf32a9k1xxx_gtim.c" 1
	CLR [r6], #12
	// 0 "" 2
.LM753:
// inline asm end
	POP	{r6, r7, r8}
	.cfi_remember_state
	.cfi_def_cfa_offset 4
.LVL540:
	POP	lr
	.cfi_def_cfa_offset 0
	JMP	lr
.LVL541:
.L801:
	.cfi_restore_state
.LM754:
// inline asm begin
	// 1761 "../src/kf32a9k1xxx_gtim.c" 1
	SET [r6], #12
	// 0 "" 2
.LM755:
// inline asm end
	POP	{r6, r7, r8}
	.cfi_def_cfa_offset 4
.LVL542:
	POP	lr
	.cfi_def_cfa_offset 0
	JMP	lr
	.cfi_endproc
.LFE53:
	.size	CCP_Single_Pulse_Enable, .-CCP_Single_Pulse_Enable
	.section .text$CCP_PWM_Input_Measurement_Config
	.type	.text$CCP_PWM_Input_Measurement_Config$scode_local_54, @function
	.text$CCP_PWM_Input_Measurement_Config$scode_local_54:
	.align	1
	.export	CCP_PWM_Input_Measurement_Config
	.type	CCP_PWM_Input_Measurement_Config, @function
CCP_PWM_Input_Measurement_Config:
.LFB54:
.LM756:
	.cfi_startproc
.LVL543:
	PUSH	{r6, r7, r8, lr}
	.cfi_def_cfa_offset 16
	MOV	r6,r0
	MOV	r7,r1
.LM757:
	MOV	r0,#1
.LVL544:
	LD	r5,#1073744000
	CMP	r6,r5
	JZ	.L803
.LM758:
	LD	r5,#1073742080
	CMP	r6,r5
	JZ	.L803
.LM759:
	LD	r5,#1073742208
	CMP	r6,r5
	JZ	.L803
	LD	r5,#1073742336
	CMP	r6,r5
	JZ	.L803
	LD	r5,#1073742464
	CMP	r6,r5
	JZ	.L803
	LD	r5,#1073748608
	CMP	r6,r5
	JZ	.L803
	LD	r5,#1073748736
	CMP	r6,r5
	JZ	.L803
	LD	r5,#1073748992
	CMP	r6,r5
	JZ	.L803
	MOV	r0,#0
.L803:
.LM760:
	LD	r5,#CHECK_RESTRICTION
	MOV	r8,r5
	LJMP	r5
.LVL545:
.LM761:
	MOV	r0,#1
	CMP	r7,r0
	JLS	.L805
	MOV	r0,#0
.L805:
	LJMP	r8
.LVL546:
.LM762:
	ADD	r6,#88
.LVL547:
.LM763:
	CMP	r7,#0
	JNZ	.L815
.LM764:
// inline asm begin
	// 1797 "../src/kf32a9k1xxx_gtim.c" 1
	CLR [r6], #14
	// 0 "" 2
.LM765:
// inline asm end
	POP	{r6, r7, r8}
	.cfi_remember_state
	.cfi_def_cfa_offset 4
.LVL548:
	POP	lr
	.cfi_def_cfa_offset 0
	JMP	lr
.LVL549:
.L815:
	.cfi_restore_state
.LM766:
// inline asm begin
	// 1792 "../src/kf32a9k1xxx_gtim.c" 1
	SET [r6], #14
	// 0 "" 2
.LM767:
// inline asm end
	POP	{r6, r7, r8}
	.cfi_def_cfa_offset 4
.LVL550:
	POP	lr
	.cfi_def_cfa_offset 0
	JMP	lr
	.cfi_endproc
.LFE54:
	.size	CCP_PWM_Input_Measurement_Config, .-CCP_PWM_Input_Measurement_Config
	.section .text$CCP_Input_XOR_Config
	.type	.text$CCP_Input_XOR_Config$scode_local_55, @function
	.text$CCP_Input_XOR_Config$scode_local_55:
	.align	1
	.export	CCP_Input_XOR_Config
	.type	CCP_Input_XOR_Config, @function
CCP_Input_XOR_Config:
.LFB55:
.LM768:
	.cfi_startproc
.LVL551:
	PUSH	{r6, r7, r8, lr}
	.cfi_def_cfa_offset 16
	MOV	r6,r0
	MOV	r7,r1
.LM769:
	MOV	r0,#1
.LVL552:
	LD	r5,#1073744000
	CMP	r6,r5
	JZ	.L817
.LM770:
	LD	r5,#1073742080
	CMP	r6,r5
	JZ	.L817
.LM771:
	LD	r5,#1073742208
	CMP	r6,r5
	JZ	.L817
	LD	r5,#1073742336
	CMP	r6,r5
	JZ	.L817
	LD	r5,#1073742464
	CMP	r6,r5
	JZ	.L817
	LD	r5,#1073748608
	CMP	r6,r5
	JZ	.L817
	LD	r5,#1073748736
	CMP	r6,r5
	JZ	.L817
	LD	r5,#1073748992
	CMP	r6,r5
	JZ	.L817
	MOV	r0,#0
.L817:
.LM772:
	LD	r5,#CHECK_RESTRICTION
	MOV	r8,r5
	LJMP	r5
.LVL553:
.LM773:
	MOV	r0,#1
	CMP	r7,r0
	JLS	.L819
	MOV	r0,#0
.L819:
	LJMP	r8
.LVL554:
.LM774:
	ADD	r6,#88
.LVL555:
.LM775:
	CMP	r7,#0
	JNZ	.L829
.LM776:
// inline asm begin
	// 1828 "../src/kf32a9k1xxx_gtim.c" 1
	CLR [r6], #13
	// 0 "" 2
.LM777:
// inline asm end
	POP	{r6, r7, r8}
	.cfi_remember_state
	.cfi_def_cfa_offset 4
.LVL556:
	POP	lr
	.cfi_def_cfa_offset 0
	JMP	lr
.LVL557:
.L829:
	.cfi_restore_state
.LM778:
// inline asm begin
	// 1823 "../src/kf32a9k1xxx_gtim.c" 1
	SET [r6], #13
	// 0 "" 2
.LM779:
// inline asm end
	POP	{r6, r7, r8}
	.cfi_def_cfa_offset 4
.LVL558:
	POP	lr
	.cfi_def_cfa_offset 0
	JMP	lr
	.cfi_endproc
.LFE55:
	.size	CCP_Input_XOR_Config, .-CCP_Input_XOR_Config
	.section .text$CCP_Channel_DMA_Config
	.type	.text$CCP_Channel_DMA_Config$scode_local_56, @function
	.text$CCP_Channel_DMA_Config$scode_local_56:
	.align	1
	.export	CCP_Channel_DMA_Config
	.type	CCP_Channel_DMA_Config, @function
CCP_Channel_DMA_Config:
.LFB56:
.LM780:
	.cfi_startproc
.LVL559:
	PUSH	{r6, r7, r8, r9, lr}
	.cfi_def_cfa_offset 20
	MOV	r6,r0
	MOV	r8,r1
	MOV	r9,r2
.LM781:
	MOV	r0,#1
.LVL560:
	LD	r5,#1073744000
	CMP	r6,r5
	JZ	.L831
.LM782:
	LD	r5,#1073742080
	CMP	r6,r5
	JZ	.L831
.LM783:
	LD	r5,#1073742208
	CMP	r6,r5
	JZ	.L831
	LD	r5,#1073742336
	CMP	r6,r5
	JZ	.L831
	LD	r5,#1073742464
	CMP	r6,r5
	JZ	.L831
	LD	r5,#1073748608
	CMP	r6,r5
	JZ	.L831
	LD	r5,#1073748736
	CMP	r6,r5
	JZ	.L831
	LD	r5,#1073748992
	CMP	r6,r5
	JZ	.L831
	MOV	r0,#0
.L831:
.LM784:
	LD	r7,#CHECK_RESTRICTION
	LJMP	r7
.LVL561:
.LM785:
	MOV	r5,r8
	LSR	r5,#2
	MOV	r0,#1
	CMP	r5,#0
	JZ	.L833
	MOV	r0,#0
.L833:
	LJMP	r7
.LVL562:
.LM786:
	MOV	r0,#1
	CMP	r9,r0
	JLS	.L834
	MOV	r0,#0
.L834:
	LJMP	r7
.LVL563:
.LM787:
	LD.w	r4,[r6+#22]
	MOV	r5,#128
	LSL	r5,r8
.LM788:
	CMP	r9,#0
	JNZ	.L847
.LM789:
	NOT	r5,r5
	ANL	r5,r5,r4
	ST.w	[r6+#22],r5
.LM790:
	POP	{r6, r7, r8, r9}
	.cfi_remember_state
	.cfi_def_cfa_offset 4
.LVL564:
	POP	lr
	.cfi_def_cfa_offset 0
	JMP	lr
.LVL565:
.L847:
	.cfi_restore_state
.LM791:
	ORL	r5,r5,r4
	ST.w	[r6+#22],r5
.LM792:
	POP	{r6, r7, r8, r9}
	.cfi_def_cfa_offset 4
.LVL566:
	POP	lr
	.cfi_def_cfa_offset 0
	JMP	lr
	.cfi_endproc
.LFE56:
	.size	CCP_Channel_DMA_Config, .-CCP_Channel_DMA_Config
	.section .text$CCP_Generate_Trigger_Config
	.type	.text$CCP_Generate_Trigger_Config$scode_local_57, @function
	.text$CCP_Generate_Trigger_Config$scode_local_57:
	.align	1
	.export	CCP_Generate_Trigger_Config
	.type	CCP_Generate_Trigger_Config, @function
CCP_Generate_Trigger_Config:
.LFB57:
.LM793:
	.cfi_startproc
.LVL567:
	PUSH	{r6, r7, r8, r9, lr}
	.cfi_def_cfa_offset 20
	MOV	r6,r0
	MOV	r9,r1
	MOV	r7,r2
.LM794:
	MOV	r0,#1
.LVL568:
	LD	r5,#1073744000
	CMP	r6,r5
	JZ	.L849
.LM795:
	LD	r5,#1073742080
	CMP	r6,r5
	JZ	.L849
.LM796:
	LD	r5,#1073742208
	CMP	r6,r5
	JZ	.L849
	LD	r5,#1073742336
	CMP	r6,r5
	JZ	.L849
	LD	r5,#1073742464
	CMP	r6,r5
	JZ	.L849
	LD	r5,#1073748608
	CMP	r6,r5
	JZ	.L849
	LD	r5,#1073748736
	CMP	r6,r5
	JZ	.L849
	LD	r5,#1073748992
	CMP	r6,r5
	JZ	.L849
	MOV	r0,#0
.L849:
.LM797:
	LD	r3,#CHECK_RESTRICTION
	MOV	r8,r3
	LJMP	r3
.LVL569:
.LM798:
	MOV	r0,#1
	CMP	r7,r0
	JLS	.L851
	MOV	r0,#0
.L851:
	LJMP	r8
.LVL570:
.LM799:
	LD.w	r4,[r6+#23]
	MOV	r5,#2
	LSL	r5,r9
.LM800:
	CMP	r7,#0
	JNZ	.L861
.LM801:
	NOT	r5,r5
	ANL	r5,r5,r4
	ST.w	[r6+#23],r5
.LM802:
	POP	{r6, r7, r8, r9}
	.cfi_remember_state
	.cfi_def_cfa_offset 4
.LVL571:
	POP	lr
	.cfi_def_cfa_offset 0
	JMP	lr
.LVL572:
.L861:
	.cfi_restore_state
.LM803:
	ORL	r5,r5,r4
	ST.w	[r6+#23],r5
.LM804:
	POP	{r6, r7, r8, r9}
	.cfi_def_cfa_offset 4
.LVL573:
	POP	lr
	.cfi_def_cfa_offset 0
	JMP	lr
	.cfi_endproc
.LFE57:
	.size	CCP_Generate_Trigger_Config, .-CCP_Generate_Trigger_Config
	.section .text$CCP_USART_Receive_Config
	.type	.text$CCP_USART_Receive_Config$scode_local_58, @function
	.text$CCP_USART_Receive_Config$scode_local_58:
	.align	1
	.export	CCP_USART_Receive_Config
	.type	CCP_USART_Receive_Config, @function
CCP_USART_Receive_Config:
.LFB58:
.LM805:
	.cfi_startproc
.LVL574:
	PUSH	{r6, r7, r8, lr}
	.cfi_def_cfa_offset 16
	MOV	r6,r0
	MOV	r7,r1
.LM806:
	MOV	r0,#1
.LVL575:
	LD	r5,#1073744000
	CMP	r6,r5
	JZ	.L863
.LM807:
	LD	r5,#1073742080
	CMP	r6,r5
	JZ	.L863
.LM808:
	LD	r5,#1073742208
	CMP	r6,r5
	JZ	.L863
	LD	r5,#1073742336
	CMP	r6,r5
	JZ	.L863
	LD	r5,#1073742464
	CMP	r6,r5
	JZ	.L863
	LD	r5,#1073748608
	CMP	r6,r5
	JZ	.L863
	LD	r5,#1073748736
	CMP	r6,r5
	JZ	.L863
	LD	r5,#1073748992
	CMP	r6,r5
	JZ	.L863
	MOV	r0,#0
.L863:
.LM809:
	LD	r5,#CHECK_RESTRICTION
	MOV	r8,r5
	LJMP	r5
.LVL576:
.LM810:
	MOV	r0,#1
	CMP	r7,r0
	JLS	.L865
	MOV	r0,#0
.L865:
	LJMP	r8
.LVL577:
.LM811:
	ADD	r6,#92
.LVL578:
.LM812:
	CMP	r7,#0
	JNZ	.L875
.LM813:
// inline asm begin
	// 1934 "../src/kf32a9k1xxx_gtim.c" 1
	CLR [r6], #0
	// 0 "" 2
.LM814:
// inline asm end
	POP	{r6, r7, r8}
	.cfi_remember_state
	.cfi_def_cfa_offset 4
.LVL579:
	POP	lr
	.cfi_def_cfa_offset 0
	JMP	lr
.LVL580:
.L875:
	.cfi_restore_state
.LM815:
// inline asm begin
	// 1929 "../src/kf32a9k1xxx_gtim.c" 1
	SET [r6], #0
	// 0 "" 2
.LM816:
// inline asm end
	POP	{r6, r7, r8}
	.cfi_def_cfa_offset 4
.LVL581:
	POP	lr
	.cfi_def_cfa_offset 0
	JMP	lr
	.cfi_endproc
.LFE58:
	.size	CCP_USART_Receive_Config, .-CCP_USART_Receive_Config
	.section .text$CCP_Get_Channel_Trigger_INT_Flag
	.type	.text$CCP_Get_Channel_Trigger_INT_Flag$scode_local_59, @function
	.text$CCP_Get_Channel_Trigger_INT_Flag$scode_local_59:
	.align	1
	.export	CCP_Get_Channel_Trigger_INT_Flag
	.type	CCP_Get_Channel_Trigger_INT_Flag, @function
CCP_Get_Channel_Trigger_INT_Flag:
.LFB59:
.LM817:
	.cfi_startproc
.LVL582:
	PUSH	{r6, r7, lr}
	.cfi_def_cfa_offset 12
	MOV	r6,r0
	MOV	r7,r1
.LVL583:
.LM818:
	MOV	r0,#1
.LVL584:
	LD	r5,#1073744000
	CMP	r6,r5
	JZ	.L877
.LM819:
	LD	r5,#1073742080
	CMP	r6,r5
	JZ	.L877
.LM820:
	LD	r5,#1073742208
	CMP	r6,r5
	JZ	.L877
	LD	r5,#1073742336
	CMP	r6,r5
	JZ	.L877
	LD	r5,#1073742464
	CMP	r6,r5
	JZ	.L877
	LD	r5,#1073748608
	CMP	r6,r5
	JZ	.L877
	LD	r5,#1073748736
	CMP	r6,r5
	JZ	.L877
	LD	r5,#1073748992
	CMP	r6,r5
	JZ	.L877
	MOV	r0,#0
.L877:
.LM821:
	LD	r5,#CHECK_RESTRICTION
	LJMP	r5
.LVL585:
.LM822:
	LD.w	r5,[r6+#23]
.LM823:
	MOV	r1,#64
	LSL	r1,r1,r7
.LVL586:
.LM824:
	ANL	r1,r1,r5
.LVL587:
	MOV	r5,#0
	SUB	r5,r5,r1
	ORL	r0,r5,r1
.LM825:
	LSR	r0,#31
	POP	{r6, r7}
	.cfi_def_cfa_offset 4
.LVL588:
	POP	lr
	.cfi_def_cfa_offset 0
	JMP	lr
	.cfi_endproc
.LFE59:
	.size	CCP_Get_Channel_Trigger_INT_Flag, .-CCP_Get_Channel_Trigger_INT_Flag
	.section .text$CCP_Get_Trigger_DMA_INT_Flag
	.type	.text$CCP_Get_Trigger_DMA_INT_Flag$scode_local_60, @function
	.text$CCP_Get_Trigger_DMA_INT_Flag$scode_local_60:
	.align	1
	.export	CCP_Get_Trigger_DMA_INT_Flag
	.type	CCP_Get_Trigger_DMA_INT_Flag, @function
CCP_Get_Trigger_DMA_INT_Flag:
.LFB60:
.LM826:
	.cfi_startproc
.LVL589:
	PUSH	{r6, r7, lr}
	.cfi_def_cfa_offset 12
	MOV	r6,r0
	MOV	r7,r1
.LVL590:
.LM827:
	MOV	r0,#1
.LVL591:
	LD	r5,#1073744000
	CMP	r6,r5
	JZ	.L887
.LM828:
	LD	r5,#1073742080
	CMP	r6,r5
	JZ	.L887
.LM829:
	LD	r5,#1073742208
	CMP	r6,r5
	JZ	.L887
	LD	r5,#1073742336
	CMP	r6,r5
	JZ	.L887
	LD	r5,#1073742464
	CMP	r6,r5
	JZ	.L887
	LD	r5,#1073748608
	CMP	r6,r5
	JZ	.L887
	LD	r5,#1073748736
	CMP	r6,r5
	JZ	.L887
	LD	r5,#1073748992
	CMP	r6,r5
	JZ	.L887
	MOV	r0,#0
.L887:
.LM830:
	LD	r5,#CHECK_RESTRICTION
	LJMP	r5
.LVL592:
.LM831:
	LD.w	r5,[r6+#13]
.LM832:
	MOV	r1,#1
	LSL	r1,r1,r7
.LVL593:
.LM833:
	ANL	r1,r1,r5
.LVL594:
	MOV	r5,#0
	SUB	r5,r5,r1
	ORL	r0,r5,r1
.LM834:
	LSR	r0,#31
	POP	{r6, r7}
	.cfi_def_cfa_offset 4
.LVL595:
	POP	lr
	.cfi_def_cfa_offset 0
	JMP	lr
	.cfi_endproc
.LFE60:
	.size	CCP_Get_Trigger_DMA_INT_Flag, .-CCP_Get_Trigger_DMA_INT_Flag
	.section .text$CCP_Channel_INT_Config
	.type	.text$CCP_Channel_INT_Config$scode_local_61, @function
	.text$CCP_Channel_INT_Config$scode_local_61:
	.align	1
	.export	CCP_Channel_INT_Config
	.type	CCP_Channel_INT_Config, @function
CCP_Channel_INT_Config:
.LFB61:
.LM835:
	.cfi_startproc
.LVL596:
	PUSH	{r6, r7, r8, r9, lr}
	.cfi_def_cfa_offset 20
	MOV	r6,r0
	MOV	r8,r1
	MOV	r9,r2
.LM836:
	MOV	r0,#1
.LVL597:
	LD	r5,#1073744000
	CMP	r6,r5
	JZ	.L897
.LM837:
	LD	r5,#1073742080
	CMP	r6,r5
	JZ	.L897
.LM838:
	LD	r5,#1073742208
	CMP	r6,r5
	JZ	.L897
	LD	r5,#1073742336
	CMP	r6,r5
	JZ	.L897
	LD	r5,#1073742464
	CMP	r6,r5
	JZ	.L897
	LD	r5,#1073748608
	CMP	r6,r5
	JZ	.L897
	LD	r5,#1073748736
	CMP	r6,r5
	JZ	.L897
	LD	r5,#1073748992
	CMP	r6,r5
	JZ	.L897
	MOV	r0,#0
.L897:
.LM839:
	LD	r7,#CHECK_RESTRICTION
	LJMP	r7
.LVL598:
.LM840:
	MOV	r5,r8
	LSR	r5,#2
	MOV	r0,#1
	CMP	r5,#0
	JZ	.L899
	MOV	r0,#0
.L899:
	LJMP	r7
.LVL599:
.LM841:
	MOV	r0,#1
	CMP	r9,r0
	JLS	.L900
	MOV	r0,#0
.L900:
	LJMP	r7
.LVL600:
.LM842:
	LD.w	r4,[r6+#22]
	MOV	r5,#1
	LSL	r5,r8
.LM843:
	CMP	r9,#0
	JNZ	.L913
.LM844:
	NOT	r5,r5
	ANL	r5,r5,r4
	ST.w	[r6+#22],r5
.LM845:
	POP	{r6, r7, r8, r9}
	.cfi_remember_state
	.cfi_def_cfa_offset 4
.LVL601:
	POP	lr
	.cfi_def_cfa_offset 0
	JMP	lr
.LVL602:
.L913:
	.cfi_restore_state
.LM846:
	ORL	r5,r5,r4
	ST.w	[r6+#22],r5
.LM847:
	POP	{r6, r7, r8, r9}
	.cfi_def_cfa_offset 4
.LVL603:
	POP	lr
	.cfi_def_cfa_offset 0
	JMP	lr
	.cfi_endproc
.LFE61:
	.size	CCP_Channel_INT_Config, .-CCP_Channel_INT_Config
	.section .text$CCP_Clear_Channel_INT_Flag
	.type	.text$CCP_Clear_Channel_INT_Flag$scode_local_62, @function
	.text$CCP_Clear_Channel_INT_Flag$scode_local_62:
	.align	1
	.export	CCP_Clear_Channel_INT_Flag
	.type	CCP_Clear_Channel_INT_Flag, @function
CCP_Clear_Channel_INT_Flag:
.LFB62:
.LM848:
	.cfi_startproc
.LVL604:
	PUSH	{r6, r7, r8, lr}
	.cfi_def_cfa_offset 16
	MOV	r6,r0
	MOV	r7,r1
.LVL605:
.LM849:
	MOV	r0,#1
.LVL606:
	LD	r5,#1073744000
	CMP	r6,r5
	JZ	.L915
.LM850:
	LD	r5,#1073742080
	CMP	r6,r5
	JZ	.L915
.LM851:
	LD	r5,#1073742208
	CMP	r6,r5
	JZ	.L915
	LD	r5,#1073742336
	CMP	r6,r5
	JZ	.L915
	LD	r5,#1073742464
	CMP	r6,r5
	JZ	.L915
	LD	r5,#1073748608
	CMP	r6,r5
	JZ	.L915
	LD	r5,#1073748736
	CMP	r6,r5
	JZ	.L915
	LD	r5,#1073748992
	CMP	r6,r5
	JZ	.L915
	MOV	r0,#0
.L915:
.LM852:
	LD	r4,#CHECK_RESTRICTION
	MOV	r8,r4
	LJMP	r4
.LVL607:
.LM853:
	MOV	r4,#2
	LSR	r5,r7,r4
	MOV	r0,#1
	CMP	r5,#0
	JZ	.L917
	MOV	r0,#0
.L917:
	LJMP	r8
.LVL608:
.LM854:
	MOV	r4,#64
	LSL	r4,r4,r7
.LVL609:
.LM855:
	LD.w	r5,[r6+#12]
	MOV	r3,#1
	LSL	r3,r3,r7
	ORL	r5,r3,r5
	ST.w	[r6+#12],r5
	ADD	r1,r7,#6
.L918:
.LM856:
	LD.w	r5,[r6+#23]
	ANL	r5,r4,r5
	LSR	r5,r5,r1
	CMP	r5,#0
	JNZ	.L918
.LM857:
	LD.w	r5,[r6+#12]
	NOT	r3,r3
	ANL	r3,r3,r5
	ST.w	[r6+#12],r3
.LM858:
	POP	{r6, r7, r8}
	.cfi_def_cfa_offset 4
.LVL610:
	POP	lr
	.cfi_def_cfa_offset 0
	JMP	lr
	.cfi_endproc
.LFE62:
	.size	CCP_Clear_Channel_INT_Flag, .-CCP_Clear_Channel_INT_Flag
	.text	
.Letext0: