	.file	"kf32a9k1xxx_flexmux.c"
	.text	
.Ltext0:
	.cfi_sections	.debug_frame
	.section .text$FMUX_Reset
	.type	.text$FMUX_Reset$scode_local_1, @function
	.text$FMUX_Reset$scode_local_1:
	.align	1
	.export	FMUX_Reset
	.type	FMUX_Reset, @function
FMUX_Reset:
.LFB1:
.LM1:
	.cfi_startproc
	PUSH	{r6, r7, lr}
	.cfi_def_cfa_offset 12
.LM2:
	MOV	r6,#1
	LSL	r6,#21
	MOV	r0,r6
	MOV	r1,#1
	LD	r7,#RST_CTL3_Peripheral_Reset_Enable
	LJMP	r7
.LVL0:
.LM3:
	MOV	r0,r6
	MOV	r1,#0
	LJMP	r7
.LVL1:
.LM4:
	MOV	r0,r6
	MOV	r1,#1
	LD	r5,#PCLK_CTL3_Peripheral_Clock_Enable
	LJMP	r5
.LVL2:
.LM5:
	POP	{r6, r7}
	.cfi_def_cfa_offset 4
	POP	lr
	.cfi_def_cfa_offset 0
	JMP	lr
	.cfi_endproc
.LFE1:
	.size	FMUX_Reset, .-FMUX_Reset
	.section .text$FMUX_Channel_Enable
	.type	.text$FMUX_Channel_Enable$scode_local_2, @function
	.text$FMUX_Channel_Enable$scode_local_2:
	.align	1
	.export	FMUX_Channel_Enable
	.type	FMUX_Channel_Enable, @function
FMUX_Channel_Enable:
.LFB2:
.LM6:
	.cfi_startproc
.LVL3:
	PUSH	{r6, r7, r8, lr}
	.cfi_def_cfa_offset 16
	MOV	r7,r0
	MOV	r6,r1
.LVL4:
.LM7:
	MOV	r0,#1
.LVL5:
	CMP	r7,#3
	JLS	.L3
	MOV	r0,#0
.L3:
	LD	r5,#CHECK_RESTRICTION
	MOV	r8,r5
	LJMP	r5
.LVL6:
.LM8:
	MOV	r0,#1
	CMP	r6,r0
	JLS	.L4
	MOV	r0,#0
.L4:
	LJMP	r8
.LVL7:
.LM9:
	LSL	r7,#3
.LVL8:
	ADD	r7,r7,#7
.LVL9:
.LM10:
	LD	r5,#1073753344
	LD.w	r3,[r5]
.LVL10:
.LM11:
	MOV	r4,#1
	LSL	r4,r4,r7
.LVL11:
.LM12:
	NOT	r4,r4
.LVL12:
.LBB16:
.LBB17:
.LM13:
	ANL	r4,r4,r3
.LVL13:
.LBE17:
.LBE16:
.LM14:
	LSL	r6,r6,r7
.LVL14:
.LBB19:
.LBB18:
.LM15:
	ORL	r7,r4,r6
.LVL15:
.LBE18:
.LBE19:
.LM16:
	ST.w	[r5],r7
.LM17:
	POP	{r6, r7, r8}
	.cfi_def_cfa_offset 4
	POP	lr
	.cfi_def_cfa_offset 0
	JMP	lr
	.cfi_endproc
.LFE2:
	.size	FMUX_Channel_Enable, .-FMUX_Channel_Enable
	.section .text$FMUX_Channel_Triggle_Source_Select
	.type	.text$FMUX_Channel_Triggle_Source_Select$scode_local_3, @function
	.text$FMUX_Channel_Triggle_Source_Select$scode_local_3:
	.align	1
	.export	FMUX_Channel_Triggle_Source_Select
	.type	FMUX_Channel_Triggle_Source_Select, @function
FMUX_Channel_Triggle_Source_Select:
.LFB3:
.LM18:
	.cfi_startproc
.LVL16:
	PUSH	{r6, r7, r8, lr}
	.cfi_def_cfa_offset 16
	MOV	r7,r0
	MOV	r6,r1
.LVL17:
.LM19:
	MOV	r0,#1
.LVL18:
	CMP	r7,#3
	JLS	.L7
	MOV	r0,#0
.L7:
	LD	r5,#CHECK_RESTRICTION
	MOV	r8,r5
	LJMP	r5
.LVL19:
.LM20:
	MOV	r0,#0
	CMP	r6,#118
	JHI	.L8
.LM21:
	CMP	r6,#36
	JZ	.L8
	CMP	r6,#37
	JZ	.L8
	CMP	r6,#38
	JZ	.L8
	CMP	r6,#39
	JZ	.L8
	CMP	r6,#40
	JZ	.L8
	CMP	r6,#41
	JZ	.L8
	CMP	r6,#63
	JZ	.L8
	CMP	r6,#64
	JZ	.L8
	CMP	r6,#65
	JZ	.L8
	CMP	r6,#66
	JZ	.L8
	MOV	r5,#111
	XRL	r5,r6,r5
	SUB	r0,r0,r5
	ORL	r0,r0,r5
	LSR	r0,#31
.L8:
.LM22:
	LJMP	r8
.LVL20:
.LM23:
	LSL	r7,#3
.LVL21:
.LM24:
	LD	r5,#1073753344
	LD.w	r3,[r5]
.LVL22:
.LM25:
	MOV	r4,#127
	LSL	r4,r4,r7
.LVL23:
.LM26:
	NOT	r4,r4
.LVL24:
.LBB20:
.LBB21:
.LM27:
	ANL	r4,r4,r3
.LVL25:
.LBE21:
.LBE20:
.LM28:
	LSL	r7,r6,r7
.LVL26:
.LBB23:
.LBB22:
.LM29:
	ORL	r7,r4,r7
.LVL27:
.LBE22:
.LBE23:
.LM30:
	ST.w	[r5],r7
.LM31:
	POP	{r6, r7, r8}
	.cfi_def_cfa_offset 4
	POP	lr
	.cfi_def_cfa_offset 0
	JMP	lr
	.cfi_endproc
.LFE3:
	.size	FMUX_Channel_Triggle_Source_Select, .-FMUX_Channel_Triggle_Source_Select
	.section .text$FMUX_Enable
	.type	.text$FMUX_Enable$scode_local_4, @function
	.text$FMUX_Enable$scode_local_4:
	.align	1
	.export	FMUX_Enable
	.type	FMUX_Enable, @function
FMUX_Enable:
.LFB4:
.LM32:
	.cfi_startproc
.LVL28:
	PUSH	{r6, lr}
	.cfi_def_cfa_offset 8
	MOV	r6,r0
.LM33:
	MOV	r0,#1
.LVL29:
	CMP	r6,r0
	JLS	.L31
	MOV	r0,#0
.L31:
	LD	r5,#CHECK_RESTRICTION
	LJMP	r5
.LVL30:
.LM34:
	LD	r5,#1073753344
	LD.w	r4,[r5+#1]
.LVL31:
.LBB24:
.LBB25:
.LM35:
	CLR	r4,#0
.LVL32:
	ORL	r6,r6,r4
.LVL33:
.LBE25:
.LBE24:
.LM36:
	ST.w	[r5+#1],r6
.LM37:
	POP	r6
	.cfi_def_cfa_offset 4
	POP	lr
	.cfi_def_cfa_offset 0
	JMP	lr
	.cfi_endproc
.LFE4:
	.size	FMUX_Enable, .-FMUX_Enable
	.section .text$FMUX_Output_Channel_DMA_Enable
	.type	.text$FMUX_Output_Channel_DMA_Enable$scode_local_5, @function
	.text$FMUX_Output_Channel_DMA_Enable$scode_local_5:
	.align	1
	.export	FMUX_Output_Channel_DMA_Enable
	.type	FMUX_Output_Channel_DMA_Enable, @function
FMUX_Output_Channel_DMA_Enable:
.LFB5:
.LM38:
	.cfi_startproc
.LVL34:
	PUSH	{r6, r7, r8, lr}
	.cfi_def_cfa_offset 16
	MOV	r7,r0
	MOV	r6,r1
.LVL35:
.LM39:
	MOV	r0,#1
.LVL36:
	CMP	r7,#3
	JLS	.L33
	MOV	r0,#0
.L33:
	LD	r5,#CHECK_RESTRICTION
	MOV	r8,r5
	LJMP	r5
.LVL37:
.LM40:
	MOV	r0,#1
	CMP	r6,r0
	JLS	.L34
	MOV	r0,#0
.L34:
	LJMP	r8
.LVL38:
.LM41:
	ADD	r7,r7,#1
.LVL39:
.LM42:
	LD	r5,#1073753344
	LD.w	r3,[r5+#1]
.LVL40:
.LM43:
	MOV	r4,#1
	LSL	r4,r4,r7
.LVL41:
.LM44:
	NOT	r4,r4
.LVL42:
.LBB26:
.LBB27:
.LM45:
	ANL	r4,r4,r3
.LVL43:
.LBE27:
.LBE26:
.LM46:
	LSL	r7,r6,r7
.LVL44:
.LBB29:
.LBB28:
.LM47:
	ORL	r7,r4,r7
.LVL45:
.LBE28:
.LBE29:
.LM48:
	ST.w	[r5+#1],r7
.LM49:
	POP	{r6, r7, r8}
	.cfi_def_cfa_offset 4
	POP	lr
	.cfi_def_cfa_offset 0
	JMP	lr
	.cfi_endproc
.LFE5:
	.size	FMUX_Output_Channel_DMA_Enable, .-FMUX_Output_Channel_DMA_Enable
	.section .text$FMUX_Triggle_Single_Maintain_Time_Select
	.type	.text$FMUX_Triggle_Single_Maintain_Time_Select$scode_local_6, @function
	.text$FMUX_Triggle_Single_Maintain_Time_Select$scode_local_6:
	.align	1
	.export	FMUX_Triggle_Single_Maintain_Time_Select
	.type	FMUX_Triggle_Single_Maintain_Time_Select, @function
FMUX_Triggle_Single_Maintain_Time_Select:
.LFB6:
.LM50:
	.cfi_startproc
.LVL46:
	PUSH	{r6, r7, r8, lr}
	.cfi_def_cfa_offset 16
	MOV	r6,r0
	MOV	r7,r1
.LVL47:
.LM51:
	MOV	r0,#1
.LVL48:
	CMP	r6,#3
	JLS	.L36
	MOV	r0,#0
.L36:
	LD	r5,#CHECK_RESTRICTION
	MOV	r8,r5
	LJMP	r5
.LVL49:
.LM52:
	MOV	r0,#1
	CMP	r7,#3
	JLS	.L37
	MOV	r0,#0
.L37:
	LJMP	r8
.LVL50:
.LM53:
	ADD	r6,r6,r6
.LVL51:
	ADD	r6,r6,#5
.LVL52:
.LM54:
	LD	r5,#1073753344
	LD.w	r3,[r5+#1]
.LVL53:
.LM55:
	MOV	r4,#3
	LSL	r4,r4,r6
.LVL54:
.LM56:
	NOT	r4,r4
.LVL55:
.LBB30:
.LBB31:
.LM57:
	ANL	r4,r4,r3
.LVL56:
.LBE31:
.LBE30:
.LM58:
	LSL	r7,r7,r6
.LVL57:
.LBB33:
.LBB32:
.LM59:
	ORL	r6,r4,r7
.LVL58:
.LBE32:
.LBE33:
.LM60:
	ST.w	[r5+#1],r6
.LM61:
	POP	{r6, r7, r8}
	.cfi_def_cfa_offset 4
.LVL59:
	POP	lr
	.cfi_def_cfa_offset 0
	JMP	lr
	.cfi_endproc
.LFE6:
	.size	FMUX_Triggle_Single_Maintain_Time_Select, .-FMUX_Triggle_Single_Maintain_Time_Select
	.section .text$FMUX_Output_Select
	.type	.text$FMUX_Output_Select$scode_local_7, @function
	.text$FMUX_Output_Select$scode_local_7:
	.align	1
	.export	FMUX_Output_Select
	.type	FMUX_Output_Select, @function
FMUX_Output_Select:
.LFB7:
.LM62:
	.cfi_startproc
.LVL60:
	PUSH	{r6, r7, r8, lr}
	.cfi_def_cfa_offset 16
	MOV	r6,r0
	MOV	r7,r1
.LVL61:
.LM63:
	MOV	r0,#1
.LVL62:
	CMP	r6,#3
	JLS	.L39
	MOV	r0,#0
.L39:
	LD	r5,#CHECK_RESTRICTION
	MOV	r8,r5
	LJMP	r5
.LVL63:
.LM64:
	MOV	r0,#1
	CMP	r7,#3
	JLS	.L40
	MOV	r0,#0
.L40:
	LJMP	r8
.LVL64:
.LM65:
	ADD	r6,r6,r6
.LVL65:
	ADD	r6,#13
.LVL66:
.LM66:
	LD	r5,#1073753344
	LD.w	r3,[r5+#1]
.LVL67:
.LM67:
	MOV	r4,#3
	LSL	r4,r4,r6
.LVL68:
.LM68:
	NOT	r4,r4
.LVL69:
.LBB34:
.LBB35:
.LM69:
	ANL	r4,r4,r3
.LVL70:
.LBE35:
.LBE34:
.LM70:
	LSL	r7,r7,r6
.LVL71:
.LBB37:
.LBB36:
.LM71:
	ORL	r6,r4,r7
.LVL72:
.LBE36:
.LBE37:
.LM72:
	ST.w	[r5+#1],r6
.LM73:
	POP	{r6, r7, r8}
	.cfi_def_cfa_offset 4
.LVL73:
	POP	lr
	.cfi_def_cfa_offset 0
	JMP	lr
	.cfi_endproc
.LFE7:
	.size	FMUX_Output_Select, .-FMUX_Output_Select
	.section .text$FMUX_Work_CLK_Select
	.type	.text$FMUX_Work_CLK_Select$scode_local_8, @function
	.text$FMUX_Work_CLK_Select$scode_local_8:
	.align	1
	.export	FMUX_Work_CLK_Select
	.type	FMUX_Work_CLK_Select, @function
FMUX_Work_CLK_Select:
.LFB8:
.LM74:
	.cfi_startproc
.LVL74:
	PUSH	{r6, lr}
	.cfi_def_cfa_offset 8
	MOV	r6,r0
.LM75:
	MOV	r0,#1
.LVL75:
	CMP	r6,#3
	JLS	.L42
	MOV	r0,#0
.L42:
	LD	r5,#CHECK_RESTRICTION
	LJMP	r5
.LVL76:
.LM76:
	LD	r5,#1073753344
	LD.w	r4,[r5+#1]
.LVL77:
	LSL	r6,#21
.LVL78:
.LBB38:
.LBB39:
.LM77:
	CLR	r4,#21
	CLR	r4,#22
.LVL79:
	ORL	r6,r6,r4
.LVL80:
.LBE39:
.LBE38:
.LM78:
	ST.w	[r5+#1],r6
.LM79:
	POP	r6
	.cfi_def_cfa_offset 4
	POP	lr
	.cfi_def_cfa_offset 0
	JMP	lr
	.cfi_endproc
.LFE8:
	.size	FMUX_Work_CLK_Select, .-FMUX_Work_CLK_Select
	.text	
.Letext0: