	.file	"kf32a9k1xxx_spi.c"
	.text	
.Ltext0:
	.cfi_sections	.debug_frame
	.section .text$SPI_Reset
	.type	.text$SPI_Reset$scode_local_1, @function
	.text$SPI_Reset$scode_local_1:
	.align	1
	.export	SPI_Reset
	.type	SPI_Reset, @function
SPI_Reset:
.LFB1:
.LM1:
	.cfi_startproc
.LVL0:
	PUSH	{r6, lr}
	.cfi_def_cfa_offset 8
.LM2:
	LD	r5,#1073744896
	CMP	r0,r5
	JZ	.L2
.LM3:
	LD	r5,#1073745024
	CMP	r0,r5
	JZ	.L3
.LM4:
	LD	r5,#1073750144
	CMP	r0,r5
	JZ	.L4
	MOV	r6,#1
	LD	r5,#1073750272
	CMP	r0,r5
	JZ	.L5
	MOV	r6,#0
.L5:
	ZXT.b	r6,r6
	MOV	r0,r6
.LVL1:
	LD	r5,#CHECK_RESTRICTION
	LJMP	r5
.LVL2:
.LM5:
	CMP	r6,#0
	JNZ	.L11
.L1:
.LM6:
	POP	r6
	.cfi_remember_state
	.cfi_def_cfa_offset 4
	POP	lr
	.cfi_def_cfa_offset 0
	JMP	lr
.LVL3:
.L2:
	.cfi_restore_state
.LM7:
	MOV	r0,#1
.LVL4:
	LD	r5,#CHECK_RESTRICTION
	LJMP	r5
.LVL5:
.LM8:
	MOV	r0,#1
	LSL	r0,#24
	MOV	r1,#1
	LD	r6,#RST_CTL1_Peripheral_Reset_Enable
	LJMP	r6
.LVL6:
.LM9:
	MOV	r0,#1
	LSL	r0,#24
	MOV	r1,#0
	LJMP	r6
.LVL7:
.LM10:
	MOV	r0,#1
	LSL	r0,#24
	MOV	r1,#1
	LD	r5,#PCLK_CTL1_Peripheral_Clock_Enable
	LJMP	r5
.LVL8:
.LM11:
	POP	r6
	.cfi_remember_state
	.cfi_def_cfa_offset 4
	POP	lr
	.cfi_def_cfa_offset 0
	JMP	lr
.LVL9:
.L3:
	.cfi_restore_state
.LM12:
	MOV	r0,#1
.LVL10:
	LD	r5,#CHECK_RESTRICTION
	LJMP	r5
.LVL11:
.LM13:
	MOV	r0,#1
	LSL	r0,#25
	MOV	r1,#1
	LD	r6,#RST_CTL1_Peripheral_Reset_Enable
	LJMP	r6
.LVL12:
.LM14:
	MOV	r0,#1
	LSL	r0,#25
	MOV	r1,#0
	LJMP	r6
.LVL13:
.LM15:
	MOV	r0,#1
	LSL	r0,#25
	MOV	r1,#1
	LD	r5,#PCLK_CTL1_Peripheral_Clock_Enable
	LJMP	r5
.LVL14:
.LM16:
	POP	r6
	.cfi_remember_state
	.cfi_def_cfa_offset 4
	POP	lr
	.cfi_def_cfa_offset 0
	JMP	lr
.LVL15:
.L4:
	.cfi_restore_state
.LM17:
	MOV	r0,#1
.LVL16:
	LD	r5,#CHECK_RESTRICTION
	LJMP	r5
.LVL17:
.LM18:
	MOV	r0,#2
	MOV	r1,#1
	LD	r6,#RST_CTL3_Peripheral_Reset_Enable
	LJMP	r6
.LVL18:
.LM19:
	MOV	r0,#2
	MOV	r1,#0
	LJMP	r6
.LVL19:
.LM20:
	MOV	r0,#2
	MOV	r1,#1
	LD	r5,#PCLK_CTL3_Peripheral_Clock_Enable
	LJMP	r5
.LVL20:
.LM21:
	POP	r6
	.cfi_remember_state
	.cfi_def_cfa_offset 4
	POP	lr
	.cfi_def_cfa_offset 0
	JMP	lr
.L11:
	.cfi_restore_state
.LM22:
	MOV	r0,#4
	MOV	r1,#1
	LD	r6,#RST_CTL3_Peripheral_Reset_Enable
	LJMP	r6
.LVL21:
.LM23:
	MOV	r0,#4
	MOV	r1,#0
	LJMP	r6
.LVL22:
.LM24:
	MOV	r0,#4
	MOV	r1,#1
	LD	r5,#PCLK_CTL3_Peripheral_Clock_Enable
	LJMP	r5
.LVL23:
	JMP	.L1
	.cfi_endproc
.LFE1:
	.size	SPI_Reset, .-SPI_Reset
	.section .text$SPI_Configuration
	.type	.text$SPI_Configuration$scode_local_2, @function
	.text$SPI_Configuration$scode_local_2:
	.align	1
	.export	SPI_Configuration
	.type	SPI_Configuration, @function
SPI_Configuration:
.LFB2:
.LM25:
	.cfi_startproc
.LVL24:
	PUSH	{r6, r7, r8, lr}
	.cfi_def_cfa_offset 16
	MOV	r7,r0
	MOV	r6,r1
.LVL25:
.LM26:
	MOV	r0,#1
.LVL26:
	LD	r5,#1073744896
	CMP	r7,r5
	JZ	.L13
.LM27:
	LD	r5,#1073745024
	CMP	r7,r5
	JZ	.L13
.LM28:
	LD	r5,#1073750144
	CMP	r7,r5
	JZ	.L13
	LD	r5,#1073750272
	CMP	r7,r5
	JZ	.L13
	MOV	r0,#0
.L13:
.LM29:
	LD	r2,#CHECK_RESTRICTION
	MOV	r8,r2
	LJMP	r2
.LVL27:
.LM30:
	LD.w	r5,[r6]
	MOV	r0,#1
	CMP	r5,#0
	JZ	.L15
.LM31:
	CMP	r5,#2
	JZ	.L15
.LM32:
	CMP	r5,#4
	JZ	.L15
	CMP	r5,#6
	JZ	.L15
	CMP	r5,#8
	JZ	.L15
	MOV	r0,#0
.L15:
.LM33:
	LJMP	r8
.LVL28:
.LM34:
	LD.w	r5,[r6+#1]
	MOV	r0,#1
	CMP	r5,#0
	JZ	.L17
.LM35:
	CMP	r5,#16
	JZ	.L17
.LM36:
	CMP	r5,#32
	JZ	.L17
	MOV	r0,#0
.L17:
.LM37:
	LJMP	r8
.LVL29:
.LM38:
	LD.w	r5,[r6+#2]
	MOV	r0,#1
	CMP	r5,#64
	JZ	.L19
.LM39:
	CMP	r5,#0
	JNZ	.L62
.L19:
.LM40:
	LJMP	r8
.LVL30:
.LM41:
	LD.w	r5,[r6+#3]
	MOV	r0,#1
	MOV	r4,#255
	ADD	r4,r4,#1
	CMP	r5,r4
	JZ	.L21
.LM42:
	CMP	r5,#0
	JNZ	.L63
.L21:
.LM43:
	LJMP	r8
.LVL31:
.LM44:
	LD.w	r5,[r6+#4]
	MOV	r0,#1
	CMP	r5,#0
	JZ	.L23
.LM45:
	MOV	r4,#1
	LSL	r4,#9
	CMP	r5,r4
	JZ	.L23
	MOV	r0,#0
.L23:
.LM46:
	LJMP	r8
.LVL32:
.LM47:
	LD.w	r5,[r6+#5]
	MOV	r0,#1
	CMP	r5,#0
	JZ	.L25
.LM48:
	MOV	r4,#1
	LSL	r4,#12
	CMP	r5,r4
	JZ	.L25
.LM49:
	MOV	r4,#1
	LSL	r4,#13
	CMP	r5,r4
	JZ	.L25
	MOV	r0,#0
.L25:
.LM50:
	LJMP	r8
.LVL33:
.LM51:
	LD.w	r3,[r7+#1]
.LVL34:
.LM52:
	LD.w	r5,[r6+#1]
	LD.w	r2,[r6]
	ORL	r4,r5,r2
.LM53:
	LD.w	r5,[r6+#2]
	ORL	r4,r4,r5
.LM54:
	LD.w	r2,[r6+#3]
	ORL	r4,r4,r2
.LM55:
	LD.w	r5,[r6+#4]
	ORL	r4,r4,r5
.LM56:
	LD.w	r2,[r6+#5]
	ORL	r4,r4,r2
.LVL35:
.LBB24:
.LBB25:
.LM57:
	LD	r5,#-13183
	ANL	r5,r3,r5
	ORL	r5,r4,r5
.LBE25:
.LBE24:
.LM58:
	ST.w	[r7+#1],r5
.LVL36:
.LM59:
	LD.w	r4,[r7]
.LVL37:
.LBB26:
.LBB27:
.LM60:
	LD	r5,#-65536
	ANL	r5,r4,r5
.LBE27:
.LBE26:
.LM61:
	LD.h	r4,[r6+#12]
.LVL38:
.LBB29:
.LBB28:
.LM62:
	ORL	r5,r5,r4
.LBE28:
.LBE29:
.LM63:
	ST.w	[r7],r5
.LM64:
	POP	{r6, r7, r8}
	.cfi_remember_state
	.cfi_def_cfa_offset 4
.LVL39:
	POP	lr
	.cfi_def_cfa_offset 0
	JMP	lr
.LVL40:
.L63:
	.cfi_restore_state
.LM65:
	MOV	r0,#0
	JMP	.L21
.L62:
.LM66:
	MOV	r0,#0
	JMP	.L19
	.cfi_endproc
.LFE2:
	.size	SPI_Configuration, .-SPI_Configuration
	.section .text$I2S_Configuration
	.type	.text$I2S_Configuration$scode_local_3, @function
	.text$I2S_Configuration$scode_local_3:
	.align	1
	.export	I2S_Configuration
	.type	I2S_Configuration, @function
I2S_Configuration:
.LFB3:
.LM67:
	.cfi_startproc
.LVL41:
	PUSH	{r6, r7, r8, lr}
	.cfi_def_cfa_offset 16
	MOV	r7,r0
	MOV	r6,r1
.LVL42:
.LM68:
	MOV	r0,#1
.LVL43:
	LD	r5,#1073744896
	CMP	r7,r5
	JZ	.L65
.LM69:
	LD	r5,#1073745024
	CMP	r7,r5
	JZ	.L65
.LM70:
	LD	r5,#1073750144
	CMP	r7,r5
	JZ	.L65
	LD	r5,#1073750272
	CMP	r7,r5
	JZ	.L65
	MOV	r0,#0
.L65:
.LM71:
	LD	r2,#CHECK_RESTRICTION
	MOV	r8,r2
	LJMP	r2
.LVL44:
.LM72:
	LD.w	r5,[r6]
	MOV	r0,#1
	CMP	r5,#0
	JZ	.L67
.LM73:
	MOV	r4,#1
	LSL	r4,#20
	CMP	r5,r4
	JZ	.L67
.LM74:
	MOV	r4,#1
	LSL	r4,#21
	CMP	r5,r4
	JZ	.L67
	LD	r4,#3145728
	CMP	r5,r4
	JZ	.L67
	MOV	r0,#0
.L67:
.LM75:
	LJMP	r8
.LVL45:
.LM76:
	LD.w	r5,[r6+#1]
	MOV	r0,#1
	CMP	r5,#0
	JZ	.L69
.LM77:
	MOV	r4,#1
	LSL	r4,#22
	CMP	r5,r4
	JZ	.L69
.LM78:
	MOV	r4,#1
	LSL	r4,#23
	CMP	r5,r4
	JZ	.L69
	LD	r4,#12582912
	CMP	r5,r4
	JZ	.L69
	MOV	r0,#0
.L69:
.LM79:
	LJMP	r8
.LVL46:
.LM80:
	LD.w	r5,[r6+#2]
	MOV	r0,#1
	CMP	r5,#0
	JZ	.L71
.LM81:
	MOV	r4,#1
	LSL	r4,#24
	CMP	r5,r4
	JZ	.L71
	MOV	r0,#0
.L71:
.LM82:
	LJMP	r8
.LVL47:
.LM83:
	LD.w	r5,[r6+#3]
	MOV	r0,#1
	LD	r4,#100663296
	CMP	r5,r4
	JZ	.L73
.LM84:
	MOV	r4,#1
	LSL	r4,#26
	CMP	r5,r4
	JZ	.L73
.LM85:
	CMP	r5,#0
	JNZ	.L97
.L73:
.LM86:
	LJMP	r8
.LVL48:
.LM87:
	LD.w	r5,[r6+#4]
	MOV	r0,#1
	CMP	r5,#0
	JZ	.L75
.LM88:
	MOV	r4,#1
	LSL	r4,#27
	CMP	r5,r4
	JZ	.L75
	MOV	r0,#0
.L75:
.LM89:
	LJMP	r8
.LVL49:
.LM90:
	LD.w	r3,[r7+#1]
.LVL50:
.LM91:
	LD.w	r5,[r6+#1]
	LD.w	r2,[r6]
	ORL	r4,r5,r2
.LM92:
	LD.w	r5,[r6+#2]
	ORL	r4,r4,r5
.LM93:
	LD.w	r2,[r6+#3]
	ORL	r4,r4,r2
.LM94:
	LD.w	r5,[r6+#4]
	ORL	r4,r4,r5
.LVL51:
.LBB30:
.LBB31:
.LM95:
	LD	r5,#-267386881
	ANL	r5,r3,r5
	ORL	r5,r4,r5
.LBE31:
.LBE30:
.LM96:
	ST.w	[r7+#1],r5
.LVL52:
.LM97:
	LD.w	r3,[r7]
.LVL53:
.LM98:
	LD.b	r4,[r6+#20]
.LVL54:
	LSL	r4,#16
.LVL55:
.LBB32:
.LBB33:
.LM99:
	LD	r5,#-16711681
	ANL	r5,r3,r5
	ORL	r5,r4,r5
.LBE33:
.LBE32:
.LM100:
	ST.w	[r7],r5
.LM101:
	POP	{r6, r7, r8}
	.cfi_remember_state
	.cfi_def_cfa_offset 4
.LVL56:
	POP	lr
	.cfi_def_cfa_offset 0
	JMP	lr
.LVL57:
.L97:
	.cfi_restore_state
.LM102:
	MOV	r0,#0
	JMP	.L73
	.cfi_endproc
.LFE3:
	.size	I2S_Configuration, .-I2S_Configuration
	.section .text$SPI_Struct_Init
	.type	.text$SPI_Struct_Init$scode_local_4, @function
	.text$SPI_Struct_Init$scode_local_4:
	.align	1
	.export	SPI_Struct_Init
	.type	SPI_Struct_Init, @function
SPI_Struct_Init:
.LFB4:
.LM103:
	.cfi_startproc
.LVL58:
.LM104:
	MOV	r5,#8
	ST.w	[r0],r5
.LM105:
	MOV	r5,#16
	ST.w	[r0+#1],r5
.LM106:
	MOV	r5,#64
	ST.w	[r0+#2],r5
.LM107:
	MOV	r5,#255
	ADD	r5,r5,#1
	ST.w	[r0+#3],r5
.LM108:
	MOV	r5,#0
	ST.w	[r0+#4],r5
.LM109:
	ST.w	[r0+#5],r5
.LM110:
	ST.h	[r0+#12],r5
.LM111:
	JMP	lr
	.cfi_endproc
.LFE4:
	.size	SPI_Struct_Init, .-SPI_Struct_Init
	.section .text$I2S_Struct_Init
	.type	.text$I2S_Struct_Init$scode_local_5, @function
	.text$I2S_Struct_Init$scode_local_5:
	.align	1
	.export	I2S_Struct_Init
	.type	I2S_Struct_Init, @function
I2S_Struct_Init:
.LFB5:
.LM112:
	.cfi_startproc
.LVL59:
.LM113:
	MOV	r5,#0
	ST.w	[r0],r5
.LM114:
	ST.w	[r0+#1],r5
.LM115:
	MOV	r4,#1
	LSL	r4,#24
	ST.w	[r0+#2],r4
.LM116:
	ST.w	[r0+#3],r5
.LM117:
	ST.w	[r0+#4],r5
.LM118:
	ST.b	[r0+#20],r5
.LM119:
	JMP	lr
	.cfi_endproc
.LFE5:
	.size	I2S_Struct_Init, .-I2S_Struct_Init
	.section .text$SPI_Cmd
	.type	.text$SPI_Cmd$scode_local_6, @function
	.text$SPI_Cmd$scode_local_6:
	.align	1
	.export	SPI_Cmd
	.type	SPI_Cmd, @function
SPI_Cmd:
.LFB6:
.LM120:
	.cfi_startproc
.LVL60:
	PUSH	{r6, r7, r8, lr}
	.cfi_def_cfa_offset 16
	MOV	r6,r0
	MOV	r7,r1
.LM121:
	MOV	r0,#1
.LVL61:
	LD	r5,#1073744896
	CMP	r6,r5
	JZ	.L101
.LM122:
	LD	r5,#1073745024
	CMP	r6,r5
	JZ	.L101
.LM123:
	LD	r5,#1073750144
	CMP	r6,r5
	JZ	.L101
	LD	r5,#1073750272
	CMP	r6,r5
	JZ	.L101
	MOV	r0,#0
.L101:
.LM124:
	LD	r5,#CHECK_RESTRICTION
	MOV	r8,r5
	LJMP	r5
.LVL62:
.LM125:
	MOV	r0,#1
	CMP	r7,r0
	JLS	.L103
	MOV	r0,#0
.L103:
	LJMP	r8
.LVL63:
.LM126:
	ADD	r6,r6,#4
.LVL64:
.LM127:
	CMP	r7,#0
	JNZ	.L109
.LM128:
// inline asm begin
	// 234 "../src/kf32a9k1xxx_spi.c" 1
	CLR [r6], #0
	// 0 "" 2
.LM129:
// inline asm end
	POP	{r6, r7, r8}
	.cfi_remember_state
	.cfi_def_cfa_offset 4
.LVL65:
	POP	lr
	.cfi_def_cfa_offset 0
	JMP	lr
.LVL66:
.L109:
	.cfi_restore_state
.LM130:
// inline asm begin
	// 229 "../src/kf32a9k1xxx_spi.c" 1
	SET [r6], #0
	// 0 "" 2
.LM131:
// inline asm end
	POP	{r6, r7, r8}
	.cfi_def_cfa_offset 4
.LVL67:
	POP	lr
	.cfi_def_cfa_offset 0
	JMP	lr
	.cfi_endproc
.LFE6:
	.size	SPI_Cmd, .-SPI_Cmd
	.section .text$I2S_Mode_Select
	.type	.text$I2S_Mode_Select$scode_local_7, @function
	.text$I2S_Mode_Select$scode_local_7:
	.align	1
	.export	I2S_Mode_Select
	.type	I2S_Mode_Select, @function
I2S_Mode_Select:
.LFB7:
.LM132:
	.cfi_startproc
.LVL68:
	PUSH	{r6, r7, r8, lr}
	.cfi_def_cfa_offset 16
	MOV	r6,r0
	MOV	r7,r1
.LM133:
	MOV	r0,#1
.LVL69:
	LD	r5,#1073744896
	CMP	r6,r5
	JZ	.L111
.LM134:
	LD	r5,#1073745024
	CMP	r6,r5
	JZ	.L111
.LM135:
	LD	r5,#1073750144
	CMP	r6,r5
	JZ	.L111
	LD	r5,#1073750272
	CMP	r6,r5
	JZ	.L111
	MOV	r0,#0
.L111:
.LM136:
	LD	r5,#CHECK_RESTRICTION
	MOV	r8,r5
	LJMP	r5
.LVL70:
.LM137:
	MOV	r0,#1
	CMP	r7,r0
	JLS	.L113
	MOV	r0,#0
.L113:
	LJMP	r8
.LVL71:
.LM138:
	ADD	r6,r6,#4
.LVL72:
.LM139:
	CMP	r7,#0
	JNZ	.L119
.LM140:
// inline asm begin
	// 262 "../src/kf32a9k1xxx_spi.c" 1
	CLR [r6], #16
	// 0 "" 2
.LM141:
// inline asm end
	POP	{r6, r7, r8}
	.cfi_remember_state
	.cfi_def_cfa_offset 4
.LVL73:
	POP	lr
	.cfi_def_cfa_offset 0
	JMP	lr
.LVL74:
.L119:
	.cfi_restore_state
.LM142:
// inline asm begin
	// 257 "../src/kf32a9k1xxx_spi.c" 1
	SET [r6], #16
	// 0 "" 2
.LM143:
// inline asm end
	POP	{r6, r7, r8}
	.cfi_def_cfa_offset 4
.LVL75:
	POP	lr
	.cfi_def_cfa_offset 0
	JMP	lr
	.cfi_endproc
.LFE7:
	.size	I2S_Mode_Select, .-I2S_Mode_Select
	.section .text$SPI_I2S_ReceiveData
	.type	.text$SPI_I2S_ReceiveData$scode_local_8, @function
	.text$SPI_I2S_ReceiveData$scode_local_8:
	.align	1
	.export	SPI_I2S_ReceiveData
	.type	SPI_I2S_ReceiveData, @function
SPI_I2S_ReceiveData:
.LFB8:
.LM144:
	.cfi_startproc
.LVL76:
	PUSH	{r6, lr}
	.cfi_def_cfa_offset 8
	MOV	r6,r0
.LVL77:
.LM145:
	LD	r5,#1073744896
	CMP	r0,r5
	JZ	.L124
.LM146:
	LD	r5,#1073745024
	CMP	r0,r5
	JZ	.L124
.LM147:
	LD	r5,#1073750144
	MOV	r0,#1
.LVL78:
	CMP	r6,r5
	JZ	.L121
	LD	r5,#1073750272
	CMP	r6,r5
	JZ	.L121
	MOV	r0,#0
.L121:
.LM148:
	LD	r5,#CHECK_RESTRICTION
	LJMP	r5
.LVL79:
.LM149:
	LD.w	r0,[r6+#2]
.LVL80:
.LM150:
	POP	r6
	.cfi_remember_state
	.cfi_def_cfa_offset 4
.LVL81:
	POP	lr
	.cfi_def_cfa_offset 0
	JMP	lr
.LVL82:
.L124:
	.cfi_restore_state
.LM151:
	MOV	r0,#1
.LVL83:
	LD	r5,#CHECK_RESTRICTION
	LJMP	r5
.LVL84:
.LM152:
	LD.w	r0,[r6+#2]
.LVL85:
.LM153:
	POP	r6
	.cfi_def_cfa_offset 4
.LVL86:
	POP	lr
	.cfi_def_cfa_offset 0
	JMP	lr
	.cfi_endproc
.LFE8:
	.size	SPI_I2S_ReceiveData, .-SPI_I2S_ReceiveData
	.section .text$SPI_I2S_SendData32
	.type	.text$SPI_I2S_SendData32$scode_local_9, @function
	.text$SPI_I2S_SendData32$scode_local_9:
	.align	1
	.export	SPI_I2S_SendData32
	.type	SPI_I2S_SendData32, @function
SPI_I2S_SendData32:
.LFB9:
.LM154:
	.cfi_startproc
.LVL87:
	PUSH	{r6, r7, lr}
	.cfi_def_cfa_offset 12
	MOV	r6,r0
	MOV	r7,r1
.LM155:
	LD	r5,#1073744896
	CMP	r0,r5
	JZ	.L130
.LM156:
	LD	r5,#1073745024
	CMP	r0,r5
	JZ	.L130
.LM157:
	LD	r5,#1073750144
	MOV	r0,#1
.LVL88:
	CMP	r6,r5
	JZ	.L127
	LD	r5,#1073750272
	CMP	r6,r5
	JZ	.L127
	MOV	r0,#0
.L127:
.LM158:
	LD	r5,#CHECK_RESTRICTION
	LJMP	r5
.LVL89:
.LM159:
	ST.w	[r6+#2],r7
.LM160:
	POP	{r6, r7}
	.cfi_remember_state
	.cfi_def_cfa_offset 4
.LVL90:
	POP	lr
	.cfi_def_cfa_offset 0
	JMP	lr
.LVL91:
.L130:
	.cfi_restore_state
.LM161:
	MOV	r0,#1
.LVL92:
	LD	r5,#CHECK_RESTRICTION
	LJMP	r5
.LVL93:
.LM162:
	ST.w	[r6+#2],r7
.LM163:
	POP	{r6, r7}
	.cfi_def_cfa_offset 4
.LVL94:
	POP	lr
	.cfi_def_cfa_offset 0
	JMP	lr
	.cfi_endproc
.LFE9:
	.size	SPI_I2S_SendData32, .-SPI_I2S_SendData32
	.section .text$SPI_I2S_SendData8
	.type	.text$SPI_I2S_SendData8$scode_local_10, @function
	.text$SPI_I2S_SendData8$scode_local_10:
	.align	1
	.export	SPI_I2S_SendData8
	.type	SPI_I2S_SendData8, @function
SPI_I2S_SendData8:
.LFB10:
.LM164:
	.cfi_startproc
.LVL95:
	PUSH	{r6, r7, lr}
	.cfi_def_cfa_offset 12
	MOV	r6,r0
	ZXT.b	r7,r1
.LM165:
	LD	r5,#1073744896
	CMP	r0,r5
	JZ	.L136
.LM166:
	LD	r5,#1073745024
	CMP	r0,r5
	JZ	.L136
.LM167:
	LD	r5,#1073750144
	MOV	r0,#1
.LVL96:
	CMP	r6,r5
	JZ	.L133
	LD	r5,#1073750272
	CMP	r6,r5
	JZ	.L133
	MOV	r0,#0
.L133:
.LM168:
	LD	r5,#CHECK_RESTRICTION
	LJMP	r5
.LVL97:
.LM169:
	ST.w	[r6+#2],r7
.LM170:
	POP	{r6, r7}
	.cfi_remember_state
	.cfi_def_cfa_offset 4
.LVL98:
	POP	lr
	.cfi_def_cfa_offset 0
	JMP	lr
.LVL99:
.L136:
	.cfi_restore_state
.LM171:
	MOV	r0,#1
.LVL100:
	LD	r5,#CHECK_RESTRICTION
	LJMP	r5
.LVL101:
.LM172:
	ST.w	[r6+#2],r7
.LM173:
	POP	{r6, r7}
	.cfi_def_cfa_offset 4
.LVL102:
	POP	lr
	.cfi_def_cfa_offset 0
	JMP	lr
	.cfi_endproc
.LFE10:
	.size	SPI_I2S_SendData8, .-SPI_I2S_SendData8
	.section .text$SPI_BaudRate_Config
	.type	.text$SPI_BaudRate_Config$scode_local_11, @function
	.text$SPI_BaudRate_Config$scode_local_11:
	.align	1
	.export	SPI_BaudRate_Config
	.type	SPI_BaudRate_Config, @function
SPI_BaudRate_Config:
.LFB11:
.LM174:
	.cfi_startproc
.LVL103:
	PUSH	{r6, r7, lr}
	.cfi_def_cfa_offset 12
	MOV	r6,r0
	ZXT.h	r7,r1
.LVL104:
.LM175:
	LD	r5,#1073744896
	CMP	r0,r5
	JZ	.L142
.LM176:
	LD	r5,#1073745024
	CMP	r0,r5
	JZ	.L142
.LM177:
	LD	r5,#1073750144
	MOV	r0,#1
.LVL105:
	CMP	r6,r5
	JZ	.L139
	LD	r5,#1073750272
	CMP	r6,r5
	JZ	.L139
	MOV	r0,#0
.L139:
.LM178:
	LD	r5,#CHECK_RESTRICTION
	LJMP	r5
.LVL106:
.LM179:
	LD.w	r4,[r6]
.LVL107:
.LBB34:
.LBB35:
.LM180:
	LD	r5,#-65536
	ANL	r5,r4,r5
	ORL	r7,r7,r5
.LVL108:
.LBE35:
.LBE34:
.LM181:
	ST.w	[r6],r7
.LM182:
	POP	{r6, r7}
	.cfi_remember_state
	.cfi_def_cfa_offset 4
	POP	lr
	.cfi_def_cfa_offset 0
	JMP	lr
.LVL109:
.L142:
	.cfi_restore_state
.LM183:
	MOV	r0,#1
.LVL110:
	JMP	.L139
	.cfi_endproc
.LFE11:
	.size	SPI_BaudRate_Config, .-SPI_BaudRate_Config
	.section .text$I2S_DIV_Config
	.type	.text$I2S_DIV_Config$scode_local_12, @function
	.text$I2S_DIV_Config$scode_local_12:
	.align	1
	.export	I2S_DIV_Config
	.type	I2S_DIV_Config, @function
I2S_DIV_Config:
.LFB12:
.LM184:
	.cfi_startproc
.LVL111:
	PUSH	{r6, r7, lr}
	.cfi_def_cfa_offset 12
	MOV	r6,r0
	ZXT.b	r7,r1
.LVL112:
.LM185:
	LD	r5,#1073744896
	CMP	r0,r5
	JZ	.L148
.LM186:
	LD	r5,#1073745024
	CMP	r0,r5
	JZ	.L148
.LM187:
	LD	r5,#1073750144
	MOV	r0,#1
.LVL113:
	CMP	r6,r5
	JZ	.L145
	LD	r5,#1073750272
	CMP	r6,r5
	JZ	.L145
	MOV	r0,#0
.L145:
.LM188:
	LD	r5,#CHECK_RESTRICTION
	LJMP	r5
.LVL114:
.LM189:
	LD.w	r4,[r6]
.LVL115:
.LM190:
	LSL	r7,#16
.LVL116:
.LBB36:
.LBB37:
.LM191:
	LD	r5,#-16711681
	ANL	r5,r4,r5
	ORL	r7,r7,r5
.LBE37:
.LBE36:
.LM192:
	ST.w	[r6],r7
.LM193:
	POP	{r6, r7}
	.cfi_remember_state
	.cfi_def_cfa_offset 4
	POP	lr
	.cfi_def_cfa_offset 0
	JMP	lr
.LVL117:
.L148:
	.cfi_restore_state
.LM194:
	MOV	r0,#1
.LVL118:
	JMP	.L145
	.cfi_endproc
.LFE12:
	.size	I2S_DIV_Config, .-I2S_DIV_Config
	.section .text$SPI_MODE_Config
	.type	.text$SPI_MODE_Config$scode_local_13, @function
	.text$SPI_MODE_Config$scode_local_13:
	.align	1
	.export	SPI_MODE_Config
	.type	SPI_MODE_Config, @function
SPI_MODE_Config:
.LFB13:
.LM195:
	.cfi_startproc
.LVL119:
	PUSH	{r6, r7, r8, lr}
	.cfi_def_cfa_offset 16
	MOV	r6,r0
	MOV	r7,r1
.LM196:
	MOV	r0,#1
.LVL120:
	LD	r5,#1073744896
	CMP	r6,r5
	JZ	.L151
.LM197:
	LD	r5,#1073745024
	CMP	r6,r5
	JZ	.L151
.LM198:
	LD	r5,#1073750144
	CMP	r6,r5
	JZ	.L151
	LD	r5,#1073750272
	CMP	r6,r5
	JZ	.L151
	MOV	r0,#0
.L151:
.LM199:
	LD	r5,#CHECK_RESTRICTION
	MOV	r8,r5
	LJMP	r5
.LVL121:
.LM200:
	MOV	r0,#1
	CMP	r7,#0
	JZ	.L153
.LM201:
	CMP	r7,#2
	JZ	.L153
.LM202:
	CMP	r7,#4
	JZ	.L153
	CMP	r7,#6
	JZ	.L153
	CMP	r7,#8
	JZ	.L153
	MOV	r0,#0
.L153:
.LM203:
	LJMP	r8
.LVL122:
.LM204:
	LD.w	r4,[r6+#1]
.LVL123:
.LBB38:
.LBB39:
.LM205:
	MOV	r5,#14
	NOT	r5,r5
	ANL	r5,r4,r5
	ORL	r7,r7,r5
.LVL124:
.LBE39:
.LBE38:
.LM206:
	ST.w	[r6+#1],r7
.LM207:
	POP	{r6, r7, r8}
	.cfi_def_cfa_offset 4
	POP	lr
	.cfi_def_cfa_offset 0
	JMP	lr
	.cfi_endproc
.LFE13:
	.size	SPI_MODE_Config, .-SPI_MODE_Config
	.section .text$SPI_CLK_Config
	.type	.text$SPI_CLK_Config$scode_local_14, @function
	.text$SPI_CLK_Config$scode_local_14:
	.align	1
	.export	SPI_CLK_Config
	.type	SPI_CLK_Config, @function
SPI_CLK_Config:
.LFB14:
.LM208:
	.cfi_startproc
.LVL125:
	PUSH	{r6, r7, r8, lr}
	.cfi_def_cfa_offset 16
	MOV	r6,r0
	MOV	r7,r1
.LM209:
	MOV	r0,#1
.LVL126:
	LD	r5,#1073744896
	CMP	r6,r5
	JZ	.L170
.LM210:
	LD	r5,#1073745024
	CMP	r6,r5
	JZ	.L170
.LM211:
	LD	r5,#1073750144
	CMP	r6,r5
	JZ	.L170
	LD	r5,#1073750272
	CMP	r6,r5
	JZ	.L170
	MOV	r0,#0
.L170:
.LM212:
	LD	r5,#CHECK_RESTRICTION
	MOV	r8,r5
	LJMP	r5
.LVL127:
.LM213:
	MOV	r0,#1
	CMP	r7,#0
	JZ	.L172
.LM214:
	CMP	r7,#16
	JZ	.L172
.LM215:
	CMP	r7,#32
	JZ	.L172
	MOV	r0,#0
.L172:
.LM216:
	LJMP	r8
.LVL128:
.LM217:
	LD.w	r5,[r6+#1]
.LVL129:
.LBB40:
.LBB41:
.LM218:
	CLR	r5,#4
	CLR	r5,#5
.LVL130:
	ORL	r7,r7,r5
.LVL131:
.LBE41:
.LBE40:
.LM219:
	ST.w	[r6+#1],r7
.LM220:
	POP	{r6, r7, r8}
	.cfi_def_cfa_offset 4
	POP	lr
	.cfi_def_cfa_offset 0
	JMP	lr
	.cfi_endproc
.LFE14:
	.size	SPI_CLK_Config, .-SPI_CLK_Config
	.section .text$SPI_Data_Direction_Config
	.type	.text$SPI_Data_Direction_Config$scode_local_15, @function
	.text$SPI_Data_Direction_Config$scode_local_15:
	.align	1
	.export	SPI_Data_Direction_Config
	.type	SPI_Data_Direction_Config, @function
SPI_Data_Direction_Config:
.LFB15:
.LM221:
	.cfi_startproc
.LVL132:
	PUSH	{r6, r7, r8, lr}
	.cfi_def_cfa_offset 16
	MOV	r6,r0
	MOV	r7,r1
.LM222:
	MOV	r0,#1
.LVL133:
	LD	r5,#1073744896
	CMP	r6,r5
	JZ	.L185
.LM223:
	LD	r5,#1073745024
	CMP	r6,r5
	JZ	.L185
.LM224:
	LD	r5,#1073750144
	CMP	r6,r5
	JZ	.L185
	LD	r5,#1073750272
	CMP	r6,r5
	JZ	.L185
	MOV	r0,#0
.L185:
.LM225:
	LD	r5,#CHECK_RESTRICTION
	MOV	r8,r5
	LJMP	r5
.LVL134:
.LM226:
	MOV	r0,#1
	CMP	r7,#64
	JZ	.L187
.LM227:
	CMP	r7,#0
	JNZ	.L198
	LJMP	r8
.LVL135:
.LM228:
	CMP	r7,#0
	JNZ	.L191
.L189:
.LM229:
	ADD	r6,r6,#4
.LVL136:
// inline asm begin
	// 419 "../src/kf32a9k1xxx_spi.c" 1
	CLR [r6], #6
	// 0 "" 2
.LM230:
// inline asm end
	POP	{r6, r7, r8}
	.cfi_remember_state
	.cfi_def_cfa_offset 4
.LVL137:
	POP	lr
	.cfi_def_cfa_offset 0
	JMP	lr
.LVL138:
.L198:
	.cfi_restore_state
.LM231:
	MOV	r0,#0
	LJMP	r8
.LVL139:
.LM232:
	CMP	r7,#0
	JZ	.L189
.L191:
.LM233:
	ADD	r6,r6,#4
.LVL140:
// inline asm begin
	// 414 "../src/kf32a9k1xxx_spi.c" 1
	SET [r6], #6
	// 0 "" 2
.LVL141:
// inline asm end
.L199:
.LM234:
	POP	{r6, r7, r8}
	.cfi_remember_state
	.cfi_def_cfa_offset 4
.LVL142:
	POP	lr
	.cfi_def_cfa_offset 0
	JMP	lr
.LVL143:
.L187:
	.cfi_restore_state
.LM235:
	LJMP	r8
.LVL144:
.LM236:
	ADD	r6,r6,#4
.LVL145:
// inline asm begin
	// 414 "../src/kf32a9k1xxx_spi.c" 1
	SET [r6], #6
	// 0 "" 2
// inline asm end
	JMP	.L199
	.cfi_endproc
.LFE15:
	.size	SPI_Data_Direction_Config, .-SPI_Data_Direction_Config
	.section .text$SPI_Clock_Polarity_Config
	.type	.text$SPI_Clock_Polarity_Config$scode_local_16, @function
	.text$SPI_Clock_Polarity_Config$scode_local_16:
	.align	1
	.export	SPI_Clock_Polarity_Config
	.type	SPI_Clock_Polarity_Config, @function
SPI_Clock_Polarity_Config:
.LFB16:
.LM237:
	.cfi_startproc
.LVL146:
	PUSH	{r6, r7, r8, lr}
	.cfi_def_cfa_offset 16
	MOV	r6,r0
	MOV	r8,r1
.LM238:
	MOV	r0,#1
.LVL147:
	LD	r5,#1073744896
	CMP	r6,r5
	JZ	.L201
.LM239:
	LD	r5,#1073745024
	CMP	r6,r5
	JZ	.L201
.LM240:
	LD	r5,#1073750144
	CMP	r6,r5
	JZ	.L201
	LD	r5,#1073750272
	CMP	r6,r5
	JZ	.L201
	MOV	r0,#0
.L201:
.LM241:
	LD	r7,#CHECK_RESTRICTION
	LJMP	r7
.LVL148:
.LM242:
	MOV	r5,#255
	ADD	r5,r5,#1
	MOV	r0,#1
	CMP	r8,r5
	JZ	.L203
.LM243:
	CMP	r8,#0
	JNZ	.L212
.L204:
	LJMP	r7
.LVL149:
.LM244:
	ADD	r6,r6,#4
.LVL150:
// inline asm begin
	// 442 "../src/kf32a9k1xxx_spi.c" 1
	SET [r6], #8
	// 0 "" 2
.LM245:
// inline asm end
	POP	{r6, r7, r8}
	.cfi_remember_state
	.cfi_def_cfa_offset 4
.LVL151:
	POP	lr
	.cfi_def_cfa_offset 0
	JMP	lr
.LVL152:
.L212:
	.cfi_restore_state
.LM246:
	MOV	r0,#0
	JMP	.L204
.L203:
.LM247:
	LJMP	r7
.LVL153:
.LM248:
	ADD	r6,r6,#4
.LVL154:
// inline asm begin
	// 447 "../src/kf32a9k1xxx_spi.c" 1
	CLR [r6], #8
	// 0 "" 2
.LM249:
// inline asm end
	POP	{r6, r7, r8}
	.cfi_def_cfa_offset 4
.LVL155:
	POP	lr
	.cfi_def_cfa_offset 0
	JMP	lr
	.cfi_endproc
.LFE16:
	.size	SPI_Clock_Polarity_Config, .-SPI_Clock_Polarity_Config
	.section .text$SPI_Clock_Edge_Config
	.type	.text$SPI_Clock_Edge_Config$scode_local_17, @function
	.text$SPI_Clock_Edge_Config$scode_local_17:
	.align	1
	.export	SPI_Clock_Edge_Config
	.type	SPI_Clock_Edge_Config, @function
SPI_Clock_Edge_Config:
.LFB17:
.LM250:
	.cfi_startproc
.LVL156:
	PUSH	{r6, r7, r8, lr}
	.cfi_def_cfa_offset 16
	MOV	r6,r0
	MOV	r8,r1
.LM251:
	MOV	r0,#1
.LVL157:
	LD	r5,#1073744896
	CMP	r6,r5
	JZ	.L214
.LM252:
	LD	r5,#1073745024
	CMP	r6,r5
	JZ	.L214
.LM253:
	LD	r5,#1073750144
	CMP	r6,r5
	JZ	.L214
	LD	r5,#1073750272
	CMP	r6,r5
	JZ	.L214
	MOV	r0,#0
.L214:
.LM254:
	LD	r7,#CHECK_RESTRICTION
	LJMP	r7
.LVL158:
.LM255:
	MOV	r0,#1
	CMP	r8,#0
	JZ	.L216
.LM256:
	MOV	r5,#1
	LSL	r5,#9
	CMP	r8,r5
	JZ	.L217
	MOV	r0,#0
.L217:
	LJMP	r7
.LVL159:
.LM257:
	ADD	r6,r6,#4
.LVL160:
// inline asm begin
	// 470 "../src/kf32a9k1xxx_spi.c" 1
	SET [r6], #9
	// 0 "" 2
.LM258:
// inline asm end
	POP	{r6, r7, r8}
	.cfi_remember_state
	.cfi_def_cfa_offset 4
.LVL161:
	POP	lr
	.cfi_def_cfa_offset 0
	JMP	lr
.LVL162:
.L216:
	.cfi_restore_state
.LM259:
	LJMP	r7
.LVL163:
.LM260:
	ADD	r6,r6,#4
.LVL164:
// inline asm begin
	// 475 "../src/kf32a9k1xxx_spi.c" 1
	CLR [r6], #9
	// 0 "" 2
.LM261:
// inline asm end
	POP	{r6, r7, r8}
	.cfi_def_cfa_offset 4
.LVL165:
	POP	lr
	.cfi_def_cfa_offset 0
	JMP	lr
	.cfi_endproc
.LFE17:
	.size	SPI_Clock_Edge_Config, .-SPI_Clock_Edge_Config
	.section .text$SPI_BIT_SELECT_Config
	.type	.text$SPI_BIT_SELECT_Config$scode_local_18, @function
	.text$SPI_BIT_SELECT_Config$scode_local_18:
	.align	1
	.export	SPI_BIT_SELECT_Config
	.type	SPI_BIT_SELECT_Config, @function
SPI_BIT_SELECT_Config:
.LFB18:
.LM262:
	.cfi_startproc
.LVL166:
	PUSH	{r6, r7, r8, lr}
	.cfi_def_cfa_offset 16
	MOV	r6,r0
	MOV	r7,r1
.LM263:
	MOV	r0,#1
.LVL167:
	LD	r5,#1073744896
	CMP	r6,r5
	JZ	.L223
.LM264:
	LD	r5,#1073745024
	CMP	r6,r5
	JZ	.L223
.LM265:
	LD	r5,#1073750144
	CMP	r6,r5
	JZ	.L223
	LD	r5,#1073750272
	CMP	r6,r5
	JZ	.L223
	MOV	r0,#0
.L223:
.LM266:
	LD	r5,#CHECK_RESTRICTION
	MOV	r8,r5
	LJMP	r5
.LVL168:
.LM267:
	MOV	r0,#1
	CMP	r7,#0
	JZ	.L225
.LM268:
	MOV	r5,#1
	LSL	r5,#12
	CMP	r7,r5
	JZ	.L225
.LM269:
	MOV	r5,#1
	LSL	r5,#13
	CMP	r7,r5
	JZ	.L225
	MOV	r0,#0
.L225:
.LM270:
	LJMP	r8
.LVL169:
.LM271:
	LD.w	r5,[r6+#1]
.LVL170:
.LBB42:
.LBB43:
.LM272:
	CLR	r5,#12
	CLR	r5,#13
.LVL171:
	ORL	r7,r7,r5
.LVL172:
.LBE43:
.LBE42:
.LM273:
	ST.w	[r6+#1],r7
.LM274:
	POP	{r6, r7, r8}
	.cfi_def_cfa_offset 4
	POP	lr
	.cfi_def_cfa_offset 0
	JMP	lr
	.cfi_endproc
.LFE18:
	.size	SPI_BIT_SELECT_Config, .-SPI_BIT_SELECT_Config
	.section .text$SPI_I2S_MODE_Config
	.type	.text$SPI_I2S_MODE_Config$scode_local_19, @function
	.text$SPI_I2S_MODE_Config$scode_local_19:
	.align	1
	.export	SPI_I2S_MODE_Config
	.type	SPI_I2S_MODE_Config, @function
SPI_I2S_MODE_Config:
.LFB19:
.LM275:
	.cfi_startproc
.LVL173:
	PUSH	{r6, r7, r8, lr}
	.cfi_def_cfa_offset 16
	MOV	r6,r0
	MOV	r7,r1
.LM276:
	MOV	r0,#1
.LVL174:
	LD	r5,#1073744896
	CMP	r6,r5
	JZ	.L234
.LM277:
	LD	r5,#1073745024
	CMP	r6,r5
	JZ	.L234
.LM278:
	LD	r5,#1073750144
	CMP	r6,r5
	JZ	.L234
	LD	r5,#1073750272
	CMP	r6,r5
	JZ	.L234
	MOV	r0,#0
.L234:
.LM279:
	LD	r5,#CHECK_RESTRICTION
	MOV	r8,r5
	LJMP	r5
.LVL175:
.LM280:
	MOV	r0,#1
	CMP	r7,#0
	JZ	.L236
.LM281:
	MOV	r5,#1
	LSL	r5,#20
	CMP	r7,r5
	JZ	.L236
.LM282:
	MOV	r5,#1
	LSL	r5,#21
	CMP	r7,r5
	JZ	.L236
	LD	r5,#3145728
	CMP	r7,r5
	JZ	.L236
	MOV	r0,#0
.L236:
.LM283:
	LJMP	r8
.LVL176:
.LM284:
	LD.w	r5,[r6+#1]
.LVL177:
.LBB44:
.LBB45:
.LM285:
	CLR	r5,#20
	CLR	r5,#21
.LVL178:
	ORL	r7,r7,r5
.LVL179:
.LBE45:
.LBE44:
.LM286:
	ST.w	[r6+#1],r7
.LM287:
	POP	{r6, r7, r8}
	.cfi_def_cfa_offset 4
	POP	lr
	.cfi_def_cfa_offset 0
	JMP	lr
	.cfi_endproc
.LFE19:
	.size	SPI_I2S_MODE_Config, .-SPI_I2S_MODE_Config
	.section .text$SPI_I2S_STANDARD_Config
	.type	.text$SPI_I2S_STANDARD_Config$scode_local_20, @function
	.text$SPI_I2S_STANDARD_Config$scode_local_20:
	.align	1
	.export	SPI_I2S_STANDARD_Config
	.type	SPI_I2S_STANDARD_Config, @function
SPI_I2S_STANDARD_Config:
.LFB20:
.LM288:
	.cfi_startproc
.LVL180:
	PUSH	{r6, r7, r8, lr}
	.cfi_def_cfa_offset 16
	MOV	r6,r0
	MOV	r7,r1
.LM289:
	MOV	r0,#1
.LVL181:
	LD	r5,#1073744896
	CMP	r6,r5
	JZ	.L246
.LM290:
	LD	r5,#1073745024
	CMP	r6,r5
	JZ	.L246
.LM291:
	LD	r5,#1073750144
	CMP	r6,r5
	JZ	.L246
	LD	r5,#1073750272
	CMP	r6,r5
	JZ	.L246
	MOV	r0,#0
.L246:
.LM292:
	LD	r5,#CHECK_RESTRICTION
	MOV	r8,r5
	LJMP	r5
.LVL182:
.LM293:
	MOV	r0,#1
	CMP	r7,#0
	JZ	.L248
.LM294:
	MOV	r5,#1
	LSL	r5,#22
	CMP	r7,r5
	JZ	.L248
.LM295:
	MOV	r5,#1
	LSL	r5,#23
	CMP	r7,r5
	JZ	.L248
	LD	r5,#12582912
	CMP	r7,r5
	JZ	.L248
	MOV	r0,#0
.L248:
.LM296:
	LJMP	r8
.LVL183:
.LM297:
	LD.w	r5,[r6+#1]
.LVL184:
.LBB46:
.LBB47:
.LM298:
	CLR	r5,#22
	CLR	r5,#23
.LVL185:
	ORL	r7,r7,r5
.LVL186:
.LBE47:
.LBE46:
.LM299:
	ST.w	[r6+#1],r7
.LM300:
	POP	{r6, r7, r8}
	.cfi_def_cfa_offset 4
	POP	lr
	.cfi_def_cfa_offset 0
	JMP	lr
	.cfi_endproc
.LFE20:
	.size	SPI_I2S_STANDARD_Config, .-SPI_I2S_STANDARD_Config
	.section .text$SPI_PCM_Config
	.type	.text$SPI_PCM_Config$scode_local_21, @function
	.text$SPI_PCM_Config$scode_local_21:
	.align	1
	.export	SPI_PCM_Config
	.type	SPI_PCM_Config, @function
SPI_PCM_Config:
.LFB21:
.LM301:
	.cfi_startproc
.LVL187:
	PUSH	{r6, r7, r8, lr}
	.cfi_def_cfa_offset 16
	MOV	r6,r0
	MOV	r8,r1
.LM302:
	MOV	r0,#1
.LVL188:
	LD	r5,#1073744896
	CMP	r6,r5
	JZ	.L258
.LM303:
	LD	r5,#1073745024
	CMP	r6,r5
	JZ	.L258
.LM304:
	LD	r5,#1073750144
	CMP	r6,r5
	JZ	.L258
	LD	r5,#1073750272
	CMP	r6,r5
	JZ	.L258
	MOV	r0,#0
.L258:
.LM305:
	LD	r7,#CHECK_RESTRICTION
	LJMP	r7
.LVL189:
.LM306:
	MOV	r0,#1
	CMP	r8,#0
	JZ	.L260
.LM307:
	MOV	r5,#1
	LSL	r5,#24
	CMP	r8,r5
	JZ	.L261
	MOV	r0,#0
.L261:
	LJMP	r7
.LVL190:
.LM308:
	ADD	r6,r6,#4
.LVL191:
// inline asm begin
	// 560 "../src/kf32a9k1xxx_spi.c" 1
	SET [r6], #24
	// 0 "" 2
.LM309:
// inline asm end
	POP	{r6, r7, r8}
	.cfi_remember_state
	.cfi_def_cfa_offset 4
.LVL192:
	POP	lr
	.cfi_def_cfa_offset 0
	JMP	lr
.LVL193:
.L260:
	.cfi_restore_state
.LM310:
	LJMP	r7
.LVL194:
.LM311:
	ADD	r6,r6,#4
.LVL195:
// inline asm begin
	// 565 "../src/kf32a9k1xxx_spi.c" 1
	CLR [r6], #24
	// 0 "" 2
.LM312:
// inline asm end
	POP	{r6, r7, r8}
	.cfi_def_cfa_offset 4
.LVL196:
	POP	lr
	.cfi_def_cfa_offset 0
	JMP	lr
	.cfi_endproc
.LFE21:
	.size	SPI_PCM_Config, .-SPI_PCM_Config
	.section .text$SPI_CHLEN_Config
	.type	.text$SPI_CHLEN_Config$scode_local_22, @function
	.text$SPI_CHLEN_Config$scode_local_22:
	.align	1
	.export	SPI_CHLEN_Config
	.type	SPI_CHLEN_Config, @function
SPI_CHLEN_Config:
.LFB22:
.LM313:
	.cfi_startproc
.LVL197:
	PUSH	{r6, r7, r8, lr}
	.cfi_def_cfa_offset 16
	MOV	r6,r0
	MOV	r7,r1
.LM314:
	MOV	r0,#1
.LVL198:
	LD	r5,#1073744896
	CMP	r6,r5
	JZ	.L267
.LM315:
	LD	r5,#1073745024
	CMP	r6,r5
	JZ	.L267
.LM316:
	LD	r5,#1073750144
	CMP	r6,r5
	JZ	.L267
	LD	r5,#1073750272
	CMP	r6,r5
	JZ	.L267
	MOV	r0,#0
.L267:
.LM317:
	LD	r5,#CHECK_RESTRICTION
	MOV	r8,r5
	LJMP	r5
.LVL199:
.LM318:
	LD	r5,#100663296
	CMP	r7,r5
	JZ	.L269
.LM319:
	MOV	r5,#1
	LSL	r5,#26
	MOV	r0,#1
	CMP	r7,r5
	JZ	.L270
.LM320:
	CMP	r7,#0
	JNZ	.L279
.L271:
	LJMP	r8
.LVL200:
.LM321:
	ADD	r5,r6,#4
// inline asm begin
	// 600 "../src/kf32a9k1xxx_spi.c" 1
	CLR [r5], #25
	// 0 "" 2
.LM322:
// inline asm end
	ADD	r6,r6,#4
.LVL201:
// inline asm begin
	// 601 "../src/kf32a9k1xxx_spi.c" 1
	CLR [r6], #26
	// 0 "" 2
.LM323:
// inline asm end
	POP	{r6, r7, r8}
	.cfi_remember_state
	.cfi_def_cfa_offset 4
.LVL202:
	POP	lr
	.cfi_def_cfa_offset 0
	JMP	lr
.LVL203:
.L279:
	.cfi_restore_state
.LM324:
	MOV	r0,#0
	JMP	.L271
.L269:
.LM325:
	MOV	r0,#1
	LJMP	r8
.LVL204:
.LM326:
	ADD	r5,r6,#4
// inline asm begin
	// 588 "../src/kf32a9k1xxx_spi.c" 1
	SET [r5], #25
	// 0 "" 2
.LM327:
// inline asm end
	ADD	r6,r6,#4
.LVL205:
// inline asm begin
	// 589 "../src/kf32a9k1xxx_spi.c" 1
	SET [r6], #26
	// 0 "" 2
.LM328:
// inline asm end
	POP	{r6, r7, r8}
	.cfi_remember_state
	.cfi_def_cfa_offset 4
.LVL206:
	POP	lr
	.cfi_def_cfa_offset 0
	JMP	lr
.LVL207:
.L270:
	.cfi_restore_state
.LM329:
	LJMP	r8
.LVL208:
.LM330:
	ADD	r5,r6,#4
// inline asm begin
	// 594 "../src/kf32a9k1xxx_spi.c" 1
	CLR [r5], #25
	// 0 "" 2
.LM331:
// inline asm end
	ADD	r6,r6,#4
.LVL209:
// inline asm begin
	// 595 "../src/kf32a9k1xxx_spi.c" 1
	SET [r6], #26
	// 0 "" 2
.LM332:
// inline asm end
	POP	{r6, r7, r8}
	.cfi_def_cfa_offset 4
.LVL210:
	POP	lr
	.cfi_def_cfa_offset 0
	JMP	lr
	.cfi_endproc
.LFE22:
	.size	SPI_CHLEN_Config, .-SPI_CHLEN_Config
	.section .text$SPI_PCM_CLOCK_Polarity_Config
	.type	.text$SPI_PCM_CLOCK_Polarity_Config$scode_local_23, @function
	.text$SPI_PCM_CLOCK_Polarity_Config$scode_local_23:
	.align	1
	.export	SPI_PCM_CLOCK_Polarity_Config
	.type	SPI_PCM_CLOCK_Polarity_Config, @function
SPI_PCM_CLOCK_Polarity_Config:
.LFB23:
.LM333:
	.cfi_startproc
.LVL211:
	PUSH	{r6, r7, r8, lr}
	.cfi_def_cfa_offset 16
	MOV	r6,r0
	MOV	r8,r1
.LM334:
	MOV	r0,#1
.LVL212:
	LD	r5,#1073744896
	CMP	r6,r5
	JZ	.L281
.LM335:
	LD	r5,#1073745024
	CMP	r6,r5
	JZ	.L281
.LM336:
	LD	r5,#1073750144
	CMP	r6,r5
	JZ	.L281
	LD	r5,#1073750272
	CMP	r6,r5
	JZ	.L281
	MOV	r0,#0
.L281:
.LM337:
	LD	r7,#CHECK_RESTRICTION
	LJMP	r7
.LVL213:
.LM338:
	MOV	r0,#1
	CMP	r8,#0
	JZ	.L283
.LM339:
	MOV	r5,#1
	LSL	r5,#27
	CMP	r8,r5
	JZ	.L284
	MOV	r0,#0
.L284:
	LJMP	r7
.LVL214:
.LM340:
	ADD	r6,r6,#4
.LVL215:
// inline asm begin
	// 624 "../src/kf32a9k1xxx_spi.c" 1
	SET [r6], #27
	// 0 "" 2
.LM341:
// inline asm end
	POP	{r6, r7, r8}
	.cfi_remember_state
	.cfi_def_cfa_offset 4
.LVL216:
	POP	lr
	.cfi_def_cfa_offset 0
	JMP	lr
.LVL217:
.L283:
	.cfi_restore_state
.LM342:
	LJMP	r7
.LVL218:
.LM343:
	ADD	r6,r6,#4
.LVL219:
// inline asm begin
	// 629 "../src/kf32a9k1xxx_spi.c" 1
	CLR [r6], #27
	// 0 "" 2
.LM344:
// inline asm end
	POP	{r6, r7, r8}
	.cfi_def_cfa_offset 4
.LVL220:
	POP	lr
	.cfi_def_cfa_offset 0
	JMP	lr
	.cfi_endproc
.LFE23:
	.size	SPI_PCM_CLOCK_Polarity_Config, .-SPI_PCM_CLOCK_Polarity_Config
	.section .text$SPI_MAIN_CLOCK_OUT_Enable
	.type	.text$SPI_MAIN_CLOCK_OUT_Enable$scode_local_24, @function
	.text$SPI_MAIN_CLOCK_OUT_Enable$scode_local_24:
	.align	1
	.export	SPI_MAIN_CLOCK_OUT_Enable
	.type	SPI_MAIN_CLOCK_OUT_Enable, @function
SPI_MAIN_CLOCK_OUT_Enable:
.LFB24:
.LM345:
	.cfi_startproc
.LVL221:
	PUSH	{r6, r7, r8, lr}
	.cfi_def_cfa_offset 16
	MOV	r6,r0
	MOV	r7,r1
.LM346:
	MOV	r0,#1
.LVL222:
	LD	r5,#1073744896
	CMP	r6,r5
	JZ	.L290
.LM347:
	LD	r5,#1073745024
	CMP	r6,r5
	JZ	.L290
.LM348:
	LD	r5,#1073750144
	CMP	r6,r5
	JZ	.L290
	LD	r5,#1073750272
	CMP	r6,r5
	JZ	.L290
	MOV	r0,#0
.L290:
.LM349:
	LD	r5,#CHECK_RESTRICTION
	MOV	r8,r5
	LJMP	r5
.LVL223:
.LM350:
	MOV	r0,#1
	CMP	r7,r0
	JLS	.L292
	MOV	r0,#0
.L292:
	LJMP	r8
.LVL224:
.LM351:
	CMP	r7,#0
	JNZ	.L298
.LM352:
// inline asm begin
	// 655 "../src/kf32a9k1xxx_spi.c" 1
	CLR [r6], #24
	// 0 "" 2
.LM353:
// inline asm end
	POP	{r6, r7, r8}
	.cfi_remember_state
	.cfi_def_cfa_offset 4
.LVL225:
	POP	lr
	.cfi_def_cfa_offset 0
	JMP	lr
.LVL226:
.L298:
	.cfi_restore_state
.LM354:
// inline asm begin
	// 650 "../src/kf32a9k1xxx_spi.c" 1
	SET [r6], #24
	// 0 "" 2
.LM355:
// inline asm end
	POP	{r6, r7, r8}
	.cfi_def_cfa_offset 4
.LVL227:
	POP	lr
	.cfi_def_cfa_offset 0
	JMP	lr
	.cfi_endproc
.LFE24:
	.size	SPI_MAIN_CLOCK_OUT_Enable, .-SPI_MAIN_CLOCK_OUT_Enable
	.section .text$SPI_I2S_Idle_MCK_Outpue_Select
	.type	.text$SPI_I2S_Idle_MCK_Outpue_Select$scode_local_25, @function
	.text$SPI_I2S_Idle_MCK_Outpue_Select$scode_local_25:
	.align	1
	.export	SPI_I2S_Idle_MCK_Outpue_Select
	.type	SPI_I2S_Idle_MCK_Outpue_Select, @function
SPI_I2S_Idle_MCK_Outpue_Select:
.LFB25:
.LM356:
	.cfi_startproc
.LVL228:
	PUSH	{r6, r7, r8, lr}
	.cfi_def_cfa_offset 16
	MOV	r6,r0
	MOV	r7,r1
.LM357:
	MOV	r0,#1
.LVL229:
	LD	r5,#1073744896
	CMP	r6,r5
	JZ	.L300
.LM358:
	LD	r5,#1073745024
	CMP	r6,r5
	JZ	.L300
.LM359:
	LD	r5,#1073750144
	CMP	r6,r5
	JZ	.L300
	LD	r5,#1073750272
	CMP	r6,r5
	JZ	.L300
	MOV	r0,#0
.L300:
.LM360:
	LD	r5,#CHECK_RESTRICTION
	MOV	r8,r5
	LJMP	r5
.LVL230:
.LM361:
	MOV	r0,#1
	CMP	r7,r0
	JLS	.L302
	MOV	r0,#0
.L302:
	LJMP	r8
.LVL231:
.LM362:
	ADD	r6,r6,#4
.LVL232:
.LM363:
	CMP	r7,#0
	JNZ	.L308
.LM364:
// inline asm begin
	// 682 "../src/kf32a9k1xxx_spi.c" 1
	CLR [r6], #18
	// 0 "" 2
.LM365:
// inline asm end
	POP	{r6, r7, r8}
	.cfi_remember_state
	.cfi_def_cfa_offset 4
.LVL233:
	POP	lr
	.cfi_def_cfa_offset 0
	JMP	lr
.LVL234:
.L308:
	.cfi_restore_state
.LM366:
// inline asm begin
	// 677 "../src/kf32a9k1xxx_spi.c" 1
	SET [r6], #18
	// 0 "" 2
.LM367:
// inline asm end
	POP	{r6, r7, r8}
	.cfi_def_cfa_offset 4
.LVL235:
	POP	lr
	.cfi_def_cfa_offset 0
	JMP	lr
	.cfi_endproc
.LFE25:
	.size	SPI_I2S_Idle_MCK_Outpue_Select, .-SPI_I2S_Idle_MCK_Outpue_Select
	.section .text$SPI_Receive_Overflow_INT_Enable
	.type	.text$SPI_Receive_Overflow_INT_Enable$scode_local_26, @function
	.text$SPI_Receive_Overflow_INT_Enable$scode_local_26:
	.align	1
	.export	SPI_Receive_Overflow_INT_Enable
	.type	SPI_Receive_Overflow_INT_Enable, @function
SPI_Receive_Overflow_INT_Enable:
.LFB26:
.LM368:
	.cfi_startproc
.LVL236:
	PUSH	{r6, r7, r8, lr}
	.cfi_def_cfa_offset 16
	MOV	r6,r0
	MOV	r7,r1
.LM369:
	MOV	r0,#1
.LVL237:
	LD	r5,#1073744896
	CMP	r6,r5
	JZ	.L310
.LM370:
	LD	r5,#1073745024
	CMP	r6,r5
	JZ	.L310
.LM371:
	LD	r5,#1073750144
	CMP	r6,r5
	JZ	.L310
	LD	r5,#1073750272
	CMP	r6,r5
	JZ	.L310
	MOV	r0,#0
.L310:
.LM372:
	LD	r5,#CHECK_RESTRICTION
	MOV	r8,r5
	LJMP	r5
.LVL238:
.LM373:
	MOV	r0,#1
	CMP	r7,r0
	JLS	.L312
	MOV	r0,#0
.L312:
	LJMP	r8
.LVL239:
.LM374:
	ADD	r6,#12
.LVL240:
.LM375:
	CMP	r7,#0
	JNZ	.L318
.LM376:
// inline asm begin
	// 717 "../src/kf32a9k1xxx_spi.c" 1
	CLR [r6], #12
	// 0 "" 2
.LM377:
// inline asm end
	POP	{r6, r7, r8}
	.cfi_remember_state
	.cfi_def_cfa_offset 4
.LVL241:
	POP	lr
	.cfi_def_cfa_offset 0
	JMP	lr
.LVL242:
.L318:
	.cfi_restore_state
.LM378:
// inline asm begin
	// 712 "../src/kf32a9k1xxx_spi.c" 1
	SET [r6], #12
	// 0 "" 2
.LM379:
// inline asm end
	POP	{r6, r7, r8}
	.cfi_def_cfa_offset 4
.LVL243:
	POP	lr
	.cfi_def_cfa_offset 0
	JMP	lr
	.cfi_endproc
.LFE26:
	.size	SPI_Receive_Overflow_INT_Enable, .-SPI_Receive_Overflow_INT_Enable
	.section .text$SPI_Transmit_Overflow_INT_Enable
	.type	.text$SPI_Transmit_Overflow_INT_Enable$scode_local_27, @function
	.text$SPI_Transmit_Overflow_INT_Enable$scode_local_27:
	.align	1
	.export	SPI_Transmit_Overflow_INT_Enable
	.type	SPI_Transmit_Overflow_INT_Enable, @function
SPI_Transmit_Overflow_INT_Enable:
.LFB27:
.LM380:
	.cfi_startproc
.LVL244:
	PUSH	{r6, r7, r8, lr}
	.cfi_def_cfa_offset 16
	MOV	r6,r0
	MOV	r7,r1
.LM381:
	MOV	r0,#1
.LVL245:
	LD	r5,#1073744896
	CMP	r6,r5
	JZ	.L320
.LM382:
	LD	r5,#1073745024
	CMP	r6,r5
	JZ	.L320
.LM383:
	LD	r5,#1073750144
	CMP	r6,r5
	JZ	.L320
	LD	r5,#1073750272
	CMP	r6,r5
	JZ	.L320
	MOV	r0,#0
.L320:
.LM384:
	LD	r5,#CHECK_RESTRICTION
	MOV	r8,r5
	LJMP	r5
.LVL246:
.LM385:
	MOV	r0,#1
	CMP	r7,r0
	JLS	.L322
	MOV	r0,#0
.L322:
	LJMP	r8
.LVL247:
.LM386:
	ADD	r6,#12
.LVL248:
.LM387:
	CMP	r7,#0
	JNZ	.L328
.LM388:
// inline asm begin
	// 743 "../src/kf32a9k1xxx_spi.c" 1
	CLR [r6], #13
	// 0 "" 2
.LM389:
// inline asm end
	POP	{r6, r7, r8}
	.cfi_remember_state
	.cfi_def_cfa_offset 4
.LVL249:
	POP	lr
	.cfi_def_cfa_offset 0
	JMP	lr
.LVL250:
.L328:
	.cfi_restore_state
.LM390:
// inline asm begin
	// 738 "../src/kf32a9k1xxx_spi.c" 1
	SET [r6], #13
	// 0 "" 2
.LM391:
// inline asm end
	POP	{r6, r7, r8}
	.cfi_def_cfa_offset 4
.LVL251:
	POP	lr
	.cfi_def_cfa_offset 0
	JMP	lr
	.cfi_endproc
.LFE27:
	.size	SPI_Transmit_Overflow_INT_Enable, .-SPI_Transmit_Overflow_INT_Enable
	.section .text$SPI_RNEIE_INT_Enable
	.type	.text$SPI_RNEIE_INT_Enable$scode_local_28, @function
	.text$SPI_RNEIE_INT_Enable$scode_local_28:
	.align	1
	.export	SPI_RNEIE_INT_Enable
	.type	SPI_RNEIE_INT_Enable, @function
SPI_RNEIE_INT_Enable:
.LFB28:
.LM392:
	.cfi_startproc
.LVL252:
	PUSH	{r6, r7, r8, lr}
	.cfi_def_cfa_offset 16
	MOV	r6,r0
	MOV	r7,r1
.LM393:
	MOV	r0,#1
.LVL253:
	LD	r5,#1073744896
	CMP	r6,r5
	JZ	.L330
.LM394:
	LD	r5,#1073745024
	CMP	r6,r5
	JZ	.L330
.LM395:
	LD	r5,#1073750144
	CMP	r6,r5
	JZ	.L330
	LD	r5,#1073750272
	CMP	r6,r5
	JZ	.L330
	MOV	r0,#0
.L330:
.LM396:
	LD	r5,#CHECK_RESTRICTION
	MOV	r8,r5
	LJMP	r5
.LVL254:
.LM397:
	MOV	r0,#1
	CMP	r7,r0
	JLS	.L332
	MOV	r0,#0
.L332:
	LJMP	r8
.LVL255:
.LM398:
	ADD	r6,#12
.LVL256:
.LM399:
	CMP	r7,#0
	JNZ	.L338
.LM400:
// inline asm begin
	// 769 "../src/kf32a9k1xxx_spi.c" 1
	CLR [r6], #14
	// 0 "" 2
.LM401:
// inline asm end
	POP	{r6, r7, r8}
	.cfi_remember_state
	.cfi_def_cfa_offset 4
.LVL257:
	POP	lr
	.cfi_def_cfa_offset 0
	JMP	lr
.LVL258:
.L338:
	.cfi_restore_state
.LM402:
// inline asm begin
	// 764 "../src/kf32a9k1xxx_spi.c" 1
	SET [r6], #14
	// 0 "" 2
.LM403:
// inline asm end
	POP	{r6, r7, r8}
	.cfi_def_cfa_offset 4
.LVL259:
	POP	lr
	.cfi_def_cfa_offset 0
	JMP	lr
	.cfi_endproc
.LFE28:
	.size	SPI_RNEIE_INT_Enable, .-SPI_RNEIE_INT_Enable
	.section .text$SPI_TNEIE_INT_Enable
	.type	.text$SPI_TNEIE_INT_Enable$scode_local_29, @function
	.text$SPI_TNEIE_INT_Enable$scode_local_29:
	.align	1
	.export	SPI_TNEIE_INT_Enable
	.type	SPI_TNEIE_INT_Enable, @function
SPI_TNEIE_INT_Enable:
.LFB29:
.LM404:
	.cfi_startproc
.LVL260:
	PUSH	{r6, r7, r8, lr}
	.cfi_def_cfa_offset 16
	MOV	r6,r0
	MOV	r7,r1
.LM405:
	MOV	r0,#1
.LVL261:
	LD	r5,#1073744896
	CMP	r6,r5
	JZ	.L340
.LM406:
	LD	r5,#1073745024
	CMP	r6,r5
	JZ	.L340
.LM407:
	LD	r5,#1073750144
	CMP	r6,r5
	JZ	.L340
	LD	r5,#1073750272
	CMP	r6,r5
	JZ	.L340
	MOV	r0,#0
.L340:
.LM408:
	LD	r5,#CHECK_RESTRICTION
	MOV	r8,r5
	LJMP	r5
.LVL262:
.LM409:
	MOV	r0,#1
	CMP	r7,r0
	JLS	.L342
	MOV	r0,#0
.L342:
	LJMP	r8
.LVL263:
.LM410:
	ADD	r6,#12
.LVL264:
.LM411:
	CMP	r7,#0
	JNZ	.L348
.LM412:
// inline asm begin
	// 795 "../src/kf32a9k1xxx_spi.c" 1
	CLR [r6], #15
	// 0 "" 2
.LM413:
// inline asm end
	POP	{r6, r7, r8}
	.cfi_remember_state
	.cfi_def_cfa_offset 4
.LVL265:
	POP	lr
	.cfi_def_cfa_offset 0
	JMP	lr
.LVL266:
.L348:
	.cfi_restore_state
.LM414:
// inline asm begin
	// 790 "../src/kf32a9k1xxx_spi.c" 1
	SET [r6], #15
	// 0 "" 2
.LM415:
// inline asm end
	POP	{r6, r7, r8}
	.cfi_def_cfa_offset 4
.LVL267:
	POP	lr
	.cfi_def_cfa_offset 0
	JMP	lr
	.cfi_endproc
.LFE29:
	.size	SPI_TNEIE_INT_Enable, .-SPI_TNEIE_INT_Enable
	.section .text$SPI_Receive_DMA_INT_Enable
	.type	.text$SPI_Receive_DMA_INT_Enable$scode_local_30, @function
	.text$SPI_Receive_DMA_INT_Enable$scode_local_30:
	.align	1
	.export	SPI_Receive_DMA_INT_Enable
	.type	SPI_Receive_DMA_INT_Enable, @function
SPI_Receive_DMA_INT_Enable:
.LFB30:
.LM416:
	.cfi_startproc
.LVL268:
	PUSH	{r6, r7, r8, lr}
	.cfi_def_cfa_offset 16
	MOV	r6,r0
	MOV	r7,r1
.LM417:
	MOV	r0,#1
.LVL269:
	LD	r5,#1073744896
	CMP	r6,r5
	JZ	.L350
.LM418:
	LD	r5,#1073745024
	CMP	r6,r5
	JZ	.L350
.LM419:
	LD	r5,#1073750144
	CMP	r6,r5
	JZ	.L350
	LD	r5,#1073750272
	CMP	r6,r5
	JZ	.L350
	MOV	r0,#0
.L350:
.LM420:
	LD	r5,#CHECK_RESTRICTION
	MOV	r8,r5
	LJMP	r5
.LVL270:
.LM421:
	MOV	r0,#1
	CMP	r7,r0
	JLS	.L352
	MOV	r0,#0
.L352:
	LJMP	r8
.LVL271:
.LM422:
	ADD	r6,#12
.LVL272:
.LM423:
	CMP	r7,#0
	JNZ	.L358
.LM424:
// inline asm begin
	// 821 "../src/kf32a9k1xxx_spi.c" 1
	CLR [r6], #20
	// 0 "" 2
.LM425:
// inline asm end
	POP	{r6, r7, r8}
	.cfi_remember_state
	.cfi_def_cfa_offset 4
.LVL273:
	POP	lr
	.cfi_def_cfa_offset 0
	JMP	lr
.LVL274:
.L358:
	.cfi_restore_state
.LM426:
// inline asm begin
	// 816 "../src/kf32a9k1xxx_spi.c" 1
	SET [r6], #20
	// 0 "" 2
.LM427:
// inline asm end
	POP	{r6, r7, r8}
	.cfi_def_cfa_offset 4
.LVL275:
	POP	lr
	.cfi_def_cfa_offset 0
	JMP	lr
	.cfi_endproc
.LFE30:
	.size	SPI_Receive_DMA_INT_Enable, .-SPI_Receive_DMA_INT_Enable
	.section .text$SPI_Transmit_DMA_INT_Enable
	.type	.text$SPI_Transmit_DMA_INT_Enable$scode_local_31, @function
	.text$SPI_Transmit_DMA_INT_Enable$scode_local_31:
	.align	1
	.export	SPI_Transmit_DMA_INT_Enable
	.type	SPI_Transmit_DMA_INT_Enable, @function
SPI_Transmit_DMA_INT_Enable:
.LFB31:
.LM428:
	.cfi_startproc
.LVL276:
	PUSH	{r6, r7, r8, lr}
	.cfi_def_cfa_offset 16
	MOV	r6,r0
	MOV	r7,r1
.LM429:
	MOV	r0,#1
.LVL277:
	LD	r5,#1073744896
	CMP	r6,r5
	JZ	.L360
.LM430:
	LD	r5,#1073745024
	CMP	r6,r5
	JZ	.L360
.LM431:
	LD	r5,#1073750144
	CMP	r6,r5
	JZ	.L360
	LD	r5,#1073750272
	CMP	r6,r5
	JZ	.L360
	MOV	r0,#0
.L360:
.LM432:
	LD	r5,#CHECK_RESTRICTION
	MOV	r8,r5
	LJMP	r5
.LVL278:
.LM433:
	MOV	r0,#1
	CMP	r7,r0
	JLS	.L362
	MOV	r0,#0
.L362:
	LJMP	r8
.LVL279:
.LM434:
	ADD	r6,#12
.LVL280:
.LM435:
	CMP	r7,#0
	JNZ	.L368
.LM436:
// inline asm begin
	// 847 "../src/kf32a9k1xxx_spi.c" 1
	CLR [r6], #21
	// 0 "" 2
.LM437:
// inline asm end
	POP	{r6, r7, r8}
	.cfi_remember_state
	.cfi_def_cfa_offset 4
.LVL281:
	POP	lr
	.cfi_def_cfa_offset 0
	JMP	lr
.LVL282:
.L368:
	.cfi_restore_state
.LM438:
// inline asm begin
	// 842 "../src/kf32a9k1xxx_spi.c" 1
	SET [r6], #21
	// 0 "" 2
.LM439:
// inline asm end
	POP	{r6, r7, r8}
	.cfi_def_cfa_offset 4
.LVL283:
	POP	lr
	.cfi_def_cfa_offset 0
	JMP	lr
	.cfi_endproc
.LFE31:
	.size	SPI_Transmit_DMA_INT_Enable, .-SPI_Transmit_DMA_INT_Enable
	.section .text$SPI_Transmit_CHSIDE_INT_Enable
	.type	.text$SPI_Transmit_CHSIDE_INT_Enable$scode_local_32, @function
	.text$SPI_Transmit_CHSIDE_INT_Enable$scode_local_32:
	.align	1
	.export	SPI_Transmit_CHSIDE_INT_Enable
	.type	SPI_Transmit_CHSIDE_INT_Enable, @function
SPI_Transmit_CHSIDE_INT_Enable:
.LFB32:
.LM440:
	.cfi_startproc
.LVL284:
	PUSH	{r6, r7, r8, lr}
	.cfi_def_cfa_offset 16
	MOV	r6,r0
	MOV	r7,r1
.LM441:
	MOV	r0,#1
.LVL285:
	LD	r5,#1073744896
	CMP	r6,r5
	JZ	.L370
.LM442:
	LD	r5,#1073745024
	CMP	r6,r5
	JZ	.L370
.LM443:
	LD	r5,#1073750144
	CMP	r6,r5
	JZ	.L370
	LD	r5,#1073750272
	CMP	r6,r5
	JZ	.L370
	MOV	r0,#0
.L370:
.LM444:
	LD	r5,#CHECK_RESTRICTION
	MOV	r8,r5
	LJMP	r5
.LVL286:
.LM445:
	MOV	r0,#1
	CMP	r7,r0
	JLS	.L372
	MOV	r0,#0
.L372:
	LJMP	r8
.LVL287:
.LM446:
	ADD	r6,#12
.LVL288:
.LM447:
	CMP	r7,#0
	JNZ	.L378
.LM448:
// inline asm begin
	// 873 "../src/kf32a9k1xxx_spi.c" 1
	CLR [r6], #3
	// 0 "" 2
.LM449:
// inline asm end
	POP	{r6, r7, r8}
	.cfi_remember_state
	.cfi_def_cfa_offset 4
.LVL289:
	POP	lr
	.cfi_def_cfa_offset 0
	JMP	lr
.LVL290:
.L378:
	.cfi_restore_state
.LM450:
// inline asm begin
	// 868 "../src/kf32a9k1xxx_spi.c" 1
	SET [r6], #3
	// 0 "" 2
.LM451:
// inline asm end
	POP	{r6, r7, r8}
	.cfi_def_cfa_offset 4
.LVL291:
	POP	lr
	.cfi_def_cfa_offset 0
	JMP	lr
	.cfi_endproc
.LFE32:
	.size	SPI_Transmit_CHSIDE_INT_Enable, .-SPI_Transmit_CHSIDE_INT_Enable
	.section .text$SPI_Get_BUSY_Flag
	.type	.text$SPI_Get_BUSY_Flag$scode_local_33, @function
	.text$SPI_Get_BUSY_Flag$scode_local_33:
	.align	1
	.export	SPI_Get_BUSY_Flag
	.type	SPI_Get_BUSY_Flag, @function
SPI_Get_BUSY_Flag:
.LFB33:
.LM452:
	.cfi_startproc
.LVL292:
	PUSH	{r6, lr}
	.cfi_def_cfa_offset 8
	MOV	r6,r0
.LM453:
	MOV	r0,#1
.LVL293:
	LD	r5,#1073744896
	CMP	r6,r5
	JZ	.L380
.LM454:
	LD	r5,#1073745024
	CMP	r6,r5
	JZ	.L380
.LM455:
	LD	r5,#1073750144
	CMP	r6,r5
	JZ	.L380
	LD	r5,#1073750272
	CMP	r6,r5
	JZ	.L380
	MOV	r0,#0
.L380:
.LM456:
	LD	r5,#CHECK_RESTRICTION
	LJMP	r5
.LVL294:
.LM457:
	LD.w	r0,[r6+#3]
.LM458:
	MOV	r5,#1
	ANL	r0,r0,r5
	POP	r6
	.cfi_def_cfa_offset 4
.LVL295:
	POP	lr
	.cfi_def_cfa_offset 0
	JMP	lr
	.cfi_endproc
.LFE33:
	.size	SPI_Get_BUSY_Flag, .-SPI_Get_BUSY_Flag
	.section .text$SPI_Get_Receive_Overflow_Flag
	.type	.text$SPI_Get_Receive_Overflow_Flag$scode_local_34, @function
	.text$SPI_Get_Receive_Overflow_Flag$scode_local_34:
	.align	1
	.export	SPI_Get_Receive_Overflow_Flag
	.type	SPI_Get_Receive_Overflow_Flag, @function
SPI_Get_Receive_Overflow_Flag:
.LFB34:
.LM459:
	.cfi_startproc
.LVL296:
	PUSH	{r6, lr}
	.cfi_def_cfa_offset 8
	MOV	r6,r0
.LM460:
	MOV	r0,#1
.LVL297:
	LD	r5,#1073744896
	CMP	r6,r5
	JZ	.L386
.LM461:
	LD	r5,#1073745024
	CMP	r6,r5
	JZ	.L386
.LM462:
	LD	r5,#1073750144
	CMP	r6,r5
	JZ	.L386
	LD	r5,#1073750272
	CMP	r6,r5
	JZ	.L386
	MOV	r0,#0
.L386:
.LM463:
	LD	r5,#CHECK_RESTRICTION
	LJMP	r5
.LVL298:
.LM464:
	LD.w	r0,[r6+#3]
	LSR	r0,#4
.LM465:
	MOV	r5,#1
	ANL	r0,r0,r5
	POP	r6
	.cfi_def_cfa_offset 4
.LVL299:
	POP	lr
	.cfi_def_cfa_offset 0
	JMP	lr
	.cfi_endproc
.LFE34:
	.size	SPI_Get_Receive_Overflow_Flag, .-SPI_Get_Receive_Overflow_Flag
	.section .text$SPI_Get_Transmit_Overflow_Flag
	.type	.text$SPI_Get_Transmit_Overflow_Flag$scode_local_35, @function
	.text$SPI_Get_Transmit_Overflow_Flag$scode_local_35:
	.align	1
	.export	SPI_Get_Transmit_Overflow_Flag
	.type	SPI_Get_Transmit_Overflow_Flag, @function
SPI_Get_Transmit_Overflow_Flag:
.LFB35:
.LM466:
	.cfi_startproc
.LVL300:
	PUSH	{r6, lr}
	.cfi_def_cfa_offset 8
	MOV	r6,r0
.LM467:
	MOV	r0,#1
.LVL301:
	LD	r5,#1073744896
	CMP	r6,r5
	JZ	.L392
.LM468:
	LD	r5,#1073745024
	CMP	r6,r5
	JZ	.L392
.LM469:
	LD	r5,#1073750144
	CMP	r6,r5
	JZ	.L392
	LD	r5,#1073750272
	CMP	r6,r5
	JZ	.L392
	MOV	r0,#0
.L392:
.LM470:
	LD	r5,#CHECK_RESTRICTION
	LJMP	r5
.LVL302:
.LM471:
	LD.w	r0,[r6+#3]
	LSR	r0,#5
.LM472:
	MOV	r5,#1
	ANL	r0,r0,r5
	POP	r6
	.cfi_def_cfa_offset 4
.LVL303:
	POP	lr
	.cfi_def_cfa_offset 0
	JMP	lr
	.cfi_endproc
.LFE35:
	.size	SPI_Get_Transmit_Overflow_Flag, .-SPI_Get_Transmit_Overflow_Flag
	.section .text$SPI_Get_Receive_Buf_Flag
	.type	.text$SPI_Get_Receive_Buf_Flag$scode_local_36, @function
	.text$SPI_Get_Receive_Buf_Flag$scode_local_36:
	.align	1
	.export	SPI_Get_Receive_Buf_Flag
	.type	SPI_Get_Receive_Buf_Flag, @function
SPI_Get_Receive_Buf_Flag:
.LFB36:
.LM473:
	.cfi_startproc
.LVL304:
	PUSH	{r6, lr}
	.cfi_def_cfa_offset 8
	MOV	r6,r0
.LM474:
	MOV	r0,#1
.LVL305:
	LD	r5,#1073744896
	CMP	r6,r5
	JZ	.L398
.LM475:
	LD	r5,#1073745024
	CMP	r6,r5
	JZ	.L398
.LM476:
	LD	r5,#1073750144
	CMP	r6,r5
	JZ	.L398
	LD	r5,#1073750272
	CMP	r6,r5
	JZ	.L398
	MOV	r0,#0
.L398:
.LM477:
	LD	r5,#CHECK_RESTRICTION
	LJMP	r5
.LVL306:
.LM478:
	LD.w	r0,[r6+#3]
	LSR	r0,#1
.LM479:
	MOV	r5,#1
	ANL	r0,r0,r5
	POP	r6
	.cfi_def_cfa_offset 4
.LVL307:
	POP	lr
	.cfi_def_cfa_offset 0
	JMP	lr
	.cfi_endproc
.LFE36:
	.size	SPI_Get_Receive_Buf_Flag, .-SPI_Get_Receive_Buf_Flag
	.section .text$SPI_Get_Transmit_Buf_Flag
	.type	.text$SPI_Get_Transmit_Buf_Flag$scode_local_37, @function
	.text$SPI_Get_Transmit_Buf_Flag$scode_local_37:
	.align	1
	.export	SPI_Get_Transmit_Buf_Flag
	.type	SPI_Get_Transmit_Buf_Flag, @function
SPI_Get_Transmit_Buf_Flag:
.LFB37:
.LM480:
	.cfi_startproc
.LVL308:
	PUSH	{r6, lr}
	.cfi_def_cfa_offset 8
	MOV	r6,r0
.LM481:
	MOV	r0,#1
.LVL309:
	LD	r5,#1073744896
	CMP	r6,r5
	JZ	.L404
.LM482:
	LD	r5,#1073745024
	CMP	r6,r5
	JZ	.L404
.LM483:
	LD	r5,#1073750144
	CMP	r6,r5
	JZ	.L404
	LD	r5,#1073750272
	CMP	r6,r5
	JZ	.L404
	MOV	r0,#0
.L404:
.LM484:
	LD	r5,#CHECK_RESTRICTION
	LJMP	r5
.LVL310:
.LM485:
	LD.w	r0,[r6+#3]
	LSR	r0,#2
.LM486:
	MOV	r5,#1
	ANL	r0,r0,r5
	POP	r6
	.cfi_def_cfa_offset 4
.LVL311:
	POP	lr
	.cfi_def_cfa_offset 0
	JMP	lr
	.cfi_endproc
.LFE37:
	.size	SPI_Get_Transmit_Buf_Flag, .-SPI_Get_Transmit_Buf_Flag
	.section .text$SPI_Clear_Receive_Overflow_INT_Flag
	.type	.text$SPI_Clear_Receive_Overflow_INT_Flag$scode_local_38, @function
	.text$SPI_Clear_Receive_Overflow_INT_Flag$scode_local_38:
	.align	1
	.export	SPI_Clear_Receive_Overflow_INT_Flag
	.type	SPI_Clear_Receive_Overflow_INT_Flag, @function
SPI_Clear_Receive_Overflow_INT_Flag:
.LFB38:
.LM487:
	.cfi_startproc
.LVL312:
	PUSH	{r6, lr}
	.cfi_def_cfa_offset 8
	MOV	r6,r0
.LM488:
	MOV	r0,#1
.LVL313:
	LD	r5,#1073744896
	CMP	r6,r5
	JZ	.L410
.LM489:
	LD	r5,#1073745024
	CMP	r6,r5
	JZ	.L410
.LM490:
	LD	r5,#1073750144
	CMP	r6,r5
	JZ	.L410
	LD	r5,#1073750272
	CMP	r6,r5
	JZ	.L410
	MOV	r0,#0
.L410:
.LM491:
	LD	r5,#CHECK_RESTRICTION
	LJMP	r5
.LVL314:
.LM492:
	MOV	r5,#12
	ADD	r3,r6,r5
// inline asm begin
	// 1014 "../src/kf32a9k1xxx_spi.c" 1
	SET [r3], #16
	// 0 "" 2
.LM493:
// inline asm end
	MOV	r4,#16
.L412:
.LM494:
	LD.w	r5,[r6+#3]
	ANL	r5,r5,r4
	JNZ	.L412
.LM495:
// inline asm begin
	// 1016 "../src/kf32a9k1xxx_spi.c" 1
	CLR [r3], #16
	// 0 "" 2
.LM496:
// inline asm end
	POP	r6
	.cfi_def_cfa_offset 4
.LVL315:
	POP	lr
	.cfi_def_cfa_offset 0
	JMP	lr
	.cfi_endproc
.LFE38:
	.size	SPI_Clear_Receive_Overflow_INT_Flag, .-SPI_Clear_Receive_Overflow_INT_Flag
	.section .text$SPI_Clear_Transmit_Overflow_INT_Flag
	.type	.text$SPI_Clear_Transmit_Overflow_INT_Flag$scode_local_39, @function
	.text$SPI_Clear_Transmit_Overflow_INT_Flag$scode_local_39:
	.align	1
	.export	SPI_Clear_Transmit_Overflow_INT_Flag
	.type	SPI_Clear_Transmit_Overflow_INT_Flag, @function
SPI_Clear_Transmit_Overflow_INT_Flag:
.LFB39:
.LM497:
	.cfi_startproc
.LVL316:
	PUSH	{r6, lr}
	.cfi_def_cfa_offset 8
	MOV	r6,r0
.LM498:
	MOV	r0,#1
.LVL317:
	LD	r5,#1073744896
	CMP	r6,r5
	JZ	.L418
.LM499:
	LD	r5,#1073745024
	CMP	r6,r5
	JZ	.L418
.LM500:
	LD	r5,#1073750144
	CMP	r6,r5
	JZ	.L418
	LD	r5,#1073750272
	CMP	r6,r5
	JZ	.L418
	MOV	r0,#0
.L418:
.LM501:
	LD	r5,#CHECK_RESTRICTION
	LJMP	r5
.LVL318:
.LM502:
	MOV	r5,#12
	ADD	r3,r6,r5
// inline asm begin
	// 1031 "../src/kf32a9k1xxx_spi.c" 1
	SET [r3], #17
	// 0 "" 2
.LM503:
// inline asm end
	MOV	r4,#32
.L420:
.LM504:
	LD.w	r5,[r6+#3]
	ANL	r5,r5,r4
	JNZ	.L420
.LM505:
// inline asm begin
	// 1033 "../src/kf32a9k1xxx_spi.c" 1
	CLR [r3], #17
	// 0 "" 2
.LM506:
// inline asm end
	POP	r6
	.cfi_def_cfa_offset 4
.LVL319:
	POP	lr
	.cfi_def_cfa_offset 0
	JMP	lr
	.cfi_endproc
.LFE39:
	.size	SPI_Clear_Transmit_Overflow_INT_Flag, .-SPI_Clear_Transmit_Overflow_INT_Flag
	.text	
.Letext0: