	.file	"kf32a9k1xxx_osc.c"
	.text	
.Ltext0:
	.cfi_sections	.debug_frame
	.section .text$OSC_SCLK_Configuration
	.type	.text$OSC_SCLK_Configuration$scode_local_1, @function
	.text$OSC_SCLK_Configuration$scode_local_1:
	.align	1
	.export	OSC_SCLK_Configuration
	.type	OSC_SCLK_Configuration, @function
OSC_SCLK_Configuration:
.LFB1:
.LM1:
	.cfi_startproc
.LVL0:
	PUSH	{r6, r7, lr}
	.cfi_def_cfa_offset 12
	MOV	r6,r0
.LVL1:
.LM2:
	LD.w	r5,[r0]
	LSR	r5,#3
	MOV	r0,#1
.LVL2:
	CMP	r5,#0
	JZ	.L2
	MOV	r0,#0
.L2:
	LD	r7,#CHECK_RESTRICTION
	LJMP	r7
.LVL3:
.LM3:
	MOV	r0,#1
	LD.w	r5,[r6+#1]
	CMP	r5,#7
	JLS	.L3
	MOV	r0,#0
.L3:
	LJMP	r7
.LVL4:
.LM4:
	LD.w	r5,[r6+#2]
	LSR	r5,#1
	MOV	r0,#1
	CMP	r5,#0
	JZ	.L4
	MOV	r0,#0
.L4:
	LJMP	r7
.LVL5:
.LM5:
	LD.w	r5,[r6+#3]
	LSR	r5,#4
	MOV	r0,#1
	CMP	r5,#0
	JZ	.L5
	MOV	r0,#0
.L5:
	LJMP	r7
.LVL6:
.LM6:
	LD.w	r5,[r6]
	CMP	r5,#3
	JZ	.L8
	CMP	r5,#4
	JZ	.L9
	CMP	r5,#2
	JZ	.L22
	LD	r2,#-458767
.LM7:
	MOV	r1,#0
.LVL7:
.L6:
.LM8:
	MOV	r4,#1
	LSL	r4,#30
	LD.w	r3,[r4]
.LVL8:
.LM9:
	LD.w	r0,[r6+#1]
	LSL	r0,#16
.LM10:
	ADD	r5,r5,r5
.LVL9:
.LM11:
	ORL	r5,r0,r5
.LM12:
	ORL	r5,r5,r1
.LBB50:
.LBB51:
.LM13:
	ANL	r3,r2,r3
.LVL10:
	ORL	r5,r5,r3
.LBE51:
.LBE50:
.LM14:
	ST.w	[r4],r5
.LM15:
	POP	{r6, r7}
	.cfi_remember_state
	.cfi_def_cfa_offset 4
	POP	lr
	.cfi_def_cfa_offset 0
	JMP	lr
.LVL11:
.L22:
	.cfi_restore_state
.LM16:
	MOV	r4,#1
	LSL	r4,#30
	LD.w	r2,[r4+#3]
.LVL12:
.LBB52:
.LBB53:
.LM17:
	LD	r3,#-15728641
	ANL	r3,r2,r3
.LBE53:
.LBE52:
.LM18:
	LD.w	r2,[r6+#3]
.LVL13:
	LSL	r2,#20
.LVL14:
.LBB55:
.LBB54:
.LM19:
	ORL	r3,r3,r2
.LBE54:
.LBE55:
.LM20:
	ST.w	[r4+#3],r3
.LM21:
	LD	r2,#-458767
.LVL15:
.LM22:
	MOV	r1,#0
.LM23:
	JMP	.L6
.LVL16:
.L9:
.LM24:
	LD.w	r1,[r6+#2]
	LSL	r1,#12
.LVL17:
.LM25:
	MOV	r4,#1
	LSL	r4,#30
	LD.w	r2,[r4+#3]
.LVL18:
.LBB56:
.LBB57:
.LM26:
	LD	r3,#-15728641
	ANL	r3,r2,r3
	LD.w	r2,[r6+#3]
.LVL19:
	ORL	r3,r3,r2
.LBE57:
.LBE56:
.LM27:
	ST.w	[r4+#3],r3
.LM28:
	LD	r2,#-462863
	JMP	.L6
.LVL20:
.L8:
.LM29:
	MOV	r4,#1
	LSL	r4,#30
	LD.w	r2,[r4+#3]
.LVL21:
.LBB58:
.LBB59:
.LM30:
	LD	r3,#-983041
	ANL	r3,r2,r3
.LBE59:
.LBE58:
.LM31:
	LD.w	r2,[r6+#3]
.LVL22:
	LSL	r2,#16
.LVL23:
.LBB61:
.LBB60:
.LM32:
	ORL	r3,r3,r2
.LBE60:
.LBE61:
.LM33:
	ST.w	[r4+#3],r3
.LM34:
	LD	r2,#-458767
.LVL24:
.LM35:
	MOV	r1,#0
.LM36:
	JMP	.L6
	.cfi_endproc
.LFE1:
	.size	OSC_SCLK_Configuration, .-OSC_SCLK_Configuration
	.section .text$OSC_HFCK_Configuration
	.type	.text$OSC_HFCK_Configuration$scode_local_2, @function
	.text$OSC_HFCK_Configuration$scode_local_2:
	.align	1
	.export	OSC_HFCK_Configuration
	.type	OSC_HFCK_Configuration, @function
OSC_HFCK_Configuration:
.LFB2:
.LM37:
	.cfi_startproc
.LVL25:
	PUSH	{r6, r7, lr}
	.cfi_def_cfa_offset 12
	MOV	r6,r0
.LVL26:
.LM38:
	LD.w	r5,[r0]
	LSR	r5,#3
	MOV	r0,#1
.LVL27:
	CMP	r5,#0
	JZ	.L24
	MOV	r0,#0
.L24:
	LD	r7,#CHECK_RESTRICTION
	LJMP	r7
.LVL28:
.LM39:
	MOV	r0,#1
	LD.w	r5,[r6+#1]
	CMP	r5,#7
	JLS	.L25
	MOV	r0,#0
.L25:
	LJMP	r7
.LVL29:
.LM40:
	LD.w	r5,[r6+#2]
	LSR	r5,#1
	MOV	r0,#1
	CMP	r5,#0
	JZ	.L26
	MOV	r0,#0
.L26:
	LJMP	r7
.LVL30:
.LM41:
	LD.w	r5,[r6+#3]
	LSR	r5,#4
	MOV	r0,#1
	CMP	r5,#0
	JZ	.L27
	MOV	r0,#0
.L27:
	LJMP	r7
.LVL31:
.LM42:
	LD.w	r5,[r6]
	CMP	r5,#2
	JZ	.L29
	CMP	r5,#4
	JZ	.L42
	LD	r2,#-15732225
.LM43:
	MOV	r1,#0
.LVL32:
.L28:
.LM44:
	MOV	r4,#1
	LSL	r4,#30
	LD.w	r3,[r4]
.LVL33:
.LM45:
	LD.w	r0,[r6+#1]
	LSL	r0,#20
.LM46:
	LSL	r5,#9
.LVL34:
.LM47:
	ORL	r5,r0,r5
.LM48:
	ORL	r5,r5,r1
.LVL35:
.LBB62:
.LBB63:
.LM49:
	ANL	r3,r2,r3
.LVL36:
	ORL	r5,r5,r3
.LVL37:
.LBE63:
.LBE62:
.LM50:
	ST.w	[r4],r5
.LM51:
	POP	{r6, r7}
	.cfi_remember_state
	.cfi_def_cfa_offset 4
	POP	lr
	.cfi_def_cfa_offset 0
	JMP	lr
.LVL38:
.L29:
	.cfi_restore_state
.LM52:
	MOV	r4,#1
	LSL	r4,#30
	LD.w	r2,[r4+#3]
.LVL39:
.LBB64:
.LBB65:
.LM53:
	LD	r3,#-15728641
	ANL	r3,r2,r3
.LBE65:
.LBE64:
.LM54:
	LD.w	r2,[r6+#3]
.LVL40:
	LSL	r2,#20
.LVL41:
.LBB67:
.LBB66:
.LM55:
	ORL	r3,r3,r2
.LBE66:
.LBE67:
.LM56:
	ST.w	[r4+#3],r3
.LM57:
	LD	r2,#-15732225
.LVL42:
.LM58:
	MOV	r1,#0
.LM59:
	JMP	.L28
.LVL43:
.L42:
.LM60:
	LD.w	r1,[r6+#2]
	LSL	r1,#12
.LVL44:
.LM61:
	MOV	r4,#1
	LSL	r4,#30
	LD.w	r2,[r4+#3]
.LVL45:
.LBB68:
.LBB69:
.LM62:
	LD	r3,#-15728641
	ANL	r3,r2,r3
	LD.w	r2,[r6+#3]
.LVL46:
	ORL	r3,r3,r2
.LBE69:
.LBE68:
.LM63:
	ST.w	[r4+#3],r3
.LM64:
	LD	r2,#-15736321
	JMP	.L28
	.cfi_endproc
.LFE2:
	.size	OSC_HFCK_Configuration, .-OSC_HFCK_Configuration
	.section .text$OSC_LFCK_Configuration
	.type	.text$OSC_LFCK_Configuration$scode_local_3, @function
	.text$OSC_LFCK_Configuration$scode_local_3:
	.align	1
	.export	OSC_LFCK_Configuration
	.type	OSC_LFCK_Configuration, @function
OSC_LFCK_Configuration:
.LFB3:
.LM65:
	.cfi_startproc
.LVL47:
	PUSH	{r6, r7, lr}
	.cfi_def_cfa_offset 12
	MOV	r6,r0
.LVL48:
.LM66:
	MOV	r0,#1
.LVL49:
	LD.w	r5,[r6]
	CMP	r5,r0
	JLS	.L44
	MOV	r0,#0
.L44:
	LD	r7,#CHECK_RESTRICTION
	LJMP	r7
.LVL50:
.LM67:
	MOV	r0,#1
	LD.w	r5,[r6+#1]
	CMP	r5,#7
	JLS	.L45
	MOV	r0,#0
.L45:
	LJMP	r7
.LVL51:
.LM68:
	LD.w	r0,[r6]
	CMP	r0,#1
	JZ	.L51
.LVL52:
.L46:
.LM69:
	MOV	r5,#1
	LSL	r5,#30
	LD.w	r3,[r5]
.LVL53:
.LBB70:
.LBB71:
.LM70:
	LD	r4,#-117440577
	ANL	r4,r3,r4
.LBE71:
.LBE70:
.LM71:
	LD.w	r3,[r6+#1]
.LVL54:
	LSL	r3,#24
.LM72:
	ORL	r4,r4,r3
	LSL	r0,#6
.LVL55:
.LBB73:
.LBB72:
.LM73:
	ORL	r0,r4,r0
.LBE72:
.LBE73:
.LM74:
	ST.w	[r5],r0
.LM75:
	POP	{r6, r7}
	.cfi_remember_state
	.cfi_def_cfa_offset 4
	POP	lr
	.cfi_def_cfa_offset 0
	JMP	lr
.LVL56:
.L51:
	.cfi_restore_state
.LM76:
	LD.w	r5,[r6+#3]
	LSR	r5,#4
	CMP	r5,#0
	JZ	.L47
	MOV	r0,#0
.L47:
	LJMP	r7
.LVL57:
.LM77:
	MOV	r5,#1
	LSL	r5,#30
	LD.w	r3,[r5+#3]
.LVL58:
.LBB74:
.LBB75:
.LM78:
	LD	r4,#-983041
	ANL	r4,r3,r4
.LBE75:
.LBE74:
.LM79:
	LD.w	r3,[r6+#3]
.LVL59:
	LSL	r3,#16
.LVL60:
.LBB77:
.LBB76:
.LM80:
	ORL	r4,r4,r3
.LBE76:
.LBE77:
.LM81:
	ST.w	[r5+#3],r4
	LD.w	r0,[r6]
	JMP	.L46
	.cfi_endproc
.LFE3:
	.size	OSC_LFCK_Configuration, .-OSC_LFCK_Configuration
	.section .text$OSC_Struct_Init
	.type	.text$OSC_Struct_Init$scode_local_4, @function
	.text$OSC_Struct_Init$scode_local_4:
	.align	1
	.export	OSC_Struct_Init
	.type	OSC_Struct_Init, @function
OSC_Struct_Init:
.LFB4:
.LM82:
	.cfi_startproc
.LVL61:
.LM83:
	MOV	r5,#0
	ST.w	[r0],r5
.LM84:
	MOV	r4,#7
	ST.w	[r0+#1],r4
.LM85:
	ST.w	[r0+#2],r5
.LM86:
	ST.w	[r0+#3],r5
.LM87:
	JMP	lr
	.cfi_endproc
.LFE4:
	.size	OSC_Struct_Init, .-OSC_Struct_Init
	.section .text$OSC_LFCK_Division_Config
	.type	.text$OSC_LFCK_Division_Config$scode_local_5, @function
	.text$OSC_LFCK_Division_Config$scode_local_5:
	.align	1
	.export	OSC_LFCK_Division_Config
	.type	OSC_LFCK_Division_Config, @function
OSC_LFCK_Division_Config:
.LFB5:
.LM88:
	.cfi_startproc
.LVL62:
	PUSH	{r6, lr}
	.cfi_def_cfa_offset 8
	MOV	r6,r0
.LVL63:
.LM89:
	MOV	r0,#1
.LVL64:
	CMP	r6,#7
	JLS	.L54
	MOV	r0,#0
.L54:
	LD	r5,#CHECK_RESTRICTION
	LJMP	r5
.LVL65:
.LM90:
	MOV	r5,#1
	LSL	r5,#30
	LD.w	r3,[r5]
.LVL66:
.LM91:
	LSL	r6,#24
.LVL67:
.LBB78:
.LBB79:
.LM92:
	LD	r4,#-117440513
	ANL	r4,r3,r4
	ORL	r6,r6,r4
.LVL68:
.LBE79:
.LBE78:
.LM93:
	ST.w	[r5],r6
.LM94:
	POP	r6
	.cfi_def_cfa_offset 4
	POP	lr
	.cfi_def_cfa_offset 0
	JMP	lr
	.cfi_endproc
.LFE5:
	.size	OSC_LFCK_Division_Config, .-OSC_LFCK_Division_Config
	.section .text$OSC_HFCK_Division_Config
	.type	.text$OSC_HFCK_Division_Config$scode_local_6, @function
	.text$OSC_HFCK_Division_Config$scode_local_6:
	.align	1
	.export	OSC_HFCK_Division_Config
	.type	OSC_HFCK_Division_Config, @function
OSC_HFCK_Division_Config:
.LFB6:
.LM95:
	.cfi_startproc
.LVL69:
	PUSH	{r6, lr}
	.cfi_def_cfa_offset 8
	MOV	r6,r0
.LVL70:
.LM96:
	MOV	r0,#1
.LVL71:
	CMP	r6,#9
	JLS	.L56
	MOV	r0,#0
.L56:
	LD	r5,#CHECK_RESTRICTION
	LJMP	r5
.LVL72:
.LM97:
	MOV	r5,#1
	LSL	r5,#30
	LD.w	r3,[r5]
.LVL73:
.LM98:
	LSL	r6,#20
.LVL74:
.LBB80:
.LBB81:
.LM99:
	LD	r4,#-15728641
	ANL	r4,r3,r4
	ORL	r6,r6,r4
.LVL75:
.LBE81:
.LBE80:
.LM100:
	ST.w	[r5],r6
.LM101:
	POP	r6
	.cfi_def_cfa_offset 4
	POP	lr
	.cfi_def_cfa_offset 0
	JMP	lr
	.cfi_endproc
.LFE6:
	.size	OSC_HFCK_Division_Config, .-OSC_HFCK_Division_Config
	.section .text$OSC_SCK_Division_Config
	.type	.text$OSC_SCK_Division_Config$scode_local_7, @function
	.text$OSC_SCK_Division_Config$scode_local_7:
	.align	1
	.export	OSC_SCK_Division_Config
	.type	OSC_SCK_Division_Config, @function
OSC_SCK_Division_Config:
.LFB7:
.LM102:
	.cfi_startproc
.LVL76:
	PUSH	{r6, lr}
	.cfi_def_cfa_offset 8
	MOV	r6,r0
.LVL77:
.LM103:
	MOV	r0,#1
.LVL78:
	CMP	r6,#7
	JLS	.L58
	MOV	r0,#0
.L58:
	LD	r5,#CHECK_RESTRICTION
	LJMP	r5
.LVL79:
.LM104:
	MOV	r5,#1
	LSL	r5,#30
	LD.w	r3,[r5]
.LVL80:
.LM105:
	LSL	r6,#16
.LVL81:
.LBB82:
.LBB83:
.LM106:
	LD	r4,#-458753
	ANL	r4,r3,r4
	ORL	r6,r6,r4
.LVL82:
.LBE83:
.LBE82:
.LM107:
	ST.w	[r5],r6
.LM108:
	POP	r6
	.cfi_def_cfa_offset 4
	POP	lr
	.cfi_def_cfa_offset 0
	JMP	lr
	.cfi_endproc
.LFE7:
	.size	OSC_SCK_Division_Config, .-OSC_SCK_Division_Config
	.section .text$OSC_PLL_Input_Source_Config
	.type	.text$OSC_PLL_Input_Source_Config$scode_local_8, @function
	.text$OSC_PLL_Input_Source_Config$scode_local_8:
	.align	1
	.export	OSC_PLL_Input_Source_Config
	.type	OSC_PLL_Input_Source_Config, @function
OSC_PLL_Input_Source_Config:
.LFB8:
.LM109:
	.cfi_startproc
.LVL83:
	PUSH	{r6, lr}
	.cfi_def_cfa_offset 8
	MOV	r6,r0
.LM110:
	MOV	r4,#1
	LSR	r5,r0,r4
	MOV	r0,r4
.LVL84:
	CMP	r5,#0
	JZ	.L60
	MOV	r0,#0
.L60:
	LD	r5,#CHECK_RESTRICTION
	LJMP	r5
.LVL85:
.LM111:
	MOV	r5,#1
	LSL	r5,#30
.LM112:
	CMP	r6,#0
	JNZ	.L66
.LM113:
// inline asm begin
	// 260 "../src/kf32a9k1xxx_osc.c" 1
	CLR [r5], #12
	// 0 "" 2
.LM114:
// inline asm end
	POP	r6
	.cfi_remember_state
	.cfi_def_cfa_offset 4
.LVL86:
	POP	lr
	.cfi_def_cfa_offset 0
	JMP	lr
.LVL87:
.L66:
	.cfi_restore_state
.LM115:
// inline asm begin
	// 255 "../src/kf32a9k1xxx_osc.c" 1
	SET [r5], #12
	// 0 "" 2
.LM116:
// inline asm end
	POP	r6
	.cfi_def_cfa_offset 4
.LVL88:
	POP	lr
	.cfi_def_cfa_offset 0
	JMP	lr
	.cfi_endproc
.LFE8:
	.size	OSC_PLL_Input_Source_Config, .-OSC_PLL_Input_Source_Config
	.section .text$OSC_HFCK_Source_Config
	.type	.text$OSC_HFCK_Source_Config$scode_local_9, @function
	.text$OSC_HFCK_Source_Config$scode_local_9:
	.align	1
	.export	OSC_HFCK_Source_Config
	.type	OSC_HFCK_Source_Config, @function
OSC_HFCK_Source_Config:
.LFB9:
.LM117:
	.cfi_startproc
.LVL89:
	PUSH	{r6, lr}
	.cfi_def_cfa_offset 8
	MOV	r6,r0
.LVL90:
.LM118:
	MOV	r4,#3
	LSR	r5,r0,r4
	MOV	r0,#1
.LVL91:
	CMP	r5,#0
	JZ	.L68
	MOV	r0,#0
.L68:
	LD	r5,#CHECK_RESTRICTION
	LJMP	r5
.LVL92:
.LM119:
	MOV	r5,#1
	LSL	r5,#30
	LD.w	r3,[r5]
.LVL93:
.LM120:
	LSL	r6,#9
.LVL94:
.LBB84:
.LBB85:
.LM121:
	LD	r4,#-3585
	ANL	r4,r3,r4
	ORL	r6,r6,r4
.LVL95:
.LBE85:
.LBE84:
.LM122:
	ST.w	[r5],r6
.LM123:
	POP	r6
	.cfi_def_cfa_offset 4
	POP	lr
	.cfi_def_cfa_offset 0
	JMP	lr
	.cfi_endproc
.LFE9:
	.size	OSC_HFCK_Source_Config, .-OSC_HFCK_Source_Config
	.section .text$OSC_HFCK_Enable
	.type	.text$OSC_HFCK_Enable$scode_local_10, @function
	.text$OSC_HFCK_Enable$scode_local_10:
	.align	1
	.export	OSC_HFCK_Enable
	.type	OSC_HFCK_Enable, @function
OSC_HFCK_Enable:
.LFB10:
.LM124:
	.cfi_startproc
.LVL96:
	PUSH	{r6, lr}
	.cfi_def_cfa_offset 8
	MOV	r6,r0
.LM125:
	MOV	r0,#1
.LVL97:
	CMP	r6,r0
	JLS	.L73
	MOV	r0,#0
.L73:
	LD	r5,#CHECK_RESTRICTION
	LJMP	r5
.LVL98:
.LM126:
	MOV	r5,#1
	LSL	r5,#30
.LM127:
	CMP	r6,#0
	JNZ	.L76
.LM128:
// inline asm begin
	// 307 "../src/kf32a9k1xxx_osc.c" 1
	CLR [r5], #8
	// 0 "" 2
.LM129:
// inline asm end
	POP	r6
	.cfi_remember_state
	.cfi_def_cfa_offset 4
.LVL99:
	POP	lr
	.cfi_def_cfa_offset 0
	JMP	lr
.LVL100:
.L76:
	.cfi_restore_state
.LM130:
// inline asm begin
	// 302 "../src/kf32a9k1xxx_osc.c" 1
	SET [r5], #8
	// 0 "" 2
.LM131:
// inline asm end
	POP	r6
	.cfi_def_cfa_offset 4
.LVL101:
	POP	lr
	.cfi_def_cfa_offset 0
	JMP	lr
	.cfi_endproc
.LFE10:
	.size	OSC_HFCK_Enable, .-OSC_HFCK_Enable
	.section .text$OSC_LFCK_Source_Config
	.type	.text$OSC_LFCK_Source_Config$scode_local_11, @function
	.text$OSC_LFCK_Source_Config$scode_local_11:
	.align	1
	.export	OSC_LFCK_Source_Config
	.type	OSC_LFCK_Source_Config, @function
OSC_LFCK_Source_Config:
.LFB11:
.LM132:
	.cfi_startproc
.LVL102:
	PUSH	{r6, lr}
	.cfi_def_cfa_offset 8
	MOV	r6,r0
.LM133:
	MOV	r0,#1
.LVL103:
	CMP	r6,r0
	JLS	.L78
	MOV	r0,#0
.L78:
	LD	r5,#CHECK_RESTRICTION
	LJMP	r5
.LVL104:
.LM134:
	MOV	r5,#1
	LSL	r5,#30
.LM135:
	CMP	r6,#0
	JNZ	.L81
.LM136:
// inline asm begin
	// 333 "../src/kf32a9k1xxx_osc.c" 1
	CLR [r5], #6
	// 0 "" 2
.LM137:
// inline asm end
	POP	r6
	.cfi_remember_state
	.cfi_def_cfa_offset 4
.LVL105:
	POP	lr
	.cfi_def_cfa_offset 0
	JMP	lr
.LVL106:
.L81:
	.cfi_restore_state
.LM138:
// inline asm begin
	// 328 "../src/kf32a9k1xxx_osc.c" 1
	SET [r5], #6
	// 0 "" 2
.LM139:
// inline asm end
	POP	r6
	.cfi_def_cfa_offset 4
.LVL107:
	POP	lr
	.cfi_def_cfa_offset 0
	JMP	lr
	.cfi_endproc
.LFE11:
	.size	OSC_LFCK_Source_Config, .-OSC_LFCK_Source_Config
	.section .text$OSC_LFCK_Enable
	.type	.text$OSC_LFCK_Enable$scode_local_12, @function
	.text$OSC_LFCK_Enable$scode_local_12:
	.align	1
	.export	OSC_LFCK_Enable
	.type	OSC_LFCK_Enable, @function
OSC_LFCK_Enable:
.LFB12:
.LM140:
	.cfi_startproc
.LVL108:
	PUSH	{r6, lr}
	.cfi_def_cfa_offset 8
	MOV	r6,r0
.LM141:
	MOV	r0,#1
.LVL109:
	CMP	r6,r0
	JLS	.L83
	MOV	r0,#0
.L83:
	LD	r5,#CHECK_RESTRICTION
	LJMP	r5
.LVL110:
.LM142:
	MOV	r5,#1
	LSL	r5,#30
.LM143:
	CMP	r6,#0
	JNZ	.L86
.LM144:
// inline asm begin
	// 358 "../src/kf32a9k1xxx_osc.c" 1
	CLR [r5], #4
	// 0 "" 2
.LM145:
// inline asm end
	POP	r6
	.cfi_remember_state
	.cfi_def_cfa_offset 4
.LVL111:
	POP	lr
	.cfi_def_cfa_offset 0
	JMP	lr
.LVL112:
.L86:
	.cfi_restore_state
.LM146:
// inline asm begin
	// 353 "../src/kf32a9k1xxx_osc.c" 1
	SET [r5], #4
	// 0 "" 2
.LM147:
// inline asm end
	POP	r6
	.cfi_def_cfa_offset 4
.LVL113:
	POP	lr
	.cfi_def_cfa_offset 0
	JMP	lr
	.cfi_endproc
.LFE12:
	.size	OSC_LFCK_Enable, .-OSC_LFCK_Enable
	.section .text$OSC_SCK_Source_Config
	.type	.text$OSC_SCK_Source_Config$scode_local_13, @function
	.text$OSC_SCK_Source_Config$scode_local_13:
	.align	1
	.export	OSC_SCK_Source_Config
	.type	OSC_SCK_Source_Config, @function
OSC_SCK_Source_Config:
.LFB13:
.LM148:
	.cfi_startproc
.LVL114:
	PUSH	{r6, lr}
	.cfi_def_cfa_offset 8
	MOV	r6,r0
.LVL115:
.LM149:
	MOV	r4,#3
	LSR	r5,r0,r4
	MOV	r0,#1
.LVL116:
	CMP	r5,#0
	JZ	.L88
	MOV	r0,#0
.L88:
	LD	r5,#CHECK_RESTRICTION
	LJMP	r5
.LVL117:
.LM150:
	MOV	r5,#1
	LSL	r5,#30
	LD.w	r3,[r5]
.LVL118:
.LM151:
	ADD	r6,r6,r6
.LVL119:
.LBB86:
.LBB87:
.LM152:
	MOV	r4,#14
	NOT	r4,r4
	ANL	r4,r3,r4
	ORL	r6,r6,r4
.LBE87:
.LBE86:
.LM153:
	ST.w	[r5],r6
.LM154:
	POP	r6
	.cfi_def_cfa_offset 4
	POP	lr
	.cfi_def_cfa_offset 0
	JMP	lr
	.cfi_endproc
.LFE13:
	.size	OSC_SCK_Source_Config, .-OSC_SCK_Source_Config
	.section .text$OSC_Backup_Write_Read_Enable
	.type	.text$OSC_Backup_Write_Read_Enable$scode_local_14, @function
	.text$OSC_Backup_Write_Read_Enable$scode_local_14:
	.align	1
	.export	OSC_Backup_Write_Read_Enable
	.type	OSC_Backup_Write_Read_Enable, @function
OSC_Backup_Write_Read_Enable:
.LFB14:
.LM155:
	.cfi_startproc
.LVL120:
	PUSH	{r6, lr}
	.cfi_def_cfa_offset 8
	MOV	r6,r0
.LM156:
	MOV	r0,#1
.LVL121:
	CMP	r6,r0
	JLS	.L93
	MOV	r0,#0
.L93:
	LD	r5,#CHECK_RESTRICTION
	LJMP	r5
.LVL122:
.LM157:
	MOV	r5,#1
	LSL	r5,#30
.LM158:
	CMP	r6,#0
	JNZ	.L96
.LM159:
// inline asm begin
	// 406 "../src/kf32a9k1xxx_osc.c" 1
	CLR [r5], #0
	// 0 "" 2
.LM160:
// inline asm end
	POP	r6
	.cfi_remember_state
	.cfi_def_cfa_offset 4
.LVL123:
	POP	lr
	.cfi_def_cfa_offset 0
	JMP	lr
.LVL124:
.L96:
	.cfi_restore_state
.LM161:
// inline asm begin
	// 401 "../src/kf32a9k1xxx_osc.c" 1
	SET [r5], #0
	// 0 "" 2
.LM162:
// inline asm end
	POP	r6
	.cfi_def_cfa_offset 4
.LVL125:
	POP	lr
	.cfi_def_cfa_offset 0
	JMP	lr
	.cfi_endproc
.LFE14:
	.size	OSC_Backup_Write_Read_Enable, .-OSC_Backup_Write_Read_Enable
	.section .text$OSC_SCLK_Output_Enable
	.type	.text$OSC_SCLK_Output_Enable$scode_local_15, @function
	.text$OSC_SCLK_Output_Enable$scode_local_15:
	.align	1
	.export	OSC_SCLK_Output_Enable
	.type	OSC_SCLK_Output_Enable, @function
OSC_SCLK_Output_Enable:
.LFB15:
.LM163:
	.cfi_startproc
.LVL126:
	PUSH	{r6, lr}
	.cfi_def_cfa_offset 8
	MOV	r6,r0
.LM164:
	MOV	r0,#1
.LVL127:
	CMP	r6,r0
	JLS	.L98
	MOV	r0,#0
.L98:
	LD	r5,#CHECK_RESTRICTION
	LJMP	r5
.LVL128:
.LM165:
	LD	r5,#1073741828
.LM166:
	CMP	r6,#0
	JNZ	.L101
.LM167:
// inline asm begin
	// 431 "../src/kf32a9k1xxx_osc.c" 1
	CLR [r5], #28
	// 0 "" 2
.LM168:
// inline asm end
	POP	r6
	.cfi_remember_state
	.cfi_def_cfa_offset 4
.LVL129:
	POP	lr
	.cfi_def_cfa_offset 0
	JMP	lr
.LVL130:
.L101:
	.cfi_restore_state
.LM169:
// inline asm begin
	// 426 "../src/kf32a9k1xxx_osc.c" 1
	SET [r5], #28
	// 0 "" 2
.LM170:
// inline asm end
	POP	r6
	.cfi_def_cfa_offset 4
.LVL131:
	POP	lr
	.cfi_def_cfa_offset 0
	JMP	lr
	.cfi_endproc
.LFE15:
	.size	OSC_SCLK_Output_Enable, .-OSC_SCLK_Output_Enable
	.section .text$OSC_SCLK_Output_Select
	.type	.text$OSC_SCLK_Output_Select$scode_local_16, @function
	.text$OSC_SCLK_Output_Select$scode_local_16:
	.align	1
	.export	OSC_SCLK_Output_Select
	.type	OSC_SCLK_Output_Select, @function
OSC_SCLK_Output_Select:
.LFB16:
.LM171:
	.cfi_startproc
.LVL132:
	PUSH	{r6, lr}
	.cfi_def_cfa_offset 8
	MOV	r6,r0
.LVL133:
.LM172:
	MOV	r4,#3
	LSR	r5,r0,r4
	MOV	r0,#1
.LVL134:
	CMP	r5,#0
	JZ	.L103
	MOV	r0,#0
.L103:
	LD	r5,#CHECK_RESTRICTION
	LJMP	r5
.LVL135:
.LM173:
	MOV	r5,#1
	LSL	r5,#30
	LD.w	r3,[r5+#1]
.LVL136:
.LM174:
	LSL	r6,#25
.LVL137:
.LBB88:
.LBB89:
.LM175:
	LD	r4,#-234881025
	ANL	r4,r3,r4
	ORL	r6,r6,r4
.LVL138:
.LBE89:
.LBE88:
.LM176:
	ST.w	[r5+#1],r6
.LM177:
	POP	r6
	.cfi_def_cfa_offset 4
	POP	lr
	.cfi_def_cfa_offset 0
	JMP	lr
	.cfi_endproc
.LFE16:
	.size	OSC_SCLK_Output_Select, .-OSC_SCLK_Output_Select
	.section .text$OSC_SCLK_Output_Division_Config
	.type	.text$OSC_SCLK_Output_Division_Config$scode_local_17, @function
	.text$OSC_SCLK_Output_Division_Config$scode_local_17:
	.align	1
	.export	OSC_SCLK_Output_Division_Config
	.type	OSC_SCLK_Output_Division_Config, @function
OSC_SCLK_Output_Division_Config:
.LFB17:
.LM178:
	.cfi_startproc
.LVL139:
	PUSH	{r6, lr}
	.cfi_def_cfa_offset 8
	MOV	r6,r0
.LVL140:
.LM179:
	MOV	r0,#1
.LVL141:
	CMP	r6,#7
	JLS	.L108
	MOV	r0,#0
.L108:
	LD	r5,#CHECK_RESTRICTION
	LJMP	r5
.LVL142:
.LM180:
	MOV	r5,#1
	LSL	r5,#30
	LD.w	r3,[r5+#1]
.LVL143:
.LM181:
	LSL	r6,#29
.LVL144:
.LBB90:
.LBB91:
.LM182:
	LD	r4,#536870911
	ANL	r4,r3,r4
	ORL	r6,r6,r4
.LVL145:
.LBE91:
.LBE90:
.LM183:
	ST.w	[r5+#1],r6
.LM184:
	POP	r6
	.cfi_def_cfa_offset 4
	POP	lr
	.cfi_def_cfa_offset 0
	JMP	lr
	.cfi_endproc
.LFE17:
	.size	OSC_SCLK_Output_Division_Config, .-OSC_SCLK_Output_Division_Config
	.section .text$OSC_Clock_Failure_Check_Enable
	.type	.text$OSC_Clock_Failure_Check_Enable$scode_local_18, @function
	.text$OSC_Clock_Failure_Check_Enable$scode_local_18:
	.align	1
	.export	OSC_Clock_Failure_Check_Enable
	.type	OSC_Clock_Failure_Check_Enable, @function
OSC_Clock_Failure_Check_Enable:
.LFB18:
.LM185:
	.cfi_startproc
.LVL146:
	PUSH	{r6, lr}
	.cfi_def_cfa_offset 8
	MOV	r6,r0
.LM186:
	MOV	r0,#1
.LVL147:
	CMP	r6,r0
	JLS	.L110
	MOV	r0,#0
.L110:
	LD	r5,#CHECK_RESTRICTION
	LJMP	r5
.LVL148:
.LM187:
	LD	r5,#1073741828
.LM188:
	CMP	r6,#0
	JNZ	.L113
.LM189:
// inline asm begin
	// 505 "../src/kf32a9k1xxx_osc.c" 1
	CLR [r5], #16
	// 0 "" 2
.LM190:
// inline asm end
	POP	r6
	.cfi_remember_state
	.cfi_def_cfa_offset 4
.LVL149:
	POP	lr
	.cfi_def_cfa_offset 0
	JMP	lr
.LVL150:
.L113:
	.cfi_restore_state
.LM191:
// inline asm begin
	// 500 "../src/kf32a9k1xxx_osc.c" 1
	SET [r5], #16
	// 0 "" 2
.LM192:
// inline asm end
	POP	r6
	.cfi_def_cfa_offset 4
.LVL151:
	POP	lr
	.cfi_def_cfa_offset 0
	JMP	lr
	.cfi_endproc
.LFE18:
	.size	OSC_Clock_Failure_Check_Enable, .-OSC_Clock_Failure_Check_Enable
	.section .text$OSC_Clock_Failure_Check_Division_Config
	.type	.text$OSC_Clock_Failure_Check_Division_Config$scode_local_19, @function
	.text$OSC_Clock_Failure_Check_Division_Config$scode_local_19:
	.align	1
	.export	OSC_Clock_Failure_Check_Division_Config
	.type	OSC_Clock_Failure_Check_Division_Config, @function
OSC_Clock_Failure_Check_Division_Config:
.LFB19:
.LM193:
	.cfi_startproc
.LVL152:
	PUSH	{r6, lr}
	.cfi_def_cfa_offset 8
	MOV	r6,r0
.LVL153:
.LM194:
	MOV	r4,#2
	LSR	r5,r0,r4
	MOV	r0,#1
.LVL154:
	CMP	r5,#0
	JZ	.L115
	MOV	r0,#0
.L115:
	LD	r5,#CHECK_RESTRICTION
	LJMP	r5
.LVL155:
.LM195:
	MOV	r5,#1
	LSL	r5,#30
	LD.w	r4,[r5+#1]
.LVL156:
.LM196:
	LSL	r6,#17
.LVL157:
.LBB92:
.LBB93:
.LM197:
	CLR	r4,#17
	CLR	r4,#18
.LVL158:
	ORL	r6,r6,r4
.LVL159:
.LBE93:
.LBE92:
.LM198:
	ST.w	[r5+#1],r6
.LM199:
	POP	r6
	.cfi_def_cfa_offset 4
	POP	lr
	.cfi_def_cfa_offset 0
	JMP	lr
	.cfi_endproc
.LFE19:
	.size	OSC_Clock_Failure_Check_Division_Config, .-OSC_Clock_Failure_Check_Division_Config
	.section .text$OSC_PLL_Multiple_Value_Select
	.type	.text$OSC_PLL_Multiple_Value_Select$scode_local_20, @function
	.text$OSC_PLL_Multiple_Value_Select$scode_local_20:
	.align	1
	.export	OSC_PLL_Multiple_Value_Select
	.type	OSC_PLL_Multiple_Value_Select, @function
OSC_PLL_Multiple_Value_Select:
.LFB20:
.LM200:
	.cfi_startproc
.LVL160:
	PUSH	{r6, r7, r8, r9, r10, lr}
	.cfi_def_cfa_offset 24
	MOV	r8,r0
	MOV	r9,r1
	MOV	r6,r2
.LVL161:
.LM201:
	MOV	r0,#1
.LVL162:
	LD	r5,#16383
	CMP	r8,r5
	JLS	.L120
	MOV	r0,#0
.L120:
	LD	r7,#CHECK_RESTRICTION
	LJMP	r7
.LVL163:
.LM202:
	MOV	r0,#1
	CMP	r9,#15
	JLS	.L121
	MOV	r0,#0
.L121:
	LD	r3,#CHECK_RESTRICTION
	MOV	r10,r3
	LJMP	r7
.LVL164:
.LM203:
	SUB	r5,r6,#1
	CMP	r5,#1
	JLS	.L122
.LM204:
	CMP	r6,#4
	JZ	.L123
.LM205:
	MOV	r10,#1
	CMP	r6,#8
	JZ	.L124
	MOV	r10,#0
.L124:
	ZXT.b	r10,r10
	MOV	r0,r10
	LJMP	r7
.LVL165:
.LM206:
	CMP	r10,#0
	JNZ	.L127
.LM207:
	CMP	r6,#2
	JZ	.L128
.L135:
.LM208:
	MOV	r4,#0
	CMP	r6,#1
	JZ	.L125
	MOV	r5,#20
	LSL	r4,r6,r5
.L125:
.LVL166:
.LM209:
	LD	r5,#1073751424
	LD.w	r2,[r5]
.LVL167:
.LM210:
	LSL	r8,#2
.LVL168:
.LBB94:
.LBB95:
.LM211:
	LD	r3,#-4194301
	ANL	r3,r2,r3
.LBE95:
.LBE94:
.LM212:
	ORL	r8,r3
	LSL	r9,#16
.LVL169:
.LM213:
	MOV	r3,r8
	ORL	r3,r9
.LBB97:
.LBB96:
.LM214:
	ORL	r4,r3,r4
.LVL170:
.LBE96:
.LBE97:
.LM215:
	ST.w	[r5],r4
.LM216:
	POP	{r6, r7, r8, r9, r10}
	.cfi_remember_state
	.cfi_def_cfa_offset 4
	POP	lr
	.cfi_def_cfa_offset 0
	JMP	lr
.LVL171:
.L122:
	.cfi_restore_state
.LM217:
	MOV	r0,#1
	LJMP	r10
.LVL172:
.LM218:
	CMP	r6,#2
	JNZ	.L135
.L128:
	MOV	r4,#1
	LSL	r4,#20
	JMP	.L125
.L123:
.LM219:
	MOV	r0,#1
	LJMP	r10
.LVL173:
	MOV	r4,#1
	LSL	r4,#21
	JMP	.L125
.L127:
.LM220:
	LD	r4,#3145728
	JMP	.L125
	.cfi_endproc
.LFE20:
	.size	OSC_PLL_Multiple_Value_Select, .-OSC_PLL_Multiple_Value_Select
	.section .text$OSC_PLL_RST
	.type	.text$OSC_PLL_RST$scode_local_21, @function
	.text$OSC_PLL_RST$scode_local_21:
	.align	1
	.export	OSC_PLL_RST
	.type	OSC_PLL_RST, @function
OSC_PLL_RST:
.LFB21:
.LM221:
	.cfi_startproc
.LM222:
	LD	r5,#1073751424
// inline asm begin
	// 573 "../src/kf32a9k1xxx_osc.c" 1
	SET [r5], #0
	// 0 "" 2
.LM223:
// inline asm end
	JMP	lr
	.cfi_endproc
.LFE21:
	.size	OSC_PLL_RST, .-OSC_PLL_RST
	.section .text$OSC_PLL_Start_Delay_Config
	.type	.text$OSC_PLL_Start_Delay_Config$scode_local_22, @function
	.text$OSC_PLL_Start_Delay_Config$scode_local_22:
	.align	1
	.export	OSC_PLL_Start_Delay_Config
	.type	OSC_PLL_Start_Delay_Config, @function
OSC_PLL_Start_Delay_Config:
.LFB22:
.LM224:
	.cfi_startproc
.LVL174:
	PUSH	{r6, lr}
	.cfi_def_cfa_offset 8
	MOV	r6,r0
.LVL175:
.LM225:
	MOV	r4,#4
	LSR	r5,r0,r4
	MOV	r0,#1
.LVL176:
	CMP	r5,#0
	JZ	.L138
	MOV	r0,#0
.L138:
	LD	r5,#CHECK_RESTRICTION
	LJMP	r5
.LVL177:
.LM226:
	MOV	r5,#1
	LSL	r5,#30
	LD.w	r3,[r5+#3]
.LVL178:
.LM227:
	LSL	r6,#24
.LVL179:
.LBB98:
.LBB99:
.LM228:
	LD	r4,#-251658241
	ANL	r4,r3,r4
	ORL	r6,r6,r4
.LVL180:
.LBE99:
.LBE98:
.LM229:
	ST.w	[r5+#3],r6
.LM230:
	POP	r6
	.cfi_def_cfa_offset 4
	POP	lr
	.cfi_def_cfa_offset 0
	JMP	lr
	.cfi_endproc
.LFE22:
	.size	OSC_PLL_Start_Delay_Config, .-OSC_PLL_Start_Delay_Config
	.section .text$OSC_EXTHF_Start_Delay_Config
	.type	.text$OSC_EXTHF_Start_Delay_Config$scode_local_23, @function
	.text$OSC_EXTHF_Start_Delay_Config$scode_local_23:
	.align	1
	.export	OSC_EXTHF_Start_Delay_Config
	.type	OSC_EXTHF_Start_Delay_Config, @function
OSC_EXTHF_Start_Delay_Config:
.LFB23:
.LM231:
	.cfi_startproc
.LVL181:
	PUSH	{r6, lr}
	.cfi_def_cfa_offset 8
	MOV	r6,r0
.LVL182:
.LM232:
	MOV	r4,#4
	LSR	r5,r0,r4
	MOV	r0,#1
.LVL183:
	CMP	r5,#0
	JZ	.L143
	MOV	r0,#0
.L143:
	LD	r5,#CHECK_RESTRICTION
	LJMP	r5
.LVL184:
.LM233:
	MOV	r5,#1
	LSL	r5,#30
	LD.w	r3,[r5+#3]
.LVL185:
.LM234:
	LSL	r6,#20
.LVL186:
.LBB100:
.LBB101:
.LM235:
	LD	r4,#-15728641
	ANL	r4,r3,r4
	ORL	r6,r6,r4
.LVL187:
.LBE101:
.LBE100:
.LM236:
	ST.w	[r5+#3],r6
.LM237:
	POP	r6
	.cfi_def_cfa_offset 4
	POP	lr
	.cfi_def_cfa_offset 0
	JMP	lr
	.cfi_endproc
.LFE23:
	.size	OSC_EXTHF_Start_Delay_Config, .-OSC_EXTHF_Start_Delay_Config
	.section .text$OSC_EXTLF_Start_Delay_Config
	.type	.text$OSC_EXTLF_Start_Delay_Config$scode_local_24, @function
	.text$OSC_EXTLF_Start_Delay_Config$scode_local_24:
	.align	1
	.export	OSC_EXTLF_Start_Delay_Config
	.type	OSC_EXTLF_Start_Delay_Config, @function
OSC_EXTLF_Start_Delay_Config:
.LFB24:
.LM238:
	.cfi_startproc
.LVL188:
	PUSH	{r6, lr}
	.cfi_def_cfa_offset 8
	MOV	r6,r0
.LVL189:
.LM239:
	MOV	r4,#4
	LSR	r5,r0,r4
	MOV	r0,#1
.LVL190:
	CMP	r5,#0
	JZ	.L148
	MOV	r0,#0
.L148:
	LD	r5,#CHECK_RESTRICTION
	LJMP	r5
.LVL191:
.LM240:
	MOV	r5,#1
	LSL	r5,#30
	LD.w	r3,[r5+#3]
.LVL192:
.LM241:
	LSL	r6,#16
.LVL193:
.LBB102:
.LBB103:
.LM242:
	LD	r4,#-983041
	ANL	r4,r3,r4
	ORL	r6,r6,r4
.LVL194:
.LBE103:
.LBE102:
.LM243:
	ST.w	[r5+#3],r6
.LM244:
	POP	r6
	.cfi_def_cfa_offset 4
	POP	lr
	.cfi_def_cfa_offset 0
	JMP	lr
	.cfi_endproc
.LFE24:
	.size	OSC_EXTLF_Start_Delay_Config, .-OSC_EXTLF_Start_Delay_Config
	.section .text$OSC_LP4M_Software_Enable
	.type	.text$OSC_LP4M_Software_Enable$scode_local_25, @function
	.text$OSC_LP4M_Software_Enable$scode_local_25:
	.align	1
	.export	OSC_LP4M_Software_Enable
	.type	OSC_LP4M_Software_Enable, @function
OSC_LP4M_Software_Enable:
.LFB25:
.LM245:
	.cfi_startproc
.LVL195:
	PUSH	{r6, lr}
	.cfi_def_cfa_offset 8
	MOV	r6,r0
.LM246:
	MOV	r0,#1
.LVL196:
	CMP	r6,r0
	JLS	.L153
	MOV	r0,#0
.L153:
	LD	r5,#CHECK_RESTRICTION
	LJMP	r5
.LVL197:
.LM247:
	LD	r5,#1073741836
.LM248:
	CMP	r6,#0
	JNZ	.L156
.LM249:
// inline asm begin
	// 680 "../src/kf32a9k1xxx_osc.c" 1
	CLR [r5], #6
	// 0 "" 2
.LM250:
// inline asm end
	POP	r6
	.cfi_remember_state
	.cfi_def_cfa_offset 4
.LVL198:
	POP	lr
	.cfi_def_cfa_offset 0
	JMP	lr
.LVL199:
.L156:
	.cfi_restore_state
.LM251:
// inline asm begin
	// 675 "../src/kf32a9k1xxx_osc.c" 1
	SET [r5], #6
	// 0 "" 2
.LM252:
// inline asm end
	POP	r6
	.cfi_def_cfa_offset 4
.LVL200:
	POP	lr
	.cfi_def_cfa_offset 0
	JMP	lr
	.cfi_endproc
.LFE25:
	.size	OSC_LP4M_Software_Enable, .-OSC_LP4M_Software_Enable
	.section .text$OSC_PLL_Software_Enable
	.type	.text$OSC_PLL_Software_Enable$scode_local_26, @function
	.text$OSC_PLL_Software_Enable$scode_local_26:
	.align	1
	.export	OSC_PLL_Software_Enable
	.type	OSC_PLL_Software_Enable, @function
OSC_PLL_Software_Enable:
.LFB26:
.LM253:
	.cfi_startproc
.LVL201:
	PUSH	{r6, lr}
	.cfi_def_cfa_offset 8
	MOV	r6,r0
.LM254:
	MOV	r0,#1
.LVL202:
	CMP	r6,r0
	JLS	.L158
	MOV	r0,#0
.L158:
	LD	r5,#CHECK_RESTRICTION
	LJMP	r5
.LVL203:
.LM255:
	LD	r5,#1073741836
.LM256:
	CMP	r6,#0
	JNZ	.L161
.LM257:
// inline asm begin
	// 704 "../src/kf32a9k1xxx_osc.c" 1
	CLR [r5], #4
	// 0 "" 2
.LM258:
// inline asm end
	POP	r6
	.cfi_remember_state
	.cfi_def_cfa_offset 4
.LVL204:
	POP	lr
	.cfi_def_cfa_offset 0
	JMP	lr
.LVL205:
.L161:
	.cfi_restore_state
.LM259:
// inline asm begin
	// 699 "../src/kf32a9k1xxx_osc.c" 1
	SET [r5], #4
	// 0 "" 2
.LM260:
// inline asm end
	POP	r6
	.cfi_def_cfa_offset 4
.LVL206:
	POP	lr
	.cfi_def_cfa_offset 0
	JMP	lr
	.cfi_endproc
.LFE26:
	.size	OSC_PLL_Software_Enable, .-OSC_PLL_Software_Enable
	.section .text$OSC_EXTHF_Software_Enable
	.type	.text$OSC_EXTHF_Software_Enable$scode_local_27, @function
	.text$OSC_EXTHF_Software_Enable$scode_local_27:
	.align	1
	.export	OSC_EXTHF_Software_Enable
	.type	OSC_EXTHF_Software_Enable, @function
OSC_EXTHF_Software_Enable:
.LFB27:
.LM261:
	.cfi_startproc
.LVL207:
	PUSH	{r6, lr}
	.cfi_def_cfa_offset 8
	MOV	r6,r0
.LM262:
	MOV	r0,#1
.LVL208:
	CMP	r6,r0
	JLS	.L163
	MOV	r0,#0
.L163:
	LD	r5,#CHECK_RESTRICTION
	LJMP	r5
.LVL209:
.LM263:
	LD	r5,#1073741836
.LM264:
	CMP	r6,#0
	JNZ	.L166
.LM265:
// inline asm begin
	// 728 "../src/kf32a9k1xxx_osc.c" 1
	CLR [r5], #3
	// 0 "" 2
.LM266:
// inline asm end
	POP	r6
	.cfi_remember_state
	.cfi_def_cfa_offset 4
.LVL210:
	POP	lr
	.cfi_def_cfa_offset 0
	JMP	lr
.LVL211:
.L166:
	.cfi_restore_state
.LM267:
// inline asm begin
	// 723 "../src/kf32a9k1xxx_osc.c" 1
	SET [r5], #3
	// 0 "" 2
.LM268:
// inline asm end
	POP	r6
	.cfi_def_cfa_offset 4
.LVL212:
	POP	lr
	.cfi_def_cfa_offset 0
	JMP	lr
	.cfi_endproc
.LFE27:
	.size	OSC_EXTHF_Software_Enable, .-OSC_EXTHF_Software_Enable
	.section .text$OSC_EXTLF_Software_Enable
	.type	.text$OSC_EXTLF_Software_Enable$scode_local_28, @function
	.text$OSC_EXTLF_Software_Enable$scode_local_28:
	.align	1
	.export	OSC_EXTLF_Software_Enable
	.type	OSC_EXTLF_Software_Enable, @function
OSC_EXTLF_Software_Enable:
.LFB28:
.LM269:
	.cfi_startproc
.LVL213:
	PUSH	{r6, lr}
	.cfi_def_cfa_offset 8
	MOV	r6,r0
.LM270:
	MOV	r0,#1
.LVL214:
	CMP	r6,r0
	JLS	.L168
	MOV	r0,#0
.L168:
	LD	r5,#CHECK_RESTRICTION
	LJMP	r5
.LVL215:
.LM271:
	LD	r5,#1073741836
.LM272:
	CMP	r6,#0
	JNZ	.L171
.LM273:
// inline asm begin
	// 752 "../src/kf32a9k1xxx_osc.c" 1
	CLR [r5], #2
	// 0 "" 2
.LM274:
// inline asm end
	POP	r6
	.cfi_remember_state
	.cfi_def_cfa_offset 4
.LVL216:
	POP	lr
	.cfi_def_cfa_offset 0
	JMP	lr
.LVL217:
.L171:
	.cfi_restore_state
.LM275:
// inline asm begin
	// 747 "../src/kf32a9k1xxx_osc.c" 1
	SET [r5], #2
	// 0 "" 2
.LM276:
// inline asm end
	POP	r6
	.cfi_def_cfa_offset 4
.LVL218:
	POP	lr
	.cfi_def_cfa_offset 0
	JMP	lr
	.cfi_endproc
.LFE28:
	.size	OSC_EXTLF_Software_Enable, .-OSC_EXTLF_Software_Enable
	.section .text$OSC_INTHF_Software_Enable
	.type	.text$OSC_INTHF_Software_Enable$scode_local_29, @function
	.text$OSC_INTHF_Software_Enable$scode_local_29:
	.align	1
	.export	OSC_INTHF_Software_Enable
	.type	OSC_INTHF_Software_Enable, @function
OSC_INTHF_Software_Enable:
.LFB29:
.LM277:
	.cfi_startproc
.LVL219:
	PUSH	{r6, lr}
	.cfi_def_cfa_offset 8
	MOV	r6,r0
.LM278:
	MOV	r0,#1
.LVL220:
	CMP	r6,r0
	JLS	.L173
	MOV	r0,#0
.L173:
	LD	r5,#CHECK_RESTRICTION
	LJMP	r5
.LVL221:
.LM279:
	LD	r5,#1073741836
.LM280:
	CMP	r6,#0
	JNZ	.L176
.LM281:
// inline asm begin
	// 776 "../src/kf32a9k1xxx_osc.c" 1
	CLR [r5], #1
	// 0 "" 2
.LM282:
// inline asm end
	POP	r6
	.cfi_remember_state
	.cfi_def_cfa_offset 4
.LVL222:
	POP	lr
	.cfi_def_cfa_offset 0
	JMP	lr
.LVL223:
.L176:
	.cfi_restore_state
.LM283:
// inline asm begin
	// 771 "../src/kf32a9k1xxx_osc.c" 1
	SET [r5], #1
	// 0 "" 2
.LM284:
// inline asm end
	POP	r6
	.cfi_def_cfa_offset 4
.LVL224:
	POP	lr
	.cfi_def_cfa_offset 0
	JMP	lr
	.cfi_endproc
.LFE29:
	.size	OSC_INTHF_Software_Enable, .-OSC_INTHF_Software_Enable
	.section .text$OSC_INTLF_Software_Enable
	.type	.text$OSC_INTLF_Software_Enable$scode_local_30, @function
	.text$OSC_INTLF_Software_Enable$scode_local_30:
	.align	1
	.export	OSC_INTLF_Software_Enable
	.type	OSC_INTLF_Software_Enable, @function
OSC_INTLF_Software_Enable:
.LFB30:
.LM285:
	.cfi_startproc
.LVL225:
	PUSH	{r6, lr}
	.cfi_def_cfa_offset 8
	MOV	r6,r0
.LM286:
	MOV	r0,#1
.LVL226:
	CMP	r6,r0
	JLS	.L178
	MOV	r0,#0
.L178:
	LD	r5,#CHECK_RESTRICTION
	LJMP	r5
.LVL227:
.LM287:
	LD	r5,#1073741836
.LM288:
	CMP	r6,#0
	JNZ	.L181
.LM289:
// inline asm begin
	// 800 "../src/kf32a9k1xxx_osc.c" 1
	CLR [r5], #0
	// 0 "" 2
.LM290:
// inline asm end
	POP	r6
	.cfi_remember_state
	.cfi_def_cfa_offset 4
.LVL228:
	POP	lr
	.cfi_def_cfa_offset 0
	JMP	lr
.LVL229:
.L181:
	.cfi_restore_state
.LM291:
// inline asm begin
	// 795 "../src/kf32a9k1xxx_osc.c" 1
	SET [r5], #0
	// 0 "" 2
.LM292:
// inline asm end
	POP	r6
	.cfi_def_cfa_offset 4
.LVL230:
	POP	lr
	.cfi_def_cfa_offset 0
	JMP	lr
	.cfi_endproc
.LFE30:
	.size	OSC_INTLF_Software_Enable, .-OSC_INTLF_Software_Enable
	.section .text$OSC_Zero_Drift_Config
	.type	.text$OSC_Zero_Drift_Config$scode_local_31, @function
	.text$OSC_Zero_Drift_Config$scode_local_31:
	.align	1
	.export	OSC_Zero_Drift_Config
	.type	OSC_Zero_Drift_Config, @function
OSC_Zero_Drift_Config:
.LFB31:
.LM293:
	.cfi_startproc
.LVL231:
	PUSH	{r6, r7, r8, lr}
	.cfi_def_cfa_offset 16
	MOV	r6,r0
	MOV	r7,r1
.LM294:
	MOV	r4,#16
	LSL	r5,r0,r4
	MOV	r0,#1
.LVL232:
	CMP	r5,#0
	JZ	.L183
	MOV	r0,#0
.L183:
	LD	r5,#CHECK_RESTRICTION
	MOV	r8,r5
	LJMP	r5
.LVL233:
.LM295:
	MOV	r0,#1
	CMP	r7,r0
	JLS	.L184
	MOV	r0,#0
.L184:
	LJMP	r8
.LVL234:
.LM296:
	MOV	r5,#1
	LSL	r5,#30
	LD.w	r4,[r5+#4]
.LM297:
	CMP	r7,#0
	JNZ	.L190
.LM298:
	NOT	r6,r6
.LVL235:
	ANL	r6,r6,r4
.LVL236:
	ST.w	[r5+#4],r6
.LM299:
	POP	{r6, r7, r8}
	.cfi_remember_state
	.cfi_def_cfa_offset 4
.LVL237:
	POP	lr
	.cfi_def_cfa_offset 0
	JMP	lr
.LVL238:
.L190:
	.cfi_restore_state
.LM300:
	ORL	r6,r6,r4
.LVL239:
	ST.w	[r5+#4],r6
.LM301:
	POP	{r6, r7, r8}
	.cfi_def_cfa_offset 4
.LVL240:
	POP	lr
	.cfi_def_cfa_offset 0
	JMP	lr
	.cfi_endproc
.LFE31:
	.size	OSC_Zero_Drift_Config, .-OSC_Zero_Drift_Config
	.section .text$OSC_Positive_Drift_Config
	.type	.text$OSC_Positive_Drift_Config$scode_local_32, @function
	.text$OSC_Positive_Drift_Config$scode_local_32:
	.align	1
	.export	OSC_Positive_Drift_Config
	.type	OSC_Positive_Drift_Config, @function
OSC_Positive_Drift_Config:
.LFB32:
.LM302:
	.cfi_startproc
.LVL241:
	PUSH	{r6, lr}
	.cfi_def_cfa_offset 8
	MOV	r6,r0
.LVL242:
.LM303:
	MOV	r0,#1
.LVL243:
	CMP	r6,#31
	JLS	.L192
	MOV	r0,#0
.L192:
	LD	r5,#CHECK_RESTRICTION
	LJMP	r5
.LVL244:
.LM304:
	MOV	r5,#1
	LSL	r5,#30
	LD.w	r3,[r5+#4]
.LVL245:
.LM305:
	LSL	r6,#5
.LVL246:
.LBB104:
.LBB105:
.LM306:
	LD	r4,#-993
	ANL	r4,r3,r4
	ORL	r6,r6,r4
.LVL247:
.LBE105:
.LBE104:
.LM307:
	ST.w	[r5+#4],r6
.LM308:
	POP	r6
	.cfi_def_cfa_offset 4
	POP	lr
	.cfi_def_cfa_offset 0
	JMP	lr
	.cfi_endproc
.LFE32:
	.size	OSC_Positive_Drift_Config, .-OSC_Positive_Drift_Config
	.section .text$OSC_Negative_Drift_Config
	.type	.text$OSC_Negative_Drift_Config$scode_local_33, @function
	.text$OSC_Negative_Drift_Config$scode_local_33:
	.align	1
	.export	OSC_Negative_Drift_Config
	.type	OSC_Negative_Drift_Config, @function
OSC_Negative_Drift_Config:
.LFB33:
.LM309:
	.cfi_startproc
.LVL248:
	PUSH	{r6, lr}
	.cfi_def_cfa_offset 8
	MOV	r6,r0
.LVL249:
.LM310:
	MOV	r0,#1
.LVL250:
	CMP	r6,#31
	JLS	.L194
	MOV	r0,#0
.L194:
	LD	r5,#CHECK_RESTRICTION
	LJMP	r5
.LVL251:
.LM311:
	MOV	r5,#1
	LSL	r5,#30
	LD.w	r3,[r5+#4]
.LVL252:
.LBB106:
.LBB107:
.LM312:
	MOV	r4,#31
	NOT	r4,r4
	ANL	r4,r3,r4
	ORL	r6,r6,r4
.LVL253:
.LBE107:
.LBE106:
.LM313:
	ST.w	[r5+#4],r6
.LM314:
	POP	r6
	.cfi_def_cfa_offset 4
	POP	lr
	.cfi_def_cfa_offset 0
	JMP	lr
	.cfi_endproc
.LFE33:
	.size	OSC_Negative_Drift_Config, .-OSC_Negative_Drift_Config
	.section .text$OSC_Current_Gain_Config
	.type	.text$OSC_Current_Gain_Config$scode_local_34, @function
	.text$OSC_Current_Gain_Config$scode_local_34:
	.align	1
	.export	OSC_Current_Gain_Config
	.type	OSC_Current_Gain_Config, @function
OSC_Current_Gain_Config:
.LFB34:
.LM315:
	.cfi_startproc
.LVL254:
	PUSH	{r6, lr}
	.cfi_def_cfa_offset 8
	MOV	r6,r0
.LVL255:
.LM316:
	MOV	r0,#1
.LVL256:
	CMP	r6,#3
	JLS	.L196
	MOV	r0,#0
.L196:
	LD	r5,#CHECK_RESTRICTION
	LJMP	r5
.LVL257:
.LM317:
	MOV	r5,#1
	LSL	r5,#30
	LD.w	r4,[r5+#5]
.LVL258:
.LM318:
	LSL	r6,#3
.LVL259:
.LBB108:
.LBB109:
.LM319:
	CLR	r4,#3
	CLR	r4,#4
.LVL260:
	ORL	r6,r6,r4
.LVL261:
.LBE109:
.LBE108:
.LM320:
	ST.w	[r5+#5],r6
.LM321:
	POP	r6
	.cfi_def_cfa_offset 4
	POP	lr
	.cfi_def_cfa_offset 0
	JMP	lr
	.cfi_endproc
.LFE34:
	.size	OSC_Current_Gain_Config, .-OSC_Current_Gain_Config
	.section .text$OSC_High_Speed_Enable
	.type	.text$OSC_High_Speed_Enable$scode_local_35, @function
	.text$OSC_High_Speed_Enable$scode_local_35:
	.align	1
	.export	OSC_High_Speed_Enable
	.type	OSC_High_Speed_Enable, @function
OSC_High_Speed_Enable:
.LFB35:
.LM322:
	.cfi_startproc
.LVL262:
	PUSH	{r6, lr}
	.cfi_def_cfa_offset 8
	MOV	r6,r0
.LM323:
	MOV	r0,#1
.LVL263:
	CMP	r6,r0
	JLS	.L198
	MOV	r0,#0
.L198:
	LD	r5,#CHECK_RESTRICTION
	LJMP	r5
.LVL264:
.LM324:
	LD	r5,#1073741844
.LM325:
	CMP	r6,#0
	JNZ	.L201
.LM326:
// inline asm begin
	// 919 "../src/kf32a9k1xxx_osc.c" 1
	CLR [r5], #2
	// 0 "" 2
.LM327:
// inline asm end
	POP	r6
	.cfi_remember_state
	.cfi_def_cfa_offset 4
.LVL265:
	POP	lr
	.cfi_def_cfa_offset 0
	JMP	lr
.LVL266:
.L201:
	.cfi_restore_state
.LM328:
// inline asm begin
	// 914 "../src/kf32a9k1xxx_osc.c" 1
	SET [r5], #2
	// 0 "" 2
.LM329:
// inline asm end
	POP	r6
	.cfi_def_cfa_offset 4
.LVL267:
	POP	lr
	.cfi_def_cfa_offset 0
	JMP	lr
	.cfi_endproc
.LFE35:
	.size	OSC_High_Speed_Enable, .-OSC_High_Speed_Enable
	.section .text$OSC_External_Input_Enable
	.type	.text$OSC_External_Input_Enable$scode_local_36, @function
	.text$OSC_External_Input_Enable$scode_local_36:
	.align	1
	.export	OSC_External_Input_Enable
	.type	OSC_External_Input_Enable, @function
OSC_External_Input_Enable:
.LFB36:
.LM330:
	.cfi_startproc
.LVL268:
	PUSH	{r6, lr}
	.cfi_def_cfa_offset 8
	MOV	r6,r0
.LM331:
	MOV	r0,#1
.LVL269:
	CMP	r6,r0
	JLS	.L203
	MOV	r0,#0
.L203:
	LD	r5,#CHECK_RESTRICTION
	LJMP	r5
.LVL270:
.LM332:
	LD	r5,#1073741844
.LM333:
	CMP	r6,#0
	JNZ	.L206
.LM334:
// inline asm begin
	// 943 "../src/kf32a9k1xxx_osc.c" 1
	CLR [r5], #1
	// 0 "" 2
.LM335:
// inline asm end
	POP	r6
	.cfi_remember_state
	.cfi_def_cfa_offset 4
.LVL271:
	POP	lr
	.cfi_def_cfa_offset 0
	JMP	lr
.LVL272:
.L206:
	.cfi_restore_state
.LM336:
// inline asm begin
	// 938 "../src/kf32a9k1xxx_osc.c" 1
	SET [r5], #1
	// 0 "" 2
.LM337:
// inline asm end
	POP	r6
	.cfi_def_cfa_offset 4
.LVL273:
	POP	lr
	.cfi_def_cfa_offset 0
	JMP	lr
	.cfi_endproc
.LFE36:
	.size	OSC_External_Input_Enable, .-OSC_External_Input_Enable
	.section .text$OSC_Feedback_Resistance_Config
	.type	.text$OSC_Feedback_Resistance_Config$scode_local_37, @function
	.text$OSC_Feedback_Resistance_Config$scode_local_37:
	.align	1
	.export	OSC_Feedback_Resistance_Config
	.type	OSC_Feedback_Resistance_Config, @function
OSC_Feedback_Resistance_Config:
.LFB37:
.LM338:
	.cfi_startproc
.LVL274:
	PUSH	{r6, lr}
	.cfi_def_cfa_offset 8
	MOV	r6,r0
.LM339:
	MOV	r0,#1
.LVL275:
	CMP	r6,r0
	JLS	.L208
	MOV	r0,#0
.L208:
	LD	r5,#CHECK_RESTRICTION
	LJMP	r5
.LVL276:
.LM340:
	LD	r5,#1073741844
.LM341:
	CMP	r6,#0
	JNZ	.L211
.LM342:
// inline asm begin
	// 969 "../src/kf32a9k1xxx_osc.c" 1
	CLR [r5], #0
	// 0 "" 2
.LM343:
// inline asm end
	POP	r6
	.cfi_remember_state
	.cfi_def_cfa_offset 4
.LVL277:
	POP	lr
	.cfi_def_cfa_offset 0
	JMP	lr
.LVL278:
.L211:
	.cfi_restore_state
.LM344:
// inline asm begin
	// 964 "../src/kf32a9k1xxx_osc.c" 1
	SET [r5], #0
	// 0 "" 2
.LM345:
// inline asm end
	POP	r6
	.cfi_def_cfa_offset 4
.LVL279:
	POP	lr
	.cfi_def_cfa_offset 0
	JMP	lr
	.cfi_endproc
.LFE37:
	.size	OSC_Feedback_Resistance_Config, .-OSC_Feedback_Resistance_Config
	.section .text$OSC_LP4M_INT_Enable
	.type	.text$OSC_LP4M_INT_Enable$scode_local_38, @function
	.text$OSC_LP4M_INT_Enable$scode_local_38:
	.align	1
	.export	OSC_LP4M_INT_Enable
	.type	OSC_LP4M_INT_Enable, @function
OSC_LP4M_INT_Enable:
.LFB38:
.LM346:
	.cfi_startproc
.LVL280:
	PUSH	{r6, lr}
	.cfi_def_cfa_offset 8
	MOV	r6,r0
.LM347:
	MOV	r0,#1
.LVL281:
	CMP	r6,r0
	JLS	.L213
	MOV	r0,#0
.L213:
	LD	r5,#CHECK_RESTRICTION
	LJMP	r5
.LVL282:
.LM348:
	LD	r5,#1073741832
.LM349:
	CMP	r6,#0
	JNZ	.L216
.LM350:
// inline asm begin
	// 997 "../src/kf32a9k1xxx_osc.c" 1
	CLR [r5], #14
	// 0 "" 2
.LM351:
// inline asm end
	POP	r6
	.cfi_remember_state
	.cfi_def_cfa_offset 4
.LVL283:
	POP	lr
	.cfi_def_cfa_offset 0
	JMP	lr
.LVL284:
.L216:
	.cfi_restore_state
.LM352:
// inline asm begin
	// 992 "../src/kf32a9k1xxx_osc.c" 1
	SET [r5], #14
	// 0 "" 2
.LM353:
// inline asm end
	POP	r6
	.cfi_def_cfa_offset 4
.LVL285:
	POP	lr
	.cfi_def_cfa_offset 0
	JMP	lr
	.cfi_endproc
.LFE38:
	.size	OSC_LP4M_INT_Enable, .-OSC_LP4M_INT_Enable
	.section .text$OSC_PLL_INT_Enable
	.type	.text$OSC_PLL_INT_Enable$scode_local_39, @function
	.text$OSC_PLL_INT_Enable$scode_local_39:
	.align	1
	.export	OSC_PLL_INT_Enable
	.type	OSC_PLL_INT_Enable, @function
OSC_PLL_INT_Enable:
.LFB39:
.LM354:
	.cfi_startproc
.LVL286:
	PUSH	{r6, lr}
	.cfi_def_cfa_offset 8
	MOV	r6,r0
.LM355:
	MOV	r0,#1
.LVL287:
	CMP	r6,r0
	JLS	.L218
	MOV	r0,#0
.L218:
	LD	r5,#CHECK_RESTRICTION
	LJMP	r5
.LVL288:
.LM356:
	LD	r5,#1073741832
.LM357:
	CMP	r6,#0
	JNZ	.L221
.LM358:
// inline asm begin
	// 1021 "../src/kf32a9k1xxx_osc.c" 1
	CLR [r5], #12
	// 0 "" 2
.LM359:
// inline asm end
	POP	r6
	.cfi_remember_state
	.cfi_def_cfa_offset 4
.LVL289:
	POP	lr
	.cfi_def_cfa_offset 0
	JMP	lr
.LVL290:
.L221:
	.cfi_restore_state
.LM360:
// inline asm begin
	// 1016 "../src/kf32a9k1xxx_osc.c" 1
	SET [r5], #12
	// 0 "" 2
.LM361:
// inline asm end
	POP	r6
	.cfi_def_cfa_offset 4
.LVL291:
	POP	lr
	.cfi_def_cfa_offset 0
	JMP	lr
	.cfi_endproc
.LFE39:
	.size	OSC_PLL_INT_Enable, .-OSC_PLL_INT_Enable
	.section .text$OSC_EXTHF_INT_Enable
	.type	.text$OSC_EXTHF_INT_Enable$scode_local_40, @function
	.text$OSC_EXTHF_INT_Enable$scode_local_40:
	.align	1
	.export	OSC_EXTHF_INT_Enable
	.type	OSC_EXTHF_INT_Enable, @function
OSC_EXTHF_INT_Enable:
.LFB40:
.LM362:
	.cfi_startproc
.LVL292:
	PUSH	{r6, lr}
	.cfi_def_cfa_offset 8
	MOV	r6,r0
.LM363:
	MOV	r0,#1
.LVL293:
	CMP	r6,r0
	JLS	.L223
	MOV	r0,#0
.L223:
	LD	r5,#CHECK_RESTRICTION
	LJMP	r5
.LVL294:
.LM364:
	LD	r5,#1073741832
.LM365:
	CMP	r6,#0
	JNZ	.L226
.LM366:
// inline asm begin
	// 1045 "../src/kf32a9k1xxx_osc.c" 1
	CLR [r5], #11
	// 0 "" 2
.LM367:
// inline asm end
	POP	r6
	.cfi_remember_state
	.cfi_def_cfa_offset 4
.LVL295:
	POP	lr
	.cfi_def_cfa_offset 0
	JMP	lr
.LVL296:
.L226:
	.cfi_restore_state
.LM368:
// inline asm begin
	// 1040 "../src/kf32a9k1xxx_osc.c" 1
	SET [r5], #11
	// 0 "" 2
.LM369:
// inline asm end
	POP	r6
	.cfi_def_cfa_offset 4
.LVL297:
	POP	lr
	.cfi_def_cfa_offset 0
	JMP	lr
	.cfi_endproc
.LFE40:
	.size	OSC_EXTHF_INT_Enable, .-OSC_EXTHF_INT_Enable
	.section .text$OSC_EXTLF_INT_Enable
	.type	.text$OSC_EXTLF_INT_Enable$scode_local_41, @function
	.text$OSC_EXTLF_INT_Enable$scode_local_41:
	.align	1
	.export	OSC_EXTLF_INT_Enable
	.type	OSC_EXTLF_INT_Enable, @function
OSC_EXTLF_INT_Enable:
.LFB41:
.LM370:
	.cfi_startproc
.LVL298:
	PUSH	{r6, lr}
	.cfi_def_cfa_offset 8
	MOV	r6,r0
.LM371:
	MOV	r0,#1
.LVL299:
	CMP	r6,r0
	JLS	.L228
	MOV	r0,#0
.L228:
	LD	r5,#CHECK_RESTRICTION
	LJMP	r5
.LVL300:
.LM372:
	LD	r5,#1073741832
.LM373:
	CMP	r6,#0
	JNZ	.L231
.LM374:
// inline asm begin
	// 1069 "../src/kf32a9k1xxx_osc.c" 1
	CLR [r5], #10
	// 0 "" 2
.LM375:
// inline asm end
	POP	r6
	.cfi_remember_state
	.cfi_def_cfa_offset 4
.LVL301:
	POP	lr
	.cfi_def_cfa_offset 0
	JMP	lr
.LVL302:
.L231:
	.cfi_restore_state
.LM376:
// inline asm begin
	// 1064 "../src/kf32a9k1xxx_osc.c" 1
	SET [r5], #10
	// 0 "" 2
.LM377:
// inline asm end
	POP	r6
	.cfi_def_cfa_offset 4
.LVL303:
	POP	lr
	.cfi_def_cfa_offset 0
	JMP	lr
	.cfi_endproc
.LFE41:
	.size	OSC_EXTLF_INT_Enable, .-OSC_EXTLF_INT_Enable
	.section .text$OSC_INTHF_INT_Enable
	.type	.text$OSC_INTHF_INT_Enable$scode_local_42, @function
	.text$OSC_INTHF_INT_Enable$scode_local_42:
	.align	1
	.export	OSC_INTHF_INT_Enable
	.type	OSC_INTHF_INT_Enable, @function
OSC_INTHF_INT_Enable:
.LFB42:
.LM378:
	.cfi_startproc
.LVL304:
	PUSH	{r6, lr}
	.cfi_def_cfa_offset 8
	MOV	r6,r0
.LM379:
	MOV	r0,#1
.LVL305:
	CMP	r6,r0
	JLS	.L233
	MOV	r0,#0
.L233:
	LD	r5,#CHECK_RESTRICTION
	LJMP	r5
.LVL306:
.LM380:
	LD	r5,#1073741832
.LM381:
	CMP	r6,#0
	JNZ	.L236
.LM382:
// inline asm begin
	// 1093 "../src/kf32a9k1xxx_osc.c" 1
	CLR [r5], #9
	// 0 "" 2
.LM383:
// inline asm end
	POP	r6
	.cfi_remember_state
	.cfi_def_cfa_offset 4
.LVL307:
	POP	lr
	.cfi_def_cfa_offset 0
	JMP	lr
.LVL308:
.L236:
	.cfi_restore_state
.LM384:
// inline asm begin
	// 1088 "../src/kf32a9k1xxx_osc.c" 1
	SET [r5], #9
	// 0 "" 2
.LM385:
// inline asm end
	POP	r6
	.cfi_def_cfa_offset 4
.LVL309:
	POP	lr
	.cfi_def_cfa_offset 0
	JMP	lr
	.cfi_endproc
.LFE42:
	.size	OSC_INTHF_INT_Enable, .-OSC_INTHF_INT_Enable
	.section .text$OSC_INTLF_INT_Enable
	.type	.text$OSC_INTLF_INT_Enable$scode_local_43, @function
	.text$OSC_INTLF_INT_Enable$scode_local_43:
	.align	1
	.export	OSC_INTLF_INT_Enable
	.type	OSC_INTLF_INT_Enable, @function
OSC_INTLF_INT_Enable:
.LFB43:
.LM386:
	.cfi_startproc
.LVL310:
	PUSH	{r6, lr}
	.cfi_def_cfa_offset 8
	MOV	r6,r0
.LM387:
	MOV	r0,#1
.LVL311:
	CMP	r6,r0
	JLS	.L238
	MOV	r0,#0
.L238:
	LD	r5,#CHECK_RESTRICTION
	LJMP	r5
.LVL312:
.LM388:
	LD	r5,#1073741832
.LM389:
	CMP	r6,#0
	JNZ	.L241
.LM390:
// inline asm begin
	// 1117 "../src/kf32a9k1xxx_osc.c" 1
	CLR [r5], #8
	// 0 "" 2
.LM391:
// inline asm end
	POP	r6
	.cfi_remember_state
	.cfi_def_cfa_offset 4
.LVL313:
	POP	lr
	.cfi_def_cfa_offset 0
	JMP	lr
.LVL314:
.L241:
	.cfi_restore_state
.LM392:
// inline asm begin
	// 1112 "../src/kf32a9k1xxx_osc.c" 1
	SET [r5], #8
	// 0 "" 2
.LM393:
// inline asm end
	POP	r6
	.cfi_def_cfa_offset 4
.LVL315:
	POP	lr
	.cfi_def_cfa_offset 0
	JMP	lr
	.cfi_endproc
.LFE43:
	.size	OSC_INTLF_INT_Enable, .-OSC_INTLF_INT_Enable
	.section .text$OSC_Get_Clock_Failure_INT_Flag
	.type	.text$OSC_Get_Clock_Failure_INT_Flag$scode_local_44, @function
	.text$OSC_Get_Clock_Failure_INT_Flag$scode_local_44:
	.align	1
	.export	OSC_Get_Clock_Failure_INT_Flag
	.type	OSC_Get_Clock_Failure_INT_Flag, @function
OSC_Get_Clock_Failure_INT_Flag:
.LFB44:
.LM394:
	.cfi_startproc
.LM395:
	MOV	r5,#1
	LSL	r5,#30
	LD.w	r0,[r5+#2]
	LSR	r0,#7
.LM396:
	MOV	r5,#1
	ANL	r0,r0,r5
	JMP	lr
	.cfi_endproc
.LFE44:
	.size	OSC_Get_Clock_Failure_INT_Flag, .-OSC_Get_Clock_Failure_INT_Flag
	.section .text$OSC_Get_LP4MIF_INT_Flag
	.type	.text$OSC_Get_LP4MIF_INT_Flag$scode_local_45, @function
	.text$OSC_Get_LP4MIF_INT_Flag$scode_local_45:
	.align	1
	.export	OSC_Get_LP4MIF_INT_Flag
	.type	OSC_Get_LP4MIF_INT_Flag, @function
OSC_Get_LP4MIF_INT_Flag:
.LFB45:
.LM397:
	.cfi_startproc
.LM398:
	MOV	r5,#1
	LSL	r5,#30
	LD.w	r0,[r5+#2]
	LSR	r0,#6
.LM399:
	MOV	r5,#1
	ANL	r0,r0,r5
	JMP	lr
	.cfi_endproc
.LFE45:
	.size	OSC_Get_LP4MIF_INT_Flag, .-OSC_Get_LP4MIF_INT_Flag
	.section .text$OSC_Get_PLL_INT_Flag
	.type	.text$OSC_Get_PLL_INT_Flag$scode_local_46, @function
	.text$OSC_Get_PLL_INT_Flag$scode_local_46:
	.align	1
	.export	OSC_Get_PLL_INT_Flag
	.type	OSC_Get_PLL_INT_Flag, @function
OSC_Get_PLL_INT_Flag:
.LFB46:
.LM400:
	.cfi_startproc
.LM401:
	MOV	r5,#1
	LSL	r5,#30
	LD.w	r0,[r5+#2]
	LSR	r0,#4
.LM402:
	MOV	r5,#1
	ANL	r0,r0,r5
	JMP	lr
	.cfi_endproc
.LFE46:
	.size	OSC_Get_PLL_INT_Flag, .-OSC_Get_PLL_INT_Flag
	.section .text$OSC_Get_EXTHF_INT_Flag
	.type	.text$OSC_Get_EXTHF_INT_Flag$scode_local_47, @function
	.text$OSC_Get_EXTHF_INT_Flag$scode_local_47:
	.align	1
	.export	OSC_Get_EXTHF_INT_Flag
	.type	OSC_Get_EXTHF_INT_Flag, @function
OSC_Get_EXTHF_INT_Flag:
.LFB47:
.LM403:
	.cfi_startproc
.LM404:
	MOV	r5,#1
	LSL	r5,#30
	LD.w	r0,[r5+#2]
	LSR	r0,#3
.LM405:
	MOV	r5,#1
	ANL	r0,r0,r5
	JMP	lr
	.cfi_endproc
.LFE47:
	.size	OSC_Get_EXTHF_INT_Flag, .-OSC_Get_EXTHF_INT_Flag
	.section .text$OSC_Get_EXTLF_INT_Flag
	.type	.text$OSC_Get_EXTLF_INT_Flag$scode_local_48, @function
	.text$OSC_Get_EXTLF_INT_Flag$scode_local_48:
	.align	1
	.export	OSC_Get_EXTLF_INT_Flag
	.type	OSC_Get_EXTLF_INT_Flag, @function
OSC_Get_EXTLF_INT_Flag:
.LFB48:
.LM406:
	.cfi_startproc
.LM407:
	MOV	r5,#1
	LSL	r5,#30
	LD.w	r0,[r5+#2]
	LSR	r0,#2
.LM408:
	MOV	r5,#1
	ANL	r0,r0,r5
	JMP	lr
	.cfi_endproc
.LFE48:
	.size	OSC_Get_EXTLF_INT_Flag, .-OSC_Get_EXTLF_INT_Flag
	.section .text$OSC_Get_INTHF_INT_Flag
	.type	.text$OSC_Get_INTHF_INT_Flag$scode_local_49, @function
	.text$OSC_Get_INTHF_INT_Flag$scode_local_49:
	.align	1
	.export	OSC_Get_INTHF_INT_Flag
	.type	OSC_Get_INTHF_INT_Flag, @function
OSC_Get_INTHF_INT_Flag:
.LFB49:
.LM409:
	.cfi_startproc
.LM410:
	MOV	r5,#1
	LSL	r5,#30
	LD.w	r0,[r5+#2]
	LSR	r0,#1
.LM411:
	MOV	r5,#1
	ANL	r0,r0,r5
	JMP	lr
	.cfi_endproc
.LFE49:
	.size	OSC_Get_INTHF_INT_Flag, .-OSC_Get_INTHF_INT_Flag
	.section .text$OSC_Get_INTLF_INT_Flag
	.type	.text$OSC_Get_INTLF_INT_Flag$scode_local_50, @function
	.text$OSC_Get_INTLF_INT_Flag$scode_local_50:
	.align	1
	.export	OSC_Get_INTLF_INT_Flag
	.type	OSC_Get_INTLF_INT_Flag, @function
OSC_Get_INTLF_INT_Flag:
.LFB50:
.LM412:
	.cfi_startproc
.LM413:
	MOV	r5,#1
	LSL	r5,#30
	LD.w	r0,[r5+#2]
.LM414:
	MOV	r5,#1
	ANL	r0,r0,r5
	JMP	lr
	.cfi_endproc
.LFE50:
	.size	OSC_Get_INTLF_INT_Flag, .-OSC_Get_INTLF_INT_Flag
	.text	
.Letext0: