	.file	"kf32a9k1xxx_ewdt.c"
	.text	
.Ltext0:
	.cfi_sections	.debug_frame
	.section .text$EWDT_Reset
	.type	.text$EWDT_Reset$scode_local_1, @function
	.text$EWDT_Reset$scode_local_1:
	.align	1
	.export	EWDT_Reset
	.type	EWDT_Reset, @function
EWDT_Reset:
.LFB1:
.LM1:
	.cfi_startproc
	PUSH	{r6, r7, lr}
	.cfi_def_cfa_offset 12
.LM2:
	MOV	r6,#1
	LSL	r6,#27
	MOV	r0,r6
	MOV	r1,#1
	LD	r7,#RST_CTL3_Peripheral_Reset_Enable
	LJMP	r7
.LVL0:
.LM3:
	MOV	r0,r6
	MOV	r1,#0
	LJMP	r7
.LVL1:
.LM4:
	MOV	r0,r6
	MOV	r1,#1
	LD	r5,#PCLK_CTL3_Peripheral_Clock_Enable
	LJMP	r5
.LVL2:
.LM5:
	POP	{r6, r7}
	.cfi_def_cfa_offset 4
	POP	lr
	.cfi_def_cfa_offset 0
	JMP	lr
	.cfi_endproc
.LFE1:
	.size	EWDT_Reset, .-EWDT_Reset
	.section .text$EWDT_Output_Effective_Single_Select
	.type	.text$EWDT_Output_Effective_Single_Select$scode_local_2, @function
	.text$EWDT_Output_Effective_Single_Select$scode_local_2:
	.align	1
	.export	EWDT_Output_Effective_Single_Select
	.type	EWDT_Output_Effective_Single_Select, @function
EWDT_Output_Effective_Single_Select:
.LFB2:
.LM6:
	.cfi_startproc
.LVL3:
	PUSH	{r6, lr}
	.cfi_def_cfa_offset 8
	MOV	r6,r0
.LVL4:
.LM7:
	MOV	r0,#1
.LVL5:
	CMP	r6,r0
	JLS	.L3
	MOV	r0,#0
.L3:
	LD	r5,#CHECK_RESTRICTION
	LJMP	r5
.LVL6:
.LM8:
	LD	r5,#1073752832
	LD.w	r4,[r5]
.LVL7:
.LM9:
	LSL	r6,#24
.LVL8:
.LBB22:
.LBB23:
.LM10:
	CLR	r4,#24
.LVL9:
	ORL	r6,r6,r4
.LVL10:
.LBE23:
.LBE22:
.LM11:
	ST.w	[r5],r6
.LM12:
	POP	r6
	.cfi_def_cfa_offset 4
	POP	lr
	.cfi_def_cfa_offset 0
	JMP	lr
	.cfi_endproc
.LFE2:
	.size	EWDT_Output_Effective_Single_Select, .-EWDT_Output_Effective_Single_Select
	.section .text$EWDT_Get_Reset_INT_Flag
	.type	.text$EWDT_Get_Reset_INT_Flag$scode_local_3, @function
	.text$EWDT_Get_Reset_INT_Flag$scode_local_3:
	.align	1
	.export	EWDT_Get_Reset_INT_Flag
	.type	EWDT_Get_Reset_INT_Flag, @function
EWDT_Get_Reset_INT_Flag:
.LFB3:
.LM13:
	.cfi_startproc
.LM14:
	LD	r5,#1073752832
	LD.w	r0,[r5]
	MOV	r5,#1
	LSL	r5,#23
	ANL	r0,r0,r5
.LM15:
	LSR	r0,#23
	JMP	lr
	.cfi_endproc
.LFE3:
	.size	EWDT_Get_Reset_INT_Flag, .-EWDT_Get_Reset_INT_Flag
	.section .text$EWDT_Clear_Reset_INT_Flag
	.type	.text$EWDT_Clear_Reset_INT_Flag$scode_local_4, @function
	.text$EWDT_Clear_Reset_INT_Flag$scode_local_4:
	.align	1
	.export	EWDT_Clear_Reset_INT_Flag
	.type	EWDT_Clear_Reset_INT_Flag, @function
EWDT_Clear_Reset_INT_Flag:
.LFB4:
.LM16:
	.cfi_startproc
.LM17:
	LD	r5,#1073752832
// inline asm begin
	// 69 "../src/kf32a9k1xxx_ewdt.c" 1
	SET [r5], #22
	// 0 "" 2
.LM18:
// inline asm end
	LD	r3,#1073752832
	MOV	r4,#1
	LSL	r4,#23
.L7:
.LM19:
	LD.w	r5,[r3]
	ANL	r5,r5,r4
	JNZ	.L7
.LM20:
	LD	r5,#1073752832
// inline asm begin
	// 71 "../src/kf32a9k1xxx_ewdt.c" 1
	CLR [r5], #22
	// 0 "" 2
.LM21:
// inline asm end
	JMP	lr
	.cfi_endproc
.LFE4:
	.size	EWDT_Clear_Reset_INT_Flag, .-EWDT_Clear_Reset_INT_Flag
	.section .text$EWDT_Reset_Single_INT_Enable
	.type	.text$EWDT_Reset_Single_INT_Enable$scode_local_5, @function
	.text$EWDT_Reset_Single_INT_Enable$scode_local_5:
	.align	1
	.export	EWDT_Reset_Single_INT_Enable
	.type	EWDT_Reset_Single_INT_Enable, @function
EWDT_Reset_Single_INT_Enable:
.LFB5:
.LM22:
	.cfi_startproc
.LVL11:
	PUSH	{r6, lr}
	.cfi_def_cfa_offset 8
	MOV	r6,r0
.LVL12:
.LM23:
	MOV	r0,#1
.LVL13:
	CMP	r6,r0
	JLS	.L10
	MOV	r0,#0
.L10:
	LD	r5,#CHECK_RESTRICTION
	LJMP	r5
.LVL14:
.LM24:
	LD	r5,#1073752832
	LD.w	r4,[r5]
.LVL15:
.LM25:
	LSL	r6,#21
.LVL16:
.LBB24:
.LBB25:
.LM26:
	CLR	r4,#21
.LVL17:
	ORL	r6,r6,r4
.LVL18:
.LBE25:
.LBE24:
.LM27:
	ST.w	[r5],r6
.LM28:
	POP	r6
	.cfi_def_cfa_offset 4
	POP	lr
	.cfi_def_cfa_offset 0
	JMP	lr
	.cfi_endproc
.LFE5:
	.size	EWDT_Reset_Single_INT_Enable, .-EWDT_Reset_Single_INT_Enable
	.section .text$EWDT_CLK_Select
	.type	.text$EWDT_CLK_Select$scode_local_6, @function
	.text$EWDT_CLK_Select$scode_local_6:
	.align	1
	.export	EWDT_CLK_Select
	.type	EWDT_CLK_Select, @function
EWDT_CLK_Select:
.LFB6:
.LM29:
	.cfi_startproc
.LVL19:
	PUSH	{r6, lr}
	.cfi_def_cfa_offset 8
	MOV	r6,r0
.LVL20:
.LM30:
	MOV	r0,#1
.LVL21:
	CMP	r6,#3
	JLS	.L12
	MOV	r0,#0
.L12:
	LD	r5,#CHECK_RESTRICTION
	LJMP	r5
.LVL22:
.LM31:
	LD	r5,#1073752832
	LD.w	r4,[r5]
.LVL23:
.LM32:
	LSL	r6,#18
.LVL24:
.LBB26:
.LBB27:
.LM33:
	CLR	r4,#18
	CLR	r4,#19
.LVL25:
	ORL	r6,r6,r4
.LVL26:
.LBE27:
.LBE26:
.LM34:
	ST.w	[r5],r6
.LM35:
	POP	r6
	.cfi_def_cfa_offset 4
	POP	lr
	.cfi_def_cfa_offset 0
	JMP	lr
	.cfi_endproc
.LFE6:
	.size	EWDT_CLK_Select, .-EWDT_CLK_Select
	.section .text$EWDT_Input_Effective_Single_Select
	.type	.text$EWDT_Input_Effective_Single_Select$scode_local_7, @function
	.text$EWDT_Input_Effective_Single_Select$scode_local_7:
	.align	1
	.export	EWDT_Input_Effective_Single_Select
	.type	EWDT_Input_Effective_Single_Select, @function
EWDT_Input_Effective_Single_Select:
.LFB7:
.LM36:
	.cfi_startproc
.LVL27:
	PUSH	{r6, lr}
	.cfi_def_cfa_offset 8
	MOV	r6,r0
.LVL28:
.LM37:
	MOV	r0,#1
.LVL29:
	CMP	r6,r0
	JLS	.L14
	MOV	r0,#0
.L14:
	LD	r5,#CHECK_RESTRICTION
	LJMP	r5
.LVL30:
.LM38:
	LD	r5,#1073752832
	LD.w	r4,[r5]
.LVL31:
.LM39:
	LSL	r6,#17
.LVL32:
.LBB28:
.LBB29:
.LM40:
	CLR	r4,#17
.LVL33:
	ORL	r6,r6,r4
.LVL34:
.LBE29:
.LBE28:
.LM41:
	ST.w	[r5],r6
.LM42:
	POP	r6
	.cfi_def_cfa_offset 4
	POP	lr
	.cfi_def_cfa_offset 0
	JMP	lr
	.cfi_endproc
.LFE7:
	.size	EWDT_Input_Effective_Single_Select, .-EWDT_Input_Effective_Single_Select
	.section .text$EWDT_Input_Single_Enable
	.type	.text$EWDT_Input_Single_Enable$scode_local_8, @function
	.text$EWDT_Input_Single_Enable$scode_local_8:
	.align	1
	.export	EWDT_Input_Single_Enable
	.type	EWDT_Input_Single_Enable, @function
EWDT_Input_Single_Enable:
.LFB8:
.LM43:
	.cfi_startproc
.LVL35:
	PUSH	{r6, lr}
	.cfi_def_cfa_offset 8
	MOV	r6,r0
.LVL36:
.LM44:
	MOV	r0,#1
.LVL37:
	CMP	r6,r0
	JLS	.L16
	MOV	r0,#0
.L16:
	LD	r5,#CHECK_RESTRICTION
	LJMP	r5
.LVL38:
.LM45:
	LD	r5,#1073752832
	LD.w	r4,[r5]
.LVL39:
.LM46:
	LSL	r6,#16
.LVL40:
.LBB30:
.LBB31:
.LM47:
	CLR	r4,#16
.LVL41:
	ORL	r6,r6,r4
.LVL42:
.LBE31:
.LBE30:
.LM48:
	ST.w	[r5],r6
.LM49:
	POP	r6
	.cfi_def_cfa_offset 4
	POP	lr
	.cfi_def_cfa_offset 0
	JMP	lr
	.cfi_endproc
.LFE8:
	.size	EWDT_Input_Single_Enable, .-EWDT_Input_Single_Enable
	.section .text$EWDT_Clear_Count40_INT_Flag
	.type	.text$EWDT_Clear_Count40_INT_Flag$scode_local_9, @function
	.text$EWDT_Clear_Count40_INT_Flag$scode_local_9:
	.align	1
	.export	EWDT_Clear_Count40_INT_Flag
	.type	EWDT_Clear_Count40_INT_Flag, @function
EWDT_Clear_Count40_INT_Flag:
.LFB9:
.LM50:
	.cfi_startproc
.LM51:
	LD	r5,#1073752832
// inline asm begin
	// 157 "../src/kf32a9k1xxx_ewdt.c" 1
	SET [r5], #15
	// 0 "" 2
.LM52:
// inline asm end
	LD	r3,#1073752832
	MOV	r4,#4
.L18:
.LM53:
	LD.w	r5,[r3]
	ANL	r5,r5,r4
	JNZ	.L18
.LM54:
	LD	r5,#1073752832
// inline asm begin
	// 159 "../src/kf32a9k1xxx_ewdt.c" 1
	CLR [r5], #15
	// 0 "" 2
.LM55:
// inline asm end
	JMP	lr
	.cfi_endproc
.LFE9:
	.size	EWDT_Clear_Count40_INT_Flag, .-EWDT_Clear_Count40_INT_Flag
	.section .text$EWDT_Threshold_Config
	.type	.text$EWDT_Threshold_Config$scode_local_10, @function
	.text$EWDT_Threshold_Config$scode_local_10:
	.align	1
	.export	EWDT_Threshold_Config
	.type	EWDT_Threshold_Config, @function
EWDT_Threshold_Config:
.LFB10:
.LM56:
	.cfi_startproc
.LVL43:
	PUSH	{r6, lr}
	.cfi_def_cfa_offset 8
	MOV	r6,r0
.LVL44:
.LM57:
	MOV	r0,#1
.LVL45:
	CMP	r6,#127
	JLS	.L21
	MOV	r0,#0
.L21:
	LD	r5,#CHECK_RESTRICTION
	LJMP	r5
.LVL46:
.LM58:
	LD	r5,#1073752832
	LD.w	r3,[r5]
.LVL47:
.LM59:
	LSL	r6,#8
.LVL48:
.LBB32:
.LBB33:
.LM60:
	LD	r4,#-32513
	ANL	r4,r3,r4
	ORL	r6,r6,r4
.LVL49:
.LBE33:
.LBE32:
.LM61:
	ST.w	[r5],r6
.LM62:
	POP	r6
	.cfi_def_cfa_offset 4
	POP	lr
	.cfi_def_cfa_offset 0
	JMP	lr
	.cfi_endproc
.LFE10:
	.size	EWDT_Threshold_Config, .-EWDT_Threshold_Config
	.section .text$EWDT_Clock_Div_Select
	.type	.text$EWDT_Clock_Div_Select$scode_local_11, @function
	.text$EWDT_Clock_Div_Select$scode_local_11:
	.align	1
	.export	EWDT_Clock_Div_Select
	.type	EWDT_Clock_Div_Select, @function
EWDT_Clock_Div_Select:
.LFB11:
.LM63:
	.cfi_startproc
.LVL50:
	PUSH	{r6, lr}
	.cfi_def_cfa_offset 8
	MOV	r6,r0
.LVL51:
.LM64:
	MOV	r0,#1
.LVL52:
	CMP	r6,#18
	JLS	.L23
	MOV	r0,#0
.L23:
	LD	r5,#CHECK_RESTRICTION
	LJMP	r5
.LVL53:
.LM65:
	LD	r5,#1073752832
	LD.w	r3,[r5]
.LVL54:
.LM66:
	LSL	r6,#3
.LVL55:
.LBB34:
.LBB35:
.LM67:
	MOV	r4,#248
	NOT	r4,r4
	ANL	r4,r3,r4
	ORL	r6,r6,r4
.LVL56:
.LBE35:
.LBE34:
.LM68:
	ST.w	[r5],r6
.LM69:
	POP	r6
	.cfi_def_cfa_offset 4
	POP	lr
	.cfi_def_cfa_offset 0
	JMP	lr
	.cfi_endproc
.LFE11:
	.size	EWDT_Clock_Div_Select, .-EWDT_Clock_Div_Select
	.section .text$EWDT_Get_Count40_INT_Flag
	.type	.text$EWDT_Get_Count40_INT_Flag$scode_local_12, @function
	.text$EWDT_Get_Count40_INT_Flag$scode_local_12:
	.align	1
	.export	EWDT_Get_Count40_INT_Flag
	.type	EWDT_Get_Count40_INT_Flag, @function
EWDT_Get_Count40_INT_Flag:
.LFB12:
.LM70:
	.cfi_startproc
.LM71:
	LD	r5,#1073752832
	LD.w	r0,[r5]
	MOV	r5,#4
	ANL	r0,r0,r5
.LM72:
	LSR	r0,#2
	JMP	lr
	.cfi_endproc
.LFE12:
	.size	EWDT_Get_Count40_INT_Flag, .-EWDT_Get_Count40_INT_Flag
	.section .text$EWDT_Count40_INT_Enable
	.type	.text$EWDT_Count40_INT_Enable$scode_local_13, @function
	.text$EWDT_Count40_INT_Enable$scode_local_13:
	.align	1
	.export	EWDT_Count40_INT_Enable
	.type	EWDT_Count40_INT_Enable, @function
EWDT_Count40_INT_Enable:
.LFB13:
.LM73:
	.cfi_startproc
.LVL57:
	PUSH	{r6, lr}
	.cfi_def_cfa_offset 8
	MOV	r6,r0
.LVL58:
.LM74:
	MOV	r0,#1
.LVL59:
	CMP	r6,r0
	JLS	.L26
	MOV	r0,#0
.L26:
	LD	r5,#CHECK_RESTRICTION
	LJMP	r5
.LVL60:
.LM75:
	LD	r5,#1073752832
	LD.w	r4,[r5]
.LVL61:
.LM76:
	ADD	r6,r6,r6
.LVL62:
.LBB36:
.LBB37:
.LM77:
	CLR	r4,#1
.LVL63:
	ORL	r6,r6,r4
.LBE37:
.LBE36:
.LM78:
	ST.w	[r5],r6
.LM79:
	POP	r6
	.cfi_def_cfa_offset 4
	POP	lr
	.cfi_def_cfa_offset 0
	JMP	lr
	.cfi_endproc
.LFE13:
	.size	EWDT_Count40_INT_Enable, .-EWDT_Count40_INT_Enable
	.section .text$EWDT_Enable
	.type	.text$EWDT_Enable$scode_local_14, @function
	.text$EWDT_Enable$scode_local_14:
	.align	1
	.export	EWDT_Enable
	.type	EWDT_Enable, @function
EWDT_Enable:
.LFB14:
.LM80:
	.cfi_startproc
.LVL64:
	PUSH	{r6, lr}
	.cfi_def_cfa_offset 8
	MOV	r6,r0
.LM81:
	MOV	r0,#1
.LVL65:
	CMP	r6,r0
	JLS	.L28
	MOV	r0,#0
.L28:
	LD	r5,#CHECK_RESTRICTION
	LJMP	r5
.LVL66:
.LM82:
	LD	r5,#1073752832
	LD.w	r4,[r5]
.LVL67:
.LBB38:
.LBB39:
.LM83:
	CLR	r4,#0
.LVL68:
	ORL	r6,r6,r4
.LVL69:
.LBE39:
.LBE38:
.LM84:
	ST.w	[r5],r6
.LM85:
	POP	r6
	.cfi_def_cfa_offset 4
	POP	lr
	.cfi_def_cfa_offset 0
	JMP	lr
	.cfi_endproc
.LFE14:
	.size	EWDT_Enable, .-EWDT_Enable
	.section .text$EWDT_Get_Count_Value
	.type	.text$EWDT_Get_Count_Value$scode_local_15, @function
	.text$EWDT_Get_Count_Value$scode_local_15:
	.align	1
	.export	EWDT_Get_Count_Value
	.type	EWDT_Get_Count_Value, @function
EWDT_Get_Count_Value:
.LFB15:
.LM86:
	.cfi_startproc
.LM87:
	LD	r5,#1073752832
	LD.w	r0,[r5+#1]
.LM88:
	MOV	r5,#127
	ANL	r0,r0,r5
	JMP	lr
	.cfi_endproc
.LFE15:
	.size	EWDT_Get_Count_Value, .-EWDT_Get_Count_Value
	.section .text$EWDT_Set_Count_Value
	.type	.text$EWDT_Set_Count_Value$scode_local_16, @function
	.text$EWDT_Set_Count_Value$scode_local_16:
	.align	1
	.export	EWDT_Set_Count_Value
	.type	EWDT_Set_Count_Value, @function
EWDT_Set_Count_Value:
.LFB16:
.LM89:
	.cfi_startproc
.LVL70:
	PUSH	{r6, lr}
	.cfi_def_cfa_offset 8
	ZXT.b	r6,r0
.LM90:
	MOV	r0,#1
.LVL71:
	CMP	r6,#64
	JLS	.L31
	MOV	r0,#0
.L31:
	LD	r5,#CHECK_RESTRICTION
	LJMP	r5
.LVL72:
.LM91:
	LD	r5,#1073752832
	LD.w	r3,[r5+#1]
.LVL73:
.LBB40:
.LBB41:
.LM92:
	MOV	r4,#127
	NOT	r4,r4
	ANL	r4,r3,r4
	ORL	r6,r6,r4
.LVL74:
.LBE41:
.LBE40:
.LM93:
	ST.w	[r5+#1],r6
.LM94:
	POP	r6
	.cfi_def_cfa_offset 4
	POP	lr
	.cfi_def_cfa_offset 0
	JMP	lr
	.cfi_endproc
.LFE16:
	.size	EWDT_Set_Count_Value, .-EWDT_Set_Count_Value
	.text	
.Letext0: