	.file	"kf32a9k1xxx_wwdt.c"
	.text	
.Ltext0:
	.cfi_sections	.debug_frame
	.section .text$WWDT_Reset
	.type	.text$WWDT_Reset$scode_local_1, @function
	.text$WWDT_Reset$scode_local_1:
	.align	1
	.export	WWDT_Reset
	.type	WWDT_Reset, @function
WWDT_Reset:
.LFB1:
.LM1:
	.cfi_startproc
	PUSH	{r6, lr}
	.cfi_def_cfa_offset 8
.LM2:
	MOV	r0,#32
	MOV	r1,#1
	LD	r6,#RST_CTL2_Peripheral_Reset_Enable
	LJMP	r6
.LVL0:
.LM3:
	MOV	r0,#32
	MOV	r1,#0
	LJMP	r6
.LVL1:
.LM4:
	MOV	r0,#32
	MOV	r1,#1
	LD	r5,#PCLK_CTL2_Peripheral_Clock_Enable
	LJMP	r5
.LVL2:
.LM5:
	POP	r6
	.cfi_def_cfa_offset 4
	POP	lr
	.cfi_def_cfa_offset 0
	JMP	lr
	.cfi_endproc
.LFE1:
	.size	WWDT_Reset, .-WWDT_Reset
	.section .text$WWDT_Threshold_Config
	.type	.text$WWDT_Threshold_Config$scode_local_2, @function
	.text$WWDT_Threshold_Config$scode_local_2:
	.align	1
	.export	WWDT_Threshold_Config
	.type	WWDT_Threshold_Config, @function
WWDT_Threshold_Config:
.LFB2:
.LM6:
	.cfi_startproc
.LVL3:
	PUSH	{r6, lr}
	.cfi_def_cfa_offset 8
	MOV	r6,r0
.LVL4:
.LM7:
	MOV	r0,#1
.LVL5:
	CMP	r6,#63
	JLS	.L3
	MOV	r0,#0
.L3:
	LD	r5,#CHECK_RESTRICTION
	LJMP	r5
.LVL6:
.LM8:
	LD	r5,#1073746560
	LD.w	r3,[r5]
.LVL7:
.LM9:
	LSL	r6,#8
.LVL8:
.LBB8:
.LBB9:
.LM10:
	LD	r4,#-32513
	ANL	r4,r3,r4
	ORL	r6,r6,r4
.LVL9:
.LBE9:
.LBE8:
.LM11:
	ST.w	[r5],r6
.LM12:
	POP	r6
	.cfi_def_cfa_offset 4
	POP	lr
	.cfi_def_cfa_offset 0
	JMP	lr
	.cfi_endproc
.LFE2:
	.size	WWDT_Threshold_Config, .-WWDT_Threshold_Config
	.section .text$WWDT_Prescaler_Config
	.type	.text$WWDT_Prescaler_Config$scode_local_3, @function
	.text$WWDT_Prescaler_Config$scode_local_3:
	.align	1
	.export	WWDT_Prescaler_Config
	.type	WWDT_Prescaler_Config, @function
WWDT_Prescaler_Config:
.LFB3:
.LM13:
	.cfi_startproc
.LVL10:
	PUSH	{r6, lr}
	.cfi_def_cfa_offset 8
	MOV	r6,r0
.LM14:
	MOV	r0,#1
.LVL11:
	CMP	r6,#0
	JZ	.L6
.LM15:
	CMP	r6,#8
	JZ	.L6
.LM16:
	CMP	r6,#16
	JZ	.L6
	CMP	r6,#24
	JZ	.L6
	CMP	r6,#32
	JZ	.L6
	CMP	r6,#40
	JZ	.L6
	CMP	r6,#48
	JZ	.L6
	CMP	r6,#56
	JZ	.L6
	CMP	r6,#64
	JZ	.L6
	CMP	r6,#72
	JZ	.L6
	CMP	r6,#80
	JZ	.L6
	CMP	r6,#88
	JZ	.L6
	CMP	r6,#96
	JZ	.L6
	CMP	r6,#104
	JZ	.L6
	CMP	r6,#112
	JZ	.L6
	CMP	r6,#120
	JZ	.L6
	MOV	r5,#128
	CMP	r6,r5
	JZ	.L6
	MOV	r5,#136
	CMP	r6,r5
	JZ	.L6
	MOV	r5,#144
	CMP	r6,r5
	JZ	.L6
	MOV	r0,#0
.L6:
.LM17:
	LD	r5,#CHECK_RESTRICTION
	LJMP	r5
.LVL12:
.LM18:
	LD	r5,#1073746560
	LD.w	r3,[r5]
.LVL13:
.LBB10:
.LBB11:
.LM19:
	MOV	r4,#248
	NOT	r4,r4
	ANL	r4,r3,r4
	ORL	r6,r6,r4
.LVL14:
.LBE11:
.LBE10:
.LM20:
	ST.w	[r5],r6
.LM21:
	POP	r6
	.cfi_def_cfa_offset 4
	POP	lr
	.cfi_def_cfa_offset 0
	JMP	lr
	.cfi_endproc
.LFE3:
	.size	WWDT_Prescaler_Config, .-WWDT_Prescaler_Config
	.section .text$WWDT_Work_CLK_Selest
	.type	.text$WWDT_Work_CLK_Selest$scode_local_4, @function
	.text$WWDT_Work_CLK_Selest$scode_local_4:
	.align	1
	.export	WWDT_Work_CLK_Selest
	.type	WWDT_Work_CLK_Selest, @function
WWDT_Work_CLK_Selest:
.LFB4:
.LM22:
	.cfi_startproc
.LVL15:
	PUSH	{r6, lr}
	.cfi_def_cfa_offset 8
	MOV	r6,r0
.LM23:
	MOV	r0,#1
.LVL16:
	CMP	r6,#3
	JLS	.L43
	MOV	r0,#0
.L43:
	LD	r5,#CHECK_RESTRICTION
	LJMP	r5
.LVL17:
.LM24:
	LD	r5,#1073746560
	LD.w	r4,[r5+#2]
.LVL18:
.LBB12:
.LBB13:
.LM25:
	CLR	r4,#0
	CLR	r4,#1
.LVL19:
	ORL	r6,r6,r4
.LVL20:
.LBE13:
.LBE12:
.LM26:
	ST.w	[r5+#2],r6
.LM27:
	POP	r6
	.cfi_def_cfa_offset 4
	POP	lr
	.cfi_def_cfa_offset 0
	JMP	lr
	.cfi_endproc
.LFE4:
	.size	WWDT_Work_CLK_Selest, .-WWDT_Work_CLK_Selest
	.section .text$WWDT_Enable
	.type	.text$WWDT_Enable$scode_local_5, @function
	.text$WWDT_Enable$scode_local_5:
	.align	1
	.export	WWDT_Enable
	.type	WWDT_Enable, @function
WWDT_Enable:
.LFB5:
.LM28:
	.cfi_startproc
.LVL21:
	PUSH	{r6, lr}
	.cfi_def_cfa_offset 8
	MOV	r6,r0
.LM29:
	MOV	r0,#1
.LVL22:
	CMP	r6,r0
	JLS	.L45
	MOV	r0,#0
.L45:
	LD	r5,#CHECK_RESTRICTION
	LJMP	r5
.LVL23:
.LM30:
	LD	r5,#1073746560
.LM31:
	CMP	r6,#0
	JNZ	.L48
.LM32:
// inline asm begin
	// 128 "../src/kf32a9k1xxx_wwdt.c" 1
	CLR [r5], #0
	// 0 "" 2
.LM33:
// inline asm end
	POP	r6
	.cfi_remember_state
	.cfi_def_cfa_offset 4
.LVL24:
	POP	lr
	.cfi_def_cfa_offset 0
	JMP	lr
.LVL25:
.L48:
	.cfi_restore_state
.LM34:
// inline asm begin
	// 123 "../src/kf32a9k1xxx_wwdt.c" 1
	SET [r5], #0
	// 0 "" 2
.LM35:
// inline asm end
	POP	r6
	.cfi_def_cfa_offset 4
.LVL26:
	POP	lr
	.cfi_def_cfa_offset 0
	JMP	lr
	.cfi_endproc
.LFE5:
	.size	WWDT_Enable, .-WWDT_Enable
	.section .text$WWDT_Counter_Config
	.type	.text$WWDT_Counter_Config$scode_local_6, @function
	.text$WWDT_Counter_Config$scode_local_6:
	.align	1
	.export	WWDT_Counter_Config
	.type	WWDT_Counter_Config, @function
WWDT_Counter_Config:
.LFB6:
.LM36:
	.cfi_startproc
.LVL27:
	PUSH	{r6, lr}
	.cfi_def_cfa_offset 8
	MOV	r6,r0
.LM37:
	MOV	r0,#1
.LVL28:
	CMP	r6,#63
	JLS	.L50
	MOV	r0,#0
.L50:
	LD	r5,#CHECK_RESTRICTION
	LJMP	r5
.LVL29:
.LM38:
	LD	r5,#1073746560
	ST.w	[r5+#1],r6
.LM39:
	POP	r6
	.cfi_def_cfa_offset 4
.LVL30:
	POP	lr
	.cfi_def_cfa_offset 0
	JMP	lr
	.cfi_endproc
.LFE6:
	.size	WWDT_Counter_Config, .-WWDT_Counter_Config
	.section .text$WWDT_Get_Counter
	.type	.text$WWDT_Get_Counter$scode_local_7, @function
	.text$WWDT_Get_Counter$scode_local_7:
	.align	1
	.export	WWDT_Get_Counter
	.type	WWDT_Get_Counter, @function
WWDT_Get_Counter:
.LFB7:
.LM40:
	.cfi_startproc
.LVL31:
.LM41:
	LD	r5,#1073746560
	LD.w	r0,[r5+#1]
.LVL32:
.LM42:
	MOV	r5,#127
	ANL	r0,r0,r5
.LVL33:
	JMP	lr
	.cfi_endproc
.LFE7:
	.size	WWDT_Get_Counter, .-WWDT_Get_Counter
	.section .text$WWDT_INT_Enable
	.type	.text$WWDT_INT_Enable$scode_local_8, @function
	.text$WWDT_INT_Enable$scode_local_8:
	.align	1
	.export	WWDT_INT_Enable
	.type	WWDT_INT_Enable, @function
WWDT_INT_Enable:
.LFB8:
.LM43:
	.cfi_startproc
.LVL34:
	PUSH	{r6, lr}
	.cfi_def_cfa_offset 8
	MOV	r6,r0
.LM44:
	MOV	r0,#1
.LVL35:
	CMP	r6,r0
	JLS	.L53
	MOV	r0,#0
.L53:
	LD	r5,#CHECK_RESTRICTION
	LJMP	r5
.LVL36:
.LM45:
	LD	r5,#1073746560
.LM46:
	CMP	r6,#0
	JNZ	.L56
.LM47:
// inline asm begin
	// 191 "../src/kf32a9k1xxx_wwdt.c" 1
	CLR [r5], #1
	// 0 "" 2
.LM48:
// inline asm end
	POP	r6
	.cfi_remember_state
	.cfi_def_cfa_offset 4
.LVL37:
	POP	lr
	.cfi_def_cfa_offset 0
	JMP	lr
.LVL38:
.L56:
	.cfi_restore_state
.LM49:
// inline asm begin
	// 186 "../src/kf32a9k1xxx_wwdt.c" 1
	SET [r5], #1
	// 0 "" 2
.LM50:
// inline asm end
	POP	r6
	.cfi_def_cfa_offset 4
.LVL39:
	POP	lr
	.cfi_def_cfa_offset 0
	JMP	lr
	.cfi_endproc
.LFE8:
	.size	WWDT_INT_Enable, .-WWDT_INT_Enable
	.section .text$WWDT_Get_INT_Flag
	.type	.text$WWDT_Get_INT_Flag$scode_local_9, @function
	.text$WWDT_Get_INT_Flag$scode_local_9:
	.align	1
	.export	WWDT_Get_INT_Flag
	.type	WWDT_Get_INT_Flag, @function
WWDT_Get_INT_Flag:
.LFB9:
.LM51:
	.cfi_startproc
.LM52:
	LD	r5,#1073746560
	LD.w	r0,[r5]
	LSR	r0,#2
.LM53:
	MOV	r5,#1
	ANL	r0,r0,r5
	JMP	lr
	.cfi_endproc
.LFE9:
	.size	WWDT_Get_INT_Flag, .-WWDT_Get_INT_Flag
	.section .text$WWDT_Clear_INT_Flag
	.type	.text$WWDT_Clear_INT_Flag$scode_local_10, @function
	.text$WWDT_Clear_INT_Flag$scode_local_10:
	.align	1
	.export	WWDT_Clear_INT_Flag
	.type	WWDT_Clear_INT_Flag, @function
WWDT_Clear_INT_Flag:
.LFB10:
.LM54:
	.cfi_startproc
.LM55:
	LD	r5,#1073746560
// inline asm begin
	// 225 "../src/kf32a9k1xxx_wwdt.c" 1
	SET [r5], #15
	// 0 "" 2
.LM56:
// inline asm end
	LD	r3,#1073746560
	MOV	r4,#4
.L59:
.LM57:
	LD.w	r5,[r3]
	ANL	r5,r5,r4
	JNZ	.L59
.LM58:
	LD	r5,#1073746560
// inline asm begin
	// 227 "../src/kf32a9k1xxx_wwdt.c" 1
	CLR [r5], #15
	// 0 "" 2
.LM59:
// inline asm end
	JMP	lr
	.cfi_endproc
.LFE10:
	.size	WWDT_Clear_INT_Flag, .-WWDT_Clear_INT_Flag
	.text	
.Letext0: