	.file	"kf32a9k1xxx_bkp.c"
	.text	
.Ltext0:
	.cfi_sections	.debug_frame
	.section .text$BKP_Reset
	.type	.text$BKP_Reset$scode_local_1, @function
	.text$BKP_Reset$scode_local_1:
	.align	1
	.export	BKP_Reset
	.type	BKP_Reset, @function
BKP_Reset:
.LFB1:
.LM1:
	.cfi_startproc
.LM2:
	LD	r5,#1073746944
// inline asm begin
	// 30 "../src/kf32a9k1xxx_bkp.c" 1
	SET [r5], #31
	// 0 "" 2
.LM3:
	// 31 "../src/kf32a9k1xxx_bkp.c" 1
	CLR [r5], #31
	// 0 "" 2
.LM4:
// inline asm end
	JMP	lr
	.cfi_endproc
.LFE1:
	.size	BKP_Reset, .-BKP_Reset
	.section .text$BKP_Write_And_Read_Enable
	.type	.text$BKP_Write_And_Read_Enable$scode_local_2, @function
	.text$BKP_Write_And_Read_Enable$scode_local_2:
	.align	1
	.export	BKP_Write_And_Read_Enable
	.type	BKP_Write_And_Read_Enable, @function
BKP_Write_And_Read_Enable:
.LFB2:
.LM5:
	.cfi_startproc
.LVL0:
	PUSH	{r6, lr}
	.cfi_def_cfa_offset 8
	MOV	r6,r0
.LVL1:
.LM6:
	MOV	r0,#1
.LVL2:
	CMP	r6,r0
	JLS	.L3
	MOV	r0,#0
.L3:
	LD	r5,#CHECK_RESTRICTION
	LJMP	r5
.LVL3:
.LM7:
	CMP	r6,#0
	JZ	.L4
.LM8:
	MOV	r5,#1
	LSL	r5,#30
	LD.w	r4,[r5]
.LVL4:
.LM9:
	MOV	r3,#1
	ANL	r4,r4,r3
.LVL5:
	JNZ	.L17
.LM10:
	LD	r3,#pmwrenbkp.2108
	ST.w	[r3],r4
.LM11:
// inline asm begin
	// 69 "../src/kf32a9k1xxx_bkp.c" 1
	SET [r5], #0
	// 0 "" 2
.LM12:
// inline asm end
	LD	r5,#1073747328
	LD.w	r3,[r5]
.LVL6:
.LM13:
	MOV	r4,#1
	LSL	r4,#22
	ANL	r4,r3,r4
	JZ	.L7
.L21:
.LM14:
	MOV	r4,#1
	LD	r5,#bkpregclrbkp.2109
	ST.w	[r5],r4
.LM15:
	LD	r5,#1073747328
	LD.w	r3,[r5]
.LVL7:
.LM16:
	MOV	r4,#128
	ANL	r4,r3,r4
	JZ	.L9
.L22:
.LM17:
	MOV	r4,#1
	LD	r5,#bkpwrbkp.2110
	ST.w	[r5],r4
.LM18:
	POP	r6
	.cfi_remember_state
	.cfi_def_cfa_offset 4
.LVL8:
	POP	lr
	.cfi_def_cfa_offset 0
	JMP	lr
.LVL9:
.L4:
	.cfi_restore_state
.LM19:
	LD	r5,#pmwrenbkp.2108
	LD.w	r4,[r5]
	CMP	r4,#0
	JNZ	.L18
.LM20:
	MOV	r5,#1
	LSL	r5,#30
// inline asm begin
	// 110 "../src/kf32a9k1xxx_bkp.c" 1
	CLR [r5], #0
	// 0 "" 2
.LM21:
// inline asm end
	LD	r5,#bkpregclrbkp.2109
	LD.w	r4,[r5]
	CMP	r4,#0
	JZ	.L13
.L20:
.LM22:
	MOV	r4,#1
	ST.w	[r5],r4
.LM23:
	LD	r5,#bkpwrbkp.2110
	LD.w	r4,[r5]
	CMP	r4,#0
	JNZ	.L19
.L15:
.LM24:
	LD	r5,#1073747328
// inline asm begin
	// 134 "../src/kf32a9k1xxx_bkp.c" 1
	CLR [r5], #7
	// 0 "" 2
.LM25:
// inline asm end
	POP	r6
	.cfi_remember_state
	.cfi_def_cfa_offset 4
.LVL10:
	POP	lr
	.cfi_def_cfa_offset 0
	JMP	lr
.LVL11:
.L18:
	.cfi_restore_state
.LM26:
	MOV	r4,#1
	ST.w	[r5],r4
.LM27:
	LD	r5,#bkpregclrbkp.2109
	LD.w	r4,[r5]
	CMP	r4,#0
	JNZ	.L20
.L13:
.LM28:
	LD	r5,#1073747328
// inline asm begin
	// 122 "../src/kf32a9k1xxx_bkp.c" 1
	CLR [r5], #22
	// 0 "" 2
.LM29:
// inline asm end
	LD	r5,#bkpwrbkp.2110
	LD.w	r4,[r5]
	CMP	r4,#0
	JZ	.L15
.L19:
.LM30:
	MOV	r4,#1
	ST.w	[r5],r4
.LM31:
	POP	r6
	.cfi_remember_state
	.cfi_def_cfa_offset 4
.LVL12:
	POP	lr
	.cfi_def_cfa_offset 0
	JMP	lr
.LVL13:
.L17:
	.cfi_restore_state
.LM32:
	LD	r5,#pmwrenbkp.2108
	ST.w	[r5],r3
.LM33:
	LD	r5,#1073747328
	LD.w	r3,[r5]
.LVL14:
.LM34:
	MOV	r4,#1
	LSL	r4,#22
	ANL	r4,r3,r4
	JNZ	.L21
.L7:
.LM35:
	LD	r3,#bkpregclrbkp.2109
.LVL15:
	ST.w	[r3],r4
.LM36:
// inline asm begin
	// 82 "../src/kf32a9k1xxx_bkp.c" 1
	SET [r5], #22
	// 0 "" 2
.LM37:
// inline asm end
	LD	r5,#1073747328
	LD.w	r3,[r5]
.LVL16:
.LM38:
	MOV	r4,#128
	ANL	r4,r3,r4
	JNZ	.L22
.L9:
.LM39:
	LD	r3,#bkpwrbkp.2110
.LVL17:
	ST.w	[r3],r4
.LM40:
// inline asm begin
	// 95 "../src/kf32a9k1xxx_bkp.c" 1
	SET [r5], #7
	// 0 "" 2
.LM41:
// inline asm end
	POP	r6
	.cfi_def_cfa_offset 4
.LVL18:
	POP	lr
	.cfi_def_cfa_offset 0
	JMP	lr
	.cfi_endproc
.LFE2:
	.size	BKP_Write_And_Read_Enable, .-BKP_Write_And_Read_Enable
	.section .text$BKP_Reset_Enable
	.type	.text$BKP_Reset_Enable$scode_local_3, @function
	.text$BKP_Reset_Enable$scode_local_3:
	.align	1
	.export	BKP_Reset_Enable
	.type	BKP_Reset_Enable, @function
BKP_Reset_Enable:
.LFB3:
.LM42:
	.cfi_startproc
.LVL19:
	PUSH	{r6, lr}
	.cfi_def_cfa_offset 8
	MOV	r6,r0
.LM43:
	MOV	r0,#1
.LVL20:
	CMP	r6,r0
	JLS	.L24
	MOV	r0,#0
.L24:
	LD	r5,#CHECK_RESTRICTION
	LJMP	r5
.LVL21:
.LM44:
	LD	r5,#1073746944
.LM45:
	CMP	r6,#0
	JNZ	.L27
.LM46:
// inline asm begin
	// 166 "../src/kf32a9k1xxx_bkp.c" 1
	CLR [r5], #31
	// 0 "" 2
.LM47:
// inline asm end
	POP	r6
	.cfi_remember_state
	.cfi_def_cfa_offset 4
.LVL22:
	POP	lr
	.cfi_def_cfa_offset 0
	JMP	lr
.LVL23:
.L27:
	.cfi_restore_state
.LM48:
// inline asm begin
	// 161 "../src/kf32a9k1xxx_bkp.c" 1
	SET [r5], #31
	// 0 "" 2
.LM49:
// inline asm end
	POP	r6
	.cfi_def_cfa_offset 4
.LVL24:
	POP	lr
	.cfi_def_cfa_offset 0
	JMP	lr
	.cfi_endproc
.LFE3:
	.size	BKP_Reset_Enable, .-BKP_Reset_Enable
	.section .text$BKP_Pin_Effective_Level_Config
	.type	.text$BKP_Pin_Effective_Level_Config$scode_local_4, @function
	.text$BKP_Pin_Effective_Level_Config$scode_local_4:
	.align	1
	.export	BKP_Pin_Effective_Level_Config
	.type	BKP_Pin_Effective_Level_Config, @function
BKP_Pin_Effective_Level_Config:
.LFB4:
.LM50:
	.cfi_startproc
.LVL25:
	PUSH	{r6, r7, r8, lr}
	.cfi_def_cfa_offset 16
	MOV	r7,r0
	MOV	r6,r1
.LVL26:
.LM51:
	MOV	r0,#1
.LVL27:
	CMP	r7,#2
	JLS	.L29
	MOV	r0,#0
.L29:
	LD	r5,#CHECK_RESTRICTION
	MOV	r8,r5
	LJMP	r5
.LVL28:
.LM52:
	MOV	r0,#1
	CMP	r6,r0
	JLS	.L30
	MOV	r0,#0
.L30:
	LJMP	r8
.LVL29:
.LM53:
	MOV	r5,#1
	LSL	r5,#20
	LSL	r7,r5,r7
.LVL30:
.LM54:
	LD	r5,#1073746944
	LD.w	r4,[r5]
.LM55:
	CMP	r6,#0
	JNZ	.L33
.LM56:
	NOT	r7,r7
.LVL31:
	ANL	r7,r7,r4
.LVL32:
	ST.w	[r5],r7
.LM57:
	POP	{r6, r7, r8}
	.cfi_remember_state
	.cfi_def_cfa_offset 4
	POP	lr
	.cfi_def_cfa_offset 0
	JMP	lr
.LVL33:
.L33:
	.cfi_restore_state
.LM58:
	ORL	r7,r7,r4
.LVL34:
	ST.w	[r5],r7
.LM59:
	POP	{r6, r7, r8}
	.cfi_def_cfa_offset 4
	POP	lr
	.cfi_def_cfa_offset 0
	JMP	lr
	.cfi_endproc
.LFE4:
	.size	BKP_Pin_Effective_Level_Config, .-BKP_Pin_Effective_Level_Config
	.section .text$BKP_Pin_Enable
	.type	.text$BKP_Pin_Enable$scode_local_5, @function
	.text$BKP_Pin_Enable$scode_local_5:
	.align	1
	.export	BKP_Pin_Enable
	.type	BKP_Pin_Enable, @function
BKP_Pin_Enable:
.LFB5:
.LM60:
	.cfi_startproc
.LVL35:
	PUSH	{r6, r7, r8, lr}
	.cfi_def_cfa_offset 16
	MOV	r7,r0
	MOV	r6,r1
.LVL36:
.LM61:
	MOV	r0,#1
.LVL37:
	CMP	r7,#2
	JLS	.L35
	MOV	r0,#0
.L35:
	LD	r5,#CHECK_RESTRICTION
	MOV	r8,r5
	LJMP	r5
.LVL38:
.LM62:
	MOV	r0,#1
	CMP	r6,r0
	JLS	.L36
	MOV	r0,#0
.L36:
	LJMP	r8
.LVL39:
.LM63:
	MOV	r5,#1
	LSL	r5,#16
	LSL	r7,r5,r7
.LVL40:
.LM64:
	LD	r5,#1073746944
	LD.w	r4,[r5]
.LM65:
	CMP	r6,#0
	JNZ	.L39
.LM66:
	NOT	r7,r7
.LVL41:
	ANL	r7,r7,r4
.LVL42:
	ST.w	[r5],r7
.LM67:
	POP	{r6, r7, r8}
	.cfi_remember_state
	.cfi_def_cfa_offset 4
	POP	lr
	.cfi_def_cfa_offset 0
	JMP	lr
.LVL43:
.L39:
	.cfi_restore_state
.LM68:
	ORL	r7,r7,r4
.LVL44:
	ST.w	[r5],r7
.LM69:
	POP	{r6, r7, r8}
	.cfi_def_cfa_offset 4
	POP	lr
	.cfi_def_cfa_offset 0
	JMP	lr
	.cfi_endproc
.LFE5:
	.size	BKP_Pin_Enable, .-BKP_Pin_Enable
	.section .text$BKP_TAMP_SYNC_Mode_Select
	.type	.text$BKP_TAMP_SYNC_Mode_Select$scode_local_6, @function
	.text$BKP_TAMP_SYNC_Mode_Select$scode_local_6:
	.align	1
	.export	BKP_TAMP_SYNC_Mode_Select
	.type	BKP_TAMP_SYNC_Mode_Select, @function
BKP_TAMP_SYNC_Mode_Select:
.LFB6:
.LM70:
	.cfi_startproc
.LVL45:
	PUSH	{r6, lr}
	.cfi_def_cfa_offset 8
	MOV	r6,r0
.LM71:
	MOV	r0,#1
.LVL46:
	CMP	r6,r0
	JLS	.L41
	MOV	r0,#0
.L41:
	LD	r5,#CHECK_RESTRICTION
	LJMP	r5
.LVL47:
.LM72:
	LD	r5,#1073746944
	LD.w	r4,[r5]
.LVL48:
	LSL	r6,#4
.LVL49:
.LBB6:
.LBB7:
.LM73:
	CLR	r4,#4
.LVL50:
	ORL	r6,r6,r4
.LVL51:
.LBE7:
.LBE6:
.LM74:
	ST.w	[r5],r6
.LM75:
	POP	r6
	.cfi_def_cfa_offset 4
	POP	lr
	.cfi_def_cfa_offset 0
	JMP	lr
	.cfi_endproc
.LFE6:
	.size	BKP_TAMP_SYNC_Mode_Select, .-BKP_TAMP_SYNC_Mode_Select
	.section .text$BKP_TAMP_SCK_Select
	.type	.text$BKP_TAMP_SCK_Select$scode_local_7, @function
	.text$BKP_TAMP_SCK_Select$scode_local_7:
	.align	1
	.export	BKP_TAMP_SCK_Select
	.type	BKP_TAMP_SCK_Select, @function
BKP_TAMP_SCK_Select:
.LFB7:
.LM76:
	.cfi_startproc
.LVL52:
	PUSH	{r6, lr}
	.cfi_def_cfa_offset 8
	MOV	r6,r0
.LM77:
	MOV	r0,#1
.LVL53:
	CMP	r6,r0
	JLS	.L43
	MOV	r0,#0
.L43:
	LD	r5,#CHECK_RESTRICTION
	LJMP	r5
.LVL54:
.LM78:
	LD	r5,#1073746944
	LD.w	r4,[r5]
.LVL55:
	LSL	r6,#3
.LVL56:
.LBB8:
.LBB9:
.LM79:
	CLR	r4,#3
.LVL57:
	ORL	r6,r6,r4
.LVL58:
.LBE9:
.LBE8:
.LM80:
	ST.w	[r5],r6
.LM81:
	POP	r6
	.cfi_def_cfa_offset 4
	POP	lr
	.cfi_def_cfa_offset 0
	JMP	lr
	.cfi_endproc
.LFE7:
	.size	BKP_TAMP_SCK_Select, .-BKP_TAMP_SCK_Select
	.section .text$BKP_External_Clock_Bypass_Enable
	.type	.text$BKP_External_Clock_Bypass_Enable$scode_local_8, @function
	.text$BKP_External_Clock_Bypass_Enable$scode_local_8:
	.align	1
	.export	BKP_External_Clock_Bypass_Enable
	.type	BKP_External_Clock_Bypass_Enable, @function
BKP_External_Clock_Bypass_Enable:
.LFB8:
.LM82:
	.cfi_startproc
.LVL59:
	PUSH	{r6, r7, r8, lr}
	.cfi_def_cfa_offset 16
	MOV	r7,r0
	MOV	r6,r1
.LVL60:
.LM83:
	MOV	r0,#1
.LVL61:
	CMP	r7,r0
	JLS	.L45
	MOV	r0,#0
.L45:
	LD	r5,#CHECK_RESTRICTION
	MOV	r8,r5
	LJMP	r5
.LVL62:
.LM84:
	MOV	r0,#1
	CMP	r6,r0
	JLS	.L46
	MOV	r0,#0
.L46:
	LJMP	r8
.LVL63:
.LM85:
	MOV	r5,#2
	LSL	r7,r5,r7
.LVL64:
.LM86:
	LD	r5,#1073746944
	LD.w	r4,[r5]
.LM87:
	CMP	r6,#0
	JNZ	.L49
.LM88:
	NOT	r7,r7
.LVL65:
	ANL	r7,r7,r4
.LVL66:
	ST.w	[r5],r7
.LM89:
	POP	{r6, r7, r8}
	.cfi_remember_state
	.cfi_def_cfa_offset 4
	POP	lr
	.cfi_def_cfa_offset 0
	JMP	lr
.LVL67:
.L49:
	.cfi_restore_state
.LM90:
	ORL	r7,r7,r4
.LVL68:
	ST.w	[r5],r7
.LM91:
	POP	{r6, r7, r8}
	.cfi_def_cfa_offset 4
	POP	lr
	.cfi_def_cfa_offset 0
	JMP	lr
	.cfi_endproc
.LFE8:
	.size	BKP_External_Clock_Bypass_Enable, .-BKP_External_Clock_Bypass_Enable
	.section .text$BKP_Data_Config
	.type	.text$BKP_Data_Config$scode_local_9, @function
	.text$BKP_Data_Config$scode_local_9:
	.align	1
	.export	BKP_Data_Config
	.type	BKP_Data_Config, @function
BKP_Data_Config:
.LFB9:
.LM92:
	.cfi_startproc
.LVL69:
	PUSH	{r6, r7, lr}
	.cfi_def_cfa_offset 12
	MOV	r6,r0
	MOV	r7,r1
.LM93:
	MOV	r0,#1
.LVL70:
	CMP	r6,#7
	JLS	.L51
	MOV	r0,#0
.L51:
	LD	r5,#CHECK_RESTRICTION
	LJMP	r5
.LVL71:
.LM94:
	ADD	r6,#16
.LVL72:
	LSL	r6,#2
.LVL73:
	LD	r5,#1073746944
	ST.w	[r5+r6],r7
.LM95:
	POP	{r6, r7}
	.cfi_def_cfa_offset 4
.LVL74:
	POP	lr
	.cfi_def_cfa_offset 0
	JMP	lr
	.cfi_endproc
.LFE9:
	.size	BKP_Data_Config, .-BKP_Data_Config
	.section .text$BKP_Get_Data
	.type	.text$BKP_Get_Data$scode_local_10, @function
	.text$BKP_Get_Data$scode_local_10:
	.align	1
	.export	BKP_Get_Data
	.type	BKP_Get_Data, @function
BKP_Get_Data:
.LFB10:
.LM96:
	.cfi_startproc
.LVL75:
	PUSH	{r6, lr}
	.cfi_def_cfa_offset 8
	MOV	r6,r0
.LVL76:
.LM97:
	MOV	r0,#1
.LVL77:
	CMP	r6,#7
	JLS	.L53
	MOV	r0,#0
.L53:
	LD	r5,#CHECK_RESTRICTION
	LJMP	r5
.LVL78:
.LM98:
	ADD	r6,#16
.LVL79:
	LSL	r6,#2
.LVL80:
	LD	r5,#1073746944
	LD.w	r0,[r5+r6]
.LVL81:
.LM99:
	POP	r6
	.cfi_def_cfa_offset 4
	POP	lr
	.cfi_def_cfa_offset 0
	JMP	lr
	.cfi_endproc
.LFE10:
	.size	BKP_Get_Data, .-BKP_Get_Data
	.section .text$BKP_Pin_TAMP_INT_Enable
	.type	.text$BKP_Pin_TAMP_INT_Enable$scode_local_11, @function
	.text$BKP_Pin_TAMP_INT_Enable$scode_local_11:
	.align	1
	.export	BKP_Pin_TAMP_INT_Enable
	.type	BKP_Pin_TAMP_INT_Enable, @function
BKP_Pin_TAMP_INT_Enable:
.LFB11:
.LM100:
	.cfi_startproc
.LVL82:
	PUSH	{r6, r7, r8, lr}
	.cfi_def_cfa_offset 16
	MOV	r7,r0
	MOV	r6,r1
.LVL83:
.LM101:
	MOV	r0,#1
.LVL84:
	CMP	r7,#2
	JLS	.L55
	MOV	r0,#0
.L55:
	LD	r5,#CHECK_RESTRICTION
	MOV	r8,r5
	LJMP	r5
.LVL85:
.LM102:
	MOV	r0,#1
	CMP	r6,r0
	JLS	.L56
	MOV	r0,#0
.L56:
	LJMP	r8
.LVL86:
.LM103:
	MOV	r5,#255
	ADD	r5,r5,#1
	LSL	r7,r5,r7
.LVL87:
.LM104:
	LD	r5,#1073746944
	LD.w	r4,[r5+#1]
.LM105:
	CMP	r6,#0
	JNZ	.L59
.LM106:
	NOT	r7,r7
.LVL88:
	ANL	r7,r7,r4
.LVL89:
	ST.w	[r5+#1],r7
.LM107:
	POP	{r6, r7, r8}
	.cfi_remember_state
	.cfi_def_cfa_offset 4
	POP	lr
	.cfi_def_cfa_offset 0
	JMP	lr
.LVL90:
.L59:
	.cfi_restore_state
.LM108:
	ORL	r7,r7,r4
.LVL91:
	ST.w	[r5+#1],r7
.LM109:
	POP	{r6, r7, r8}
	.cfi_def_cfa_offset 4
	POP	lr
	.cfi_def_cfa_offset 0
	JMP	lr
	.cfi_endproc
.LFE11:
	.size	BKP_Pin_TAMP_INT_Enable, .-BKP_Pin_TAMP_INT_Enable
	.section .text$BKP_Get_Pin_TAMP_INT_Flag
	.type	.text$BKP_Get_Pin_TAMP_INT_Flag$scode_local_12, @function
	.text$BKP_Get_Pin_TAMP_INT_Flag$scode_local_12:
	.align	1
	.export	BKP_Get_Pin_TAMP_INT_Flag
	.type	BKP_Get_Pin_TAMP_INT_Flag, @function
BKP_Get_Pin_TAMP_INT_Flag:
.LFB12:
.LM110:
	.cfi_startproc
.LVL92:
	PUSH	{r6, lr}
	.cfi_def_cfa_offset 8
	MOV	r6,r0
.LVL93:
.LM111:
	MOV	r0,#1
.LVL94:
	CMP	r6,#2
	JLS	.L61
	MOV	r0,#0
.L61:
	LD	r5,#CHECK_RESTRICTION
	LJMP	r5
.LVL95:
.LM112:
	LD	r5,#1073746944
	LD.w	r5,[r5+#1]
.LM113:
	MOV	r4,#1
	LSL	r4,#16
	LSL	r6,r4,r6
.LVL96:
.LM114:
	ANL	r6,r6,r5
	MOV	r5,#0
	SUB	r5,r5,r6
	ORL	r0,r5,r6
.LM115:
	LSR	r0,#31
	POP	r6
	.cfi_def_cfa_offset 4
	POP	lr
	.cfi_def_cfa_offset 0
	JMP	lr
	.cfi_endproc
.LFE12:
	.size	BKP_Get_Pin_TAMP_INT_Flag, .-BKP_Get_Pin_TAMP_INT_Flag
	.section .text$BKP_Clear_Pin_TAMP_INT_Flag
	.type	.text$BKP_Clear_Pin_TAMP_INT_Flag$scode_local_13, @function
	.text$BKP_Clear_Pin_TAMP_INT_Flag$scode_local_13:
	.align	1
	.export	BKP_Clear_Pin_TAMP_INT_Flag
	.type	BKP_Clear_Pin_TAMP_INT_Flag, @function
BKP_Clear_Pin_TAMP_INT_Flag:
.LFB13:
.LM116:
	.cfi_startproc
.LVL97:
	PUSH	{r6, lr}
	.cfi_def_cfa_offset 8
	MOV	r6,r0
.LVL98:
.LM117:
	MOV	r0,#1
.LVL99:
	CMP	r6,#2
	JLS	.L63
	MOV	r0,#0
.L63:
	LD	r5,#CHECK_RESTRICTION
	LJMP	r5
.LVL100:
.LM118:
	MOV	r1,#1
	LSL	r1,r1,r6
.LVL101:
.LM119:
	MOV	r2,#1
	LSL	r2,#16
	LSL	r2,r2,r6
.LVL102:
.LM120:
	LD	r3,#1073746944
	LD.w	r5,[r3+#1]
	ORL	r5,r1,r5
	ST.w	[r3+#1],r5
	MOV	r5,#16
	ADD	r0,r6,r5
.L64:
.LM121:
	LD	r4,#1073746944
	LD.w	r5,[r3+#1]
	ANL	r5,r2,r5
	LSR	r5,r5,r0
	CMP	r5,#0
	JNZ	.L64
.LM122:
	LD.w	r5,[r4+#1]
	NOT	r1,r1
.LVL103:
	ANL	r1,r1,r5
.LVL104:
	ST.w	[r4+#1],r1
.LM123:
	POP	r6
	.cfi_def_cfa_offset 4
.LVL105:
	POP	lr
	.cfi_def_cfa_offset 0
	JMP	lr
	.cfi_endproc
.LFE13:
	.size	BKP_Clear_Pin_TAMP_INT_Flag, .-BKP_Clear_Pin_TAMP_INT_Flag
	.section .data$static$pmwrenbkp.2108
	.type	.data$static$pmwrenbkp.2108$scode_local_14, @function
	.data$static$pmwrenbkp.2108$scode_local_14:
	.align	2
	.type	pmwrenbkp.2108, @object
	.size	pmwrenbkp.2108, 4
pmwrenbkp.2108:
	.long	1
	.section .data$static$bkpregclrbkp.2109
	.type	.data$static$bkpregclrbkp.2109$scode_local_15, @function
	.data$static$bkpregclrbkp.2109$scode_local_15:
	.align	2
	.type	bkpregclrbkp.2109, @object
	.size	bkpregclrbkp.2109, 4
bkpregclrbkp.2109:
	.long	1
	.section .data$static$bkpwrbkp.2110
	.type	.data$static$bkpwrbkp.2110$scode_local_16, @function
	.data$static$bkpwrbkp.2110$scode_local_16:
	.align	2
	.type	bkpwrbkp.2110, @object
	.size	bkpwrbkp.2110, 4
bkpwrbkp.2110:
	.long	1
	.text	
.Letext0: