	.file	"kf32a9k1xxx_can.c"
	.text	
.Ltext0:
	.cfi_sections	.debug_frame
	.section .text$CAN_Reset
	.type	.text$CAN_Reset$scode_local_1, @function
	.text$CAN_Reset$scode_local_1:
	.align	1
	.export	CAN_Reset
	.type	CAN_Reset, @function
CAN_Reset:
.LFB1:
.LM1:
	.cfi_startproc
.LVL0:
	PUSH	{r6, lr}
	.cfi_def_cfa_offset 8
.LM2:
	MOV	r6,#1
	LD	r5,#1073752192
	CMP	r0,r5
	JZ	.L2
	MOV	r6,#0
.L2:
	ZXT.b	r6,r6
	MOV	r0,r6
.LVL1:
	LD	r5,#CHECK_RESTRICTION
	LJMP	r5
.LVL2:
.LM3:
	CMP	r6,#0
	JNZ	.L8
.LM4:
	POP	r6
	.cfi_remember_state
	.cfi_def_cfa_offset 4
	POP	lr
	.cfi_def_cfa_offset 0
	JMP	lr
.L8:
	.cfi_restore_state
.LM5:
	MOV	r0,#1
	LSL	r0,#17
	MOV	r1,#1
	LD	r6,#RST_CTL3_Peripheral_Reset_Enable
	LJMP	r6
.LVL3:
.LM6:
	MOV	r0,#1
	LSL	r0,#17
	MOV	r1,#1
	LD	r5,#PCLK_CTL3_Peripheral_Clock_Enable
	LJMP	r5
.LVL4:
.LM7:
	MOV	r0,#1
	LSL	r0,#17
	MOV	r1,#0
	LJMP	r6
.LVL5:
.LM8:
	POP	r6
	.cfi_def_cfa_offset 4
	POP	lr
	.cfi_def_cfa_offset 0
	JMP	lr
	.cfi_endproc
.LFE1:
	.size	CAN_Reset, .-CAN_Reset
	.section .text$CAN_Configuration
	.type	.text$CAN_Configuration$scode_local_2, @function
	.text$CAN_Configuration$scode_local_2:
	.align	1
	.export	CAN_Configuration
	.type	CAN_Configuration, @function
CAN_Configuration:
.LFB2:
.LM9:
	.cfi_startproc
.LVL6:
	PUSH	{r6, r7, r8, lr}
	.cfi_def_cfa_offset 16
	MOV	r8,r0
	MOV	r6,r1
.LVL7:
.LM10:
	MOV	r0,#1
.LVL8:
	LD	r5,#1073752192
	CMP	r8,r5
	JZ	.L10
	MOV	r0,#0
.L10:
	LD	r7,#CHECK_RESTRICTION
	LJMP	r7
.LVL9:
.LM11:
	MOV	r0,#1
	LD.w	r5,[r6]
	CMP	r5,r0
	JLS	.L11
	MOV	r0,#0
.L11:
	LJMP	r7
.LVL10:
.LM12:
	LD.w	r5,[r6+#1]
	MOV	r0,#1
	CMP	r5,#0
	JZ	.L12
.LM13:
	CMP	r5,#2
	JZ	.L12
.LM14:
	CMP	r5,#4
	JZ	.L12
	CMP	r5,#6
	JZ	.L12
	MOV	r0,#0
.L12:
.LM15:
	LJMP	r7
.LVL11:
.LM16:
	LD.w	r5,[r6+#2]
	MOV	r0,#1
	CMP	r5,#0
	JZ	.L14
.LM17:
	CMP	r5,#32
	JZ	.L14
.LM18:
	CMP	r5,#64
	JZ	.L14
	MOV	r0,#0
.L14:
.LM19:
	LJMP	r7
.LVL12:
.LM20:
	LD.b	r0,[r6+#12]
	LSR	r0,#6
	SUB	r0,r0,#1
	LSR	r0,#31
	LJMP	r7
.LVL13:
.LM21:
	LD.b	r0,[r6+#13]
	LSR	r0,#2
	SUB	r0,r0,#1
	LSR	r0,#31
	LJMP	r7
.LVL14:
.LM22:
	LD.b	r0,[r6+#14]
	LSR	r0,#4
	SUB	r0,r0,#1
	LSR	r0,#31
	LJMP	r7
.LVL15:
.LM23:
	LD.b	r0,[r6+#15]
	LSR	r0,#3
	SUB	r0,r0,#1
	LSR	r0,#31
	LJMP	r7
.LVL16:
.LM24:
	LD.w	r5,[r6+#4]
	MOV	r0,#1
	CMP	r5,#0
	JZ	.L16
.LM25:
	MOV	r4,#1
	LSL	r4,#15
	CMP	r5,r4
	JZ	.L16
	MOV	r0,#0
.L16:
.LM26:
	LJMP	r7
.LVL17:
.LM27:
	LD.w	r3,[r8]
.LVL18:
.LM28:
	LD.w	r2,[r6+#1]
	LD.w	r4,[r6+#2]
	ORL	r5,r2,r4
.LM29:
	SET	r5,#0
.LM30:
	LD.w	r4,[r6]
	LSL	r4,#7
	ORL	r5,r5,r4
.LBB44:
.LBB45:
.LM31:
	MOV	r4,#231
	NOT	r4,r4
	ANL	r4,r3,r4
	ORL	r5,r5,r4
.LBE45:
.LBE44:
.LM32:
	ST.w	[r8],r5
.LVL19:
.LM33:
	MOV	r5,r8
	LD.w	r3,[r5+#1]
.LVL20:
.LM34:
	LD.b	r5,[r6+#12]
.LBB46:
.LBB47:
.LM35:
	LD	r4,#-65536
	ANL	r4,r3,r4
.LBE47:
.LBE46:
.LM36:
	ORL	r4,r5,r4
.LM37:
	LD.w	r2,[r6+#4]
	ORL	r4,r4,r2
.LM38:
	LD.b	r5,[r6+#13]
	LSL	r5,#6
.LM39:
	ORL	r5,r4,r5
.LM40:
	LD.b	r4,[r6+#14]
	LSL	r4,#8
.LM41:
	ORL	r5,r5,r4
.LM42:
	LD.b	r4,[r6+#15]
	LSL	r4,#12
.LBB49:
.LBB48:
.LM43:
	ORL	r5,r5,r4
.LBE48:
.LBE49:
.LM44:
	MOV	r3,r8
.LVL21:
	ST.w	[r3+#1],r5
.LM45:
	LD.w	r4,[r6+#5]
	ST.w	[r3+#4],r4
.LM46:
	LD.w	r2,[r6+#6]
	ST.w	[r3+#5],r2
.LM47:
// inline asm begin
	// 133 "../src/kf32a9k1xxx_can.c" 1
	CLR [r8], #0
	// 0 "" 2
.LM48:
// inline asm end
	POP	{r6, r7, r8}
	.cfi_def_cfa_offset 4
.LVL22:
	POP	lr
	.cfi_def_cfa_offset 0
	JMP	lr
	.cfi_endproc
.LFE2:
	.size	CAN_Configuration, .-CAN_Configuration
	.section .text$CAN_Configuration_With_Reset_Mode
	.type	.text$CAN_Configuration_With_Reset_Mode$scode_local_3, @function
	.text$CAN_Configuration_With_Reset_Mode$scode_local_3:
	.align	1
	.export	CAN_Configuration_With_Reset_Mode
	.type	CAN_Configuration_With_Reset_Mode, @function
CAN_Configuration_With_Reset_Mode:
.LFB3:
.LM49:
	.cfi_startproc
.LVL23:
	PUSH	{r6, r7, r8, lr}
	.cfi_def_cfa_offset 16
	MOV	r8,r0
	MOV	r6,r1
.LVL24:
.LM50:
	MOV	r0,#1
.LVL25:
	LD	r5,#1073752192
	CMP	r8,r5
	JZ	.L37
	MOV	r0,#0
.L37:
	LD	r7,#CHECK_RESTRICTION
	LJMP	r7
.LVL26:
.LM51:
	MOV	r0,#1
	LD.w	r5,[r6]
	CMP	r5,r0
	JLS	.L38
	MOV	r0,#0
.L38:
	LJMP	r7
.LVL27:
.LM52:
	LD.w	r5,[r6+#1]
	MOV	r0,#1
	CMP	r5,#0
	JZ	.L39
.LM53:
	CMP	r5,#2
	JZ	.L39
.LM54:
	CMP	r5,#4
	JZ	.L39
	CMP	r5,#6
	JZ	.L39
	MOV	r0,#0
.L39:
.LM55:
	LJMP	r7
.LVL28:
.LM56:
	LD.w	r5,[r6+#2]
	MOV	r0,#1
	CMP	r5,#0
	JZ	.L41
.LM57:
	CMP	r5,#32
	JZ	.L41
.LM58:
	CMP	r5,#64
	JZ	.L41
	MOV	r0,#0
.L41:
.LM59:
	LJMP	r7
.LVL29:
.LM60:
	LD.b	r0,[r6+#12]
	LSR	r0,#6
	SUB	r0,r0,#1
	LSR	r0,#31
	LJMP	r7
.LVL30:
.LM61:
	LD.b	r0,[r6+#13]
	LSR	r0,#2
	SUB	r0,r0,#1
	LSR	r0,#31
	LJMP	r7
.LVL31:
.LM62:
	LD.b	r0,[r6+#14]
	LSR	r0,#4
	SUB	r0,r0,#1
	LSR	r0,#31
	LJMP	r7
.LVL32:
.LM63:
	LD.b	r0,[r6+#15]
	LSR	r0,#3
	SUB	r0,r0,#1
	LSR	r0,#31
	LJMP	r7
.LVL33:
.LM64:
	LD.w	r5,[r6+#4]
	MOV	r0,#1
	CMP	r5,#0
	JZ	.L43
.LM65:
	MOV	r4,#1
	LSL	r4,#15
	CMP	r5,r4
	JZ	.L43
	MOV	r0,#0
.L43:
.LM66:
	LJMP	r7
.LVL34:
.LM67:
	LD.w	r3,[r8]
.LVL35:
.LM68:
	LD.w	r2,[r6+#1]
	LD.w	r4,[r6+#2]
	ORL	r5,r2,r4
.LM69:
	SET	r5,#0
.LM70:
	LD.w	r4,[r6]
	LSL	r4,#7
	ORL	r5,r5,r4
.LBB50:
.LBB51:
.LM71:
	MOV	r4,#231
	NOT	r4,r4
	ANL	r4,r3,r4
	ORL	r5,r5,r4
.LBE51:
.LBE50:
.LM72:
	ST.w	[r8],r5
.LVL36:
.LM73:
	MOV	r5,r8
	LD.w	r3,[r5+#1]
.LVL37:
.LM74:
	LD.b	r5,[r6+#12]
.LBB52:
.LBB53:
.LM75:
	LD	r4,#-65536
	ANL	r4,r3,r4
.LBE53:
.LBE52:
.LM76:
	ORL	r4,r5,r4
.LM77:
	LD.w	r2,[r6+#4]
	ORL	r4,r4,r2
.LM78:
	LD.b	r5,[r6+#13]
	LSL	r5,#6
.LM79:
	ORL	r5,r4,r5
.LM80:
	LD.b	r4,[r6+#14]
	LSL	r4,#8
.LM81:
	ORL	r5,r5,r4
.LM82:
	LD.b	r4,[r6+#15]
	LSL	r4,#12
.LBB55:
.LBB54:
.LM83:
	ORL	r5,r5,r4
.LBE54:
.LBE55:
.LM84:
	MOV	r3,r8
.LVL38:
	ST.w	[r3+#1],r5
.LM85:
	LD.w	r4,[r6+#5]
	ST.w	[r3+#4],r4
.LM86:
	LD.w	r2,[r6+#6]
	ST.w	[r3+#5],r2
.LM87:
	POP	{r6, r7, r8}
	.cfi_def_cfa_offset 4
.LVL39:
	POP	lr
	.cfi_def_cfa_offset 0
	JMP	lr
	.cfi_endproc
.LFE3:
	.size	CAN_Configuration_With_Reset_Mode, .-CAN_Configuration_With_Reset_Mode
	.section .text$CAN_Struct_Init
	.type	.text$CAN_Struct_Init$scode_local_4, @function
	.text$CAN_Struct_Init$scode_local_4:
	.align	1
	.export	CAN_Struct_Init
	.type	CAN_Struct_Init, @function
CAN_Struct_Init:
.LFB4:
.LM88:
	.cfi_startproc
.LVL40:
.LM89:
	MOV	r5,#0
	ST.w	[r0],r5
.LM90:
	ST.w	[r0+#1],r5
.LM91:
	ST.w	[r0+#2],r5
.LM92:
	ST.b	[r0+#12],r5
.LM93:
	ST.b	[r0+#13],r5
.LM94:
	ST.b	[r0+#14],r5
.LM95:
	ST.b	[r0+#15],r5
.LM96:
	ST.w	[r0+#4],r5
.LM97:
	ST.w	[r0+#5],r5
.LM98:
	ST.w	[r0+#6],r5
.LM99:
	JMP	lr
	.cfi_endproc
.LFE4:
	.size	CAN_Struct_Init, .-CAN_Struct_Init
	.section .text$CAN_Get_Receive_Message_Counter
	.type	.text$CAN_Get_Receive_Message_Counter$scode_local_5, @function
	.text$CAN_Get_Receive_Message_Counter$scode_local_5:
	.align	1
	.export	CAN_Get_Receive_Message_Counter
	.type	CAN_Get_Receive_Message_Counter, @function
CAN_Get_Receive_Message_Counter:
.LFB5:
.LM100:
	.cfi_startproc
.LVL41:
	PUSH	{r6, lr}
	.cfi_def_cfa_offset 8
	MOV	r6,r0
.LVL42:
.LM101:
	MOV	r0,#1
.LVL43:
	LD	r5,#1073752192
	CMP	r6,r5
	JZ	.L65
	MOV	r0,#0
.L65:
	LD	r5,#CHECK_RESTRICTION
	LJMP	r5
.LVL44:
.LM102:
	LD.w	r0,[r6]
.LVL45:
.LM103:
	LD	r5,#2130706432
	ANL	r0,r0,r5
.LVL46:
.LM104:
	LSR	r0,#24
.LVL47:
	POP	r6
	.cfi_def_cfa_offset 4
.LVL48:
	POP	lr
	.cfi_def_cfa_offset 0
	JMP	lr
	.cfi_endproc
.LFE5:
	.size	CAN_Get_Receive_Message_Counter, .-CAN_Get_Receive_Message_Counter
	.section .text$CAN_Get_Transmit_Status
	.type	.text$CAN_Get_Transmit_Status$scode_local_6, @function
	.text$CAN_Get_Transmit_Status$scode_local_6:
	.align	1
	.export	CAN_Get_Transmit_Status
	.type	CAN_Get_Transmit_Status, @function
CAN_Get_Transmit_Status:
.LFB6:
.LM105:
	.cfi_startproc
.LVL49:
	PUSH	{r6, r7, r8, lr}
	.cfi_def_cfa_offset 16
	MOV	r7,r0
	MOV	r6,r1
.LVL50:
.LM106:
	MOV	r0,#1
.LVL51:
	LD	r5,#1073752192
	CMP	r7,r5
	JZ	.L67
	MOV	r0,#0
.L67:
	LD	r5,#CHECK_RESTRICTION
	MOV	r8,r5
	LJMP	r5
.LVL52:
.LM107:
	MOV	r0,#1
	MOV	r5,#1
	LSL	r5,#23
	CMP	r6,r5
	JZ	.L68
.LM108:
	MOV	r5,#1
	LSL	r5,#22
	CMP	r6,r5
	JZ	.L68
.LM109:
	MOV	r5,#1
	LSL	r5,#21
	CMP	r6,r5
	JZ	.L68
	MOV	r5,#1
	LSL	r5,#20
	CMP	r6,r5
	JZ	.L68
	MOV	r5,#1
	LSL	r5,#19
	CMP	r6,r5
	JZ	.L68
	MOV	r5,#1
	LSL	r5,#18
	CMP	r6,r5
	JZ	.L68
	MOV	r5,#1
	LSL	r5,#17
	CMP	r6,r5
	JZ	.L68
	MOV	r5,#1
	LSL	r5,#16
	CMP	r6,r5
	JZ	.L68
	MOV	r0,#0
.L68:
.LM110:
	LJMP	r8
.LVL53:
.LM111:
	LD.w	r5,[r7]
.LVL54:
.LM112:
	ANL	r6,r6,r5
.LVL55:
	MOV	r5,#0
.LVL56:
	SUB	r5,r5,r6
	ORL	r0,r5,r6
.LM113:
	LSR	r0,#31
	POP	{r6, r7, r8}
	.cfi_def_cfa_offset 4
.LVL57:
	POP	lr
	.cfi_def_cfa_offset 0
	JMP	lr
	.cfi_endproc
.LFE6:
	.size	CAN_Get_Transmit_Status, .-CAN_Get_Transmit_Status
	.section .text$CAN_Cmd
	.type	.text$CAN_Cmd$scode_local_7, @function
	.text$CAN_Cmd$scode_local_7:
	.align	1
	.export	CAN_Cmd
	.type	CAN_Cmd, @function
CAN_Cmd:
.LFB7:
.LM114:
	.cfi_startproc
.LVL58:
	PUSH	{r6, r7, r8, lr}
	.cfi_def_cfa_offset 16
	MOV	r6,r0
	MOV	r7,r1
.LM115:
	MOV	r0,#1
.LVL59:
	LD	r5,#1073752192
	CMP	r6,r5
	JZ	.L78
	MOV	r0,#0
.L78:
	LD	r5,#CHECK_RESTRICTION
	MOV	r8,r5
	LJMP	r5
.LVL60:
.LM116:
	MOV	r0,#1
	CMP	r7,r0
	JLS	.L79
	MOV	r0,#0
.L79:
	LJMP	r8
.LVL61:
.LM117:
	CMP	r7,#0
	JNZ	.L82
.LM118:
// inline asm begin
	// 320 "../src/kf32a9k1xxx_can.c" 1
	CLR [r6], #7
	// 0 "" 2
.LM119:
// inline asm end
	POP	{r6, r7, r8}
	.cfi_remember_state
	.cfi_def_cfa_offset 4
.LVL62:
	POP	lr
	.cfi_def_cfa_offset 0
	JMP	lr
.LVL63:
.L82:
	.cfi_restore_state
.LM120:
// inline asm begin
	// 315 "../src/kf32a9k1xxx_can.c" 1
	SET [r6], #7
	// 0 "" 2
.LM121:
// inline asm end
	POP	{r6, r7, r8}
	.cfi_def_cfa_offset 4
.LVL64:
	POP	lr
	.cfi_def_cfa_offset 0
	JMP	lr
	.cfi_endproc
.LFE7:
	.size	CAN_Cmd, .-CAN_Cmd
	.section .text$CAN_Clock_Source_Config
	.type	.text$CAN_Clock_Source_Config$scode_local_8, @function
	.text$CAN_Clock_Source_Config$scode_local_8:
	.align	1
	.export	CAN_Clock_Source_Config
	.type	CAN_Clock_Source_Config, @function
CAN_Clock_Source_Config:
.LFB8:
.LM122:
	.cfi_startproc
.LVL65:
	PUSH	{r6, r7, r8, lr}
	.cfi_def_cfa_offset 16
	MOV	r7,r0
	MOV	r6,r1
.LM123:
	MOV	r0,#1
.LVL66:
	LD	r5,#1073752192
	CMP	r7,r5
	JZ	.L84
	MOV	r0,#0
.L84:
	LD	r5,#CHECK_RESTRICTION
	MOV	r8,r5
	LJMP	r5
.LVL67:
.LM124:
	MOV	r0,#1
	CMP	r6,#0
	JZ	.L85
.LM125:
	CMP	r6,#32
	JZ	.L85
.LM126:
	CMP	r6,#64
	JZ	.L85
	MOV	r0,#0
.L85:
.LM127:
	LJMP	r8
.LVL68:
.LM128:
	LD.w	r5,[r7]
.LVL69:
.LBB56:
.LBB57:
.LM129:
	CLR	r5,#5
	CLR	r5,#6
.LVL70:
	ORL	r6,r6,r5
.LVL71:
.LBE57:
.LBE56:
.LM130:
	ST.w	[r7],r6
.LM131:
	POP	{r6, r7, r8}
	.cfi_def_cfa_offset 4
.LVL72:
	POP	lr
	.cfi_def_cfa_offset 0
	JMP	lr
	.cfi_endproc
.LFE8:
	.size	CAN_Clock_Source_Config, .-CAN_Clock_Source_Config
	.section .text$CAN_Sleep_Mode_Enable
	.type	.text$CAN_Sleep_Mode_Enable$scode_local_9, @function
	.text$CAN_Sleep_Mode_Enable$scode_local_9:
	.align	1
	.export	CAN_Sleep_Mode_Enable
	.type	CAN_Sleep_Mode_Enable, @function
CAN_Sleep_Mode_Enable:
.LFB9:
.LM132:
	.cfi_startproc
.LVL73:
	PUSH	{r6, r7, r8, lr}
	.cfi_def_cfa_offset 16
	MOV	r6,r0
	MOV	r7,r1
.LM133:
	MOV	r0,#1
.LVL74:
	LD	r5,#1073752192
	CMP	r6,r5
	JZ	.L95
	MOV	r0,#0
.L95:
	LD	r5,#CHECK_RESTRICTION
	MOV	r8,r5
	LJMP	r5
.LVL75:
.LM134:
	MOV	r0,#1
	CMP	r7,r0
	JLS	.L96
	MOV	r0,#0
.L96:
	LJMP	r8
.LVL76:
.LM135:
	CMP	r7,#0
	JNZ	.L99
.LM136:
// inline asm begin
	// 366 "../src/kf32a9k1xxx_can.c" 1
	CLR [r6], #3
	// 0 "" 2
.LM137:
// inline asm end
	POP	{r6, r7, r8}
	.cfi_remember_state
	.cfi_def_cfa_offset 4
.LVL77:
	POP	lr
	.cfi_def_cfa_offset 0
	JMP	lr
.LVL78:
.L99:
	.cfi_restore_state
.LM138:
// inline asm begin
	// 361 "../src/kf32a9k1xxx_can.c" 1
	SET [r6], #3
	// 0 "" 2
.LM139:
// inline asm end
	POP	{r6, r7, r8}
	.cfi_def_cfa_offset 4
.LVL79:
	POP	lr
	.cfi_def_cfa_offset 0
	JMP	lr
	.cfi_endproc
.LFE9:
	.size	CAN_Sleep_Mode_Enable, .-CAN_Sleep_Mode_Enable
	.section .text$CAN_Reset_Mode_Enable
	.type	.text$CAN_Reset_Mode_Enable$scode_local_10, @function
	.text$CAN_Reset_Mode_Enable$scode_local_10:
	.align	1
	.export	CAN_Reset_Mode_Enable
	.type	CAN_Reset_Mode_Enable, @function
CAN_Reset_Mode_Enable:
.LFB10:
.LM140:
	.cfi_startproc
.LVL80:
	PUSH	{r6, r7, r8, lr}
	.cfi_def_cfa_offset 16
	MOV	r6,r0
	MOV	r7,r1
.LM141:
	MOV	r0,#1
.LVL81:
	LD	r5,#1073752192
	CMP	r6,r5
	JZ	.L101
	MOV	r0,#0
.L101:
	LD	r5,#CHECK_RESTRICTION
	MOV	r8,r5
	LJMP	r5
.LVL82:
.LM142:
	MOV	r0,#1
	CMP	r7,r0
	JLS	.L102
	MOV	r0,#0
.L102:
	LJMP	r8
.LVL83:
.LM143:
	CMP	r7,#0
	JNZ	.L105
.LM144:
// inline asm begin
	// 392 "../src/kf32a9k1xxx_can.c" 1
	CLR [r6], #0
	// 0 "" 2
.LM145:
// inline asm end
	POP	{r6, r7, r8}
	.cfi_remember_state
	.cfi_def_cfa_offset 4
.LVL84:
	POP	lr
	.cfi_def_cfa_offset 0
	JMP	lr
.LVL85:
.L105:
	.cfi_restore_state
.LM146:
// inline asm begin
	// 387 "../src/kf32a9k1xxx_can.c" 1
	SET [r6], #0
	// 0 "" 2
.LM147:
// inline asm end
	POP	{r6, r7, r8}
	.cfi_def_cfa_offset 4
.LVL86:
	POP	lr
	.cfi_def_cfa_offset 0
	JMP	lr
	.cfi_endproc
.LFE10:
	.size	CAN_Reset_Mode_Enable, .-CAN_Reset_Mode_Enable
	.section .text$CAN_Work_Mode_Config
	.type	.text$CAN_Work_Mode_Config$scode_local_11, @function
	.text$CAN_Work_Mode_Config$scode_local_11:
	.align	1
	.export	CAN_Work_Mode_Config
	.type	CAN_Work_Mode_Config, @function
CAN_Work_Mode_Config:
.LFB11:
.LM148:
	.cfi_startproc
.LVL87:
	PUSH	{r6, r7, r8, lr}
	.cfi_def_cfa_offset 16
	MOV	r7,r0
	MOV	r6,r1
.LM149:
	MOV	r0,#1
.LVL88:
	LD	r5,#1073752192
	CMP	r7,r5
	JZ	.L107
	MOV	r0,#0
.L107:
	LD	r5,#CHECK_RESTRICTION
	MOV	r8,r5
	LJMP	r5
.LVL89:
.LM150:
	MOV	r0,#1
	CMP	r6,#0
	JZ	.L108
.LM151:
	CMP	r6,#2
	JZ	.L108
.LM152:
	CMP	r6,#4
	JZ	.L108
	CMP	r6,#6
	JZ	.L108
	MOV	r0,#0
.L108:
.LM153:
	LJMP	r8
.LVL90:
.LM154:
	LD.w	r5,[r7]
.LVL91:
.LBB58:
.LBB59:
.LM155:
	CLR	r5,#1
	CLR	r5,#2
.LVL92:
	ORL	r6,r6,r5
.LVL93:
.LBE59:
.LBE58:
.LM156:
	ST.w	[r7],r6
.LM157:
	POP	{r6, r7, r8}
	.cfi_def_cfa_offset 4
.LVL94:
	POP	lr
	.cfi_def_cfa_offset 0
	JMP	lr
	.cfi_endproc
.LFE11:
	.size	CAN_Work_Mode_Config, .-CAN_Work_Mode_Config
	.section .text$CAN_Bus_Sample_Times_Config
	.type	.text$CAN_Bus_Sample_Times_Config$scode_local_12, @function
	.text$CAN_Bus_Sample_Times_Config$scode_local_12:
	.align	1
	.export	CAN_Bus_Sample_Times_Config
	.type	CAN_Bus_Sample_Times_Config, @function
CAN_Bus_Sample_Times_Config:
.LFB12:
.LM158:
	.cfi_startproc
.LVL95:
	PUSH	{r6, r7, r8, lr}
	.cfi_def_cfa_offset 16
	MOV	r6,r0
	MOV	r8,r1
.LM159:
	MOV	r0,#1
.LVL96:
	LD	r5,#1073752192
	CMP	r6,r5
	JZ	.L120
	MOV	r0,#0
.L120:
	LD	r7,#CHECK_RESTRICTION
	LJMP	r7
.LVL97:
.LM160:
	MOV	r0,#1
	CMP	r8,#0
	JZ	.L121
.LM161:
	MOV	r5,#1
	LSL	r5,#15
	CMP	r8,r5
	JZ	.L122
	MOV	r0,#0
.L122:
	LJMP	r7
.LVL98:
.LM162:
	ADD	r6,r6,#4
.LVL99:
// inline asm begin
	// 438 "../src/kf32a9k1xxx_can.c" 1
	SET [r6], #15
	// 0 "" 2
.LM163:
// inline asm end
	POP	{r6, r7, r8}
	.cfi_remember_state
	.cfi_def_cfa_offset 4
.LVL100:
	POP	lr
	.cfi_def_cfa_offset 0
	JMP	lr
.LVL101:
.L121:
	.cfi_restore_state
.LM164:
	LJMP	r7
.LVL102:
.LM165:
	ADD	r6,r6,#4
.LVL103:
// inline asm begin
	// 443 "../src/kf32a9k1xxx_can.c" 1
	CLR [r6], #15
	// 0 "" 2
.LM166:
// inline asm end
	POP	{r6, r7, r8}
	.cfi_def_cfa_offset 4
.LVL104:
	POP	lr
	.cfi_def_cfa_offset 0
	JMP	lr
	.cfi_endproc
.LFE12:
	.size	CAN_Bus_Sample_Times_Config, .-CAN_Bus_Sample_Times_Config
	.section .text$CAN_Time_Segment_Config
	.type	.text$CAN_Time_Segment_Config$scode_local_13, @function
	.text$CAN_Time_Segment_Config$scode_local_13:
	.align	1
	.export	CAN_Time_Segment_Config
	.type	CAN_Time_Segment_Config, @function
CAN_Time_Segment_Config:
.LFB13:
.LM167:
	.cfi_startproc
.LVL105:
	PUSH	{r6, r7, r8, r9, lr}
	.cfi_def_cfa_offset 20
	MOV	r6,r0
	MOV	r9,r1
	MOV	r8,r2
.LVL106:
.LM168:
	MOV	r0,#1
.LVL107:
	LD	r5,#1073752192
	CMP	r6,r5
	JZ	.L125
	MOV	r0,#0
.L125:
	LD	r7,#CHECK_RESTRICTION
	LJMP	r7
.LVL108:
.LM169:
	MOV	r5,r9
	LSR	r5,#4
	MOV	r0,#1
	CMP	r5,#0
	JZ	.L126
	MOV	r0,#0
.L126:
	LJMP	r7
.LVL109:
.LM170:
	MOV	r5,r8
	LSR	r5,#3
	MOV	r0,#1
	CMP	r5,#0
	JZ	.L127
	MOV	r0,#0
.L127:
	LJMP	r7
.LVL110:
.LM171:
	LD.w	r4,[r6+#1]
.LVL111:
.LM172:
	LSL	r9,#8
.LVL112:
.LBB60:
.LBB61:
.LM173:
	LD	r5,#-32513
	ANL	r5,r4,r5
.LBE61:
.LBE60:
.LM174:
	MOV	r4,r9
.LVL113:
	ORL	r5,r4,r5
.LM175:
	LSL	r8,#12
.LVL114:
.LBB63:
.LBB62:
.LM176:
	ORL	r5,r8
.LBE62:
.LBE63:
.LM177:
	ST.w	[r6+#1],r5
.LM178:
	POP	{r6, r7, r8, r9}
	.cfi_def_cfa_offset 4
	POP	lr
	.cfi_def_cfa_offset 0
	JMP	lr
	.cfi_endproc
.LFE13:
	.size	CAN_Time_Segment_Config, .-CAN_Time_Segment_Config
	.section .text$CAN_Sync_Jump_Width_Config
	.type	.text$CAN_Sync_Jump_Width_Config$scode_local_14, @function
	.text$CAN_Sync_Jump_Width_Config$scode_local_14:
	.align	1
	.export	CAN_Sync_Jump_Width_Config
	.type	CAN_Sync_Jump_Width_Config, @function
CAN_Sync_Jump_Width_Config:
.LFB14:
.LM179:
	.cfi_startproc
.LVL115:
	PUSH	{r6, r7, r8, lr}
	.cfi_def_cfa_offset 16
	MOV	r6,r0
	MOV	r7,r1
.LVL116:
.LM180:
	MOV	r0,#1
.LVL117:
	LD	r5,#1073752192
	CMP	r6,r5
	JZ	.L135
	MOV	r0,#0
.L135:
	LD	r4,#CHECK_RESTRICTION
	MOV	r8,r4
	LJMP	r4
.LVL118:
.LM181:
	MOV	r4,#2
	LSR	r5,r7,r4
	MOV	r0,#1
	CMP	r5,#0
	JZ	.L136
	MOV	r0,#0
.L136:
	LJMP	r8
.LVL119:
.LM182:
	LD.w	r5,[r6+#1]
.LVL120:
.LM183:
	LSL	r7,#6
.LVL121:
.LBB64:
.LBB65:
.LM184:
	CLR	r5,#6
	CLR	r5,#7
.LVL122:
	ORL	r7,r7,r5
.LVL123:
.LBE65:
.LBE64:
.LM185:
	ST.w	[r6+#1],r7
.LM186:
	POP	{r6, r7, r8}
	.cfi_def_cfa_offset 4
	POP	lr
	.cfi_def_cfa_offset 0
	JMP	lr
	.cfi_endproc
.LFE14:
	.size	CAN_Sync_Jump_Width_Config, .-CAN_Sync_Jump_Width_Config
	.section .text$CAN_Baud_Rate_Preset_Config
	.type	.text$CAN_Baud_Rate_Preset_Config$scode_local_15, @function
	.text$CAN_Baud_Rate_Preset_Config$scode_local_15:
	.align	1
	.export	CAN_Baud_Rate_Preset_Config
	.type	CAN_Baud_Rate_Preset_Config, @function
CAN_Baud_Rate_Preset_Config:
.LFB15:
.LM187:
	.cfi_startproc
.LVL124:
	PUSH	{r6, r7, r8, lr}
	.cfi_def_cfa_offset 16
	MOV	r6,r0
	MOV	r7,r1
.LVL125:
.LM188:
	MOV	r0,#1
.LVL126:
	LD	r5,#1073752192
	CMP	r6,r5
	JZ	.L141
	MOV	r0,#0
.L141:
	LD	r4,#CHECK_RESTRICTION
	MOV	r8,r4
	LJMP	r4
.LVL127:
.LM189:
	MOV	r4,#6
	LSR	r5,r7,r4
	MOV	r0,#1
	CMP	r5,#0
	JZ	.L142
	MOV	r0,#0
.L142:
	LJMP	r8
.LVL128:
.LM190:
	LD.w	r4,[r6+#1]
.LVL129:
.LBB66:
.LBB67:
.LM191:
	MOV	r5,#63
	NOT	r5,r5
	ANL	r5,r4,r5
	ORL	r7,r7,r5
.LVL130:
.LBE67:
.LBE66:
.LM192:
	ST.w	[r6+#1],r7
.LM193:
	POP	{r6, r7, r8}
	.cfi_def_cfa_offset 4
	POP	lr
	.cfi_def_cfa_offset 0
	JMP	lr
	.cfi_endproc
.LFE15:
	.size	CAN_Baud_Rate_Preset_Config, .-CAN_Baud_Rate_Preset_Config
	.section .text$CAN_Get_Point_Of_RAM_Mailbox
	.type	.text$CAN_Get_Point_Of_RAM_Mailbox$scode_local_16, @function
	.text$CAN_Get_Point_Of_RAM_Mailbox$scode_local_16:
	.align	1
	.export	CAN_Get_Point_Of_RAM_Mailbox
	.type	CAN_Get_Point_Of_RAM_Mailbox, @function
CAN_Get_Point_Of_RAM_Mailbox:
.LFB16:
.LM194:
	.cfi_startproc
.LVL131:
	PUSH	{r6, lr}
	.cfi_def_cfa_offset 8
	MOV	r6,r0
.LVL132:
.LM195:
	MOV	r0,#1
.LVL133:
	LD	r5,#1073752192
	CMP	r6,r5
	JZ	.L147
	MOV	r0,#0
.L147:
	LD	r5,#CHECK_RESTRICTION
	LJMP	r5
.LVL134:
.LM196:
	LD.w	r0,[r6+#2]
.LVL135:
	MOV	r5,#1
	LSL	r5,#16
	ANL	r0,r0,r5
.LVL136:
.LM197:
	LSR	r0,#16
	ZXT.b	r0,r0
.LM198:
	POP	r6
	.cfi_def_cfa_offset 4
.LVL137:
	POP	lr
	.cfi_def_cfa_offset 0
	JMP	lr
	.cfi_endproc
.LFE16:
	.size	CAN_Get_Point_Of_RAM_Mailbox, .-CAN_Get_Point_Of_RAM_Mailbox
	.section .text$CAN_Get_Error_Code
	.type	.text$CAN_Get_Error_Code$scode_local_17, @function
	.text$CAN_Get_Error_Code$scode_local_17:
	.align	1
	.export	CAN_Get_Error_Code
	.type	CAN_Get_Error_Code, @function
CAN_Get_Error_Code:
.LFB17:
.LM199:
	.cfi_startproc
.LVL138:
	PUSH	{r6, r7, r8, lr}
	.cfi_def_cfa_offset 16
	MOV	r7,r0
	MOV	r6,r1
.LVL139:
.LM200:
	MOV	r0,#1
.LVL140:
	LD	r5,#1073752192
	CMP	r7,r5
	JZ	.L149
	MOV	r0,#0
.L149:
	LD	r5,#CHECK_RESTRICTION
	MOV	r8,r5
	LJMP	r5
.LVL141:
.LM201:
	MOV	r0,#0
	SUB	r0,r0,r6
	ORL	r0,r6,r0
	LSR	r0,#31
	LJMP	r8
.LVL142:
.LM202:
	LD.w	r5,[r7+#2]
.LVL143:
.LM203:
	LD	r4,#49152
	ANL	r4,r5,r4
.LVL144:
.LM204:
	LSR	r4,#14
.LVL145:
.LM205:
	ST.b	[r6],r4
.LM206:
	MOV	r4,#1
.LVL146:
	LSL	r4,#13
	ANL	r4,r5,r4
.LVL147:
.LM207:
	LSR	r4,#13
.LVL148:
.LM208:
	ST.b	[r6+#1],r4
.LM209:
	LD	r4,#7936
.LVL149:
	ANL	r4,r5,r4
.LVL150:
.LM210:
	LSR	r4,#8
.LVL151:
.LM211:
	ST.b	[r6+#2],r4
.LVL152:
.LM212:
	MOV	r4,#31
	ANL	r5,r5,r4
.LVL153:
.LM213:
	ST.b	[r6+#3],r5
.LM214:
	POP	{r6, r7, r8}
	.cfi_def_cfa_offset 4
.LVL154:
	POP	lr
	.cfi_def_cfa_offset 0
	JMP	lr
	.cfi_endproc
.LFE17:
	.size	CAN_Get_Error_Code, .-CAN_Get_Error_Code
	.section .text$CAN_Get_Error_Warning_Limit
	.type	.text$CAN_Get_Error_Warning_Limit$scode_local_18, @function
	.text$CAN_Get_Error_Warning_Limit$scode_local_18:
	.align	1
	.export	CAN_Get_Error_Warning_Limit
	.type	CAN_Get_Error_Warning_Limit, @function
CAN_Get_Error_Warning_Limit:
.LFB18:
.LM215:
	.cfi_startproc
.LVL155:
	PUSH	{r6, lr}
	.cfi_def_cfa_offset 8
	MOV	r6,r0
.LVL156:
.LM216:
	MOV	r0,#1
.LVL157:
	LD	r5,#1073752192
	CMP	r6,r5
	JZ	.L151
	MOV	r0,#0
.L151:
	LD	r5,#CHECK_RESTRICTION
	LJMP	r5
.LVL158:
.LM217:
	LD.w	r0,[r6+#3]
.LVL159:
.LM218:
	ZXT.b	r0,r0
.LVL160:
	POP	r6
	.cfi_def_cfa_offset 4
.LVL161:
	POP	lr
	.cfi_def_cfa_offset 0
	JMP	lr
	.cfi_endproc
.LFE18:
	.size	CAN_Get_Error_Warning_Limit, .-CAN_Get_Error_Warning_Limit
	.section .text$CAN_Get_Error_Counter
	.type	.text$CAN_Get_Error_Counter$scode_local_19, @function
	.text$CAN_Get_Error_Counter$scode_local_19:
	.align	1
	.export	CAN_Get_Error_Counter
	.type	CAN_Get_Error_Counter, @function
CAN_Get_Error_Counter:
.LFB19:
.LM219:
	.cfi_startproc
.LVL162:
	PUSH	{r6, r7, r8, lr}
	.cfi_def_cfa_offset 16
	MOV	r7,r0
	MOV	r6,r1
.LVL163:
.LM220:
	MOV	r0,#1
.LVL164:
	LD	r5,#1073752192
	CMP	r7,r5
	JZ	.L153
	MOV	r0,#0
.L153:
	LD	r5,#CHECK_RESTRICTION
	MOV	r8,r5
	LJMP	r5
.LVL165:
.LM221:
	MOV	r0,#1
	CMP	r6,r0
	JLS	.L154
	MOV	r0,#0
.L154:
	LJMP	r8
.LVL166:
.LM222:
	LD.w	r0,[r7+#3]
.LVL167:
.LM223:
	CMP	r6,#0
	JNZ	.L157
.LM224:
	LD	r5,#65280
	ANL	r0,r0,r5
.LVL168:
.LM225:
	LSR	r0,#8
.LVL169:
.LM226:
	POP	{r6, r7, r8}
	.cfi_remember_state
	.cfi_def_cfa_offset 4
.LVL170:
	POP	lr
	.cfi_def_cfa_offset 0
	JMP	lr
.LVL171:
.L157:
	.cfi_restore_state
.LM227:
	ZXT.b	r0,r0
.LVL172:
.LM228:
	POP	{r6, r7, r8}
	.cfi_def_cfa_offset 4
.LVL173:
	POP	lr
	.cfi_def_cfa_offset 0
	JMP	lr
	.cfi_endproc
.LFE19:
	.size	CAN_Get_Error_Counter, .-CAN_Get_Error_Counter
	.section .text$CAN_Error_Warning_Limit_Config
	.type	.text$CAN_Error_Warning_Limit_Config$scode_local_20, @function
	.text$CAN_Error_Warning_Limit_Config$scode_local_20:
	.align	1
	.export	CAN_Error_Warning_Limit_Config
	.type	CAN_Error_Warning_Limit_Config, @function
CAN_Error_Warning_Limit_Config:
.LFB20:
.LM229:
	.cfi_startproc
.LVL174:
	PUSH	{r6, r7, lr}
	.cfi_def_cfa_offset 12
	MOV	r6,r0
	ZXT.b	r7,r1
.LVL175:
.LM230:
	MOV	r0,#1
.LVL176:
	LD	r5,#1073752192
	CMP	r6,r5
	JZ	.L159
	MOV	r0,#0
.L159:
	LD	r5,#CHECK_RESTRICTION
	LJMP	r5
.LVL177:
.LM231:
	LD.w	r4,[r6+#3]
.LVL178:
.LM232:
	LSL	r7,#16
.LVL179:
.LBB68:
.LBB69:
.LM233:
	LD	r5,#-16711681
	ANL	r5,r4,r5
	ORL	r7,r7,r5
.LBE69:
.LBE68:
.LM234:
	ST.w	[r6+#3],r7
.LM235:
	POP	{r6, r7}
	.cfi_def_cfa_offset 4
	POP	lr
	.cfi_def_cfa_offset 0
	JMP	lr
	.cfi_endproc
.LFE20:
	.size	CAN_Error_Warning_Limit_Config, .-CAN_Error_Warning_Limit_Config
	.section .text$CAN_Error_Counter_Config
	.type	.text$CAN_Error_Counter_Config$scode_local_21, @function
	.text$CAN_Error_Counter_Config$scode_local_21:
	.align	1
	.export	CAN_Error_Counter_Config
	.type	CAN_Error_Counter_Config, @function
CAN_Error_Counter_Config:
.LFB21:
.LM236:
	.cfi_startproc
.LVL180:
	PUSH	{r6, r7, r8, r9, lr}
	.cfi_def_cfa_offset 20
	MOV	r6,r0
	MOV	r7,r1
	ZXT.b	r9,r2
.LVL181:
.LM237:
	MOV	r0,#1
.LVL182:
	LD	r5,#1073752192
	CMP	r6,r5
	JZ	.L161
	MOV	r0,#0
.L161:
	LD	r5,#CHECK_RESTRICTION
	MOV	r8,r5
	LJMP	r5
.LVL183:
.LM238:
	MOV	r0,#1
	CMP	r7,r0
	JLS	.L162
	MOV	r0,#0
.L162:
	LJMP	r8
.LVL184:
.LM239:
	CMP	r7,#0
	JNZ	.L165
.LM240:
	LSL	r9,#8
.LVL185:
	LD	r4,#-65281
.LVL186:
.LM241:
	LD.w	r5,[r6+#3]
.LVL187:
.LBB70:
.LBB71:
.LM242:
	ANL	r5,r4,r5
.LVL188:
	ORL	r5,r9
.LBE71:
.LBE70:
.LM243:
	ST.w	[r6+#3],r5
.LM244:
	POP	{r6, r7, r8, r9}
	.cfi_remember_state
	.cfi_def_cfa_offset 4
.LVL189:
	POP	lr
	.cfi_def_cfa_offset 0
	JMP	lr
.LVL190:
.L165:
	.cfi_restore_state
.LM245:
	MOV	r4,#255
	NOT	r4,r4
.LVL191:
.LM246:
	LD.w	r5,[r6+#3]
.LVL192:
.LBB73:
.LBB72:
.LM247:
	ANL	r5,r4,r5
.LVL193:
	ORL	r5,r9
.LBE72:
.LBE73:
.LM248:
	ST.w	[r6+#3],r5
.LM249:
	POP	{r6, r7, r8, r9}
	.cfi_def_cfa_offset 4
.LVL194:
	POP	lr
	.cfi_def_cfa_offset 0
	JMP	lr
	.cfi_endproc
.LFE21:
	.size	CAN_Error_Counter_Config, .-CAN_Error_Counter_Config
	.section .text$CAN_Acceptance_Config
	.type	.text$CAN_Acceptance_Config$scode_local_22, @function
	.text$CAN_Acceptance_Config$scode_local_22:
	.align	1
	.export	CAN_Acceptance_Config
	.type	CAN_Acceptance_Config, @function
CAN_Acceptance_Config:
.LFB22:
.LM250:
	.cfi_startproc
.LVL195:
	PUSH	{r6, r7, lr}
	.cfi_def_cfa_offset 12
	MOV	r6,r0
	MOV	r7,r1
.LM251:
	MOV	r0,#1
.LVL196:
	LD	r5,#1073752192
	CMP	r6,r5
	JZ	.L167
	MOV	r0,#0
.L167:
	LD	r5,#CHECK_RESTRICTION
	LJMP	r5
.LVL197:
.LM252:
	ST.w	[r6+#4],r7
.LM253:
	POP	{r6, r7}
	.cfi_def_cfa_offset 4
.LVL198:
	POP	lr
	.cfi_def_cfa_offset 0
	JMP	lr
	.cfi_endproc
.LFE22:
	.size	CAN_Acceptance_Config, .-CAN_Acceptance_Config
	.section .text$CAN_Get_Acceptance
	.type	.text$CAN_Get_Acceptance$scode_local_23, @function
	.text$CAN_Get_Acceptance$scode_local_23:
	.align	1
	.export	CAN_Get_Acceptance
	.type	CAN_Get_Acceptance, @function
CAN_Get_Acceptance:
.LFB23:
.LM254:
	.cfi_startproc
.LVL199:
	PUSH	{r6, lr}
	.cfi_def_cfa_offset 8
	MOV	r6,r0
.LVL200:
.LM255:
	MOV	r0,#1
.LVL201:
	LD	r5,#1073752192
	CMP	r6,r5
	JZ	.L169
	MOV	r0,#0
.L169:
	LD	r5,#CHECK_RESTRICTION
	LJMP	r5
.LVL202:
.LM256:
	LD.w	r0,[r6+#4]
.LVL203:
.LM257:
	POP	r6
	.cfi_def_cfa_offset 4
.LVL204:
	POP	lr
	.cfi_def_cfa_offset 0
	JMP	lr
	.cfi_endproc
.LFE23:
	.size	CAN_Get_Acceptance, .-CAN_Get_Acceptance
	.section .text$CAN_Acceptance_Mask_Config
	.type	.text$CAN_Acceptance_Mask_Config$scode_local_24, @function
	.text$CAN_Acceptance_Mask_Config$scode_local_24:
	.align	1
	.export	CAN_Acceptance_Mask_Config
	.type	CAN_Acceptance_Mask_Config, @function
CAN_Acceptance_Mask_Config:
.LFB24:
.LM258:
	.cfi_startproc
.LVL205:
	PUSH	{r6, r7, lr}
	.cfi_def_cfa_offset 12
	MOV	r6,r0
	MOV	r7,r1
.LM259:
	MOV	r0,#1
.LVL206:
	LD	r5,#1073752192
	CMP	r6,r5
	JZ	.L171
	MOV	r0,#0
.L171:
	LD	r5,#CHECK_RESTRICTION
	LJMP	r5
.LVL207:
.LM260:
	ST.w	[r6+#5],r7
.LM261:
	POP	{r6, r7}
	.cfi_def_cfa_offset 4
.LVL208:
	POP	lr
	.cfi_def_cfa_offset 0
	JMP	lr
	.cfi_endproc
.LFE24:
	.size	CAN_Acceptance_Mask_Config, .-CAN_Acceptance_Mask_Config
	.section .text$CAN_Get_Acceptance_Mask
	.type	.text$CAN_Get_Acceptance_Mask$scode_local_25, @function
	.text$CAN_Get_Acceptance_Mask$scode_local_25:
	.align	1
	.export	CAN_Get_Acceptance_Mask
	.type	CAN_Get_Acceptance_Mask, @function
CAN_Get_Acceptance_Mask:
.LFB25:
.LM262:
	.cfi_startproc
.LVL209:
	PUSH	{r6, lr}
	.cfi_def_cfa_offset 8
	MOV	r6,r0
.LVL210:
.LM263:
	MOV	r0,#1
.LVL211:
	LD	r5,#1073752192
	CMP	r6,r5
	JZ	.L173
	MOV	r0,#0
.L173:
	LD	r5,#CHECK_RESTRICTION
	LJMP	r5
.LVL212:
.LM264:
	LD.w	r0,[r6+#5]
.LVL213:
.LM265:
	POP	r6
	.cfi_def_cfa_offset 4
.LVL214:
	POP	lr
	.cfi_def_cfa_offset 0
	JMP	lr
	.cfi_endproc
.LFE25:
	.size	CAN_Get_Acceptance_Mask, .-CAN_Get_Acceptance_Mask
	.section .text$CAN_Turn_Cailbration_Enable
	.type	.text$CAN_Turn_Cailbration_Enable$scode_local_26, @function
	.text$CAN_Turn_Cailbration_Enable$scode_local_26:
	.align	1
	.export	CAN_Turn_Cailbration_Enable
	.type	CAN_Turn_Cailbration_Enable, @function
CAN_Turn_Cailbration_Enable:
.LFB26:
.LM266:
	.cfi_startproc
.LVL215:
	PUSH	{r6, r7, r8, lr}
	.cfi_def_cfa_offset 16
	MOV	r6,r0
	MOV	r7,r1
.LM267:
	MOV	r0,#1
.LVL216:
	LD	r5,#1073752192
	CMP	r6,r5
	JZ	.L175
	MOV	r0,#0
.L175:
	LD	r5,#CHECK_RESTRICTION
	MOV	r8,r5
	LJMP	r5
.LVL217:
.LM268:
	MOV	r0,#1
	CMP	r7,r0
	JLS	.L176
	MOV	r0,#0
.L176:
	LJMP	r8
.LVL218:
.LM269:
	LD.w	r5,[r6]
.LVL219:
	LSL	r7,#4
.LVL220:
.LBB74:
.LBB75:
.LM270:
	CLR	r5,#4
.LVL221:
	ORL	r7,r7,r5
.LVL222:
.LBE75:
.LBE74:
.LM271:
	ST.w	[r6],r7
.LM272:
	POP	{r6, r7, r8}
	.cfi_def_cfa_offset 4
	POP	lr
	.cfi_def_cfa_offset 0
	JMP	lr
	.cfi_endproc
.LFE26:
	.size	CAN_Turn_Cailbration_Enable, .-CAN_Turn_Cailbration_Enable
	.section .text$CAN_Transmit_Message_Configuration
	.type	.text$CAN_Transmit_Message_Configuration$scode_local_27, @function
	.text$CAN_Transmit_Message_Configuration$scode_local_27:
	.align	1
	.export	CAN_Transmit_Message_Configuration
	.type	CAN_Transmit_Message_Configuration, @function
CAN_Transmit_Message_Configuration:
.LFB27:
.LM273:
	.cfi_startproc
.LVL223:
	PUSH	{r6, r7, r8, lr}
	.cfi_def_cfa_offset 16
	MOV	r7,r0
	MOV	r6,r1
.LVL224:
.LM274:
	MOV	r0,#1
.LVL225:
	LD	r5,#1073752192
	CMP	r7,r5
	JZ	.L178
	MOV	r0,#0
.L178:
	LD	r4,#CHECK_RESTRICTION
	MOV	r8,r4
	LJMP	r4
.LVL226:
.LM275:
	MOV	r0,#1
	LD.w	r5,[r6]
	CMP	r5,r0
	JLS	.L179
	MOV	r0,#0
.L179:
	LJMP	r8
.LVL227:
.LM276:
	MOV	r0,#1
	LD.w	r5,[r6+#1]
	CMP	r5,r0
	JLS	.L180
	MOV	r0,#0
.L180:
	LJMP	r8
.LVL228:
.LM277:
	LD.w	r5,[r6+#2]
	LSR	r5,#4
	MOV	r0,#1
	CMP	r5,#0
	JZ	.L181
	MOV	r0,#0
.L181:
	LJMP	r8
.LVL229:
.LM278:
	LD.w	r5,[r6+#3]
	LSR	r5,#11
	MOV	r0,#1
	CMP	r5,#0
	JZ	.L182
	MOV	r0,#0
.L182:
	LJMP	r8
.LVL230:
.LM279:
	LD.w	r5,[r6+#4]
	LSR	r5,#29
	MOV	r0,#1
	CMP	r5,#0
	JZ	.L183
	MOV	r0,#0
.L183:
	LJMP	r8
.LVL231:
.LM280:
	LD.w	r5,[r6]
.LVL232:
.LM281:
	LD.w	r2,[r7+#8]
.LVL233:
.LM282:
	MOV	r4,#7
	LSL	r3,r5,r4
.LM283:
	LD.w	r4,[r6+#1]
	LSL	r4,#6
	ORL	r3,r3,r4
.LM284:
	LD.w	r4,[r6+#2]
	ORL	r3,r3,r4
.LVL234:
.LBB76:
.LBB77:
.LM285:
	MOV	r4,#207
	NOT	r4,r4
	ANL	r4,r2,r4
	ORL	r4,r3,r4
.LBE77:
.LBE76:
.LM286:
	ST.w	[r7+#8],r4
.LM287:
	CMP	r5,#1
	JZ	.L184
.LVL235:
.LM288:
	LD.w	r3,[r7+#9]
.LVL236:
.LM289:
	LD.b	r4,[r6+#21]
.LM290:
	LD.w	r5,[r6+#3]
.LVL237:
	LSL	r5,#21
.LM291:
	ORL	r4,r4,r5
.LBB78:
.LBB79:
.LM292:
	LD	r5,#2031616
	ANL	r5,r3,r5
.LBE79:
.LBE78:
.LM293:
	ORL	r5,r4,r5
.LM294:
	LD.b	r4,[r6+#20]
	LSL	r4,#8
.LBB81:
.LBB80:
.LM295:
	ORL	r5,r5,r4
.LBE80:
.LBE81:
.LM296:
	ST.w	[r7+#9],r5
.LM297:
	LD.b	r4,[r6+#22]
	LSL	r4,#24
.LM298:
	LD.b	r5,[r6+#23]
	LSL	r5,#16
	ORL	r5,r4,r5
.LM299:
	LD.b	r4,[r6+#25]
.LM300:
	ORL	r5,r5,r4
	LD.b	r4,[r6+#24]
	LSL	r4,#8
.LM301:
	ORL	r5,r5,r4
.LVL238:
.LM302:
	ST.w	[r7+#10],r5
.LVL239:
.LM303:
	LD.w	r4,[r7+#11]
.LVL240:
.LM304:
	LD.b	r3,[r6+#26]
.LVL241:
	LSL	r3,#24
.LM305:
	LD.b	r5,[r6+#27]
	LSL	r5,#16
.LM306:
	ORL	r5,r3,r5
.LVL242:
.LBB82:
.LBB83:
.LM307:
	ZXT.h	r4,r4
.LVL243:
	ORL	r5,r5,r4
.LVL244:
.LBE83:
.LBE82:
.LM308:
	ST.w	[r7+#11],r5
.LM309:
	POP	{r6, r7, r8}
	.cfi_remember_state
	.cfi_def_cfa_offset 4
.LVL245:
	POP	lr
	.cfi_def_cfa_offset 0
	JMP	lr
.LVL246:
.L184:
	.cfi_restore_state
.LM310:
	LD.w	r4,[r7+#9]
.LVL247:
.LBB84:
.LBB85:
.LM311:
	MOV	r5,#7
	ANL	r5,r4,r5
.LBE85:
.LBE84:
.LM312:
	LD.w	r4,[r6+#4]
.LVL248:
	LSL	r4,#3
.LVL249:
.LBB87:
.LBB86:
.LM313:
	ORL	r5,r5,r4
.LBE86:
.LBE87:
.LM314:
	ST.w	[r7+#9],r5
.LM315:
	LD.b	r4,[r6+#20]
.LVL250:
	LSL	r4,#24
.LM316:
	LD.b	r5,[r6+#21]
	LSL	r5,#16
	ORL	r5,r4,r5
.LM317:
	LD.b	r4,[r6+#23]
.LM318:
	ORL	r5,r5,r4
	LD.b	r4,[r6+#22]
	LSL	r4,#8
.LM319:
	ORL	r5,r5,r4
.LVL251:
.LM320:
	ST.w	[r7+#10],r5
.LM321:
	LD.b	r4,[r6+#24]
	LSL	r4,#24
.LM322:
	LD.b	r5,[r6+#25]
.LVL252:
	LSL	r5,#16
	ORL	r5,r4,r5
.LM323:
	LD.b	r4,[r6+#27]
.LM324:
	ORL	r5,r5,r4
	LD.b	r4,[r6+#26]
	LSL	r4,#8
.LM325:
	ORL	r5,r5,r4
.LVL253:
.LM326:
	ST.w	[r7+#11],r5
.LM327:
	POP	{r6, r7, r8}
	.cfi_def_cfa_offset 4
.LVL254:
	POP	lr
	.cfi_def_cfa_offset 0
	JMP	lr
	.cfi_endproc
.LFE27:
	.size	CAN_Transmit_Message_Configuration, .-CAN_Transmit_Message_Configuration
	.section .text$CAN_Receive_Message_Configuration
	.type	.text$CAN_Receive_Message_Configuration$scode_local_28, @function
	.text$CAN_Receive_Message_Configuration$scode_local_28:
	.align	1
	.export	CAN_Receive_Message_Configuration
	.type	CAN_Receive_Message_Configuration, @function
CAN_Receive_Message_Configuration:
.LFB28:
.LM328:
	.cfi_startproc
.LVL255:
	PUSH	{r6, r7, r8, lr}
	.cfi_def_cfa_offset 16
	MOV	r6,r1
	MOV	r7,r2
.LVL256:
.LM329:
	MOV	r5,#1
	LD	r4,#1073752192
	CMP	r0,r4
	JZ	.L196
	MOV	r5,#0
.L196:
	MOV	r0,r5
.LVL257:
	LD	r5,#CHECK_RESTRICTION
	MOV	r8,r5
	LJMP	r5
.LVL258:
.LM330:
	MOV	r0,#1
	CMP	r6,#0
	JZ	.L197
.LM331:
	CMP	r6,#16
	JZ	.L197
.LM332:
	CMP	r6,#32
	JZ	.L197
	CMP	r6,#48
	JZ	.L197
	CMP	r6,#64
	JZ	.L197
	CMP	r6,#80
	JZ	.L197
	CMP	r6,#96
	JZ	.L197
	CMP	r6,#112
	JZ	.L197
	MOV	r5,#128
	CMP	r6,r5
	JZ	.L197
	MOV	r5,#144
	CMP	r6,r5
	JZ	.L197
	MOV	r5,#160
	CMP	r6,r5
	JZ	.L197
	MOV	r5,#176
	CMP	r6,r5
	JZ	.L197
	MOV	r5,#192
	CMP	r6,r5
	JZ	.L197
	MOV	r5,#208
	CMP	r6,r5
	JZ	.L197
	MOV	r5,#224
	CMP	r6,r5
	JZ	.L197
	MOV	r5,#240
	CMP	r6,r5
	JZ	.L197
	MOV	r0,#0
.L197:
.LM333:
	LJMP	r8
.LVL259:
.LM334:
	LD	r5,#536803328
.LM335:
	LD.w	r5,[r6+r5]
.LVL260:
.LM336:
	MOV	r4,#128
	ANL	r4,r5,r4
	LSR	r4,#7
.LVL261:
.LM337:
	ST.w	[r7],r4
.LVL262:
.LM338:
	MOV	r3,#64
	ANL	r3,r5,r3
	LSR	r3,#6
.LVL263:
.LM339:
	ST.w	[r7+#1],r3
.LM340:
	MOV	r3,#15
.LVL264:
	ANL	r5,r5,r3
.LVL265:
.LM341:
	ST.w	[r7+#2],r5
.LM342:
	CMP	r5,#0
	JNZ	.L195
.LM343:
	LD	r5,#536803332
.LVL266:
.LM344:
	LD.w	r5,[r6+r5]
.LM345:
	CMP	r4,#1
	JZ	.L200
.LVL267:
.LM346:
	LSR	r5,#21
.LVL268:
.LM347:
	ST.w	[r7+#3],r5
.LVL269:
.L195:
.LM348:
	POP	{r6, r7, r8}
	.cfi_remember_state
	.cfi_def_cfa_offset 4
.LVL270:
	POP	lr
	.cfi_def_cfa_offset 0
	JMP	lr
.LVL271:
.L200:
	.cfi_restore_state
.LM349:
	LSR	r5,#3
.LVL272:
.LM350:
	ST.w	[r7+#4],r5
.LVL273:
.LM351:
	POP	{r6, r7, r8}
	.cfi_def_cfa_offset 4
.LVL274:
	POP	lr
	.cfi_def_cfa_offset 0
	JMP	lr
	.cfi_endproc
.LFE28:
	.size	CAN_Receive_Message_Configuration, .-CAN_Receive_Message_Configuration
	.section .text$CAN_Receive_Message_Configuration_From_Register
	.type	.text$CAN_Receive_Message_Configuration_From_Register$scode_local_29, @function
	.text$CAN_Receive_Message_Configuration_From_Register$scode_local_29:
	.align	1
	.export	CAN_Receive_Message_Configuration_From_Register
	.type	CAN_Receive_Message_Configuration_From_Register, @function
CAN_Receive_Message_Configuration_From_Register:
.LFB29:
.LM352:
	.cfi_startproc
.LVL275:
	PUSH	r6
	.cfi_def_cfa_offset 4
	SUB	sp,#24
	.cfi_def_cfa_offset 28
.LVL276:
.LM353:
	MOV	r5,sp
	ADD	r5,#16
	MOV	r4,#1
	ST.b	[sp+#16],r4
	MOV	r4,#0
	ST.b	[r5+#1],r4
	MOV	r4,#7
	ST.b	[r5+#2],r4
	MOV	r4,#6
	ST.b	[r5+#3],r4
	MOV	r4,#5
	ST.b	[r5+#4],r4
	MOV	r4,#4
	ST.b	[r5+#5],r4
	MOV	r4,#11
	ST.b	[r5+#6],r4
	MOV	r4,#10
	ST.b	[r5+#7],r4
.LVL277:
.LM354:
	LD.w	r4,[r0+#12]
	ST.w	[sp],r4
.LM355:
	LD.w	r6,[r0+#13]
	ST.w	[sp+#1],r6
.LM356:
	LD.w	r3,[r0+#14]
	ST.w	[sp+#2],r3
.LM357:
	LD.w	r0,[r0+#15]
.LVL278:
	ST.w	[sp+#3],r0
.LM358:
	MOV	r0,#128
	ANL	r0,r4,r0
	LSR	r0,#7
	ST.w	[r1],r0
.LM359:
	MOV	r2,#64
	ANL	r2,r4,r2
	LSR	r2,#6
	ST.w	[r1+#1],r2
.LM360:
	MOV	r3,#15
	ANL	r3,r4,r3
	ST.w	[r1+#2],r3
.LM361:
	CMP	r0,#1
	JZ	.L226
.LM362:
	LSR	r6,#21
	ST.w	[r1+#3],r6
.LM363:
	CMP	r2,#0
	JZ	.L248
.LVL279:
.L225:
.LM364:
	ADD	sp,#24
	.cfi_remember_state
	.cfi_def_cfa_offset 4
	POP	r6
	.cfi_def_cfa_offset 0
	JMP	lr
.LVL280:
.L248:
	.cfi_restore_state
.LM365:
	CMP	r3,#8
	JHI	.L237
.LM366:
	CMP	r3,#0
	JZ	.L225
.L228:
.LVL281:
.LM367:
	MOV	r4,sp
	ADD	r0,r4,#4
.LVL282:
.LM368:
	ADD	r1,#20
.LVL283:
	MOV	r2,#1
.LM369:
	MOV	r4,#0
	JMP	.L231
.LVL284:
.L249:
	LD.b	r2,[r5+r4]
.LVL285:
.L231:
.LM370:
	LD.b	r2,[r2+r0]
.LM371:
	ST.b	[r1++],r2
.LM372:
	ADD	r4,r4,#1
.LVL286:
	CMP	r3,r4
	JHI	.L249
.LM373:
	ADD	sp,#24
	.cfi_remember_state
	.cfi_def_cfa_offset 4
	POP	r6
	.cfi_def_cfa_offset 0
	JMP	lr
.LVL287:
.L226:
	.cfi_restore_state
.LM374:
	LSR	r6,#3
	ST.w	[r1+#4],r6
.LM375:
	CMP	r2,#0
	JNZ	.L225
.LM376:
	CMP	r3,#8
	JHI	.L238
.LM377:
	CMP	r3,#0
	JZ	.L225
.L232:
.LVL288:
.LM378:
	MOV	r5,#0
.LM379:
	MOV	r0,sp
	ADD	r0,#19
	MOV	r2,sp
	ADD	r2,#11
.LM380:
	CMP	r5,#3
	JHI	.L233
.LVL289:
.L250:
.LM381:
	SUB	r4,r2,r5
.LM382:
	LD.b	r4,[r4]
.LM383:
	ST.b	[r1+#20],r4
.L234:
.LM384:
	ADD	r5,r5,#1
.LVL290:
	ADD	r1,r1,#1
	CMP	r3,r5
	JLS	.L225
.LM385:
	CMP	r5,#3
	JLS	.L250
.LVL291:
.L233:
.LM386:
	SUB	r4,r0,r5
.LM387:
	LD.b	r4,[r4]
.LM388:
	ST.b	[r1+#20],r4
	JMP	.L234
.LVL292:
.L237:
.LM389:
	MOV	r3,#8
	JMP	.L228
.L238:
.LM390:
	MOV	r3,#8
	JMP	.L232
	.cfi_endproc
.LFE29:
	.size	CAN_Receive_Message_Configuration_From_Register, .-CAN_Receive_Message_Configuration_From_Register
	.section .text$CAN_Message_Struct_Init
	.type	.text$CAN_Message_Struct_Init$scode_local_30, @function
	.text$CAN_Message_Struct_Init$scode_local_30:
	.align	1
	.export	CAN_Message_Struct_Init
	.type	CAN_Message_Struct_Init, @function
CAN_Message_Struct_Init:
.LFB30:
.LM391:
	.cfi_startproc
.LVL293:
.LM392:
	MOV	r5,#0
	ST.w	[r0],r5
.LM393:
	ST.w	[r0+#1],r5
.LM394:
	ST.w	[r0+#2],r5
.LM395:
	ST.w	[r0+#3],r5
.LM396:
	ST.w	[r0+#4],r5
.LM397:
	ST.b	[r0+#20],r5
.LVL294:
	ST.b	[r0+#21],r5
.LVL295:
	ST.b	[r0+#22],r5
.LVL296:
	ST.b	[r0+#23],r5
.LVL297:
	ST.b	[r0+#24],r5
.LVL298:
	ST.b	[r0+#25],r5
.LVL299:
	ST.b	[r0+#26],r5
.LVL300:
	ST.b	[r0+#27],r5
.LVL301:
.LM398:
	JMP	lr
	.cfi_endproc
.LFE30:
	.size	CAN_Message_Struct_Init, .-CAN_Message_Struct_Init
	.section .text$CAN_Clear_Buffer_Overflow_Flag
	.type	.text$CAN_Clear_Buffer_Overflow_Flag$scode_local_31, @function
	.text$CAN_Clear_Buffer_Overflow_Flag$scode_local_31:
	.align	1
	.export	CAN_Clear_Buffer_Overflow_Flag
	.type	CAN_Clear_Buffer_Overflow_Flag, @function
CAN_Clear_Buffer_Overflow_Flag:
.LFB31:
.LM399:
	.cfi_startproc
.LVL302:
	PUSH	{r6, lr}
	.cfi_def_cfa_offset 8
	MOV	r6,r0
.LM400:
	MOV	r0,#1
.LVL303:
	LD	r5,#1073752192
	CMP	r6,r5
	JZ	.L253
	MOV	r0,#0
.L253:
	LD	r5,#CHECK_RESTRICTION
	LJMP	r5
.LVL304:
.LM401:
// inline asm begin
	// 1099 "../src/kf32a9k1xxx_can.c" 1
	SET [r6], #10
	// 0 "" 2
.LM402:
// inline asm end
	MOV	r4,#1
	LSL	r4,#16
.L254:
.LM403:
	LD.w	r5,[r6]
	ANL	r5,r5,r4
	JZ	.L254
.LM404:
// inline asm begin
	// 1101 "../src/kf32a9k1xxx_can.c" 1
	CLR [r6], #10
	// 0 "" 2
.LM405:
	// 1103 "../src/kf32a9k1xxx_can.c" 1
	SET [r6], #11
	// 0 "" 2
.LM406:
// inline asm end
	MOV	r4,#1
	LSL	r4,#17
.L255:
.LM407:
	LD.w	r5,[r6]
	ANL	r5,r5,r4
	JNZ	.L255
.LM408:
// inline asm begin
	// 1105 "../src/kf32a9k1xxx_can.c" 1
	CLR [r6], #11
	// 0 "" 2
.LM409:
// inline asm end
	POP	r6
	.cfi_def_cfa_offset 4
.LVL305:
	POP	lr
	.cfi_def_cfa_offset 0
	JMP	lr
	.cfi_endproc
.LFE31:
	.size	CAN_Clear_Buffer_Overflow_Flag, .-CAN_Clear_Buffer_Overflow_Flag
	.section .text$CAN_Release_Receive_Buffer
	.type	.text$CAN_Release_Receive_Buffer$scode_local_32, @function
	.text$CAN_Release_Receive_Buffer$scode_local_32:
	.align	1
	.export	CAN_Release_Receive_Buffer
	.type	CAN_Release_Receive_Buffer, @function
CAN_Release_Receive_Buffer:
.LFB32:
.LM410:
	.cfi_startproc
.LVL306:
	PUSH	{r6, r7, lr}
	.cfi_def_cfa_offset 12
	MOV	r6,r0
	MOV	r7,r1
.LM411:
	MOV	r0,#1
.LVL307:
	LD	r5,#1073752192
	CMP	r6,r5
	JZ	.L262
	MOV	r0,#0
.L262:
	LD	r5,#CHECK_RESTRICTION
	LJMP	r5
.LVL308:
.LM412:
	CMP	r7,#0
	JZ	.L261
.LM413:
	LD.w	r4,[r6]
	LD	r3,#2130706432
	ANL	r4,r4,r3
	LSR	r4,#24
.LVL309:
.LM414:
	CMP	r4,#0
	JZ	.L261
	MOV	r2,#0
.LVL310:
.L264:
.LM415:
// inline asm begin
	// 1131 "../src/kf32a9k1xxx_can.c" 1
	SET [r6], #10
	// 0 "" 2
// inline asm end
.L265:
.LM416:
	LD.w	r5,[r6]
	ANL	r5,r5,r3
	LSR	r5,#24
	SUB	r5,r4,r5
	CMP	r5,#1
	JNZ	.L265
.LM417:
// inline asm begin
	// 1133 "../src/kf32a9k1xxx_can.c" 1
	CLR [r6], #10
	// 0 "" 2
.LM418:
// inline asm end
	ADD	r2,r2,#1
.LVL311:
	CMP	r2,r7
	JZ	.L261
.LM419:
	LD.w	r4,[r6]
	ANL	r4,r4,r3
	LSR	r4,#24
.LM420:
	CMP	r4,#0
	JNZ	.L264
.LVL312:
.L261:
.LM421:
	POP	{r6, r7}
	.cfi_def_cfa_offset 4
.LVL313:
	POP	lr
	.cfi_def_cfa_offset 0
	JMP	lr
	.cfi_endproc
.LFE32:
	.size	CAN_Release_Receive_Buffer, .-CAN_Release_Receive_Buffer
	.section .text$CAN_Transmit_Single
	.type	.text$CAN_Transmit_Single$scode_local_33, @function
	.text$CAN_Transmit_Single$scode_local_33:
	.align	1
	.export	CAN_Transmit_Single
	.type	CAN_Transmit_Single, @function
CAN_Transmit_Single:
.LFB33:
.LM422:
	.cfi_startproc
.LVL314:
	PUSH	{r6, lr}
	.cfi_def_cfa_offset 8
	MOV	r6,r0
.LM423:
	MOV	r0,#1
.LVL315:
	LD	r5,#1073752192
	CMP	r6,r5
	JZ	.L278
	MOV	r0,#0
.L278:
	LD	r5,#CHECK_RESTRICTION
	LJMP	r5
.LVL316:
.LM424:
	LD.w	r5,[r6]
	SET	r5,#8
	SET	r5,#9
	ST.w	[r6],r5
.LM425:
	MOV	r4,#1
	LSL	r4,#21
.L279:
.LM426:
	LD.w	r5,[r6]
	ANL	r5,r5,r4
	JNZ	.L279
.LM427:
// inline asm begin
	// 1156 "../src/kf32a9k1xxx_can.c" 1
	CLR [r6], #8
	// 0 "" 2
.LM428:
	// 1157 "../src/kf32a9k1xxx_can.c" 1
	CLR [r6], #9
	// 0 "" 2
.LM429:
// inline asm end
	POP	r6
	.cfi_def_cfa_offset 4
.LVL317:
	POP	lr
	.cfi_def_cfa_offset 0
	JMP	lr
	.cfi_endproc
.LFE33:
	.size	CAN_Transmit_Single, .-CAN_Transmit_Single
	.section .text$CAN_Transmit_Repeat
	.type	.text$CAN_Transmit_Repeat$scode_local_34, @function
	.text$CAN_Transmit_Repeat$scode_local_34:
	.align	1
	.export	CAN_Transmit_Repeat
	.type	CAN_Transmit_Repeat, @function
CAN_Transmit_Repeat:
.LFB34:
.LM430:
	.cfi_startproc
.LVL318:
	PUSH	{r6, lr}
	.cfi_def_cfa_offset 8
	MOV	r6,r0
.LM431:
	MOV	r0,#1
.LVL319:
	LD	r5,#1073752192
	CMP	r6,r5
	JZ	.L282
	MOV	r0,#0
.L282:
	LD	r5,#CHECK_RESTRICTION
	LJMP	r5
.LVL320:
.LM432:
// inline asm begin
	// 1174 "../src/kf32a9k1xxx_can.c" 1
	CLR [r6], #9
	// 0 "" 2
.LM433:
	// 1175 "../src/kf32a9k1xxx_can.c" 1
	CLR [r6], #8
	// 0 "" 2
.LM434:
	// 1176 "../src/kf32a9k1xxx_can.c" 1
	SET [r6], #8
	// 0 "" 2
.LM435:
// inline asm end
	MOV	r4,#1
	LSL	r4,#21
.L283:
.LM436:
	LD.w	r5,[r6]
	ANL	r5,r5,r4
	JNZ	.L283
.LM437:
// inline asm begin
	// 1178 "../src/kf32a9k1xxx_can.c" 1
	CLR [r6], #8
	// 0 "" 2
.LM438:
// inline asm end
	POP	r6
	.cfi_def_cfa_offset 4
.LVL321:
	POP	lr
	.cfi_def_cfa_offset 0
	JMP	lr
	.cfi_endproc
.LFE34:
	.size	CAN_Transmit_Repeat, .-CAN_Transmit_Repeat
	.section .text$CAN_Frame_Format_Config
	.type	.text$CAN_Frame_Format_Config$scode_local_35, @function
	.text$CAN_Frame_Format_Config$scode_local_35:
	.align	1
	.export	CAN_Frame_Format_Config
	.type	CAN_Frame_Format_Config, @function
CAN_Frame_Format_Config:
.LFB35:
.LM439:
	.cfi_startproc
.LVL322:
	PUSH	{r6, r7, r8, lr}
	.cfi_def_cfa_offset 16
	MOV	r6,r0
	MOV	r7,r1
.LM440:
	MOV	r0,#1
.LVL323:
	LD	r5,#1073752192
	CMP	r6,r5
	JZ	.L286
	MOV	r0,#0
.L286:
	LD	r5,#CHECK_RESTRICTION
	MOV	r8,r5
	LJMP	r5
.LVL324:
.LM441:
	MOV	r0,#1
	CMP	r7,r0
	JLS	.L287
	MOV	r0,#0
.L287:
	LJMP	r8
.LVL325:
.LM442:
	ADD	r6,#32
.LVL326:
.LM443:
	CMP	r7,#0
	JNZ	.L290
.LM444:
// inline asm begin
	// 1206 "../src/kf32a9k1xxx_can.c" 1
	CLR [r6], #7
	// 0 "" 2
.LM445:
// inline asm end
	POP	{r6, r7, r8}
	.cfi_remember_state
	.cfi_def_cfa_offset 4
.LVL327:
	POP	lr
	.cfi_def_cfa_offset 0
	JMP	lr
.LVL328:
.L290:
	.cfi_restore_state
.LM446:
// inline asm begin
	// 1201 "../src/kf32a9k1xxx_can.c" 1
	SET [r6], #7
	// 0 "" 2
.LM447:
// inline asm end
	POP	{r6, r7, r8}
	.cfi_def_cfa_offset 4
.LVL329:
	POP	lr
	.cfi_def_cfa_offset 0
	JMP	lr
	.cfi_endproc
.LFE35:
	.size	CAN_Frame_Format_Config, .-CAN_Frame_Format_Config
	.section .text$CAN_Remote_Request_Config
	.type	.text$CAN_Remote_Request_Config$scode_local_36, @function
	.text$CAN_Remote_Request_Config$scode_local_36:
	.align	1
	.export	CAN_Remote_Request_Config
	.type	CAN_Remote_Request_Config, @function
CAN_Remote_Request_Config:
.LFB36:
.LM448:
	.cfi_startproc
.LVL330:
	PUSH	{r6, r7, r8, lr}
	.cfi_def_cfa_offset 16
	MOV	r6,r0
	MOV	r7,r1
.LM449:
	MOV	r0,#1
.LVL331:
	LD	r5,#1073752192
	CMP	r6,r5
	JZ	.L292
	MOV	r0,#0
.L292:
	LD	r5,#CHECK_RESTRICTION
	MOV	r8,r5
	LJMP	r5
.LVL332:
.LM450:
	MOV	r0,#1
	CMP	r7,r0
	JLS	.L293
	MOV	r0,#0
.L293:
	LJMP	r8
.LVL333:
.LM451:
	ADD	r6,#32
.LVL334:
.LM452:
	CMP	r7,#0
	JNZ	.L296
.LM453:
// inline asm begin
	// 1234 "../src/kf32a9k1xxx_can.c" 1
	CLR [r6], #6
	// 0 "" 2
.LM454:
// inline asm end
	POP	{r6, r7, r8}
	.cfi_remember_state
	.cfi_def_cfa_offset 4
.LVL335:
	POP	lr
	.cfi_def_cfa_offset 0
	JMP	lr
.LVL336:
.L296:
	.cfi_restore_state
.LM455:
// inline asm begin
	// 1229 "../src/kf32a9k1xxx_can.c" 1
	SET [r6], #6
	// 0 "" 2
.LM456:
// inline asm end
	POP	{r6, r7, r8}
	.cfi_def_cfa_offset 4
.LVL337:
	POP	lr
	.cfi_def_cfa_offset 0
	JMP	lr
	.cfi_endproc
.LFE36:
	.size	CAN_Remote_Request_Config, .-CAN_Remote_Request_Config
	.section .text$CAN_Data_Length_Config
	.type	.text$CAN_Data_Length_Config$scode_local_37, @function
	.text$CAN_Data_Length_Config$scode_local_37:
	.align	1
	.export	CAN_Data_Length_Config
	.type	CAN_Data_Length_Config, @function
CAN_Data_Length_Config:
.LFB37:
.LM457:
	.cfi_startproc
.LVL338:
	PUSH	{r6, r7, r8, lr}
	.cfi_def_cfa_offset 16
	MOV	r6,r0
	MOV	r7,r1
.LVL339:
.LM458:
	MOV	r0,#1
.LVL340:
	LD	r5,#1073752192
	CMP	r6,r5
	JZ	.L298
	MOV	r0,#0
.L298:
	LD	r4,#CHECK_RESTRICTION
	MOV	r8,r4
	LJMP	r4
.LVL341:
.LM459:
	MOV	r4,#4
	LSR	r5,r7,r4
	MOV	r0,#1
	CMP	r5,#0
	JZ	.L299
	MOV	r0,#0
.L299:
	LJMP	r8
.LVL342:
.LM460:
	LD.w	r4,[r6+#3]
.LVL343:
.LBB88:
.LBB89:
.LM461:
	MOV	r5,#15
	NOT	r5,r5
	ANL	r5,r4,r5
	ORL	r7,r7,r5
.LVL344:
.LBE89:
.LBE88:
.LM462:
	ST.w	[r6+#3],r7
.LM463:
	POP	{r6, r7, r8}
	.cfi_def_cfa_offset 4
	POP	lr
	.cfi_def_cfa_offset 0
	JMP	lr
	.cfi_endproc
.LFE37:
	.size	CAN_Data_Length_Config, .-CAN_Data_Length_Config
	.section .text$CAN_Identification_Code_Config
	.type	.text$CAN_Identification_Code_Config$scode_local_38, @function
	.text$CAN_Identification_Code_Config$scode_local_38:
	.align	1
	.export	CAN_Identification_Code_Config
	.type	CAN_Identification_Code_Config, @function
CAN_Identification_Code_Config:
.LFB38:
.LM464:
	.cfi_startproc
.LVL345:
	PUSH	{r6, r7, r8, r9, lr}
	.cfi_def_cfa_offset 20
	MOV	r6,r0
	MOV	r8,r1
	MOV	r9,r2
.LVL346:
.LM465:
	MOV	r0,#1
.LVL347:
	LD	r5,#1073752192
	CMP	r6,r5
	JZ	.L304
	MOV	r0,#0
.L304:
	LD	r7,#CHECK_RESTRICTION
	LJMP	r7
.LVL348:
.LM466:
	MOV	r0,#1
	CMP	r8,r0
	JLS	.L305
	MOV	r0,#0
.L305:
	LJMP	r7
.LVL349:
.LM467:
	MOV	r5,r9
.LM468:
	CMP	r8,#0
	JZ	.L306
.LVL350:
.LM469:
	LSR	r5,#29
.LVL351:
	MOV	r0,#1
	CMP	r5,#0
	JNZ	.L316
.L307:
	LJMP	r7
.LVL352:
.LM470:
	LD.w	r4,[r6+#9]
.LVL353:
.LM471:
	LSL	r9,#3
.LVL354:
.LBB90:
.LBB91:
.LM472:
	MOV	r5,#7
	ANL	r5,r4,r5
	MOV	r4,r9
.LVL355:
	ORL	r5,r4,r5
.LBE91:
.LBE90:
.LM473:
	ST.w	[r6+#9],r5
.LM474:
	POP	{r6, r7, r8, r9}
	.cfi_remember_state
	.cfi_def_cfa_offset 4
.LVL356:
	POP	lr
	.cfi_def_cfa_offset 0
	JMP	lr
.LVL357:
.L306:
	.cfi_restore_state
.LM475:
	LSR	r5,#11
.LVL358:
	MOV	r0,#1
	CMP	r5,#0
	JNZ	.L317
	LJMP	r7
.LVL359:
.LM476:
	LD.w	r4,[r6+#9]
.LVL360:
.LM477:
	LSL	r9,#21
.LVL361:
.LBB92:
.LBB93:
.LM478:
	LD	r5,#2097151
	ANL	r5,r4,r5
	MOV	r4,r9
.LVL362:
	ORL	r5,r4,r5
.LBE93:
.LBE92:
.LM479:
	ST.w	[r6+#9],r5
.LVL363:
.L318:
.LM480:
	POP	{r6, r7, r8, r9}
	.cfi_remember_state
	.cfi_def_cfa_offset 4
.LVL364:
	POP	lr
	.cfi_def_cfa_offset 0
	JMP	lr
.LVL365:
.L317:
	.cfi_restore_state
.LM481:
	MOV	r0,r8
	LJMP	r7
.LVL366:
.LM482:
	LD.w	r4,[r6+#9]
.LVL367:
.LM483:
	LSL	r9,#21
.LVL368:
.LBB95:
.LBB94:
.LM484:
	LD	r5,#2097151
	ANL	r5,r4,r5
	MOV	r4,r9
.LVL369:
	ORL	r5,r4,r5
.LBE94:
.LBE95:
.LM485:
	ST.w	[r6+#9],r5
	JMP	.L318
.LVL370:
.L316:
.LM486:
	MOV	r0,#0
	JMP	.L307
	.cfi_endproc
.LFE38:
	.size	CAN_Identification_Code_Config, .-CAN_Identification_Code_Config
	.section .text$CAN_Get_INT_Flag
	.type	.text$CAN_Get_INT_Flag$scode_local_39, @function
	.text$CAN_Get_INT_Flag$scode_local_39:
	.align	1
	.export	CAN_Get_INT_Flag
	.type	CAN_Get_INT_Flag, @function
CAN_Get_INT_Flag:
.LFB39:
.LM487:
	.cfi_startproc
.LVL371:
	PUSH	{r6, r7, r8, lr}
	.cfi_def_cfa_offset 16
	MOV	r7,r0
	MOV	r6,r1
.LVL372:
.LM488:
	MOV	r0,#1
.LVL373:
	LD	r5,#1073752192
	CMP	r7,r5
	JZ	.L320
	MOV	r0,#0
.L320:
	LD	r5,#CHECK_RESTRICTION
	MOV	r8,r5
	LJMP	r5
.LVL374:
.LM489:
	SUB	r5,r6,#1
	MOV	r0,#1
	CMP	r5,r0
	JLS	.L321
.LM490:
	CMP	r6,#4
	JZ	.L321
.LM491:
	CMP	r6,#8
	JZ	.L321
	CMP	r6,#16
	JZ	.L321
	CMP	r6,#32
	JZ	.L321
	CMP	r6,#64
	JZ	.L321
	MOV	r5,#128
	CMP	r6,r5
	JZ	.L321
	MOV	r5,#1
	LSL	r5,#10
	CMP	r6,r5
	JZ	.L321
	MOV	r0,#0
.L321:
.LM492:
	LJMP	r8
.LVL375:
.LM493:
	LD.w	r5,[r7+#7]
	ANL	r6,r6,r5
.LVL376:
	MOV	r5,#0
	SUB	r5,r5,r6
	ORL	r0,r5,r6
.LM494:
	LSR	r0,#31
	POP	{r6, r7, r8}
	.cfi_def_cfa_offset 4
.LVL377:
	POP	lr
	.cfi_def_cfa_offset 0
	JMP	lr
	.cfi_endproc
.LFE39:
	.size	CAN_Get_INT_Flag, .-CAN_Get_INT_Flag
	.section .text$CAN_Clear_INT_Flag
	.type	.text$CAN_Clear_INT_Flag$scode_local_40, @function
	.text$CAN_Clear_INT_Flag$scode_local_40:
	.align	1
	.export	CAN_Clear_INT_Flag
	.type	CAN_Clear_INT_Flag, @function
CAN_Clear_INT_Flag:
.LFB40:
.LM495:
	.cfi_startproc
.LVL378:
	PUSH	{r6, r7, r8, lr}
	.cfi_def_cfa_offset 16
	MOV	r6,r0
	MOV	r7,r1
.LVL379:
.LM496:
	MOV	r0,#1
.LVL380:
	LD	r5,#1073752192
	CMP	r6,r5
	JZ	.L336
	MOV	r0,#0
.L336:
	LD	r3,#CHECK_RESTRICTION
	MOV	r8,r3
	LJMP	r3
.LVL381:
.LM497:
	LD	r5,#-1280
	ANL	r5,r7,r5
	MOV	r0,#1
	CMP	r5,#0
	JZ	.L337
	MOV	r0,#0
.L337:
	LJMP	r8
.LVL382:
.LM498:
	MOV	r5,#1
	LSL	r5,#10
	CMP	r7,r5
	JZ	.L346
.LM499:
	LD.w	r5,[r6+#6]
	MOV	r3,#16
	LSL	r4,r7,r3
	ORL	r5,r4,r5
	ST.w	[r6+#6],r5
.L343:
.LM500:
	LD.w	r5,[r6+#7]
	ANL	r5,r7,r5
	JNZ	.L343
.LM501:
	LD.w	r5,[r6+#6]
	NOT	r4,r4
	ANL	r4,r4,r5
	ST.w	[r6+#6],r4
.LM502:
	POP	{r6, r7, r8}
	.cfi_remember_state
	.cfi_def_cfa_offset 4
.LVL383:
	POP	lr
	.cfi_def_cfa_offset 0
	JMP	lr
.LVL384:
.L346:
	.cfi_restore_state
.LM503:
	LD.w	r5,[r6+#6]
	SET	r5,#16
	ST.w	[r6+#6],r5
	MOV	r4,#1
	LSL	r4,#26
	JMP	.L343
	.cfi_endproc
.LFE40:
	.size	CAN_Clear_INT_Flag, .-CAN_Clear_INT_Flag
	.section .text$CAN_Set_INT_Enable
	.type	.text$CAN_Set_INT_Enable$scode_local_41, @function
	.text$CAN_Set_INT_Enable$scode_local_41:
	.align	1
	.export	CAN_Set_INT_Enable
	.type	CAN_Set_INT_Enable, @function
CAN_Set_INT_Enable:
.LFB41:
.LM504:
	.cfi_startproc
.LVL385:
	PUSH	{r6, r7, r8, r9, lr}
	.cfi_def_cfa_offset 20
	MOV	r6,r0
	MOV	r8,r1
	MOV	r9,r2
.LM505:
	MOV	r0,#1
.LVL386:
	LD	r5,#1073752192
	CMP	r6,r5
	JZ	.L348
	MOV	r0,#0
.L348:
	LD	r7,#CHECK_RESTRICTION
	LJMP	r7
.LVL387:
.LM506:
	LD	r5,#-1280
	MOV	r4,r8
	ANL	r5,r4,r5
	MOV	r0,#1
	CMP	r5,#0
	JZ	.L349
.LVL388:
	MOV	r0,#0
.L349:
	LJMP	r7
.LVL389:
.LM507:
	MOV	r0,#1
	CMP	r9,r0
	JLS	.L350
	MOV	r0,#0
.L350:
	LJMP	r7
.LVL390:
.LM508:
	LD.w	r5,[r6+#6]
.LM509:
	CMP	r9,#0
	JNZ	.L356
.LM510:
	NOT	r8,r8
.LVL391:
	MOV	r4,r8
	ANL	r5,r4,r5
	ST.w	[r6+#6],r5
.LM511:
	POP	{r6, r7, r8, r9}
	.cfi_remember_state
	.cfi_def_cfa_offset 4
.LVL392:
	POP	lr
	.cfi_def_cfa_offset 0
	JMP	lr
.LVL393:
.L356:
	.cfi_restore_state
.LM512:
	MOV	r4,r8
	ORL	r5,r4,r5
	ST.w	[r6+#6],r5
.LM513:
	POP	{r6, r7, r8, r9}
	.cfi_def_cfa_offset 4
.LVL394:
	POP	lr
	.cfi_def_cfa_offset 0
	JMP	lr
	.cfi_endproc
.LFE41:
	.size	CAN_Set_INT_Enable, .-CAN_Set_INT_Enable
	.section .text$CAN_Set_Reseive_DMA_Enable
	.type	.text$CAN_Set_Reseive_DMA_Enable$scode_local_42, @function
	.text$CAN_Set_Reseive_DMA_Enable$scode_local_42:
	.align	1
	.export	CAN_Set_Reseive_DMA_Enable
	.type	CAN_Set_Reseive_DMA_Enable, @function
CAN_Set_Reseive_DMA_Enable:
.LFB42:
.LM514:
	.cfi_startproc
.LVL395:
	PUSH	{r6, r7, r8, lr}
	.cfi_def_cfa_offset 16
	MOV	r6,r0
	MOV	r7,r1
.LM515:
	MOV	r0,#1
.LVL396:
	LD	r5,#1073752192
	CMP	r6,r5
	JZ	.L358
	MOV	r0,#0
.L358:
	LD	r5,#CHECK_RESTRICTION
	MOV	r8,r5
	LJMP	r5
.LVL397:
.LM516:
	MOV	r0,#1
	CMP	r7,r0
	JLS	.L359
	MOV	r0,#0
.L359:
	LJMP	r8
.LVL398:
.LM517:
	LD.w	r5,[r6+#6]
.LVL399:
	LSL	r7,#9
.LVL400:
.LBB96:
.LBB97:
.LM518:
	CLR	r5,#9
.LVL401:
	ORL	r7,r7,r5
.LVL402:
.LBE97:
.LBE96:
.LM519:
	ST.w	[r6+#6],r7
.LM520:
	POP	{r6, r7, r8}
	.cfi_def_cfa_offset 4
	POP	lr
	.cfi_def_cfa_offset 0
	JMP	lr
	.cfi_endproc
.LFE42:
	.size	CAN_Set_Reseive_DMA_Enable, .-CAN_Set_Reseive_DMA_Enable
	.section .text$CAN_Set_Send_DMA_Enable
	.type	.text$CAN_Set_Send_DMA_Enable$scode_local_43, @function
	.text$CAN_Set_Send_DMA_Enable$scode_local_43:
	.align	1
	.export	CAN_Set_Send_DMA_Enable
	.type	CAN_Set_Send_DMA_Enable, @function
CAN_Set_Send_DMA_Enable:
.LFB43:
.LM521:
	.cfi_startproc
.LVL403:
	PUSH	{r6, r7, r8, lr}
	.cfi_def_cfa_offset 16
	MOV	r6,r0
	MOV	r7,r1
.LM522:
	MOV	r0,#1
.LVL404:
	LD	r5,#1073752192
	CMP	r6,r5
	JZ	.L361
	MOV	r0,#0
.L361:
	LD	r5,#CHECK_RESTRICTION
	MOV	r8,r5
	LJMP	r5
.LVL405:
.LM523:
	MOV	r0,#1
	CMP	r7,r0
	JLS	.L362
	MOV	r0,#0
.L362:
	LJMP	r8
.LVL406:
.LM524:
	LD.w	r5,[r6+#6]
.LVL407:
	LSL	r7,#8
.LVL408:
.LBB98:
.LBB99:
.LM525:
	CLR	r5,#8
.LVL409:
	ORL	r7,r7,r5
.LVL410:
.LBE99:
.LBE98:
.LM526:
	ST.w	[r6+#6],r7
.LM527:
	POP	{r6, r7, r8}
	.cfi_def_cfa_offset 4
	POP	lr
	.cfi_def_cfa_offset 0
	JMP	lr
	.cfi_endproc
.LFE43:
	.size	CAN_Set_Send_DMA_Enable, .-CAN_Set_Send_DMA_Enable
	.section .text$CAN_Get_Receive_DMA_Flag
	.type	.text$CAN_Get_Receive_DMA_Flag$scode_local_44, @function
	.text$CAN_Get_Receive_DMA_Flag$scode_local_44:
	.align	1
	.export	CAN_Get_Receive_DMA_Flag
	.type	CAN_Get_Receive_DMA_Flag, @function
CAN_Get_Receive_DMA_Flag:
.LFB44:
.LM528:
	.cfi_startproc
.LVL411:
	PUSH	{r6, lr}
	.cfi_def_cfa_offset 8
	MOV	r6,r0
.LM529:
	MOV	r0,#1
.LVL412:
	LD	r5,#1073752192
	CMP	r6,r5
	JZ	.L364
	MOV	r0,#0
.L364:
	LD	r5,#CHECK_RESTRICTION
	LJMP	r5
.LVL413:
.LM530:
	LD.w	r0,[r6+#7]
	LSR	r0,#9
.LM531:
	MOV	r5,#1
	ANL	r0,r0,r5
	POP	r6
	.cfi_def_cfa_offset 4
.LVL414:
	POP	lr
	.cfi_def_cfa_offset 0
	JMP	lr
	.cfi_endproc
.LFE44:
	.size	CAN_Get_Receive_DMA_Flag, .-CAN_Get_Receive_DMA_Flag
	.section .text$CAN_Get_Send_DMA_Flag
	.type	.text$CAN_Get_Send_DMA_Flag$scode_local_45, @function
	.text$CAN_Get_Send_DMA_Flag$scode_local_45:
	.align	1
	.export	CAN_Get_Send_DMA_Flag
	.type	CAN_Get_Send_DMA_Flag, @function
CAN_Get_Send_DMA_Flag:
.LFB45:
.LM532:
	.cfi_startproc
.LVL415:
	PUSH	{r6, lr}
	.cfi_def_cfa_offset 8
	MOV	r6,r0
.LM533:
	MOV	r0,#1
.LVL416:
	LD	r5,#1073752192
	CMP	r6,r5
	JZ	.L366
	MOV	r0,#0
.L366:
	LD	r5,#CHECK_RESTRICTION
	LJMP	r5
.LVL417:
.LM534:
	LD.w	r0,[r6+#7]
	LSR	r0,#8
.LM535:
	MOV	r5,#1
	ANL	r0,r0,r5
	POP	r6
	.cfi_def_cfa_offset 4
.LVL418:
	POP	lr
	.cfi_def_cfa_offset 0
	JMP	lr
	.cfi_endproc
.LFE45:
	.size	CAN_Get_Send_DMA_Flag, .-CAN_Get_Send_DMA_Flag
	.text	
.Letext0: