	.file	"driver_dma.c"
	.text	
.Ltext0:
	.cfi_sections	.debug_frame
	.section .text$cfg_DMA
	.type	.text$cfg_DMA$scode_local_1, @function
	.text$cfg_DMA$scode_local_1:
	.align	1
	.export	cfg_DMA
	.type	cfg_DMA, @function
cfg_DMA:
.LFB1:
.LM1:
	.cfi_startproc
.LM2:
	JMP	lr
	.cfi_endproc
.LFE1:
	.size	cfg_DMA, .-cfg_DMA
	.section .text$cfg_DMA0
	.type	.text$cfg_DMA0$scode_local_2, @function
	.text$cfg_DMA0$scode_local_2:
	.align	1
	.export	cfg_DMA0
	.type	cfg_DMA0, @function
cfg_DMA0:
.LFB2:
.LM3:
	.cfi_startproc
	PUSH	{r6, r7, r8, lr}
	.cfi_def_cfa_offset 16
	SUB	sp,#32
	.cfi_def_cfa_offset 48
.LM4:
	LD	r4,#1073747456
	MOV	r8,r4
	MOV	r0,r4
	LD	r5,#DMA_Reset
	LJMP	r5
.LVL0:
.LM5:
	MOV	r5,#3
	ST.h	[sp+#3],r5
.LM6:
	MOV	r5,#0
	ST.b	[sp+#1],r5
.LM7:
	ST.h	[sp+#2],r5
.LM8:
	MOV	r6,#2
	ST.b	[sp+#2],r6
.LM9:
	ST.b	[sp+#3],r6
.LM10:
	ST.w	[sp+#2],r5
.LM11:
	MOV	r7,#1
	ST.w	[sp+#3],r7
.LM12:
	ST.b	[sp],r6
.LM13:
	ST.w	[sp+#5],r5
.LM14:
	ST.w	[sp+#4],r7
.LM15:
	LD	r5,#1073743264
	ST.w	[sp+#6],r5
.LM16:
	LD	r5,#dma_adc_buf
	ST.w	[sp+#7],r5
.LM17:
	MOV	r0,r8
	MOV	r1,sp
	LD	r5,#DMA_Configuration
	LJMP	r5
.LVL1:
.LM18:
	MOV	r0,r8
	MOV	r1,r6
	MOV	r2,r7
	LD	r4,#DMA_Channel_Enable
	LJMP	r4
.LVL2:
.LM19:
	ADD	sp,#32
	.cfi_def_cfa_offset 16
	POP	{r6, r7, r8}
	.cfi_def_cfa_offset 4
	POP	lr
	.cfi_def_cfa_offset 0
	JMP	lr
	.cfi_endproc
.LFE2:
	.size	cfg_DMA0, .-cfg_DMA0
	.section .text$cfg_dma_intrupt
	.type	.text$cfg_dma_intrupt$scode_local_3, @function
	.text$cfg_dma_intrupt$scode_local_3:
	.align	1
	.export	cfg_dma_intrupt
	.type	cfg_dma_intrupt, @function
cfg_dma_intrupt:
.LFB3:
.LM20:
	.cfi_startproc
	PUSH	{r6, r7, r8, lr}
	.cfi_def_cfa_offset 16
.LM21:
	LD	r6,#1073747456
	MOV	r0,r6
	MOV	r1,#2
	MOV	r2,r1
	MOV	r3,#1
	LD	r5,#DMA_Set_INT_Enable
	MOV	r8,r5
	LJMP	r5
.LVL3:
.LM22:
	MOV	r0,r6
	MOV	r1,#2
	MOV	r2,r1
	LD	r7,#DMA_Clear_INT_Flag
	LJMP	r7
.LVL4:
.LM23:
	MOV	r0,r6
	MOV	r1,#2
	MOV	r2,#1
	MOV	r3,r2
	LJMP	r8
.LVL5:
.LM24:
	MOV	r0,r6
	MOV	r1,#2
	MOV	r2,#1
	LJMP	r7
.LVL6:
.LM25:
	MOV	r0,#42
	MOV	r1,#4
	MOV	r2,#0
	LD	r5,#INT_Interrupt_Priority_Config
	LJMP	r5
.LVL7:
.LM26:
	MOV	r0,#42
	MOV	r1,#1
	LD	r5,#INT_Interrupt_Enable
	LJMP	r5
.LVL8:
.LM27:
	MOV	r0,#42
	LD	r5,#INT_Clear_Interrupt_Flag
	LJMP	r5
.LVL9:
.LM28:
	POP	{r6, r7, r8}
	.cfi_def_cfa_offset 4
	POP	lr
	.cfi_def_cfa_offset 0
	JMP	lr
	.cfi_endproc
.LFE3:
	.size	cfg_dma_intrupt, .-cfg_dma_intrupt
	.export	dma_adc_buf
	.section .bss$data.init$dma_adc_buf
	.type	.bss$data.init$dma_adc_buf$scode_local_4, @function
	.bss$data.init$dma_adc_buf$scode_local_4:
	.align	2
	.type	dma_adc_buf, @object
	.size	dma_adc_buf, 12
dma_adc_buf:
	.fill 12, 1
	.text	
.Letext0: