	.file	"driver_adc.c"
	.text	
.Ltext0:
	.cfi_sections	.debug_frame
	.section .text$cfg_ADC_GPIO
	.type	.text$cfg_ADC_GPIO$scode_local_1, @function
	.text$cfg_ADC_GPIO$scode_local_1:
	.align	1
	.export	cfg_ADC_GPIO
	.type	cfg_ADC_GPIO, @function
cfg_ADC_GPIO:
.LFB2:
.LM1:
	.cfi_startproc
	PUSH	{r6, r7, r8, r9, lr}
	.cfi_def_cfa_offset 20
.LM2:
	LD	r5,#1342177664
	MOV	r8,r5
	MOV	r0,r5
	MOV	r1,#4
	MOV	r2,#3
	LD	r6,#GPIO_Write_Mode_Bits
	LJMP	r6
.LVL0:
.LM3:
	MOV	r0,r8
	MOV	r1,#1
	MOV	r2,#3
	LJMP	r6
.LVL1:
.LM4:
	LD	r7,#1342177408
	MOV	r0,r7
	MOV	r1,#64
	MOV	r2,#3
	LJMP	r6
.LVL2:
.LM5:
	MOV	r9,#1
	LSL	r9,#13
	MOV	r0,r8
	MOV	r1,r9
	MOV	r2,#3
	LJMP	r6
.LVL3:
.LM6:
	MOV	r0,r7
	MOV	r1,#1
	MOV	r2,#3
	LJMP	r6
.LVL4:
.LM7:
	MOV	r0,r7
	MOV	r1,#1
	LSL	r1,#14
	MOV	r2,#3
	LJMP	r6
.LVL5:
.LM8:
	MOV	r0,r7
	MOV	r1,r9
	MOV	r2,#3
	LJMP	r6
.LVL6:
.LM9:
	MOV	r0,r7
	MOV	r1,#1
	LSL	r1,#12
	MOV	r2,#3
	LJMP	r6
.LVL7:
.LM10:
	MOV	r0,r7
	MOV	r1,#1
	LSL	r1,#11
	MOV	r2,#3
	LJMP	r6
.LVL8:
.LM11:
	MOV	r0,r8
	MOV	r1,#16
	MOV	r2,#3
	LJMP	r6
.LVL9:
.LM12:
	POP	{r6, r7, r8, r9}
	.cfi_def_cfa_offset 4
	POP	lr
	.cfi_def_cfa_offset 0
	JMP	lr
	.cfi_endproc
.LFE2:
	.size	cfg_ADC_GPIO, .-cfg_ADC_GPIO
	.section .text$cfg_ADC0
	.type	.text$cfg_ADC0$scode_local_2, @function
	.text$cfg_ADC0$scode_local_2:
	.align	1
	.export	cfg_ADC0
	.type	cfg_ADC0, @function
cfg_ADC0:
.LFB3:
.LM13:
	.cfi_startproc
	PUSH	{r6, r7, r8, r9, r10, lr}
	.cfi_def_cfa_offset 24
	SUB	sp,#48
	.cfi_def_cfa_offset 72
.LM14:
	LD	r6,#1073743232
	MOV	r0,r6
	LD	r5,#ADC_Reset
	LJMP	r5
.LVL10:
.LM15:
	MOV	r0,sp
	LD	r5,#ADC_Struct_Init
	LJMP	r5
.LVL11:
.LM16:
	MOV	r7,#0
	ST.w	[sp],r7
.LM17:
	MOV	r5,#1
	LSL	r5,#9
	ST.w	[sp+#1],r5
.LM18:
	MOV	r8,#1
	MOV	r5,r8
	ST.w	[sp+#2],r5
.LM19:
	ST.w	[sp+#3],r7
.LM20:
	MOV	r5,#8
	ST.w	[sp+#4],r5
.LM21:
	ST.w	[sp+#5],r7
.LM22:
	LD	r5,#832
	ST.w	[sp+#6],r5
.LM23:
	MOV	r5,r8
	ST.w	[sp+#7],r5
.LM24:
	LD	r5,#56623104
	ST.w	[sp+#8],r5
.LM25:
	MOV	r5,#1
	LSL	r5,#17
	ST.w	[sp+#9],r5
.LM26:
	MOV	r10,#4
	MOV	r5,r10
	ST.w	[sp+#10],r5
.LM27:
	ST.w	[sp+#11],r5
.LM28:
	MOV	r0,r6
	MOV	r1,sp
	LD	r5,#ADC_Configuration
	LJMP	r5
.LVL12:
.LM29:
	MOV	r0,r6
	MOV	r1,#25
	MOV	r2,r8
	LD	r5,#ADC_High_Priority_Channel_Config
	MOV	r9,r5
	LJMP	r5
.LVL13:
.LM30:
	MOV	r0,r6
	MOV	r1,r7
	MOV	r2,#2
	LJMP	r9
.LVL14:
.LM31:
	MOV	r0,r6
	MOV	r1,r7
	MOV	r2,#3
	LJMP	r9
.LVL15:
.LM32:
	MOV	r0,r6
	MOV	r1,#29
	MOV	r2,r10
	LJMP	r9
.LVL16:
.LM33:
	MOV	r0,r6
	MOV	r1,r8
	LD	r5,#ADC_Cmd
	LJMP	r5
.LVL17:
.LM34:
	ADD	sp,#48
	.cfi_def_cfa_offset 24
	POP	{r6, r7, r8, r9, r10}
	.cfi_def_cfa_offset 4
	POP	lr
	.cfi_def_cfa_offset 0
	JMP	lr
	.cfi_endproc
.LFE3:
	.size	cfg_ADC0, .-cfg_ADC0
	.section .text$cfg_ADC0_IT
	.type	.text$cfg_ADC0_IT$scode_local_3, @function
	.text$cfg_ADC0_IT$scode_local_3:
	.align	1
	.export	cfg_ADC0_IT
	.type	cfg_ADC0_IT, @function
cfg_ADC0_IT:
.LFB4:
.LM35:
	.cfi_startproc
	PUSH	lr
	.cfi_def_cfa_offset 4
.LM36:
	LD	r0,#1073743232
	LD	r1,#393993
	MOV	r2,#1
	LD	r5,#ADC_Set_INT_Enable
	LJMP	r5
.LVL18:
.LM37:
	MOV	r0,#37
	MOV	r1,#1
	MOV	r2,#0
	LD	r5,#INT_Interrupt_Priority_Config
	LJMP	r5
.LVL19:
.LM38:
	MOV	r0,#37
	LD	r5,#INT_Clear_Interrupt_Flag
	LJMP	r5
.LVL20:
.LM39:
	MOV	r0,#37
	MOV	r1,#1
	LD	r5,#INT_Interrupt_Enable
	LJMP	r5
.LVL21:
.LM40:
	POP	lr
	.cfi_def_cfa_offset 0
	JMP	lr
	.cfi_endproc
.LFE4:
	.size	cfg_ADC0_IT, .-cfg_ADC0_IT
	.section .text$cfg_ADC1
	.type	.text$cfg_ADC1$scode_local_4, @function
	.text$cfg_ADC1$scode_local_4:
	.align	1
	.export	cfg_ADC1
	.type	cfg_ADC1, @function
cfg_ADC1:
.LFB5:
.LM41:
	.cfi_startproc
	PUSH	{r6, r7, r8, r9, lr}
	.cfi_def_cfa_offset 20
	SUB	sp,#48
	.cfi_def_cfa_offset 68
.LM42:
	LD	r6,#1073743360
	MOV	r0,r6
	LD	r5,#ADC_Reset
	LJMP	r5
.LVL22:
.LM43:
	MOV	r0,sp
	LD	r5,#ADC_Struct_Init
	LJMP	r5
.LVL23:
.LM44:
	MOV	r5,#0
	ST.w	[sp],r5
.LM45:
	MOV	r4,#1
	LSL	r4,#9
	ST.w	[sp+#1],r4
.LM46:
	MOV	r7,#1
	ST.w	[sp+#2],r7
.LM47:
	ST.w	[sp+#3],r5
.LM48:
	MOV	r4,#8
	ST.w	[sp+#4],r4
.LM49:
	ST.w	[sp+#5],r5
.LM50:
	LD	r5,#832
	ST.w	[sp+#6],r5
.LM51:
	ST.w	[sp+#7],r7
.LM52:
	LD	r5,#56623104
	ST.w	[sp+#8],r5
.LM53:
	MOV	r5,#1
	LSL	r5,#17
	ST.w	[sp+#9],r5
.LM54:
	MOV	r9,#4
	MOV	r5,r9
	ST.w	[sp+#10],r5
.LM55:
	ST.w	[sp+#11],r5
.LM56:
	MOV	r0,r6
	MOV	r1,sp
	LD	r5,#ADC_Configuration
	LJMP	r5
.LVL24:
.LM57:
	MOV	r0,r6
	MOV	r1,#23
	MOV	r2,r7
	LD	r5,#ADC_High_Priority_Channel_Config
	MOV	r8,r5
	LJMP	r5
.LVL25:
.LM58:
	MOV	r0,r6
	MOV	r1,#43
	MOV	r2,#2
	LJMP	r8
.LVL26:
.LM59:
	MOV	r0,r6
	MOV	r1,#35
	MOV	r2,#3
	LJMP	r8
.LVL27:
.LM60:
	MOV	r0,r6
	MOV	r1,#23
	MOV	r2,r9
	LJMP	r8
.LVL28:
.LM61:
	MOV	r0,r6
	MOV	r1,r7
	LD	r5,#ADC_Cmd
	LJMP	r5
.LVL29:
.LM62:
	ADD	sp,#48
	.cfi_def_cfa_offset 20
	POP	{r6, r7, r8, r9}
	.cfi_def_cfa_offset 4
	POP	lr
	.cfi_def_cfa_offset 0
	JMP	lr
	.cfi_endproc
.LFE5:
	.size	cfg_ADC1, .-cfg_ADC1
	.section .text$cfg_ADC2
	.type	.text$cfg_ADC2$scode_local_5, @function
	.text$cfg_ADC2$scode_local_5:
	.align	1
	.export	cfg_ADC2
	.type	cfg_ADC2, @function
cfg_ADC2:
.LFB6:
.LM63:
	.cfi_startproc
	PUSH	{r6, r7, r8, r9, lr}
	.cfi_def_cfa_offset 20
	SUB	sp,#48
	.cfi_def_cfa_offset 68
.LM64:
	LD	r6,#1073743488
	MOV	r0,r6
	LD	r5,#ADC_Reset
	LJMP	r5
.LVL30:
.LM65:
	MOV	r0,sp
	LD	r5,#ADC_Struct_Init
	LJMP	r5
.LVL31:
.LM66:
	MOV	r5,#0
	ST.w	[sp],r5
.LM67:
	MOV	r4,#1
	LSL	r4,#9
	ST.w	[sp+#1],r4
.LM68:
	MOV	r7,#1
	ST.w	[sp+#2],r7
.LM69:
	ST.w	[sp+#3],r5
.LM70:
	MOV	r4,#8
	ST.w	[sp+#4],r4
.LM71:
	ST.w	[sp+#5],r5
.LM72:
	LD	r5,#832
	ST.w	[sp+#6],r5
.LM73:
	ST.w	[sp+#7],r7
.LM74:
	LD	r5,#56623104
	ST.w	[sp+#8],r5
.LM75:
	MOV	r5,#1
	LSL	r5,#17
	ST.w	[sp+#9],r5
.LM76:
	MOV	r9,#4
	MOV	r5,r9
	ST.w	[sp+#10],r5
.LM77:
	ST.w	[sp+#11],r5
.LM78:
	MOV	r0,r6
	MOV	r1,sp
	LD	r5,#ADC_Configuration
	LJMP	r5
.LVL32:
.LM79:
	MOV	r0,r6
	MOV	r1,#41
	MOV	r2,r7
	LD	r5,#ADC_High_Priority_Channel_Config
	MOV	r8,r5
	LJMP	r5
.LVL33:
.LM80:
	MOV	r0,r6
	MOV	r1,#42
	MOV	r2,#2
	LJMP	r8
.LVL34:
.LM81:
	MOV	r0,r6
	MOV	r1,#91
	MOV	r2,#3
	LJMP	r8
.LVL35:
.LM82:
	MOV	r0,r6
	MOV	r1,#9
	MOV	r2,r9
	LJMP	r8
.LVL36:
.LM83:
	MOV	r0,r6
	MOV	r1,r7
	LD	r5,#ADC_Cmd
	LJMP	r5
.LVL37:
.LM84:
	ADD	sp,#48
	.cfi_def_cfa_offset 20
	POP	{r6, r7, r8, r9}
	.cfi_def_cfa_offset 4
	POP	lr
	.cfi_def_cfa_offset 0
	JMP	lr
	.cfi_endproc
.LFE6:
	.size	cfg_ADC2, .-cfg_ADC2
	.section .text$cfg_ADC
	.type	.text$cfg_ADC$scode_local_6, @function
	.text$cfg_ADC$scode_local_6:
	.align	1
	.export	cfg_ADC
	.type	cfg_ADC, @function
cfg_ADC:
.LFB1:
.LM85:
	.cfi_startproc
	PUSH	lr
	.cfi_def_cfa_offset 4
	SUB	sp,#4
	.cfi_def_cfa_offset 8
.LM86:
	LD	r5,#-15536
	ST.h	[sp],r5
.LVL38:
.LM87:
	LD	r5,#cfg_ADC_GPIO
	LJMP	r5
.LVL39:
.LM88:
	LD	r5,#cfg_ADC0
	LJMP	r5
.LVL40:
.LM89:
	LD	r5,#cfg_ADC1
	LJMP	r5
.LVL41:
.LM90:
	LD	r5,#cfg_ADC2
	LJMP	r5
.LVL42:
.LM91:
	LD	r5,#cfg_ADC0_IT
	LJMP	r5
.LVL43:
.L7:
.LM92:
	LD.h	r5,[sp]
	ZXT.h	r5,r5
	SUB	r4,r5,#1
	ZXT.h	r4,r4
.LVL44:
	ST.h	[sp],r4
	CMP	r5,#0
	JNZ	.L7
.LM93:
	ADD	sp,#4
	.cfi_def_cfa_offset 4
	POP	lr
	.cfi_def_cfa_offset 0
	JMP	lr
	.cfi_endproc
.LFE1:
	.size	cfg_ADC, .-cfg_ADC
	.section .indata$adc_result_calc
	.type	.indata$adc_result_calc$scode_local_7, @function
	.indata$adc_result_calc$scode_local_7:
	.align	1
	.export	adc_result_calc
	.type	adc_result_calc, @function
adc_result_calc:
.LFB7:
.LM94:
	.cfi_startproc
.LM95:
	LD	r4,#1073743232
	LD.w	r3,[r4+#9]
	ZXT.h	r3,r3
	LD	r5,#adc_buf
	ST.h	[r5],r3
.LM96:
	LD.w	r3,[r4+#10]
	ZXT.h	r3,r3
	ST.h	[r5+#1],r3
.LM97:
	LD.w	r3,[r4+#11]
	ZXT.h	r3,r3
	ST.h	[r5+#2],r3
.LM98:
	LD.w	r4,[r4+#12]
	ZXT.h	r4,r4
	ST.h	[r5+#3],r4
.LM99:
	LD	r4,#1073743360
	LD.w	r3,[r4+#9]
	ZXT.h	r3,r3
	ST.h	[r5+#4],r3
.LM100:
	LD.w	r3,[r4+#10]
	ZXT.h	r3,r3
	ST.h	[r5+#5],r3
.LM101:
	LD.w	r3,[r4+#11]
	ZXT.h	r3,r3
	ST.h	[r5+#6],r3
.LM102:
	LD.w	r4,[r4+#12]
	ZXT.h	r4,r4
	ST.h	[r5+#7],r4
.LM103:
	LD	r4,#1073743488
	LD.w	r3,[r4+#9]
	ZXT.h	r3,r3
	ST.h	[r5+#8],r3
.LM104:
	LD.w	r3,[r4+#10]
	ZXT.h	r3,r3
	ST.h	[r5+#9],r3
.LM105:
	LD.w	r4,[r4+#11]
	ZXT.h	r4,r4
	ST.h	[r5+#10],r4
.LM106:
	LD.h	r3,[r5]
	ZXT.h	r3,r3
	LD	r4,#adc_data
	ST.h	[r4+#6],r3
.LM107:
	LD.h	r3,[r5+#4]
	ZXT.h	r3,r3
	ST.h	[r4+#7],r3
.LM108:
	LD.h	r3,[r5+#1]
	ZXT.h	r3,r3
	ST.h	[r4+#9],r3
.LM109:
	LD.h	r3,[r5+#5]
	ZXT.h	r3,r3
	ST.h	[r4+#10],r3
.LM110:
	LD.h	r3,[r5+#9]
	ZXT.h	r3,r3
	ST.h	[r4+#11],r3
.LM111:
	LD.h	r3,[r5+#8]
	ZXT.h	r3,r3
	ST.h	[r4+#12],r3
.LM112:
	LD.h	r3,[r5+#6]
	ZXT.h	r3,r3
	ST.h	[r4+#13],r3
.LM113:
	LD.h	r3,[r5+#10]
	ZXT.h	r3,r3
	ST.h	[r4+#16],r3
.LM114:
	LD.h	r5,[r5+#3]
	ZXT.h	r5,r5
	ST.h	[r4+#14],r5
.LM115:
	JMP	lr
	.cfi_endproc
.LFE7:
	.size	adc_result_calc, .-adc_result_calc
	.section .text$adc_offset_calc
	.type	.text$adc_offset_calc$scode_local_8, @function
	.text$adc_offset_calc$scode_local_8:
	.align	1
	.export	adc_offset_calc
	.type	adc_offset_calc, @function
adc_offset_calc:
.LFB8:
.LM116:
	.cfi_startproc
	PUSH	{r6, r7, r8, r9, r10, r11, r12, lr}
	.cfi_def_cfa_offset 32
	SUB	sp,#4
	.cfi_def_cfa_offset 36
.LM117:
	MOV	r5,#0
	LD	r2,#adc_data
	ST.w	[r2],r5
.LM118:
	ST.w	[r2+#1],r5
.LM119:
	ST.w	[r2+#2],r5
.LVL45:
	MOV	lr,#1
	LD	r2,#adc_buf
	MOV	r8,r2
.LM120:
	LD	r2,#1073743232
.LM121:
	LD	r1,#1073743360
.LM122:
	LD	r0,#1073743488
.LM123:
	MOV	r4,#8
.LM124:
	MOV	r9,r8
.LM125:
	LD	r3,#1025
	MOV	r12,r3
.LVL46:
.L12:
.LM126:
	LD.w	r5,[r2+#1]
	SET	r5,#3
	ST.w	[r2+#1],r5
.LM127:
	LD.w	r5,[r1+#1]
	SET	r5,#3
	ST.w	[r1+#1],r5
.LM128:
	LD.w	r5,[r0+#1]
	SET	r5,#3
	ST.w	[r0+#1],r5
.L29:
.LM129:
	LD	r3,#1073743232
	LD.w	r5,[r2+#20]
	ANL	r5,r5,r4
	JZ	.L29
.LM130:
	LD	r7,#1073743360
	LD.w	r5,[r1+#20]
	ANL	r5,r5,r4
	JZ	.L29
.LM131:
	LD	r6,#1073743488
	MOV	r11,r6
	LD.w	r5,[r0+#20]
	ANL	r5,r5,r4
	JZ	.L29
.LM132:
	LD.w	r5,[r3+#20]
	SET	r5,#6
	ST.w	[r3+#20],r5
.LM133:
	LD.w	r5,[r7+#20]
	SET	r5,#6
	ST.w	[r7+#20],r5
.LM134:
	LD.w	r6,[r6+#20]
	MOV	r5,#64
	ORL	r5,r6,r5
	MOV	r6,r11
	ST.w	[r6+#20],r5
.LM135:
	LD.w	r5,[r3+#20]
	CLR	r5,#6
	ST.w	[r3+#20],r5
.LM136:
	LD.w	r5,[r7+#20]
	CLR	r5,#6
	ST.w	[r7+#20],r5
.LM137:
	LD.w	r5,[r6+#20]
	CLR	r5,#6
	ST.w	[r6+#20],r5
.LM138:
	LD.w	r5,[r3+#9]
	ZXT.h	r5,r5
	ST.h	[r8],r5
.LM139:
	LD.w	r5,[r7+#9]
	ZXT.h	r5,r5
	MOV	r6,r8
	ST.h	[r6+#4],r5
.LM140:
	CMP	lr,#1
	JZ	.L14
.LM141:
	LD	r5,#adc_data
	LD.w	r10,[r5]
	LD.h	r3,[r9]
	SXT.h	r3,r3
	ADD	r3,r10
	ST.w	[r5],r3
.LM142:
	LD.w	r3,[r5+#1]
	MOV	r10,r3
	MOV	r6,r9
	LD.h	r3,[r6+#4]
	SXT.h	r3,r3
	ADD	r3,r10
	ST.w	[r5+#1],r3
.LVL47:
.LM143:
	CMP	lr,r12
	JZ	.L30
.LVL48:
.L14:
	MOV	r5,lr
	ADD	r7,r5,#1
	ZXT.h	lr,r7
	JMP	.L12
.LVL49:
.L30:
.LM144:
	LD.w	r4,[r5]
	ASR	r4,#10
	ST.w	[r5],r4
.LM145:
	LD.w	r4,[r5+#1]
	ASR	r4,#10
	ST.w	[r5+#1],r4
.LM146:
	ADD	sp,#4
	.cfi_def_cfa_offset 32
	POP	{r6, r7, r8, r9, r10, r11, r12}
	.cfi_def_cfa_offset 4
	POP	lr
	.cfi_def_cfa_offset 0
.LVL50:
	JMP	lr
	.cfi_endproc
.LFE8:
	.size	adc_offset_calc, .-adc_offset_calc
	.export	adc_buf
	.section .bss$comm$adc_buf
	.type	.bss$comm$adc_buf$scode_local_9, @function
	.bss$comm$adc_buf$scode_local_9:
	.align	1
	.type	adc_buf, @object
	.size	adc_buf, 24
adc_buf:
	.fill 24, 1
	.export	adc_data
	.section .bss$comm$adc_data
	.type	.bss$comm$adc_data$scode_local_10, @function
	.bss$comm$adc_data$scode_local_10:
	.align	2
	.type	adc_data, @object
	.size	adc_data, 36
adc_data:
	.fill 36, 1
	.text	
.Letext0: