	.file	"driver_gpio.c"
	.text	
.Ltext0:
	.cfi_sections	.debug_frame
	.section .text$cfg_GPIO
	.type	.text$cfg_GPIO$scode_local_1, @function
	.text$cfg_GPIO$scode_local_1:
	.align	1
	.export	cfg_GPIO
	.type	cfg_GPIO, @function
cfg_GPIO:
.LFB1:
.LM1:
	.cfi_startproc
	PUSH	{r6, r7, r8, r9, r10, r11, r12, lr}
	.cfi_def_cfa_offset 32
	SUB	sp,#24
	.cfi_def_cfa_offset 56
.LM2:
	MOV	r0,sp
	LD	r5,#GPIO_Struct_Init
	LJMP	r5
.LVL0:
.LM3:
	LD	r0,#1342177280
	LD	r6,#GPIO_Reset
	LJMP	r6
.LVL1:
.LM4:
	LD	r5,#1342177344
	MOV	r9,r5
	MOV	r0,r5
	LJMP	r6
.LVL2:
.LM5:
	LD	r0,#1342177408
	LJMP	r6
.LVL3:
.LM6:
	LD	r0,#1342177472
	LJMP	r6
.LVL4:
.LM7:
	LD	r5,#1342177600
	MOV	r10,r5
	MOV	r0,r5
	LJMP	r6
.LVL5:
.LM8:
	LD	r0,#1342177536
	LJMP	r6
.LVL6:
.LM9:
	LD	r5,#1342177664
	MOV	r11,r5
	MOV	r0,r5
	LJMP	r6
.LVL7:
.LM10:
	MOV	r12,#1
	LSL	r12,#15
	ST.w	[sp],r12
.LM11:
	MOV	r6,#0
	ST.w	[sp+#2],r6
.LM12:
	MOV	r8,#1
	MOV	r5,r8
	ST.w	[sp+#1],r5
.LM13:
	ST.w	[sp+#4],r6
.LM14:
	ST.w	[sp+#5],r6
.LM15:
	MOV	r0,r9
	MOV	r1,sp
	LD	r7,#GPIO_Configuration
	LJMP	r7
.LVL8:
.LM16:
	MOV	r5,#1
	LSL	r5,#14
	ST.w	[sp],r5
.LM17:
	ST.w	[sp+#2],r6
.LM18:
	MOV	r5,r8
	ST.w	[sp+#1],r5
.LM19:
	ST.w	[sp+#4],r6
.LM20:
	ST.w	[sp+#5],r6
.LM21:
	MOV	r0,r9
	MOV	r1,sp
	LJMP	r7
.LVL9:
.LM22:
	MOV	r5,#1
	LSL	r5,#13
	ST.w	[sp],r5
.LM23:
	ST.w	[sp+#2],r6
.LM24:
	MOV	r5,r8
	ST.w	[sp+#1],r5
.LM25:
	ST.w	[sp+#4],r6
.LM26:
	ST.w	[sp+#5],r6
.LM27:
	MOV	r0,r9
	MOV	r1,sp
	LJMP	r7
.LVL10:
.LM28:
	ST.w	[sp],r12
.LM29:
	ST.w	[sp+#2],r6
.LM30:
	ST.w	[sp+#1],r6
.LM31:
	ST.w	[sp+#4],r6
.LM32:
	ST.w	[sp+#5],r6
.LM33:
	MOV	r0,r11
	MOV	r1,sp
	LJMP	r7
.LVL11:
.LM34:
	ST.w	[sp],r8
.LM35:
	ST.w	[sp+#2],r6
.LM36:
	ST.w	[sp+#1],r6
.LM37:
	MOV	r5,r8
	ST.w	[sp+#4],r5
.LM38:
	ST.w	[sp+#5],r6
.LM39:
	MOV	r0,r9
	MOV	r1,sp
	LJMP	r7
.LVL12:
.LM40:
	MOV	r5,#255
	ADD	r5,r5,#1
	ST.w	[sp],r5
.LM41:
	ST.w	[sp+#2],r6
.LM42:
	ST.w	[sp+#1],r6
.LM43:
	MOV	r5,r8
	ST.w	[sp+#4],r5
.LM44:
	ST.w	[sp+#5],r6
.LM45:
	MOV	r0,r10
	MOV	r1,sp
	LJMP	r7
.LVL13:
.LM46:
	ADD	sp,#24
	.cfi_def_cfa_offset 32
	POP	{r6, r7, r8, r9, r10, r11, r12}
	.cfi_def_cfa_offset 4
	POP	lr
	.cfi_def_cfa_offset 0
	JMP	lr
	.cfi_endproc
.LFE1:
	.size	cfg_GPIO, .-cfg_GPIO
	.text	
.Letext0: