	.file	"driver_timer.c"
	.text	
.Ltext0:
	.cfi_sections	.debug_frame
	.section .text$cfg_T14
	.type	.text$cfg_T14$scode_local_1, @function
	.text$cfg_T14$scode_local_1:
	.align	1
	.export	cfg_T14
	.type	cfg_T14, @function
cfg_T14:
.LFB2:
.LM1:
	.cfi_startproc
	PUSH	{r6, lr}
	.cfi_def_cfa_offset 8
.LM2:
	LD	r6,#1073747968
	MOV	r0,r6
	LD	r5,#TIM_Reset
	LJMP	r5
.LVL0:
.LM3:
	MOV	r0,r6
	MOV	r1,#1
	LD	r5,#BTIM_Updata_Immediately_Config
	LJMP	r5
.LVL1:
.LM4:
	MOV	r0,r6
	MOV	r1,#1
	LD	r5,#BTIM_Updata_Enable
	LJMP	r5
.LVL2:
.LM5:
	MOV	r0,r6
	MOV	r1,#0
	LD	r5,#BTIM_Work_Mode_Config
	LJMP	r5
.LVL3:
.LM6:
	MOV	r0,r6
	MOV	r1,#0
	LD	r5,#BTIM_Set_Counter
	LJMP	r5
.LVL4:
.LM7:
	MOV	r0,r6
	LD	r1,#999
	LD	r5,#BTIM_Set_Period
	LJMP	r5
.LVL5:
.LM8:
	MOV	r0,r6
	MOV	r1,#15
	LD	r5,#BTIM_Set_Prescaler
	LJMP	r5
.LVL6:
.LM9:
	MOV	r0,r6
	MOV	r1,#255
	ADD	r1,r1,#1
	LD	r5,#BTIM_Counter_Mode_Config
	LJMP	r5
.LVL7:
.LM10:
	MOV	r0,r6
	MOV	r1,#8
	LD	r5,#BTIM_Clock_Config
	LJMP	r5
.LVL8:
.LM11:
	MOV	r0,#33
	MOV	r1,#4
	MOV	r2,#0
	LD	r5,#INT_Interrupt_Priority_Config
	LJMP	r5
.LVL9:
.LM12:
	MOV	r0,r6
	MOV	r1,#1
	LD	r5,#BTIM_Overflow_INT_Enable
	LJMP	r5
.LVL10:
.LM13:
	MOV	r0,#33
	MOV	r1,#1
	LD	r5,#INT_Interrupt_Enable
	LJMP	r5
.LVL11:
.LM14:
	MOV	r0,#33
	LD	r5,#INT_Clear_Interrupt_Flag
	LJMP	r5
.LVL12:
.LM15:
	MOV	r0,r6
	MOV	r1,#1
	LD	r5,#BTIM_Cmd
	LJMP	r5
.LVL13:
.LM16:
	MOV	r0,#128
	LD	r5,#INT_Stack_Align_Config
	LJMP	r5
.LVL14:
.LM17:
	POP	r6
	.cfi_def_cfa_offset 4
	POP	lr
	.cfi_def_cfa_offset 0
	JMP	lr
	.cfi_endproc
.LFE2:
	.size	cfg_T14, .-cfg_T14
	.section .text$cfg_BASIC_TIMER
	.type	.text$cfg_BASIC_TIMER$scode_local_2, @function
	.text$cfg_BASIC_TIMER$scode_local_2:
	.align	1
	.export	cfg_BASIC_TIMER
	.type	cfg_BASIC_TIMER, @function
cfg_BASIC_TIMER:
.LFB1:
.LM18:
	.cfi_startproc
	PUSH	lr
	.cfi_def_cfa_offset 4
.LM19:
	LD	r5,#cfg_T14
	LJMP	r5
.LVL15:
.LM20:
	POP	lr
	.cfi_def_cfa_offset 0
	JMP	lr
	.cfi_endproc
.LFE1:
	.size	cfg_BASIC_TIMER, .-cfg_BASIC_TIMER
	.export	time_count
	.section .bss$data.init$time_count
	.type	.bss$data.init$time_count$scode_local_3, @function
	.bss$data.init$time_count$scode_local_3:
	.align	1
	.type	time_count, @object
	.size	time_count, 8
time_count:
	.fill 8, 1
	.text	
.Letext0: