	.file	"driver_usart.c"
	.text	
.Ltext0:
	.cfi_sections	.debug_frame
	.section .text$cfg_GPIO_for_USART0
	.type	.text$cfg_GPIO_for_USART0$scode_local_1, @function
	.text$cfg_GPIO_for_USART0$scode_local_1:
	.align	1
	.export	cfg_GPIO_for_USART0
	.type	cfg_GPIO_for_USART0, @function
cfg_GPIO_for_USART0:
.LFB2:
.LM1:
	.cfi_startproc
	PUSH	{r6, r7, r8, lr}
	.cfi_def_cfa_offset 16
.LM2:
	LD	r6,#1342177280
	MOV	r0,r6
	MOV	r1,#8
	MOV	r2,#2
	LD	r7,#GPIO_Write_Mode_Bits
	LJMP	r7
.LVL0:
.LM3:
	LD	r5,#1342177536
	MOV	r8,r5
	MOV	r0,r5
	MOV	r1,#128
	MOV	r2,#2
	LJMP	r7
.LVL1:
.LM4:
	LD	r7,#771
	MOV	r0,r6
	MOV	r1,#3
	MOV	r2,r7
	LD	r6,#GPIO_Pin_RMP_Config
	LJMP	r6
.LVL2:
.LM5:
	MOV	r0,r8
	MOV	r1,#7
	MOV	r2,r7
	LJMP	r6
.LVL3:
.LM6:
	POP	{r6, r7, r8}
	.cfi_def_cfa_offset 4
	POP	lr
	.cfi_def_cfa_offset 0
	JMP	lr
	.cfi_endproc
.LFE2:
	.size	cfg_GPIO_for_USART0, .-cfg_GPIO_for_USART0
	.section .text$cfg_USART0
	.type	.text$cfg_USART0$scode_local_2, @function
	.text$cfg_USART0$scode_local_2:
	.align	1
	.export	cfg_USART0
	.type	cfg_USART0, @function
cfg_USART0:
.LFB3:
.LM7:
	.cfi_startproc
	PUSH	{r6, lr}
	.cfi_def_cfa_offset 8
.LM8:
	LD	r6,#1073744256
	MOV	r0,r6
	LD	r5,#USART_Reset
	LJMP	r5
.LVL4:
.LM9:
	MOV	r0,r6
	MOV	r1,#0
	LD	r5,#USART_Receive_Order_Config
	LJMP	r5
.LVL5:
.LM10:
	MOV	r0,r6
	MOV	r1,#0
	LD	r5,#USART_Transmit_Order_Config
	LJMP	r5
.LVL6:
.LM11:
	MOV	r0,r6
	MOV	r1,#0
	LD	r5,#USART_BaudRate_Clock_Config
	LJMP	r5
.LVL7:
.LM12:
	MOV	r0,r6
	MOV	r1,#255
	ADD	r1,r1,#1
	LD	r5,#USART_Clock_Source_Config
	LJMP	r5
.LVL8:
.LM13:
	MOV	r0,r6
	MOV	r1,#0
	LD	r5,#USART_SYNC_Choice_Config
	LJMP	r5
.LVL9:
.LM14:
	MOV	r0,r6
	MOV	r1,#1
	LD	r5,#USART_Transmit_Data_Enable
	LJMP	r5
.LVL10:
.LM15:
	MOV	r0,r6
	MOV	r1,#1
	LD	r5,#USART_Receive_Data_Enable
	LJMP	r5
.LVL11:
.LM16:
	MOV	r0,r6
	MOV	r1,#0
	LD	r5,#USART_STOP_Word_Config
	LJMP	r5
.LVL12:
.LM17:
	MOV	r0,r6
	MOV	r1,#0
	LD	r5,#USART_9Data_Enable
	LJMP	r5
.LVL13:
.LM18:
	MOV	r0,r6
	MOV	r1,#1
	LD	r5,#USART_RESHD_Enable
	LJMP	r5
.LVL14:
.LM19:
	MOV	r0,r6
	MOV	r1,#65
	LD	r5,#USART_BaudRate_Integer_Config
	LJMP	r5
.LVL15:
.LM20:
	MOV	r0,r6
	MOV	r1,#1
	LD	r5,#USART_Cmd
	LJMP	r5
.LVL16:
.LM21:
	POP	r6
	.cfi_def_cfa_offset 4
	POP	lr
	.cfi_def_cfa_offset 0
	JMP	lr
	.cfi_endproc
.LFE3:
	.size	cfg_USART0, .-cfg_USART0
	.section .text$cfg_USART
	.type	.text$cfg_USART$scode_local_3, @function
	.text$cfg_USART$scode_local_3:
	.align	1
	.export	cfg_USART
	.type	cfg_USART, @function
cfg_USART:
.LFB1:
.LM22:
	.cfi_startproc
	PUSH	lr
	.cfi_def_cfa_offset 4
.LM23:
	LD	r5,#cfg_GPIO_for_USART0
	LJMP	r5
.LVL17:
.LM24:
	LD	r5,#cfg_USART0
	LJMP	r5
.LVL18:
.LM25:
	POP	lr
	.cfi_def_cfa_offset 0
	JMP	lr
	.cfi_endproc
.LFE1:
	.size	cfg_USART, .-cfg_USART
	.text	
.Letext0: