	.file	"driver_pwm.c"
	.text	
.Ltext0:
	.cfi_sections	.debug_frame
	.section .text$cfg_EPWM_GPIO
	.type	.text$cfg_EPWM_GPIO$scode_local_1, @function
	.text$cfg_EPWM_GPIO$scode_local_1:
	.align	1
	.export	cfg_EPWM_GPIO
	.type	cfg_EPWM_GPIO, @function
cfg_EPWM_GPIO:
.LFB2:
.LM1:
	.cfi_startproc
	PUSH	{r6, r7, r8, r9, lr}
	.cfi_def_cfa_offset 20
.LM2:
	LD	r6,#1342177600
	MOV	r0,r6
	MOV	r1,#8
	MOV	r2,#2
	LD	r7,#GPIO_Write_Mode_Bits
	LJMP	r7
.LVL0:
.LM3:
	MOV	r0,r6
	MOV	r1,#2
	MOV	r2,r1
	LJMP	r7
.LVL1:
.LM4:
	MOV	r0,r6
	MOV	r1,#4
	MOV	r2,#2
	LJMP	r7
.LVL2:
.LM5:
	MOV	r0,r6
	MOV	r1,#1
	MOV	r2,#2
	LJMP	r7
.LVL3:
.LM6:
	MOV	r0,r6
	MOV	r1,#32
	MOV	r2,#2
	LJMP	r7
.LVL4:
.LM7:
	LD	r5,#1342177344
	MOV	r9,r5
	MOV	r0,r5
	MOV	r1,#64
	MOV	r2,#2
	LJMP	r7
.LVL5:
.LM8:
	MOV	r0,r6
	MOV	r1,#128
	MOV	r2,#2
	LJMP	r7
.LVL6:
.LM9:
	LD	r5,#769
	MOV	r8,r5
	MOV	r0,r6
	MOV	r1,#3
	MOV	r2,r5
	LD	r7,#GPIO_Pin_RMP_Config
	LJMP	r7
.LVL7:
.LM10:
	MOV	r0,r6
	MOV	r1,#1
	MOV	r2,r8
	LJMP	r7
.LVL8:
.LM11:
	MOV	r0,r6
	MOV	r1,#2
	MOV	r2,r8
	LJMP	r7
.LVL9:
.LM12:
	MOV	r0,r6
	MOV	r1,#0
	MOV	r2,r8
	LJMP	r7
.LVL10:
.LM13:
	MOV	r0,r6
	MOV	r1,#5
	MOV	r2,r8
	LJMP	r7
.LVL11:
.LM14:
	MOV	r0,r9
	MOV	r1,#6
	LD	r2,#773
	LJMP	r7
.LVL12:
.LM15:
	MOV	r0,r6
	MOV	r1,#7
	MOV	r2,r8
	LJMP	r7
.LVL13:
.LM16:
	POP	{r6, r7, r8, r9}
	.cfi_def_cfa_offset 4
	POP	lr
	.cfi_def_cfa_offset 0
	JMP	lr
	.cfi_endproc
.LFE2:
	.size	cfg_EPWM_GPIO, .-cfg_EPWM_GPIO
	.section .text$cfg_EPWM11
	.type	.text$cfg_EPWM11$scode_local_2, @function
	.text$cfg_EPWM11$scode_local_2:
	.align	1
	.export	cfg_EPWM11
	.type	cfg_EPWM11, @function
cfg_EPWM11:
.LFB3:
.LM17:
	.cfi_startproc
	PUSH	{r6, r7, lr}
	.cfi_def_cfa_offset 12
.LM18:
	LD	r6,#1073748480
	MOV	r0,r6
	MOV	r1,#0
	LD	r5,#EPWM_Work_Mode_Config
	LJMP	r5
.LVL14:
.LM19:
	MOV	r0,r6
	MOV	r1,#0
	LD	r5,#EPWM_Work_Clock_Select
	LJMP	r5
.LVL15:
.LM20:
	MOV	r0,r6
	MOV	r1,#0
	LD	r5,#EPWM_TxPRSC_Value_Config
	LJMP	r5
.LVL16:
.LM21:
	MOV	r0,r6
	MOV	r1,#0
	LD	r5,#EPWM_TxPHS_Value_Config
	LJMP	r5
.LVL17:
.LM22:
	MOV	r0,r6
	MOV	r1,#5
	LD	r5,#EPWM_Counter_Mode_Select
	LJMP	r5
.LVL18:
.LM23:
	MOV	r0,r6
	MOV	r1,#1
	LD	r5,#EPWM_Phase_Register_Loading_Enable
	LJMP	r5
.LVL19:
.LM24:
	MOV	r0,r6
	MOV	r1,#1
	LD	r5,#EPWM_Phase_Direction_Config
	LJMP	r5
.LVL20:
.LM25:
	MOV	r0,r6
	MOV	r1,#1
	LD	r5,#EPWM_SYNC_Event_Out_Select
	LJMP	r5
.LVL21:
.LM26:
	LD	r5,#3000
	ST.w	[r6+#2],r5
.LM27:
	LD	r5,#1500
	ST.w	[r6+#5],r5
.LM28:
	ST.w	[r6+#6],r5
.LM29:
	MOV	r0,r6
	MOV	r1,#0
	MOV	r2,#2
	MOV	r3,r2
	LD	r7,#EPWM_EPWMxAB_OUTPUT_Select
	LJMP	r7
.LVL22:
.LM30:
	MOV	r0,r6
	MOV	r1,#0
	MOV	r2,#3
	MOV	r3,#1
	LJMP	r7
.LVL23:
.LM31:
	MOV	r0,r6
	MOV	r1,#0
	MOV	r2,#3
	LD	r5,#EPWM_Continuous_Mandatory_Output_Config
	LJMP	r5
.LVL24:
.LM32:
	MOV	r0,r6
	MOV	r1,#0
	LD	r5,#EPWM_Dead_Zone_Input_Select
	LJMP	r5
.LVL25:
.LM33:
	MOV	r0,r6
	MOV	r1,#2
	LD	r5,#EPWM_Dead_Zone_Output_Polarity_Select
	LJMP	r5
.LVL26:
.LM34:
	MOV	r0,r6
	MOV	r1,#3
	LD	r5,#EPWM_Dead_Zone_Output_Select
	LJMP	r5
.LVL27:
.LM35:
	MOV	r0,r6
	MOV	r1,#1
	MOV	r2,#120
	LD	r7,#EPWM_Dead_Zone_Time_Config
	LJMP	r7
.LVL28:
.LM36:
	MOV	r0,r6
	MOV	r1,#0
	MOV	r2,#120
	LJMP	r7
.LVL29:
.LM37:
	MOV	r0,r6
	MOV	r1,#4
	LD	r5,#EPWM_Auto_ShowDown_Source_Select
	LJMP	r5
.LVL30:
.LM38:
	MOV	r0,r6
	MOV	r1,#0
	MOV	r2,r1
	LD	r7,#EPWM_Trigger_AD_Event_Mode_Select
	LJMP	r7
.LVL31:
.LM39:
	MOV	r0,r6
	MOV	r1,#1
	MOV	r2,#0
	LJMP	r7
.LVL32:
.LM40:
	MOV	r0,r6
	MOV	r1,#0
	MOV	r2,r1
	LD	r7,#EPWM_Trigger_Event_Cycle_Select
	LJMP	r7
.LVL33:
.LM41:
	MOV	r0,r6
	MOV	r1,#1
	MOV	r2,#0
	LJMP	r7
.LVL34:
.LM42:
	MOV	r0,r6
	MOV	r1,#0
	MOV	r2,r1
	LD	r7,#EPWM_Trigger_AD_Event_Select
	LJMP	r7
.LVL35:
.LM43:
	MOV	r0,r6
	MOV	r1,#1
	MOV	r2,r1
	LJMP	r7
.LVL36:
.LM44:
	MOV	r0,r6
	MOV	r1,#0
	MOV	r2,#1
	LD	r7,#EPWM_Trigger_AD_Event_Enable
	LJMP	r7
.LVL37:
.LM45:
	MOV	r0,r6
	MOV	r1,#1
	MOV	r2,r1
	LJMP	r7
.LVL38:
.LM46:
	MOV	r0,r6
	MOV	r1,#0
	LD	r5,#EPWM_Global_Loading_Enable
	LJMP	r5
.LVL39:
.LM47:
	MOV	r0,r6
	MOV	r1,#1
	LD	r5,#EPWM_Updata_Event_Enable
	LJMP	r5
.LVL40:
.LM48:
	MOV	r0,r6
	MOV	r1,#1
	LD	r5,#EPWM_Updata_Event_Generate_Enable
	LJMP	r5
.LVL41:
.LM49:
	MOV	r0,r6
	MOV	r1,#0
	LD	r5,#EPWM_Enable
	LJMP	r5
.LVL42:
.LM50:
	POP	{r6, r7}
	.cfi_def_cfa_offset 4
	POP	lr
	.cfi_def_cfa_offset 0
	JMP	lr
	.cfi_endproc
.LFE3:
	.size	cfg_EPWM11, .-cfg_EPWM11
	.section .text$cfg_EPWM12
	.type	.text$cfg_EPWM12$scode_local_3, @function
	.text$cfg_EPWM12$scode_local_3:
	.align	1
	.export	cfg_EPWM12
	.type	cfg_EPWM12, @function
cfg_EPWM12:
.LFB4:
.LM51:
	.cfi_startproc
	PUSH	{r6, r7, lr}
	.cfi_def_cfa_offset 12
.LM52:
	LD	r6,#1073746688
	MOV	r0,r6
	MOV	r1,#0
	LD	r5,#EPWM_Work_Mode_Config
	LJMP	r5
.LVL43:
.LM53:
	MOV	r0,r6
	MOV	r1,#0
	LD	r5,#EPWM_Work_Clock_Select
	LJMP	r5
.LVL44:
.LM54:
	MOV	r0,r6
	MOV	r1,#0
	LD	r5,#EPWM_TxPRSC_Value_Config
	LJMP	r5
.LVL45:
.LM55:
	MOV	r0,r6
	MOV	r1,#2
	LD	r5,#EPWM_TxPHS_Value_Config
	LJMP	r5
.LVL46:
.LM56:
	MOV	r0,r6
	MOV	r1,#5
	LD	r5,#EPWM_Counter_Mode_Select
	LJMP	r5
.LVL47:
.LM57:
	MOV	r0,r6
	MOV	r1,#1
	LD	r5,#EPWM_Phase_Register_Loading_Enable
	LJMP	r5
.LVL48:
.LM58:
	MOV	r0,r6
	MOV	r1,#1
	LD	r5,#EPWM_Phase_Direction_Config
	LJMP	r5
.LVL49:
.LM59:
	MOV	r0,r6
	MOV	r1,#0
	LD	r5,#EPWM_SYNC_Event_Out_Select
	LJMP	r5
.LVL50:
.LM60:
	LD	r5,#3000
	ST.w	[r6+#2],r5
.LM61:
	LD	r5,#1500
	ST.w	[r6+#5],r5
.LM62:
	ST.w	[r6+#6],r5
.LM63:
	MOV	r0,r6
	MOV	r1,#0
	MOV	r2,#2
	MOV	r3,r2
	LD	r7,#EPWM_EPWMxAB_OUTPUT_Select
	LJMP	r7
.LVL51:
.LM64:
	MOV	r0,r6
	MOV	r1,#0
	MOV	r2,#3
	MOV	r3,#1
	LJMP	r7
.LVL52:
.LM65:
	MOV	r0,r6
	MOV	r1,#0
	MOV	r2,#3
	LD	r5,#EPWM_Continuous_Mandatory_Output_Config
	LJMP	r5
.LVL53:
.LM66:
	MOV	r0,r6
	MOV	r1,#0
	LD	r5,#EPWM_Dead_Zone_Input_Select
	LJMP	r5
.LVL54:
.LM67:
	MOV	r0,r6
	MOV	r1,#2
	LD	r5,#EPWM_Dead_Zone_Output_Polarity_Select
	LJMP	r5
.LVL55:
.LM68:
	MOV	r0,r6
	MOV	r1,#3
	LD	r5,#EPWM_Dead_Zone_Output_Select
	LJMP	r5
.LVL56:
.LM69:
	MOV	r0,r6
	MOV	r1,#1
	MOV	r2,#120
	LD	r7,#EPWM_Dead_Zone_Time_Config
	LJMP	r7
.LVL57:
.LM70:
	MOV	r0,r6
	MOV	r1,#0
	MOV	r2,#120
	LJMP	r7
.LVL58:
.LM71:
	MOV	r0,r6
	MOV	r1,#4
	LD	r5,#EPWM_Auto_ShowDown_Source_Select
	LJMP	r5
.LVL59:
.LM72:
	MOV	r0,r6
	MOV	r1,#0
	LD	r5,#EPWM_Global_Loading_Enable
	LJMP	r5
.LVL60:
.LM73:
	MOV	r0,r6
	MOV	r1,#1
	LD	r5,#EPWM_Updata_Event_Enable
	LJMP	r5
.LVL61:
.LM74:
	MOV	r0,r6
	MOV	r1,#1
	LD	r5,#EPWM_Updata_Event_Generate_Enable
	LJMP	r5
.LVL62:
.LM75:
	MOV	r0,r6
	MOV	r1,#0
	LD	r5,#EPWM_Enable
	LJMP	r5
.LVL63:
.LM76:
	POP	{r6, r7}
	.cfi_def_cfa_offset 4
	POP	lr
	.cfi_def_cfa_offset 0
	JMP	lr
	.cfi_endproc
.LFE4:
	.size	cfg_EPWM12, .-cfg_EPWM12
	.section .text$cfg_EPWM13
	.type	.text$cfg_EPWM13$scode_local_4, @function
	.text$cfg_EPWM13$scode_local_4:
	.align	1
	.export	cfg_EPWM13
	.type	cfg_EPWM13, @function
cfg_EPWM13:
.LFB5:
.LM77:
	.cfi_startproc
	PUSH	{r6, r7, lr}
	.cfi_def_cfa_offset 12
.LM78:
	LD	r6,#1073746816
	MOV	r0,r6
	MOV	r1,#0
	LD	r5,#EPWM_Work_Mode_Config
	LJMP	r5
.LVL64:
.LM79:
	MOV	r0,r6
	MOV	r1,#0
	LD	r5,#EPWM_Work_Clock_Select
	LJMP	r5
.LVL65:
.LM80:
	MOV	r0,r6
	MOV	r1,#0
	LD	r5,#EPWM_TxPRSC_Value_Config
	LJMP	r5
.LVL66:
.LM81:
	MOV	r0,r6
	MOV	r1,#3
	LD	r5,#EPWM_TxPHS_Value_Config
	LJMP	r5
.LVL67:
.LM82:
	MOV	r0,r6
	MOV	r1,#5
	LD	r5,#EPWM_Counter_Mode_Select
	LJMP	r5
.LVL68:
.LM83:
	MOV	r0,r6
	MOV	r1,#1
	LD	r5,#EPWM_Phase_Register_Loading_Enable
	LJMP	r5
.LVL69:
.LM84:
	MOV	r0,r6
	MOV	r1,#1
	LD	r5,#EPWM_Phase_Direction_Config
	LJMP	r5
.LVL70:
.LM85:
	MOV	r0,r6
	MOV	r1,#0
	LD	r5,#EPWM_SYNC_Event_Out_Select
	LJMP	r5
.LVL71:
.LM86:
	LD	r5,#3000
	ST.w	[r6+#2],r5
.LM87:
	LD	r5,#1500
	ST.w	[r6+#5],r5
.LM88:
	ST.w	[r6+#6],r5
.LM89:
	MOV	r0,r6
	MOV	r1,#0
	MOV	r2,#2
	MOV	r3,r2
	LD	r7,#EPWM_EPWMxAB_OUTPUT_Select
	LJMP	r7
.LVL72:
.LM90:
	MOV	r0,r6
	MOV	r1,#0
	MOV	r2,#3
	MOV	r3,#1
	LJMP	r7
.LVL73:
.LM91:
	MOV	r0,r6
	MOV	r1,#0
	MOV	r2,#3
	LD	r5,#EPWM_Continuous_Mandatory_Output_Config
	LJMP	r5
.LVL74:
.LM92:
	MOV	r0,r6
	MOV	r1,#0
	LD	r5,#EPWM_Dead_Zone_Input_Select
	LJMP	r5
.LVL75:
.LM93:
	MOV	r0,r6
	MOV	r1,#2
	LD	r5,#EPWM_Dead_Zone_Output_Polarity_Select
	LJMP	r5
.LVL76:
.LM94:
	MOV	r0,r6
	MOV	r1,#3
	LD	r5,#EPWM_Dead_Zone_Output_Select
	LJMP	r5
.LVL77:
.LM95:
	MOV	r0,r6
	MOV	r1,#1
	MOV	r2,#120
	LD	r7,#EPWM_Dead_Zone_Time_Config
	LJMP	r7
.LVL78:
.LM96:
	MOV	r0,r6
	MOV	r1,#0
	MOV	r2,#120
	LJMP	r7
.LVL79:
.LM97:
	MOV	r0,r6
	MOV	r1,#4
	LD	r5,#EPWM_Auto_ShowDown_Source_Select
	LJMP	r5
.LVL80:
.LM98:
	MOV	r0,r6
	MOV	r1,#0
	LD	r5,#EPWM_Global_Loading_Enable
	LJMP	r5
.LVL81:
.LM99:
	MOV	r0,r6
	MOV	r1,#1
	LD	r5,#EPWM_Updata_Event_Enable
	LJMP	r5
.LVL82:
.LM100:
	MOV	r0,r6
	MOV	r1,#1
	LD	r5,#EPWM_Updata_Event_Generate_Enable
	LJMP	r5
.LVL83:
.LM101:
	MOV	r0,r6
	MOV	r1,#0
	LD	r5,#EPWM_Enable
	LJMP	r5
.LVL84:
.LM102:
	POP	{r6, r7}
	.cfi_def_cfa_offset 4
	POP	lr
	.cfi_def_cfa_offset 0
	JMP	lr
	.cfi_endproc
.LFE5:
	.size	cfg_EPWM13, .-cfg_EPWM13
	.section .text$cfg_PWM
	.type	.text$cfg_PWM$scode_local_5, @function
	.text$cfg_PWM$scode_local_5:
	.align	1
	.export	cfg_PWM
	.type	cfg_PWM, @function
cfg_PWM:
.LFB1:
.LM103:
	.cfi_startproc
	PUSH	{r6, r7, r8, r9, lr}
	.cfi_def_cfa_offset 20
.LM104:
	LD	r2,#1073748480
	MOV	r9,r2
	MOV	r0,r2
	LD	r6,#EPWM_Reset
	LJMP	r6
.LVL85:
.LM105:
	LD	r3,#1073746688
	MOV	r8,r3
	MOV	r0,r3
	LJMP	r6
.LVL86:
.LM106:
	LD	r7,#1073746816
	MOV	r0,r7
	LJMP	r6
.LVL87:
.LM107:
	LD	r0,#1073753600
	LJMP	r6
.LVL88:
.LM108:
	LD	r4,#cfg_EPWM_GPIO
	LJMP	r4
.LVL89:
.LM109:
	LD	r5,#cfg_EPWM11
	LJMP	r5
.LVL90:
.LM110:
	LD	r2,#cfg_EPWM12
	LJMP	r2
.LVL91:
.LM111:
	LD	r3,#cfg_EPWM13
	LJMP	r3
.LVL92:
.LBB4:
.LBB5:
.LM112:
	MOV	r5,#9
	MOV	r4,r9
	ST.w	[r4+#12],r5
.LM113:
	MOV	r4,r8
	ST.w	[r4+#12],r5
.LM114:
	ST.w	[r7+#12],r5
.LBE5:
.LBE4:
.LM115:
	POP	{r6, r7, r8, r9}
	.cfi_def_cfa_offset 4
	POP	lr
	.cfi_def_cfa_offset 0
	JMP	lr
	.cfi_endproc
.LFE1:
	.size	cfg_PWM, .-cfg_PWM
	.section .text$cfg_EPWM16
	.type	.text$cfg_EPWM16$scode_local_6, @function
	.text$cfg_EPWM16$scode_local_6:
	.align	1
	.export	cfg_EPWM16
	.type	cfg_EPWM16, @function
cfg_EPWM16:
.LFB6:
.LM116:
	.cfi_startproc
	PUSH	{r6, r7, lr}
	.cfi_def_cfa_offset 12
.LM117:
	LD	r6,#1073753600
	MOV	r0,r6
	MOV	r1,#0
	LD	r5,#EPWM_Work_Mode_Config
	LJMP	r5
.LVL93:
.LM118:
	MOV	r0,r6
	MOV	r1,#0
	LD	r5,#EPWM_Work_Clock_Select
	LJMP	r5
.LVL94:
.LM119:
	MOV	r0,r6
	MOV	r1,#0
	LD	r5,#EPWM_TxPRSC_Value_Config
	LJMP	r5
.LVL95:
.LM120:
	MOV	r0,r6
	MOV	r1,#4
	LD	r5,#EPWM_TxPHS_Value_Config
	LJMP	r5
.LVL96:
.LM121:
	MOV	r0,r6
	MOV	r1,#5
	LD	r5,#EPWM_Counter_Mode_Select
	LJMP	r5
.LVL97:
.LM122:
	MOV	r0,r6
	MOV	r1,#1
	LD	r5,#EPWM_Phase_Register_Loading_Enable
	LJMP	r5
.LVL98:
.LM123:
	MOV	r0,r6
	MOV	r1,#1
	LD	r5,#EPWM_Phase_Direction_Config
	LJMP	r5
.LVL99:
.LM124:
	MOV	r0,r6
	MOV	r1,#0
	LD	r5,#EPWM_SYNC_Event_Out_Select
	LJMP	r5
.LVL100:
.LM125:
	LD	r5,#3000
	ST.w	[r6+#2],r5
.LM126:
	LD	r5,#1500
	ST.w	[r6+#5],r5
.LM127:
	ST.w	[r6+#6],r5
.LM128:
	MOV	r0,r6
	MOV	r1,#0
	MOV	r2,r1
	MOV	r3,#2
	LD	r7,#EPWM_EPWMxAB_OUTPUT_Select
	LJMP	r7
.LVL101:
.LM129:
	MOV	r0,r6
	MOV	r1,#0
	MOV	r2,#1
	MOV	r3,r2
	LJMP	r7
.LVL102:
.LM130:
	MOV	r0,r6
	MOV	r1,#0
	MOV	r2,#3
	LD	r5,#EPWM_Continuous_Mandatory_Output_Config
	LJMP	r5
.LVL103:
.LM131:
	MOV	r0,r6
	MOV	r1,#0
	MOV	r2,r1
	LD	r7,#EPWM_Trigger_AD_Event_Mode_Select
	LJMP	r7
.LVL104:
.LM132:
	MOV	r0,r6
	MOV	r1,#1
	MOV	r2,#0
	LJMP	r7
.LVL105:
.LM133:
	MOV	r0,r6
	MOV	r1,#0
	MOV	r2,r1
	LD	r7,#EPWM_Trigger_Event_Cycle_Select
	LJMP	r7
.LVL106:
.LM134:
	MOV	r0,r6
	MOV	r1,#1
	MOV	r2,#0
	LJMP	r7
.LVL107:
.LM135:
	MOV	r0,r6
	MOV	r1,#0
	MOV	r2,#2
	LD	r7,#EPWM_Trigger_AD_Event_Select
	LJMP	r7
.LVL108:
.LM136:
	MOV	r0,r6
	MOV	r1,#1
	MOV	r2,#3
	LJMP	r7
.LVL109:
.LM137:
	MOV	r0,r6
	MOV	r1,#0
	MOV	r2,#1
	LD	r7,#EPWM_Trigger_AD_Event_Enable
	LJMP	r7
.LVL110:
.LM138:
	MOV	r0,r6
	MOV	r1,#1
	MOV	r2,r1
	LJMP	r7
.LVL111:
.LM139:
	MOV	r0,r6
	MOV	r1,#0
	LD	r5,#EPWM_Global_Loading_Enable
	LJMP	r5
.LVL112:
.LM140:
	MOV	r0,r6
	MOV	r1,#1
	LD	r5,#EPWM_Updata_Event_Enable
	LJMP	r5
.LVL113:
.LM141:
	MOV	r0,r6
	MOV	r1,#1
	LD	r5,#EPWM_Updata_Event_Generate_Enable
	LJMP	r5
.LVL114:
.LM142:
	MOV	r0,r6
	MOV	r1,#1
	LD	r5,#EPWM_Enable
	LJMP	r5
.LVL115:
.LM143:
	POP	{r6, r7}
	.cfi_def_cfa_offset 4
	POP	lr
	.cfi_def_cfa_offset 0
	JMP	lr
	.cfi_endproc
.LFE6:
	.size	cfg_EPWM16, .-cfg_EPWM16
	.section .text$pwm_enable
	.type	.text$pwm_enable$scode_local_7, @function
	.text$pwm_enable$scode_local_7:
	.align	1
	.export	pwm_enable
	.type	pwm_enable, @function
pwm_enable:
.LFB7:
.LM144:
	.cfi_startproc
.LM145:
	LD	r2,#1073748480
	LD	r5,#1500
	ST.w	[r2+#5],r5
.LM146:
	LD	r3,#1073746688
	ST.w	[r3+#5],r5
.LM147:
	LD	r4,#1073746816
	ST.w	[r4+#5],r5
.LM148:
	MOV	r5,#1
	ST.w	[r2+#12],r5
.LM149:
	ST.w	[r3+#12],r5
.LM150:
	ST.w	[r4+#12],r5
.LM151:
	JMP	lr
	.cfi_endproc
.LFE7:
	.size	pwm_enable, .-pwm_enable
	.section .text$pwm_disable
	.type	.text$pwm_disable$scode_local_8, @function
	.text$pwm_disable$scode_local_8:
	.align	1
	.export	pwm_disable
	.type	pwm_disable, @function
pwm_disable:
.LFB8:
.LM152:
	.cfi_startproc
.LM153:
	MOV	r5,#9
	LD	r4,#1073748480
	ST.w	[r4+#12],r5
.LM154:
	LD	r4,#1073746688
	ST.w	[r4+#12],r5
.LM155:
	LD	r4,#1073746816
	ST.w	[r4+#12],r5
.LM156:
	JMP	lr
	.cfi_endproc
.LFE8:
	.size	pwm_disable, .-pwm_disable
	.section .text$set_pwm_duty
	.type	.text$set_pwm_duty$scode_local_9, @function
	.text$set_pwm_duty$scode_local_9:
	.align	1
	.export	set_pwm_duty
	.type	set_pwm_duty, @function
set_pwm_duty:
.LFB9:
.LM157:
	.cfi_startproc
.LVL116:
	SUB	sp,#4
	.cfi_def_cfa_offset 4
.LVL117:
.LM158:
	ZXT.h	r0,r0
	CMP	r0,#100
	JLS	.L10
	MOV	r0,#100
.LVL118:
.L10:
	LD	r5,#3000
	MULS	r0,r0,r5 ;
	NOP
	MOV	r4,#100
	DIVU	r0,r0,r4
	ZXT.h	r0,r0
.LVL119:
	ST.h	[sp],r0
.LM159:
	LD.h	r3,[sp]
	ZXT.h	r3,r3
	SUB	r3,r5,r3
	LD	r4,#1073748480
	ST.w	[r4+#5],r3
.LM160:
	LD.h	r3,[sp]
	ZXT.h	r3,r3
	SUB	r3,r5,r3
	LD	r4,#1073746688
	ST.w	[r4+#5],r3
.LM161:
	LD.h	r4,[sp]
	ZXT.h	r4,r4
	SUB	r5,r5,r4
	LD	r4,#1073746816
	ST.w	[r4+#5],r5
.LM162:
	ADD	sp,#4
	.cfi_def_cfa_offset 0
	JMP	lr
	.cfi_endproc
.LFE9:
	.size	set_pwm_duty, .-set_pwm_duty
	.section .text$epwm_module_enable
	.type	.text$epwm_module_enable$scode_local_10, @function
	.text$epwm_module_enable$scode_local_10:
	.align	1
	.export	epwm_module_enable
	.type	epwm_module_enable, @function
epwm_module_enable:
.LFB10:
.LM163:
	.cfi_startproc
	PUSH	{r6, lr}
	.cfi_def_cfa_offset 8
.LM164:
	LD	r0,#1073748480
	MOV	r1,#1
	LD	r6,#EPWM_Enable
	LJMP	r6
.LVL120:
.LM165:
	LD	r0,#1073746688
	MOV	r1,#1
	LJMP	r6
.LVL121:
.LM166:
	LD	r0,#1073746816
	MOV	r1,#1
	LJMP	r6
.LVL122:
.LM167:
	POP	r6
	.cfi_def_cfa_offset 4
	POP	lr
	.cfi_def_cfa_offset 0
	JMP	lr
	.cfi_endproc
.LFE10:
	.size	epwm_module_enable, .-epwm_module_enable
	.text	
.Letext0: